ARM GAS  C:\Users\jmspi\AppData\Local\Temp\ccpiYc1c.s 			page 1


   1              		.syntax unified
   2              		.cpu cortex-m3
   3              		.fpu softvfp
   4              		.eabi_attribute 20, 1
   5              		.eabi_attribute 21, 1
   6              		.eabi_attribute 23, 3
   7              		.eabi_attribute 24, 1
   8              		.eabi_attribute 25, 1
   9              		.eabi_attribute 26, 1
  10              		.eabi_attribute 30, 4
  11              		.eabi_attribute 34, 1
  12              		.eabi_attribute 18, 4
  13              		.thumb
  14              		.syntax unified
  15              		.file	"cross.c"
  16              		.text
  17              	.Ltext0:
  18              		.cfi_sections	.debug_frame
  19              		.global	__aeabi_dmul
  20              		.global	__aeabi_dsub
  21              		.section	.text.cross,"ax",%progbits
  22              		.align	1
  23              		.global	cross
  24              		.thumb
  25              		.thumb_func
  26              		.type	cross, %function
  27              	cross:
  28              	.LFB0:
  29              		.file 1 "VFH+\\src\\cross.c"
   1:VFH+\src/cross.c **** /*
   2:VFH+\src/cross.c ****  * Academic License - for use in teaching, academic research, and meeting
   3:VFH+\src/cross.c ****  * course requirements at degree granting institutions only.  Not for
   4:VFH+\src/cross.c ****  * government, commercial, or other organizational use.
   5:VFH+\src/cross.c ****  * File: cross.c
   6:VFH+\src/cross.c ****  *
   7:VFH+\src/cross.c ****  * MATLAB Coder version            : 5.3
   8:VFH+\src/cross.c ****  * C/C++ source code generated on  : 30-Aug-2023 22:51:35
   9:VFH+\src/cross.c ****  */
  10:VFH+\src/cross.c **** 
  11:VFH+\src/cross.c **** /* Include Files */
  12:VFH+\src/cross.c **** #include "cross.h"
  13:VFH+\src/cross.c **** #include "rt_nonfinite.h"
  14:VFH+\src/cross.c **** #include "vfhTest_emxutil.h"
  15:VFH+\src/cross.c **** #include "vfhTest_types.h"
  16:VFH+\src/cross.c **** 
  17:VFH+\src/cross.c **** /* Function Definitions */
  18:VFH+\src/cross.c **** /*
  19:VFH+\src/cross.c ****  * Arguments    : const emxArray_real_T *a
  20:VFH+\src/cross.c ****  *                const emxArray_real_T *b
  21:VFH+\src/cross.c ****  *                emxArray_real_T *c
  22:VFH+\src/cross.c ****  * Return Type  : void
  23:VFH+\src/cross.c ****  */
  24:VFH+\src/cross.c **** void cross(const emxArray_real_T *a, const emxArray_real_T *b,
  25:VFH+\src/cross.c ****            emxArray_real_T *c)
  26:VFH+\src/cross.c **** {
  30              		.loc 1 26 0
  31              		.cfi_startproc
ARM GAS  C:\Users\jmspi\AppData\Local\Temp\ccpiYc1c.s 			page 2


  32              		@ args = 0, pretend = 0, frame = 56
  33              		@ frame_needed = 0, uses_anonymous_args = 0
  34              	.LVL0:
  35 0000 2DE9F04F 		push	{r4, r5, r6, r7, r8, r9, r10, fp, lr}
  36              		.cfi_def_cfa_offset 36
  37              		.cfi_offset 4, -36
  38              		.cfi_offset 5, -32
  39              		.cfi_offset 6, -28
  40              		.cfi_offset 7, -24
  41              		.cfi_offset 8, -20
  42              		.cfi_offset 9, -16
  43              		.cfi_offset 10, -12
  44              		.cfi_offset 11, -8
  45              		.cfi_offset 14, -4
  46 0004 1546     		mov	r5, r2
  47 0006 0646     		mov	r6, r0
  27:VFH+\src/cross.c ****   const double *a_data;
  28:VFH+\src/cross.c ****   const double *b_data;
  29:VFH+\src/cross.c ****   double *c_data;
  30:VFH+\src/cross.c ****   int dim;
  31:VFH+\src/cross.c ****   int i1;
  32:VFH+\src/cross.c ****   int i2;
  33:VFH+\src/cross.c ****   int i3;
  34:VFH+\src/cross.c ****   int iNext;
  35:VFH+\src/cross.c ****   int iStart;
  36:VFH+\src/cross.c ****   int nHigh;
  37:VFH+\src/cross.c ****   int stride;
  38:VFH+\src/cross.c ****   int stridem1;
  39:VFH+\src/cross.c ****   bool exitg1;
  40:VFH+\src/cross.c ****   b_data = b->data;
  41:VFH+\src/cross.c ****   a_data = a->data;
  48              		.loc 1 41 0
  49 0008 0768     		ldr	r7, [r0]
  42:VFH+\src/cross.c ****   nHigh = c->size[0] * c->size[1];
  43:VFH+\src/cross.c ****   c->size[0] = (unsigned short)a->size[0];
  50              		.loc 1 43 0
  51 000a 4068     		ldr	r0, [r0, #4]
  52              	.LVL1:
  42:VFH+\src/cross.c ****   nHigh = c->size[0] * c->size[1];
  53              		.loc 1 42 0
  54 000c 5368     		ldr	r3, [r2, #4]
  55              		.loc 1 43 0
  56 000e 0088     		ldrh	r0, [r0]
  42:VFH+\src/cross.c ****   nHigh = c->size[0] * c->size[1];
  57              		.loc 1 42 0
  58 0010 1A68     		ldr	r2, [r3]
  59              	.LVL2:
  40:VFH+\src/cross.c ****   a_data = a->data;
  60              		.loc 1 40 0
  61 0012 0C68     		ldr	r4, [r1]
  62              	.LVL3:
  42:VFH+\src/cross.c ****   nHigh = c->size[0] * c->size[1];
  63              		.loc 1 42 0
  64 0014 5968     		ldr	r1, [r3, #4]
  65              	.LVL4:
  66              		.loc 1 43 0
  67 0016 1860     		str	r0, [r3]
ARM GAS  C:\Users\jmspi\AppData\Local\Temp\ccpiYc1c.s 			page 3


  44:VFH+\src/cross.c ****   c->size[1] = 3;
  68              		.loc 1 44 0
  69 0018 0320     		movs	r0, #3
  70 001a 5860     		str	r0, [r3, #4]
  45:VFH+\src/cross.c ****   emxEnsureCapacity_real_T(c, nHigh);
  71              		.loc 1 45 0
  72 001c 5143     		muls	r1, r2, r1
  73              	.LVL5:
  26:VFH+\src/cross.c ****   const double *a_data;
  74              		.loc 1 26 0
  75 001e 8FB0     		sub	sp, sp, #60
  76              		.cfi_def_cfa_offset 96
  77              		.loc 1 45 0
  78 0020 2846     		mov	r0, r5
  79 0022 FFF7FEFF 		bl	emxEnsureCapacity_real_T
  80              	.LVL6:
  46:VFH+\src/cross.c ****   c_data = c->data;
  47:VFH+\src/cross.c ****   if (a->size[0] != 0) {
  81              		.loc 1 47 0
  82 0026 7268     		ldr	r2, [r6, #4]
  83 0028 1368     		ldr	r3, [r2]
  84 002a 002B     		cmp	r3, #0
  85 002c 00F0AF80 		beq	.L1
  86              	.LVL7:
  48:VFH+\src/cross.c ****     dim = 0;
  49:VFH+\src/cross.c ****     nHigh = 0;
  50:VFH+\src/cross.c ****     exitg1 = false;
  51:VFH+\src/cross.c ****     while ((!exitg1) && (nHigh < 2)) {
  52:VFH+\src/cross.c ****       if (a->size[nHigh] == 3) {
  87              		.loc 1 52 0
  88 0030 032B     		cmp	r3, #3
  89 0032 06D0     		beq	.L13
  90              	.LVL8:
  91 0034 5268     		ldr	r2, [r2, #4]
  92 0036 032A     		cmp	r2, #3
  93 0038 08D1     		bne	.L14
  94              	.LVL9:
  53:VFH+\src/cross.c ****         dim = nHigh + 1;
  54:VFH+\src/cross.c ****         exitg1 = true;
  55:VFH+\src/cross.c ****       } else {
  56:VFH+\src/cross.c ****         nHigh++;
  57:VFH+\src/cross.c ****       }
  58:VFH+\src/cross.c ****     }
  59:VFH+\src/cross.c ****     if (dim >= 2) {
  60:VFH+\src/cross.c ****       stride = a->size[0];
  61:VFH+\src/cross.c ****       stridem1 = a->size[0] - 1;
  95              		.loc 1 61 0
  96 003a 5A1E     		subs	r2, r3, #1
  97 003c 0492     		str	r2, [sp, #16]
  98              	.LVL10:
  99 003e 0221     		movs	r1, #2
 100 0040 07E0     		b	.L4
 101              	.LVL11:
 102              	.L13:
  62:VFH+\src/cross.c ****     } else {
  63:VFH+\src/cross.c ****       stride = 1;
  64:VFH+\src/cross.c ****       stridem1 = 0;
ARM GAS  C:\Users\jmspi\AppData\Local\Temp\ccpiYc1c.s 			page 4


 103              		.loc 1 64 0
 104 0042 0023     		movs	r3, #0
 105 0044 0121     		movs	r1, #1
 106 0046 0493     		str	r3, [sp, #16]
  63:VFH+\src/cross.c ****       stridem1 = 0;
 107              		.loc 1 63 0
 108 0048 0B46     		mov	r3, r1
 109 004a 02E0     		b	.L4
 110              	.LVL12:
 111              	.L14:
  52:VFH+\src/cross.c ****         dim = nHigh + 1;
 112              		.loc 1 52 0
 113 004c 0021     		movs	r1, #0
 114              		.loc 1 64 0
 115 004e 0491     		str	r1, [sp, #16]
  63:VFH+\src/cross.c ****       stridem1 = 0;
 116              		.loc 1 63 0
 117 0050 0123     		movs	r3, #1
 118              	.LVL13:
 119              	.L4:
  65:VFH+\src/cross.c ****     }
  66:VFH+\src/cross.c ****     iNext = stride * 3;
 120              		.loc 1 66 0
 121 0052 03EB4302 		add	r2, r3, r3, lsl #1
  67:VFH+\src/cross.c ****     if (dim >= 2) {
 122              		.loc 1 67 0
 123 0056 0229     		cmp	r1, #2
  66:VFH+\src/cross.c ****     if (dim >= 2) {
 124              		.loc 1 66 0
 125 0058 0592     		str	r2, [sp, #20]
 126              	.LVL14:
  68:VFH+\src/cross.c ****       nHigh = 1;
  69:VFH+\src/cross.c ****     } else {
  70:VFH+\src/cross.c ****       nHigh = iNext * 2 + 1;
 127              		.loc 1 70 0
 128 005a 1ABF     		itte	ne
 129 005c 5200     		lslne	r2, r2, #1
 130              	.LVL15:
 131 005e 0132     		addne	r2, r2, #1
  68:VFH+\src/cross.c ****       nHigh = 1;
 132              		.loc 1 68 0
 133 0060 0122     		moveq	r2, #1
 134 0062 0392     		str	r2, [sp, #12]
 135              	.LVL16:
 136 0064 2A68     		ldr	r2, [r5]
 137              	.LVL17:
 138 0066 DD00     		lsls	r5, r3, #3
 139              	.LVL18:
 140 0068 1B01     		lsls	r3, r3, #4
 141 006a A2F1080A 		sub	r10, r2, #8
 142 006e 0094     		str	r4, [sp]
 143 0070 0993     		str	r3, [sp, #36]
  71:VFH+\src/cross.c ****     }
  72:VFH+\src/cross.c ****     for (iStart = 1; iNext < 0 ? iStart >= nHigh : iStart <= nHigh;
 144              		.loc 1 72 0
 145 0072 0126     		movs	r6, #1
 146              	.LVL19:
ARM GAS  C:\Users\jmspi\AppData\Local\Temp\ccpiYc1c.s 			page 5


 147              	.L6:
 148              		.loc 1 72 0 is_stmt 0 discriminator 1
 149 0074 059B     		ldr	r3, [sp, #20]
 150 0076 002B     		cmp	r3, #0
 151 0078 039B     		ldr	r3, [sp, #12]
 152 007a 04DA     		bge	.L9
 153              		.loc 1 72 0 discriminator 2
 154 007c 9E42     		cmp	r6, r3
 155 007e B4BF     		ite	lt
 156 0080 0023     		movlt	r3, #0
 157 0082 0123     		movge	r3, #1
 158 0084 03E0     		b	.L10
 159              	.L9:
 160              		.loc 1 72 0 discriminator 3
 161 0086 9E42     		cmp	r6, r3
 162 0088 CCBF     		ite	gt
 163 008a 0023     		movgt	r3, #0
 164 008c 0123     		movle	r3, #1
 165              	.L10:
 166              		.loc 1 72 0 discriminator 5
 167 008e 002B     		cmp	r3, #0
 168 0090 7DD0     		beq	.L1
 169 0092 049B     		ldr	r3, [sp, #16]
 170 0094 009A     		ldr	r2, [sp]
 171 0096 F318     		adds	r3, r6, r3
 172 0098 0D93     		str	r3, [sp, #52]
 173              	.LVL20:
 174 009a 099B     		ldr	r3, [sp, #36]
 175              	.LVL21:
 176 009c 05EB070B 		add	fp, r5, r7
 177 00a0 1344     		add	r3, r3, r2
 178 00a2 0193     		str	r3, [sp, #4]
 179 00a4 0BEB0503 		add	r3, fp, r5
 180 00a8 0A93     		str	r3, [sp, #40]
 181 00aa 019B     		ldr	r3, [sp, #4]
  73:VFH+\src/cross.c ****          iStart += iNext) {
  74:VFH+\src/cross.c ****       dim = iStart + stridem1;
  75:VFH+\src/cross.c ****       for (i1 = iStart; i1 <= dim; i1++) {
 182              		.loc 1 75 0 is_stmt 1
 183 00ac 0296     		str	r6, [sp, #8]
 184 00ae 5B1B     		subs	r3, r3, r5
 185 00b0 0B93     		str	r3, [sp, #44]
 186 00b2 0AEB0503 		add	r3, r10, r5
 187 00b6 0793     		str	r3, [sp, #28]
 188 00b8 EB18     		adds	r3, r5, r3
 189 00ba 0C93     		str	r3, [sp, #48]
 190 00bc 0893     		str	r3, [sp, #32]
 191 00be 0B9B     		ldr	r3, [sp, #44]
 192 00c0 0693     		str	r3, [sp, #24]
 193 00c2 0A9B     		ldr	r3, [sp, #40]
 194 00c4 1C46     		mov	r4, r3
 195              	.LVL22:
 196              	.L7:
 197              		.loc 1 75 0 is_stmt 0 discriminator 1
 198 00c6 029B     		ldr	r3, [sp, #8]
 199 00c8 0D9A     		ldr	r2, [sp, #52]
 200 00ca 9342     		cmp	r3, r2
ARM GAS  C:\Users\jmspi\AppData\Local\Temp\ccpiYc1c.s 			page 6


 201 00cc 52DC     		bgt	.L19
 202              	.LVL23:
  76:VFH+\src/cross.c ****         i2 = (i1 + stride) - 1;
  77:VFH+\src/cross.c ****         i3 = i2 + stride;
  78:VFH+\src/cross.c ****         c_data[i1 - 1] = a_data[i2] * b_data[i3] - a_data[i3] * b_data[i2];
 203              		.loc 1 78 0 is_stmt 1 discriminator 3
 204 00ce DBE90001 		ldrd	r0, [fp]
 205 00d2 019B     		ldr	r3, [sp, #4]
 206 00d4 D3E90023 		ldrd	r2, [r3]
 207 00d8 FFF7FEFF 		bl	__aeabi_dmul
 208              	.LVL24:
 209 00dc 069B     		ldr	r3, [sp, #24]
 210 00de 8046     		mov	r8, r0
 211 00e0 D3E90023 		ldrd	r2, [r3]
 212 00e4 8946     		mov	r9, r1
 213 00e6 D4E90001 		ldrd	r0, [r4]
 214 00ea FFF7FEFF 		bl	__aeabi_dmul
 215              	.LVL25:
 216 00ee 0246     		mov	r2, r0
 217 00f0 0B46     		mov	r3, r1
 218 00f2 4046     		mov	r0, r8
 219 00f4 4946     		mov	r1, r9
 220 00f6 FFF7FEFF 		bl	__aeabi_dsub
 221              	.LVL26:
 222 00fa EAE90201 		strd	r0, [r10, #8]!
  79:VFH+\src/cross.c ****         c_data[i2] = a_data[i3] * b_data[i1 - 1] - a_data[i1 - 1] * b_data[i3];
 223              		.loc 1 79 0 discriminator 3
 224 00fe 009B     		ldr	r3, [sp]
 225 0100 F4E80201 		ldrd	r0, [r4], #8
 226 0104 D3E90023 		ldrd	r2, [r3]
 227 0108 FFF7FEFF 		bl	__aeabi_dmul
 228              	.LVL27:
 229 010c 8946     		mov	r9, r1
 230 010e 0199     		ldr	r1, [sp, #4]
 231 0110 8046     		mov	r8, r0
 232 0112 F1E80223 		ldrd	r2, [r1], #8
 233 0116 0191     		str	r1, [sp, #4]
 234 0118 D7E90001 		ldrd	r0, [r7]
 235 011c FFF7FEFF 		bl	__aeabi_dmul
 236              	.LVL28:
 237 0120 0246     		mov	r2, r0
 238 0122 0B46     		mov	r3, r1
 239 0124 4046     		mov	r0, r8
 240 0126 4946     		mov	r1, r9
 241 0128 FFF7FEFF 		bl	__aeabi_dsub
 242              	.LVL29:
 243 012c 079B     		ldr	r3, [sp, #28]
 244 012e E3E90201 		strd	r0, [r3, #8]!
  80:VFH+\src/cross.c ****         c_data[i3] = a_data[i1 - 1] * b_data[i2] - a_data[i2] * b_data[i1 - 1];
 245              		.loc 1 80 0 discriminator 3
 246 0132 0699     		ldr	r1, [sp, #24]
  79:VFH+\src/cross.c ****         c_data[i2] = a_data[i3] * b_data[i1 - 1] - a_data[i1 - 1] * b_data[i3];
 247              		.loc 1 79 0 discriminator 3
 248 0134 0793     		str	r3, [sp, #28]
 249              		.loc 1 80 0 discriminator 3
 250 0136 F1E80223 		ldrd	r2, [r1], #8
 251 013a 0691     		str	r1, [sp, #24]
ARM GAS  C:\Users\jmspi\AppData\Local\Temp\ccpiYc1c.s 			page 7


 252 013c F7E80201 		ldrd	r0, [r7], #8
 253 0140 FFF7FEFF 		bl	__aeabi_dmul
 254              	.LVL30:
 255 0144 8946     		mov	r9, r1
 256 0146 0099     		ldr	r1, [sp]
 257 0148 8046     		mov	r8, r0
 258 014a F1E80223 		ldrd	r2, [r1], #8
 259 014e 0091     		str	r1, [sp]
 260 0150 FBE80201 		ldrd	r0, [fp], #8
 261 0154 FFF7FEFF 		bl	__aeabi_dmul
 262              	.LVL31:
 263 0158 0B46     		mov	r3, r1
 264 015a 0246     		mov	r2, r0
 265 015c 4946     		mov	r1, r9
 266 015e 4046     		mov	r0, r8
 267 0160 FFF7FEFF 		bl	__aeabi_dsub
 268              	.LVL32:
 269 0164 089B     		ldr	r3, [sp, #32]
 270 0166 E3E90201 		strd	r0, [r3, #8]!
 271 016a 0893     		str	r3, [sp, #32]
  75:VFH+\src/cross.c ****         i2 = (i1 + stride) - 1;
 272              		.loc 1 75 0 discriminator 3
 273 016c 029B     		ldr	r3, [sp, #8]
 274 016e 0133     		adds	r3, r3, #1
 275 0170 0293     		str	r3, [sp, #8]
 276              	.LVL33:
 277 0172 A8E7     		b	.L7
 278              	.L19:
  73:VFH+\src/cross.c ****       dim = iStart + stridem1;
 279              		.loc 1 73 0
 280 0174 059B     		ldr	r3, [sp, #20]
 281              	.LVL34:
 282 0176 099A     		ldr	r2, [sp, #36]
 283 0178 1E44     		add	r6, r6, r3
 284              	.LVL35:
 285 017a 0C9B     		ldr	r3, [sp, #48]
 286 017c 2B44     		add	r3, r3, r5
 287 017e 9A46     		mov	r10, r3
 288 0180 0B9B     		ldr	r3, [sp, #44]
 289 0182 1344     		add	r3, r3, r2
 290 0184 0093     		str	r3, [sp]
 291 0186 0A9B     		ldr	r3, [sp, #40]
 292 0188 2B44     		add	r3, r3, r5
 293 018a 1F46     		mov	r7, r3
 294 018c 72E7     		b	.L6
 295              	.LVL36:
 296              	.L1:
  81:VFH+\src/cross.c ****       }
  82:VFH+\src/cross.c ****     }
  83:VFH+\src/cross.c ****   }
  84:VFH+\src/cross.c **** }
 297              		.loc 1 84 0
 298 018e 0FB0     		add	sp, sp, #60
 299              		.cfi_def_cfa_offset 36
 300              		@ sp needed
 301 0190 BDE8F08F 		pop	{r4, r5, r6, r7, r8, r9, r10, fp, pc}
 302              		.cfi_endproc
ARM GAS  C:\Users\jmspi\AppData\Local\Temp\ccpiYc1c.s 			page 8


 303              	.LFE0:
 304              		.size	cross, .-cross
 305              		.text
 306              	.Letext0:
 307              		.file 2 ".\\VFH+\\include/vfhTest_types.h"
 308              		.file 3 ".\\VFH+\\include/vfhTest_emxutil.h"