ARM GAS  C:\Users\jmspi\AppData\Local\Temp\ccA1RXZg.s 			page 1


   1              		.syntax unified
   2              		.cpu cortex-m3
   3              		.fpu softvfp
   4              		.eabi_attribute 20, 1
   5              		.eabi_attribute 21, 1
   6              		.eabi_attribute 23, 3
   7              		.eabi_attribute 24, 1
   8              		.eabi_attribute 25, 1
   9              		.eabi_attribute 26, 1
  10              		.eabi_attribute 30, 4
  11              		.eabi_attribute 34, 1
  12              		.eabi_attribute 18, 4
  13              		.thumb
  14              		.syntax unified
  15              		.file	"find.c"
  16              		.text
  17              	.Ltext0:
  18              		.cfi_sections	.debug_frame
  19              		.global	__aeabi_dcmpeq
  20              		.section	.text.eml_find,"ax",%progbits
  21              		.align	1
  22              		.global	eml_find
  23              		.thumb
  24              		.thumb_func
  25              		.type	eml_find, %function
  26              	eml_find:
  27              	.LFB0:
  28              		.file 1 "VFH+\\src\\find.c"
   1:VFH+\src/find.c **** /*
   2:VFH+\src/find.c ****  * Academic License - for use in teaching, academic research, and meeting
   3:VFH+\src/find.c ****  * course requirements at degree granting institutions only.  Not for
   4:VFH+\src/find.c ****  * government, commercial, or other organizational use.
   5:VFH+\src/find.c ****  * File: find.c
   6:VFH+\src/find.c ****  *
   7:VFH+\src/find.c ****  * MATLAB Coder version            : 5.3
   8:VFH+\src/find.c ****  * C/C++ source code generated on  : 30-Aug-2023 22:51:35
   9:VFH+\src/find.c ****  */
  10:VFH+\src/find.c **** 
  11:VFH+\src/find.c **** /* Include Files */
  12:VFH+\src/find.c **** #include "find.h"
  13:VFH+\src/find.c **** #include "rt_nonfinite.h"
  14:VFH+\src/find.c **** 
  15:VFH+\src/find.c **** /* Function Definitions */
  16:VFH+\src/find.c **** /*
  17:VFH+\src/find.c ****  * Arguments    : const double x[181]
  18:VFH+\src/find.c ****  *                int i_data[]
  19:VFH+\src/find.c ****  *                int i_size[2]
  20:VFH+\src/find.c ****  * Return Type  : void
  21:VFH+\src/find.c ****  */
  22:VFH+\src/find.c **** void eml_find(const double x[181], int i_data[], int i_size[2])
  23:VFH+\src/find.c **** {
  29              		.loc 1 23 0
  30              		.cfi_startproc
  31              		@ args = 0, pretend = 0, frame = 0
  32              		@ frame_needed = 0, uses_anonymous_args = 0
  33              	.LVL0:
  34 0000 2DE9F041 		push	{r4, r5, r6, r7, r8, lr}
ARM GAS  C:\Users\jmspi\AppData\Local\Temp\ccA1RXZg.s 			page 2


  35              		.cfi_def_cfa_offset 24
  36              		.cfi_offset 4, -24
  37              		.cfi_offset 5, -20
  38              		.cfi_offset 6, -16
  39              		.cfi_offset 7, -12
  40              		.cfi_offset 8, -8
  41              		.cfi_offset 14, -4
  42              		.loc 1 23 0
  43 0004 8846     		mov	r8, r1
  44 0006 1646     		mov	r6, r2
  24:VFH+\src/find.c ****   int idx;
  25:VFH+\src/find.c ****   int ii;
  26:VFH+\src/find.c ****   bool exitg1;
  27:VFH+\src/find.c ****   idx = 0;
  28:VFH+\src/find.c ****   i_size[0] = 1;
  45              		.loc 1 28 0
  46 0008 0125     		movs	r5, #1
  47 000a 1560     		str	r5, [r2]
  48              	.LVL1:
  49 000c A0F10807 		sub	r7, r0, #8
  27:VFH+\src/find.c ****   i_size[0] = 1;
  50              		.loc 1 27 0
  51 0010 0024     		movs	r4, #0
  52              	.LVL2:
  53              	.L6:
  29:VFH+\src/find.c ****   ii = 0;
  30:VFH+\src/find.c ****   exitg1 = false;
  31:VFH+\src/find.c ****   while ((!exitg1) && (ii < 181)) {
  32:VFH+\src/find.c ****     if (x[ii] != 0.0) {
  54              		.loc 1 32 0
  55 0012 0022     		movs	r2, #0
  56 0014 0023     		movs	r3, #0
  57 0016 F7E90201 		ldrd	r0, [r7, #8]!
  58 001a FFF7FEFF 		bl	__aeabi_dcmpeq
  59              	.LVL3:
  60 001e 38B9     		cbnz	r0, .L2
  33:VFH+\src/find.c ****       idx++;
  61              		.loc 1 33 0
  62 0020 0134     		adds	r4, r4, #1
  63              	.LVL4:
  34:VFH+\src/find.c ****       i_data[idx - 1] = ii + 1;
  64              		.loc 1 34 0
  65 0022 04F18043 		add	r3, r4, #1073741824
  66 0026 013B     		subs	r3, r3, #1
  35:VFH+\src/find.c ****       if (idx >= 181) {
  67              		.loc 1 35 0
  68 0028 B42C     		cmp	r4, #180
  34:VFH+\src/find.c ****       i_data[idx - 1] = ii + 1;
  69              		.loc 1 34 0
  70 002a 48F82350 		str	r5, [r8, r3, lsl #2]
  71              		.loc 1 35 0
  72 002e 02DC     		bgt	.L4
  73              	.L2:
  74              	.LVL5:
  75 0030 0135     		adds	r5, r5, #1
  76              	.LVL6:
  31:VFH+\src/find.c ****     if (x[ii] != 0.0) {
ARM GAS  C:\Users\jmspi\AppData\Local\Temp\ccA1RXZg.s 			page 3


  77              		.loc 1 31 0
  78 0032 B62D     		cmp	r5, #182
  79 0034 EDD1     		bne	.L6
  80              	.LVL7:
  81              	.L4:
  36:VFH+\src/find.c ****         exitg1 = true;
  37:VFH+\src/find.c ****       } else {
  38:VFH+\src/find.c ****         ii++;
  39:VFH+\src/find.c ****       }
  40:VFH+\src/find.c ****     } else {
  41:VFH+\src/find.c ****       ii++;
  42:VFH+\src/find.c ****     }
  43:VFH+\src/find.c ****   }
  44:VFH+\src/find.c ****   if (1 > idx) {
  45:VFH+\src/find.c ****     i_size[1] = 0;
  46:VFH+\src/find.c ****   } else {
  47:VFH+\src/find.c ****     i_size[1] = idx;
  82              		.loc 1 47 0
  83 0036 7460     		str	r4, [r6, #4]
  48:VFH+\src/find.c ****   }
  49:VFH+\src/find.c **** }
  84              		.loc 1 49 0
  85 0038 BDE8F081 		pop	{r4, r5, r6, r7, r8, pc}
  86              		.cfi_endproc
  87              	.LFE0:
  88              		.size	eml_find, .-eml_find
  89              		.text
  90              	.Letext0: