ARM GAS  C:\Users\jmspi\AppData\Local\Temp\ccfUwy0I.s 			page 1


   1              		.syntax unified
   2              		.cpu cortex-m3
   3              		.fpu softvfp
   4              		.eabi_attribute 20, 1
   5              		.eabi_attribute 21, 1
   6              		.eabi_attribute 23, 3
   7              		.eabi_attribute 24, 1
   8              		.eabi_attribute 25, 1
   9              		.eabi_attribute 26, 1
  10              		.eabi_attribute 30, 6
  11              		.eabi_attribute 34, 1
  12              		.eabi_attribute 18, 4
  13              		.thumb
  14              		.syntax unified
  15              		.file	"helper.c"
  16              		.text
  17              	.Ltext0:
  18              		.cfi_sections	.debug_frame
  19              		.global	__aeabi_ddiv
  20              		.global	__aeabi_dmul
  21              		.global	__aeabi_dsub
  22              		.section	.text.calculate_angle_modulo,"ax",%progbits
  23              		.align	2
  24              		.global	calculate_angle_modulo
  25              		.thumb
  26              		.thumb_func
  27              		.type	calculate_angle_modulo, %function
  28              	calculate_angle_modulo:
  29              	.LFB0:
  30              		.file 1 "..\\Helper\\helper.c"
   1:..\Helper/helper.c **** /*
   2:..\Helper/helper.c **** ** Helper Functions
   3:..\Helper/helper.c **** **
   4:..\Helper/helper.c **** ** Host all generic helper functions
   5:..\Helper/helper.c **** */
   6:..\Helper/helper.c **** 
   7:..\Helper/helper.c **** /*===========================================================================*/
   8:..\Helper/helper.c **** #include <stdlib.h>
   9:..\Helper/helper.c **** #include <math.h>
  10:..\Helper/helper.c **** #include "helper.h"
  11:..\Helper/helper.c **** 
  12:..\Helper/helper.c **** long double calculate_angle_modulo(long double angle) {
  31              		.loc 1 12 0
  32              		.cfi_startproc
  33              		@ args = 0, pretend = 0, frame = 8
  34              		@ frame_needed = 1, uses_anonymous_args = 0
  35 0000 90B5     		push	{r4, r7, lr}
  36              		.cfi_def_cfa_offset 12
  37              		.cfi_offset 4, -12
  38              		.cfi_offset 7, -8
  39              		.cfi_offset 14, -4
  40 0002 83B0     		sub	sp, sp, #12
  41              		.cfi_def_cfa_offset 24
  42 0004 00AF     		add	r7, sp, #0
  43              		.cfi_def_cfa_register 7
  44 0006 C7E90001 		strd	r0, [r7]
  13:..\Helper/helper.c ****     return angle - M_TWOPI * floor(angle / M_TWOPI);  
ARM GAS  C:\Users\jmspi\AppData\Local\Temp\ccfUwy0I.s 			page 2


  45              		.loc 1 13 0
  46 000a 11A3     		adr	r3, .L3
  47 000c D3E90023 		ldrd	r2, [r3]
  48 0010 D7E90001 		ldrd	r0, [r7]
  49 0014 FFF7FEFF 		bl	__aeabi_ddiv
  50 0018 0346     		mov	r3, r0
  51 001a 0C46     		mov	r4, r1
  52 001c 1846     		mov	r0, r3
  53 001e 2146     		mov	r1, r4
  54 0020 FFF7FEFF 		bl	floor
  55 0024 0AA3     		adr	r3, .L3
  56 0026 D3E90023 		ldrd	r2, [r3]
  57 002a FFF7FEFF 		bl	__aeabi_dmul
  58 002e 0346     		mov	r3, r0
  59 0030 0C46     		mov	r4, r1
  60 0032 1A46     		mov	r2, r3
  61 0034 2346     		mov	r3, r4
  62 0036 D7E90001 		ldrd	r0, [r7]
  63 003a FFF7FEFF 		bl	__aeabi_dsub
  64 003e 0346     		mov	r3, r0
  65 0040 0C46     		mov	r4, r1
  14:..\Helper/helper.c **** }
  66              		.loc 1 14 0
  67 0042 1846     		mov	r0, r3
  68 0044 2146     		mov	r1, r4
  69 0046 0C37     		adds	r7, r7, #12
  70              		.cfi_def_cfa_offset 12
  71 0048 BD46     		mov	sp, r7
  72              		.cfi_def_cfa_register 13
  73              		@ sp needed
  74 004a 90BD     		pop	{r4, r7, pc}
  75              	.L4:
  76 004c AFF30080 		.align	3
  77              	.L3:
  78 0050 182D4454 		.word	1413754136
  79 0054 FB211940 		.word	1075388923
  80              		.cfi_endproc
  81              	.LFE0:
  82              		.size	calculate_angle_modulo, .-calculate_angle_modulo
  83              		.section	.text.angle_clamp,"ax",%progbits
  84              		.align	2
  85              		.global	angle_clamp
  86              		.thumb
  87              		.thumb_func
  88              		.type	angle_clamp, %function
  89              	angle_clamp:
  90              	.LFB1:
  15:..\Helper/helper.c **** 
  16:..\Helper/helper.c **** int angle_clamp(int angle) {
  91              		.loc 1 16 0
  92              		.cfi_startproc
  93              		@ args = 0, pretend = 0, frame = 8
  94              		@ frame_needed = 1, uses_anonymous_args = 0
  95              		@ link register save eliminated.
  96 0000 80B4     		push	{r7}
  97              		.cfi_def_cfa_offset 4
  98              		.cfi_offset 7, -4
ARM GAS  C:\Users\jmspi\AppData\Local\Temp\ccfUwy0I.s 			page 3


  99 0002 83B0     		sub	sp, sp, #12
 100              		.cfi_def_cfa_offset 16
 101 0004 00AF     		add	r7, sp, #0
 102              		.cfi_def_cfa_register 7
 103 0006 7860     		str	r0, [r7, #4]
  17:..\Helper/helper.c ****     angle = angle % 360;
 104              		.loc 1 17 0
 105 0008 7B68     		ldr	r3, [r7, #4]
 106 000a 0D4A     		ldr	r2, .L8
 107 000c 83FB0212 		smull	r1, r2, r3, r2
 108 0010 1A44     		add	r2, r2, r3
 109 0012 1112     		asrs	r1, r2, #8
 110 0014 DA17     		asrs	r2, r3, #31
 111 0016 8A1A     		subs	r2, r1, r2
 112 0018 4FF4B471 		mov	r1, #360
 113 001c 01FB02F2 		mul	r2, r1, r2
 114 0020 9B1A     		subs	r3, r3, r2
 115 0022 7B60     		str	r3, [r7, #4]
  18:..\Helper/helper.c ****     if (angle < 0) {angle += 360;}
 116              		.loc 1 18 0
 117 0024 7B68     		ldr	r3, [r7, #4]
 118 0026 002B     		cmp	r3, #0
 119 0028 03DA     		bge	.L6
 120              		.loc 1 18 0 is_stmt 0 discriminator 1
 121 002a 7B68     		ldr	r3, [r7, #4]
 122 002c 03F5B473 		add	r3, r3, #360
 123 0030 7B60     		str	r3, [r7, #4]
 124              	.L6:
  19:..\Helper/helper.c ****     return angle;
 125              		.loc 1 19 0 is_stmt 1
 126 0032 7B68     		ldr	r3, [r7, #4]
  20:..\Helper/helper.c **** }
 127              		.loc 1 20 0
 128 0034 1846     		mov	r0, r3
 129 0036 0C37     		adds	r7, r7, #12
 130              		.cfi_def_cfa_offset 4
 131 0038 BD46     		mov	sp, r7
 132              		.cfi_def_cfa_register 13
 133              		@ sp needed
 134 003a 80BC     		pop	{r7}
 135              		.cfi_restore 7
 136              		.cfi_def_cfa_offset 0
 137 003c 7047     		bx	lr
 138              	.L9:
 139 003e 00BF     		.align	2
 140              	.L8:
 141 0040 B7600BB6 		.word	-1240768329
 142              		.cfi_endproc
 143              	.LFE1:
 144              		.size	angle_clamp, .-angle_clamp
 145              		.global	__aeabi_dadd
 146              		.section	.text.calculate_distance_from_goal,"ax",%progbits
 147              		.align	2
 148              		.global	calculate_distance_from_goal
 149              		.thumb
 150              		.thumb_func
 151              		.type	calculate_distance_from_goal, %function
ARM GAS  C:\Users\jmspi\AppData\Local\Temp\ccfUwy0I.s 			page 4


 152              	calculate_distance_from_goal:
 153              	.LFB2:
  21:..\Helper/helper.c **** 
  22:..\Helper/helper.c **** double calculate_distance_from_goal(double pos_x, double pos_y, double goal_x, double goal_y) {
 154              		.loc 1 22 0
 155              		.cfi_startproc
 156              		@ args = 16, pretend = 0, frame = 24
 157              		@ frame_needed = 1, uses_anonymous_args = 0
 158 0000 B0B5     		push	{r4, r5, r7, lr}
 159              		.cfi_def_cfa_offset 16
 160              		.cfi_offset 4, -16
 161              		.cfi_offset 5, -12
 162              		.cfi_offset 7, -8
 163              		.cfi_offset 14, -4
 164 0002 86B0     		sub	sp, sp, #24
 165              		.cfi_def_cfa_offset 40
 166 0004 00AF     		add	r7, sp, #0
 167              		.cfi_def_cfa_register 7
 168 0006 C7E90201 		strd	r0, [r7, #8]
 169 000a C7E90023 		strd	r2, [r7]
  23:..\Helper/helper.c ****   // Calculate distance between current position and end goal
  24:..\Helper/helper.c ****   double distance = sqrt( pow( goal_x - pos_x, 2 ) + pow( goal_y - pos_y, 2 ) ); 
 170              		.loc 1 24 0
 171 000e D7E90223 		ldrd	r2, [r7, #8]
 172 0012 D7E90A01 		ldrd	r0, [r7, #40]
 173 0016 FFF7FEFF 		bl	__aeabi_dsub
 174 001a 0346     		mov	r3, r0
 175 001c 0C46     		mov	r4, r1
 176 001e 1846     		mov	r0, r3
 177 0020 2146     		mov	r1, r4
 178 0022 4FF00002 		mov	r2, #0
 179 0026 4FF08043 		mov	r3, #1073741824
 180 002a FFF7FEFF 		bl	pow
 181 002e 0446     		mov	r4, r0
 182 0030 0D46     		mov	r5, r1
 183 0032 D7E90023 		ldrd	r2, [r7]
 184 0036 D7E90C01 		ldrd	r0, [r7, #48]
 185 003a FFF7FEFF 		bl	__aeabi_dsub
 186 003e 0246     		mov	r2, r0
 187 0040 0B46     		mov	r3, r1
 188 0042 1046     		mov	r0, r2
 189 0044 1946     		mov	r1, r3
 190 0046 4FF00002 		mov	r2, #0
 191 004a 4FF08043 		mov	r3, #1073741824
 192 004e FFF7FEFF 		bl	pow
 193 0052 0246     		mov	r2, r0
 194 0054 0B46     		mov	r3, r1
 195 0056 2046     		mov	r0, r4
 196 0058 2946     		mov	r1, r5
 197 005a FFF7FEFF 		bl	__aeabi_dadd
 198 005e 0346     		mov	r3, r0
 199 0060 0C46     		mov	r4, r1
 200 0062 1846     		mov	r0, r3
 201 0064 2146     		mov	r1, r4
 202 0066 FFF7FEFF 		bl	sqrt
 203 006a C7E90401 		strd	r0, [r7, #16]
  25:..\Helper/helper.c **** 
ARM GAS  C:\Users\jmspi\AppData\Local\Temp\ccfUwy0I.s 			page 5


  26:..\Helper/helper.c ****   return distance;
 204              		.loc 1 26 0
 205 006e D7E90434 		ldrd	r3, [r7, #16]
  27:..\Helper/helper.c **** }
 206              		.loc 1 27 0
 207 0072 1846     		mov	r0, r3
 208 0074 2146     		mov	r1, r4
 209 0076 1837     		adds	r7, r7, #24
 210              		.cfi_def_cfa_offset 16
 211 0078 BD46     		mov	sp, r7
 212              		.cfi_def_cfa_register 13
 213              		@ sp needed
 214 007a B0BD     		pop	{r4, r5, r7, pc}
 215              		.cfi_endproc
 216              	.LFE2:
 217              		.size	calculate_distance_from_goal, .-calculate_distance_from_goal
 218              		.global	__aeabi_dcmplt
 219              		.section	.text.calculate_goal_angle,"ax",%progbits
 220              		.align	2
 221              		.global	calculate_goal_angle
 222              		.thumb
 223              		.thumb_func
 224              		.type	calculate_goal_angle, %function
 225              	calculate_goal_angle:
 226              	.LFB3:
  28:..\Helper/helper.c **** 
  29:..\Helper/helper.c **** double calculate_goal_angle(double pos_x, double pos_y, double pos_yaw, double goal_x, double goal_
 227              		.loc 1 29 0
 228              		.cfi_startproc
 229              		@ args = 24, pretend = 0, frame = 56
 230              		@ frame_needed = 1, uses_anonymous_args = 0
 231 0000 B0B5     		push	{r4, r5, r7, lr}
 232              		.cfi_def_cfa_offset 16
 233              		.cfi_offset 4, -16
 234              		.cfi_offset 5, -12
 235              		.cfi_offset 7, -8
 236              		.cfi_offset 14, -4
 237 0002 8EB0     		sub	sp, sp, #56
 238              		.cfi_def_cfa_offset 72
 239 0004 00AF     		add	r7, sp, #0
 240              		.cfi_def_cfa_register 7
 241 0006 C7E90201 		strd	r0, [r7, #8]
 242 000a C7E90023 		strd	r2, [r7]
  30:..\Helper/helper.c ****   // Calculate the angle from current position to goal
  31:..\Helper/helper.c ****   double goal_angle = atan2(goal_y - pos_y, goal_x - pos_x);
 243              		.loc 1 31 0
 244 000e D7E90023 		ldrd	r2, [r7]
 245 0012 D7E91601 		ldrd	r0, [r7, #88]
 246 0016 FFF7FEFF 		bl	__aeabi_dsub
 247 001a 0346     		mov	r3, r0
 248 001c 0C46     		mov	r4, r1
 249 001e 2546     		mov	r5, r4
 250 0020 1C46     		mov	r4, r3
 251 0022 D7E90223 		ldrd	r2, [r7, #8]
 252 0026 D7E91401 		ldrd	r0, [r7, #80]
 253 002a FFF7FEFF 		bl	__aeabi_dsub
 254 002e 0246     		mov	r2, r0
ARM GAS  C:\Users\jmspi\AppData\Local\Temp\ccfUwy0I.s 			page 6


 255 0030 0B46     		mov	r3, r1
 256 0032 2046     		mov	r0, r4
 257 0034 2946     		mov	r1, r5
 258 0036 FFF7FEFF 		bl	atan2
 259 003a C7E90A01 		strd	r0, [r7, #40]
  32:..\Helper/helper.c **** 
  33:..\Helper/helper.c ****   // Calculate robot rotation to point towards goal with respect to current heading
  34:..\Helper/helper.c ****   double rotation;
  35:..\Helper/helper.c ****   double alpha_rot = goal_angle - pos_yaw;
 260              		.loc 1 35 0
 261 003e D7E91223 		ldrd	r2, [r7, #72]
 262 0042 D7E90A01 		ldrd	r0, [r7, #40]
 263 0046 FFF7FEFF 		bl	__aeabi_dsub
 264 004a 0346     		mov	r3, r0
 265 004c 0C46     		mov	r4, r1
 266 004e C7E90834 		strd	r3, [r7, #32]
  36:..\Helper/helper.c ****   double beta_rot = alpha_rot + 2 * M_PI;
 267              		.loc 1 36 0
 268 0052 2FA3     		adr	r3, .L27
 269 0054 D3E90023 		ldrd	r2, [r3]
 270 0058 D7E90801 		ldrd	r0, [r7, #32]
 271 005c FFF7FEFF 		bl	__aeabi_dadd
 272 0060 0346     		mov	r3, r0
 273 0062 0C46     		mov	r4, r1
 274 0064 C7E90634 		strd	r3, [r7, #24]
  37:..\Helper/helper.c ****   double gamma_rot = alpha_rot - 2 * M_PI;
 275              		.loc 1 37 0
 276 0068 29A3     		adr	r3, .L27
 277 006a D3E90023 		ldrd	r2, [r3]
 278 006e D7E90801 		ldrd	r0, [r7, #32]
 279 0072 FFF7FEFF 		bl	__aeabi_dsub
 280 0076 0346     		mov	r3, r0
 281 0078 0C46     		mov	r4, r1
 282 007a C7E90434 		strd	r3, [r7, #16]
  38:..\Helper/helper.c **** 
  39:..\Helper/helper.c ****   // Find shortest rotation required
  40:..\Helper/helper.c ****   if (alpha_rot < beta_rot && alpha_rot < gamma_rot) {
 283              		.loc 1 40 0
 284 007e D7E90623 		ldrd	r2, [r7, #24]
 285 0082 D7E90801 		ldrd	r0, [r7, #32]
 286 0086 FFF7FEFF 		bl	__aeabi_dcmplt
 287 008a 0346     		mov	r3, r0
 288 008c 002B     		cmp	r3, #0
 289 008e 0DD0     		beq	.L13
 290              		.loc 1 40 0 is_stmt 0 discriminator 1
 291 0090 D7E90423 		ldrd	r2, [r7, #16]
 292 0094 D7E90801 		ldrd	r0, [r7, #32]
 293 0098 FFF7FEFF 		bl	__aeabi_dcmplt
 294 009c 0346     		mov	r3, r0
 295 009e 002B     		cmp	r3, #0
 296 00a0 04D0     		beq	.L13
  41:..\Helper/helper.c ****     rotation = alpha_rot;
 297              		.loc 1 41 0 is_stmt 1
 298 00a2 D7E90834 		ldrd	r3, [r7, #32]
 299 00a6 C7E90C34 		strd	r3, [r7, #48]
 300 00aa 11E0     		b	.L16
 301              	.L13:
ARM GAS  C:\Users\jmspi\AppData\Local\Temp\ccfUwy0I.s 			page 7


  42:..\Helper/helper.c ****   } else if (beta_rot < gamma_rot) {
 302              		.loc 1 42 0
 303 00ac D7E90423 		ldrd	r2, [r7, #16]
 304 00b0 D7E90601 		ldrd	r0, [r7, #24]
 305 00b4 FFF7FEFF 		bl	__aeabi_dcmplt
 306 00b8 0346     		mov	r3, r0
 307 00ba 002B     		cmp	r3, #0
 308 00bc 04D0     		beq	.L26
  43:..\Helper/helper.c ****     rotation = beta_rot;
 309              		.loc 1 43 0
 310 00be D7E90634 		ldrd	r3, [r7, #24]
 311 00c2 C7E90C34 		strd	r3, [r7, #48]
 312 00c6 03E0     		b	.L16
 313              	.L26:
  44:..\Helper/helper.c ****   } else {
  45:..\Helper/helper.c ****     rotation = gamma_rot;
 314              		.loc 1 45 0
 315 00c8 D7E90434 		ldrd	r3, [r7, #16]
 316 00cc C7E90C34 		strd	r3, [r7, #48]
 317              	.L16:
  46:..\Helper/helper.c ****   }
  47:..\Helper/helper.c **** 
  48:..\Helper/helper.c ****   if (rotation < 0) {
 318              		.loc 1 48 0
 319 00d0 4FF00002 		mov	r2, #0
 320 00d4 4FF00003 		mov	r3, #0
 321 00d8 D7E90C01 		ldrd	r0, [r7, #48]
 322 00dc FFF7FEFF 		bl	__aeabi_dcmplt
 323 00e0 0346     		mov	r3, r0
 324 00e2 002B     		cmp	r3, #0
 325 00e4 0AD0     		beq	.L19
  49:..\Helper/helper.c ****     rotation = rotation + 2 * M_PI;
 326              		.loc 1 49 0
 327 00e6 0AA3     		adr	r3, .L27
 328 00e8 D3E90023 		ldrd	r2, [r3]
 329 00ec D7E90C01 		ldrd	r0, [r7, #48]
 330 00f0 FFF7FEFF 		bl	__aeabi_dadd
 331 00f4 0346     		mov	r3, r0
 332 00f6 0C46     		mov	r4, r1
 333 00f8 C7E90C34 		strd	r3, [r7, #48]
 334              	.L19:
  50:..\Helper/helper.c ****   }
  51:..\Helper/helper.c **** 
  52:..\Helper/helper.c ****   return rotation;
 335              		.loc 1 52 0
 336 00fc D7E90C34 		ldrd	r3, [r7, #48]
  53:..\Helper/helper.c ****   
  54:..\Helper/helper.c **** }
 337              		.loc 1 54 0
 338 0100 1846     		mov	r0, r3
 339 0102 2146     		mov	r1, r4
 340 0104 3837     		adds	r7, r7, #56
 341              		.cfi_def_cfa_offset 16
 342 0106 BD46     		mov	sp, r7
 343              		.cfi_def_cfa_register 13
 344              		@ sp needed
 345 0108 B0BD     		pop	{r4, r5, r7, pc}
ARM GAS  C:\Users\jmspi\AppData\Local\Temp\ccfUwy0I.s 			page 8


 346              	.L28:
 347 010a 00BFAFF3 		.align	3
 347      0080
 348              	.L27:
 349 0110 182D4454 		.word	1413754136
 350 0114 FB211940 		.word	1075388923
 351              		.cfi_endproc
 352              	.LFE3:
 353              		.size	calculate_goal_angle, .-calculate_goal_angle
 354              		.global	__aeabi_d2iz
 355              		.section	.text.detect_obstacle,"ax",%progbits
 356              		.align	2
 357              		.global	detect_obstacle
 358              		.thumb
 359              		.thumb_func
 360              		.type	detect_obstacle, %function
 361              	detect_obstacle:
 362              	.LFB4:
  55:..\Helper/helper.c **** 
  56:..\Helper/helper.c **** int detect_obstacle(double angle, double distance, double pos_x, double pos_y, double pos_theta, do
 363              		.loc 1 56 0
 364              		.cfi_startproc
 365              		@ args = 32, pretend = 0, frame = 48
 366              		@ frame_needed = 1, uses_anonymous_args = 0
 367 0000 B0B5     		push	{r4, r5, r7, lr}
 368              		.cfi_def_cfa_offset 16
 369              		.cfi_offset 4, -16
 370              		.cfi_offset 5, -12
 371              		.cfi_offset 7, -8
 372              		.cfi_offset 14, -4
 373 0002 8CB0     		sub	sp, sp, #48
 374              		.cfi_def_cfa_offset 64
 375 0004 00AF     		add	r7, sp, #0
 376              		.cfi_def_cfa_register 7
 377 0006 C7E90201 		strd	r0, [r7, #8]
 378 000a C7E90023 		strd	r2, [r7]
  57:..\Helper/helper.c ****     // Checks if detected item is obstacle or wall
  58:..\Helper/helper.c ****     int obstacles;
  59:..\Helper/helper.c ****     double rad = M_PI / 180;
 379              		.loc 1 59 0
 380 000e 66A4     		adr	r4, .L42
 381 0010 D4E90034 		ldrd	r3, [r4]
 382 0014 C7E90634 		strd	r3, [r7, #24]
  60:..\Helper/helper.c ****     
  61:..\Helper/helper.c ****     // Distance between wall and robot based on robot orientation
  62:..\Helper/helper.c ****     double max_distance;;
  63:..\Helper/helper.c ****     
  64:..\Helper/helper.c ****     // Find if obstacle in specified angle
  65:..\Helper/helper.c ****     double angle_modulo;
  66:..\Helper/helper.c ****     switch ((int) angle) {
 383              		.loc 1 66 0
 384 0018 D7E90201 		ldrd	r0, [r7, #8]
 385 001c FFF7FEFF 		bl	__aeabi_d2iz
 386 0020 0346     		mov	r3, r0
 387 0022 5A2B     		cmp	r3, #90
 388 0024 26D0     		beq	.L31
 389 0026 B3F5877F 		cmp	r3, #270
ARM GAS  C:\Users\jmspi\AppData\Local\Temp\ccfUwy0I.s 			page 9


 390 002a 54D0     		beq	.L32
 391 002c 002B     		cmp	r3, #0
 392 002e 7AD1     		bne	.L40
  67:..\Helper/helper.c ****         case 0:
  68:..\Helper/helper.c ****             max_distance = (ARENA - pos_x) / cos(pos_theta) - threshold;
 393              		.loc 1 68 0
 394 0030 D7E91023 		ldrd	r2, [r7, #64]
 395 0034 4FF00000 		mov	r0, #0
 396 0038 6149     		ldr	r1, .L42+24
 397 003a FFF7FEFF 		bl	__aeabi_dsub
 398 003e 0346     		mov	r3, r0
 399 0040 0C46     		mov	r4, r1
 400 0042 2546     		mov	r5, r4
 401 0044 1C46     		mov	r4, r3
 402 0046 D7E91401 		ldrd	r0, [r7, #80]
 403 004a FFF7FEFF 		bl	cos
 404 004e 0246     		mov	r2, r0
 405 0050 0B46     		mov	r3, r1
 406 0052 2046     		mov	r0, r4
 407 0054 2946     		mov	r1, r5
 408 0056 FFF7FEFF 		bl	__aeabi_ddiv
 409 005a 0346     		mov	r3, r0
 410 005c 0C46     		mov	r4, r1
 411 005e 1846     		mov	r0, r3
 412 0060 2146     		mov	r1, r4
 413 0062 D7E91623 		ldrd	r2, [r7, #88]
 414 0066 FFF7FEFF 		bl	__aeabi_dsub
 415 006a 0346     		mov	r3, r0
 416 006c 0C46     		mov	r4, r1
 417 006e C7E90834 		strd	r3, [r7, #32]
  69:..\Helper/helper.c ****             break;
 418              		.loc 1 69 0
 419 0072 86E0     		b	.L34
 420              	.L31:
  70:..\Helper/helper.c ****             
  71:..\Helper/helper.c ****         case 90:
  72:..\Helper/helper.c ****             angle_modulo = calculate_angle_modulo(M_PI / 2 + pos_theta);
 421              		.loc 1 72 0
 422 0074 4EA3     		adr	r3, .L42+8
 423 0076 D3E90023 		ldrd	r2, [r3]
 424 007a D7E91401 		ldrd	r0, [r7, #80]
 425 007e FFF7FEFF 		bl	__aeabi_dadd
 426 0082 0346     		mov	r3, r0
 427 0084 0C46     		mov	r4, r1
 428 0086 1846     		mov	r0, r3
 429 0088 2146     		mov	r1, r4
 430 008a FFF7FEFF 		bl	calculate_angle_modulo
 431 008e C7E90401 		strd	r0, [r7, #16]
  73:..\Helper/helper.c ****             max_distance = (ARENA - pos_y) / sin(angle_modulo) - threshold;
 432              		.loc 1 73 0
 433 0092 D7E91223 		ldrd	r2, [r7, #72]
 434 0096 4FF00000 		mov	r0, #0
 435 009a 4949     		ldr	r1, .L42+24
 436 009c FFF7FEFF 		bl	__aeabi_dsub
 437 00a0 0346     		mov	r3, r0
 438 00a2 0C46     		mov	r4, r1
 439 00a4 2546     		mov	r5, r4
ARM GAS  C:\Users\jmspi\AppData\Local\Temp\ccfUwy0I.s 			page 10


 440 00a6 1C46     		mov	r4, r3
 441 00a8 D7E90401 		ldrd	r0, [r7, #16]
 442 00ac FFF7FEFF 		bl	sin
 443 00b0 0246     		mov	r2, r0
 444 00b2 0B46     		mov	r3, r1
 445 00b4 2046     		mov	r0, r4
 446 00b6 2946     		mov	r1, r5
 447 00b8 FFF7FEFF 		bl	__aeabi_ddiv
 448 00bc 0346     		mov	r3, r0
 449 00be 0C46     		mov	r4, r1
 450 00c0 1846     		mov	r0, r3
 451 00c2 2146     		mov	r1, r4
 452 00c4 D7E91623 		ldrd	r2, [r7, #88]
 453 00c8 FFF7FEFF 		bl	__aeabi_dsub
 454 00cc 0346     		mov	r3, r0
 455 00ce 0C46     		mov	r4, r1
 456 00d0 C7E90834 		strd	r3, [r7, #32]
  74:..\Helper/helper.c ****             break;
 457              		.loc 1 74 0
 458 00d4 55E0     		b	.L34
 459              	.L32:
  75:..\Helper/helper.c ****             
  76:..\Helper/helper.c ****             
  77:..\Helper/helper.c ****         case 270:
  78:..\Helper/helper.c ****             angle_modulo = calculate_angle_modulo(3*M_PI / 2 + pos_theta);
 460              		.loc 1 78 0
 461 00d6 38A3     		adr	r3, .L42+16
 462 00d8 D3E90023 		ldrd	r2, [r3]
 463 00dc D7E91401 		ldrd	r0, [r7, #80]
 464 00e0 FFF7FEFF 		bl	__aeabi_dadd
 465 00e4 0346     		mov	r3, r0
 466 00e6 0C46     		mov	r4, r1
 467 00e8 1846     		mov	r0, r3
 468 00ea 2146     		mov	r1, r4
 469 00ec FFF7FEFF 		bl	calculate_angle_modulo
 470 00f0 C7E90401 		strd	r0, [r7, #16]
  79:..\Helper/helper.c ****             max_distance = (pos_y) / sin(angle_modulo) - threshold;
 471              		.loc 1 79 0
 472 00f4 D7E90401 		ldrd	r0, [r7, #16]
 473 00f8 FFF7FEFF 		bl	sin
 474 00fc 0346     		mov	r3, r0
 475 00fe 0C46     		mov	r4, r1
 476 0100 1A46     		mov	r2, r3
 477 0102 2346     		mov	r3, r4
 478 0104 D7E91201 		ldrd	r0, [r7, #72]
 479 0108 FFF7FEFF 		bl	__aeabi_ddiv
 480 010c 0346     		mov	r3, r0
 481 010e 0C46     		mov	r4, r1
 482 0110 1846     		mov	r0, r3
 483 0112 2146     		mov	r1, r4
 484 0114 D7E91623 		ldrd	r2, [r7, #88]
 485 0118 FFF7FEFF 		bl	__aeabi_dsub
 486 011c 0346     		mov	r3, r0
 487 011e 0C46     		mov	r4, r1
 488 0120 C7E90834 		strd	r3, [r7, #32]
  80:..\Helper/helper.c ****             break;
 489              		.loc 1 80 0
ARM GAS  C:\Users\jmspi\AppData\Local\Temp\ccfUwy0I.s 			page 11


 490 0124 2DE0     		b	.L34
 491              	.L40:
  81:..\Helper/helper.c ****             
  82:..\Helper/helper.c ****         default:
  83:..\Helper/helper.c ****             angle_modulo = calculate_angle_modulo(angle * rad + pos_theta);
 492              		.loc 1 83 0
 493 0126 D7E90623 		ldrd	r2, [r7, #24]
 494 012a D7E90201 		ldrd	r0, [r7, #8]
 495 012e FFF7FEFF 		bl	__aeabi_dmul
 496 0132 0346     		mov	r3, r0
 497 0134 0C46     		mov	r4, r1
 498 0136 1846     		mov	r0, r3
 499 0138 2146     		mov	r1, r4
 500 013a D7E91423 		ldrd	r2, [r7, #80]
 501 013e FFF7FEFF 		bl	__aeabi_dadd
 502 0142 0346     		mov	r3, r0
 503 0144 0C46     		mov	r4, r1
 504 0146 1846     		mov	r0, r3
 505 0148 2146     		mov	r1, r4
 506 014a FFF7FEFF 		bl	calculate_angle_modulo
 507 014e C7E90401 		strd	r0, [r7, #16]
  84:..\Helper/helper.c ****             max_distance = pos_x / cos(angle_modulo) - threshold;
 508              		.loc 1 84 0
 509 0152 D7E90401 		ldrd	r0, [r7, #16]
 510 0156 FFF7FEFF 		bl	cos
 511 015a 0346     		mov	r3, r0
 512 015c 0C46     		mov	r4, r1
 513 015e 1A46     		mov	r2, r3
 514 0160 2346     		mov	r3, r4
 515 0162 D7E91001 		ldrd	r0, [r7, #64]
 516 0166 FFF7FEFF 		bl	__aeabi_ddiv
 517 016a 0346     		mov	r3, r0
 518 016c 0C46     		mov	r4, r1
 519 016e 1846     		mov	r0, r3
 520 0170 2146     		mov	r1, r4
 521 0172 D7E91623 		ldrd	r2, [r7, #88]
 522 0176 FFF7FEFF 		bl	__aeabi_dsub
 523 017a 0346     		mov	r3, r0
 524 017c 0C46     		mov	r4, r1
 525 017e C7E90834 		strd	r3, [r7, #32]
 526              	.L34:
  85:..\Helper/helper.c ****     }
  86:..\Helper/helper.c ****     
  87:..\Helper/helper.c ****     if (distance < max_distance) {
 527              		.loc 1 87 0
 528 0182 D7E90823 		ldrd	r2, [r7, #32]
 529 0186 D7E90001 		ldrd	r0, [r7]
 530 018a FFF7FEFF 		bl	__aeabi_dcmplt
 531 018e 0346     		mov	r3, r0
 532 0190 002B     		cmp	r3, #0
 533 0192 02D0     		beq	.L41
  88:..\Helper/helper.c ****         obstacles = 1;
 534              		.loc 1 88 0
 535 0194 0123     		movs	r3, #1
 536 0196 FB62     		str	r3, [r7, #44]
 537 0198 01E0     		b	.L37
 538              	.L41:
ARM GAS  C:\Users\jmspi\AppData\Local\Temp\ccfUwy0I.s 			page 12


  89:..\Helper/helper.c ****     } else {
  90:..\Helper/helper.c ****         obstacles = 0;
 539              		.loc 1 90 0
 540 019a 0023     		movs	r3, #0
 541 019c FB62     		str	r3, [r7, #44]
 542              	.L37:
  91:..\Helper/helper.c ****     }
  92:..\Helper/helper.c ****     
  93:..\Helper/helper.c **** 
  94:..\Helper/helper.c ****   return obstacles;
 543              		.loc 1 94 0
 544 019e FB6A     		ldr	r3, [r7, #44]
  95:..\Helper/helper.c **** }...
 545              		.loc 1 95 0
 546 01a0 1846     		mov	r0, r3
 547 01a2 3037     		adds	r7, r7, #48
 548              		.cfi_def_cfa_offset 16
 549 01a4 BD46     		mov	sp, r7
 550              		.cfi_def_cfa_register 13
 551              		@ sp needed
 552 01a6 B0BD     		pop	{r4, r5, r7, pc}
 553              	.L43:
 554              		.align	3
 555              	.L42:
 556 01a8 399D52A2 		.word	-1571644103
 557 01ac 46DF913F 		.word	1066524486
 558 01b0 182D4454 		.word	1413754136
 559 01b4 FB21F93F 		.word	1073291771
 560 01b8 D221337F 		.word	2134057426
 561 01bc 7CD91240 		.word	1074977148
 562 01c0 00005E40 		.word	1079902208
 563              		.cfi_endproc
 564              	.LFE4:
 565              		.size	detect_obstacle, .-detect_obstacle
 566              		.text
 567              	.Letext0:
 568              		.section	.debug_info,"",%progbits
 569              	.Ldebug_info0:
 570 0000 84020000 		.4byte	0x284
 571 0004 0400     		.2byte	0x4
 572 0006 00000000 		.4byte	.Ldebug_abbrev0
 573 000a 04       		.byte	0x4
 574 000b 01       		.uleb128 0x1
 575 000c 00000000 		.4byte	.LASF35
 576 0010 0C       		.byte	0xc
 577 0011 7D020000 		.4byte	.LASF36
 578 0015 3D010000 		.4byte	.LASF37
 579 0019 00000000 		.4byte	.Ldebug_ranges0+0
 580 001d 00000000 		.4byte	0
 581 0021 00000000 		.4byte	.Ldebug_line0
 582 0025 02       		.uleb128 0x2
 583 0026 04       		.byte	0x4
 584 0027 07       		.byte	0x7
 585 0028 D7010000 		.4byte	.LASF0
 586 002c 03       		.uleb128 0x3
 587 002d 04       		.byte	0x4
 588 002e 05       		.byte	0x5
ARM GAS  C:\Users\jmspi\AppData\Local\Temp\ccfUwy0I.s 			page 13


 589 002f 696E7400 		.ascii	"int\000"
 590 0033 02       		.uleb128 0x2
 591 0034 08       		.byte	0x8
 592 0035 05       		.byte	0x5
 593 0036 2D020000 		.4byte	.LASF1
 594 003a 02       		.uleb128 0x2
 595 003b 08       		.byte	0x8
 596 003c 04       		.byte	0x4
 597 003d 5E020000 		.4byte	.LASF2
 598 0041 02       		.uleb128 0x2
 599 0042 01       		.byte	0x1
 600 0043 06       		.byte	0x6
 601 0044 71020000 		.4byte	.LASF3
 602 0048 02       		.uleb128 0x2
 603 0049 01       		.byte	0x1
 604 004a 08       		.byte	0x8
 605 004b 8E010000 		.4byte	.LASF4
 606 004f 02       		.uleb128 0x2
 607 0050 02       		.byte	0x2
 608 0051 05       		.byte	0x5
 609 0052 40020000 		.4byte	.LASF5
 610 0056 02       		.uleb128 0x2
 611 0057 02       		.byte	0x2
 612 0058 07       		.byte	0x7
 613 0059 24010000 		.4byte	.LASF6
 614 005d 02       		.uleb128 0x2
 615 005e 04       		.byte	0x4
 616 005f 05       		.byte	0x5
 617 0060 55020000 		.4byte	.LASF7
 618 0064 02       		.uleb128 0x2
 619 0065 04       		.byte	0x4
 620 0066 07       		.byte	0x7
 621 0067 09010000 		.4byte	.LASF8
 622 006b 02       		.uleb128 0x2
 623 006c 08       		.byte	0x8
 624 006d 07       		.byte	0x7
 625 006e ED010000 		.4byte	.LASF9
 626 0072 02       		.uleb128 0x2
 627 0073 04       		.byte	0x4
 628 0074 07       		.byte	0x7
 629 0075 1E020000 		.4byte	.LASF10
 630 0079 02       		.uleb128 0x2
 631 007a 01       		.byte	0x1
 632 007b 08       		.byte	0x8
 633 007c 3B020000 		.4byte	.LASF11
 634 0080 02       		.uleb128 0x2
 635 0081 08       		.byte	0x8
 636 0082 04       		.byte	0x4
 637 0083 9C010000 		.4byte	.LASF12
 638 0087 02       		.uleb128 0x2
 639 0088 04       		.byte	0x4
 640 0089 04       		.byte	0x4
 641 008a DA000000 		.4byte	.LASF13
 642 008e 04       		.uleb128 0x4
 643 008f 95000000 		.4byte	.LASF14
 644 0093 01       		.byte	0x1
 645 0094 0C       		.byte	0xc
ARM GAS  C:\Users\jmspi\AppData\Local\Temp\ccfUwy0I.s 			page 14


 646 0095 3A000000 		.4byte	0x3a
 647 0099 00000000 		.4byte	.LFB0
 648 009d 58000000 		.4byte	.LFE0-.LFB0
 649 00a1 01       		.uleb128 0x1
 650 00a2 9C       		.byte	0x9c
 651 00a3 B6000000 		.4byte	0xb6
 652 00a7 05       		.uleb128 0x5
 653 00a8 37010000 		.4byte	.LASF16
 654 00ac 01       		.byte	0x1
 655 00ad 0C       		.byte	0xc
 656 00ae 3A000000 		.4byte	0x3a
 657 00b2 02       		.uleb128 0x2
 658 00b3 91       		.byte	0x91
 659 00b4 68       		.sleb128 -24
 660 00b5 00       		.byte	0
 661 00b6 06       		.uleb128 0x6
 662 00b7 82010000 		.4byte	.LASF15
 663 00bb 01       		.byte	0x1
 664 00bc 10       		.byte	0x10
 665 00bd 2C000000 		.4byte	0x2c
 666 00c1 00000000 		.4byte	.LFB1
 667 00c5 44000000 		.4byte	.LFE1-.LFB1
 668 00c9 01       		.uleb128 0x1
 669 00ca 9C       		.byte	0x9c
 670 00cb DE000000 		.4byte	0xde
 671 00cf 05       		.uleb128 0x5
 672 00d0 37010000 		.4byte	.LASF16
 673 00d4 01       		.byte	0x1
 674 00d5 10       		.byte	0x10
 675 00d6 2C000000 		.4byte	0x2c
 676 00da 02       		.uleb128 0x2
 677 00db 91       		.byte	0x91
 678 00dc 74       		.sleb128 -12
 679 00dd 00       		.byte	0
 680 00de 04       		.uleb128 0x4
 681 00df BA010000 		.4byte	.LASF17
 682 00e3 01       		.byte	0x1
 683 00e4 16       		.byte	0x16
 684 00e5 80000000 		.4byte	0x80
 685 00e9 00000000 		.4byte	.LFB2
 686 00ed 7C000000 		.4byte	.LFE2-.LFB2
 687 00f1 01       		.uleb128 0x1
 688 00f2 9C       		.byte	0x9c
 689 00f3 3E010000 		.4byte	0x13e
 690 00f7 05       		.uleb128 0x5
 691 00f8 27020000 		.4byte	.LASF18
 692 00fc 01       		.byte	0x1
 693 00fd 16       		.byte	0x16
 694 00fe 80000000 		.4byte	0x80
 695 0102 02       		.uleb128 0x2
 696 0103 91       		.byte	0x91
 697 0104 60       		.sleb128 -32
 698 0105 05       		.uleb128 0x5
 699 0106 AC000000 		.4byte	.LASF19
 700 010a 01       		.byte	0x1
 701 010b 16       		.byte	0x16
 702 010c 80000000 		.4byte	0x80
ARM GAS  C:\Users\jmspi\AppData\Local\Temp\ccfUwy0I.s 			page 15


 703 0110 02       		.uleb128 0x2
 704 0111 91       		.byte	0x91
 705 0112 58       		.sleb128 -40
 706 0113 05       		.uleb128 0x5
 707 0114 8E000000 		.4byte	.LASF20
 708 0118 01       		.byte	0x1
 709 0119 16       		.byte	0x16
 710 011a 80000000 		.4byte	0x80
 711 011e 02       		.uleb128 0x2
 712 011f 91       		.byte	0x91
 713 0120 00       		.sleb128 0
 714 0121 05       		.uleb128 0x5
 715 0122 6A020000 		.4byte	.LASF21
 716 0126 01       		.byte	0x1
 717 0127 16       		.byte	0x16
 718 0128 80000000 		.4byte	0x80
 719 012c 02       		.uleb128 0x2
 720 012d 91       		.byte	0x91
 721 012e 08       		.sleb128 8
 722 012f 07       		.uleb128 0x7
 723 0130 C4000000 		.4byte	.LASF24
 724 0134 01       		.byte	0x1
 725 0135 18       		.byte	0x18
 726 0136 80000000 		.4byte	0x80
 727 013a 02       		.uleb128 0x2
 728 013b 91       		.byte	0x91
 729 013c 68       		.sleb128 -24
 730 013d 00       		.byte	0
 731 013e 04       		.uleb128 0x4
 732 013f EA000000 		.4byte	.LASF22
 733 0143 01       		.byte	0x1
 734 0144 1D       		.byte	0x1d
 735 0145 80000000 		.4byte	0x80
 736 0149 00000000 		.4byte	.LFB3
 737 014d 18010000 		.4byte	.LFE3-.LFB3
 738 0151 01       		.uleb128 0x1
 739 0152 9C       		.byte	0x9c
 740 0153 E5010000 		.4byte	0x1e5
 741 0157 05       		.uleb128 0x5
 742 0158 27020000 		.4byte	.LASF18
 743 015c 01       		.byte	0x1
 744 015d 1D       		.byte	0x1d
 745 015e 80000000 		.4byte	0x80
 746 0162 02       		.uleb128 0x2
 747 0163 91       		.byte	0x91
 748 0164 40       		.sleb128 -64
 749 0165 05       		.uleb128 0x5
 750 0166 AC000000 		.4byte	.LASF19
 751 016a 01       		.byte	0x1
 752 016b 1D       		.byte	0x1d
 753 016c 80000000 		.4byte	0x80
 754 0170 03       		.uleb128 0x3
 755 0171 91       		.byte	0x91
 756 0172 B87F     		.sleb128 -72
 757 0174 05       		.uleb128 0x5
 758 0175 BC000000 		.4byte	.LASF23
 759 0179 01       		.byte	0x1
ARM GAS  C:\Users\jmspi\AppData\Local\Temp\ccfUwy0I.s 			page 16


 760 017a 1D       		.byte	0x1d
 761 017b 80000000 		.4byte	0x80
 762 017f 02       		.uleb128 0x2
 763 0180 91       		.byte	0x91
 764 0181 00       		.sleb128 0
 765 0182 05       		.uleb128 0x5
 766 0183 8E000000 		.4byte	.LASF20
 767 0187 01       		.byte	0x1
 768 0188 1D       		.byte	0x1d
 769 0189 80000000 		.4byte	0x80
 770 018d 02       		.uleb128 0x2
 771 018e 91       		.byte	0x91
 772 018f 08       		.sleb128 8
 773 0190 05       		.uleb128 0x5
 774 0191 6A020000 		.4byte	.LASF21
 775 0195 01       		.byte	0x1
 776 0196 1D       		.byte	0x1d
 777 0197 80000000 		.4byte	0x80
 778 019b 02       		.uleb128 0x2
 779 019c 91       		.byte	0x91
 780 019d 10       		.sleb128 16
 781 019e 07       		.uleb128 0x7
 782 019f 4A020000 		.4byte	.LASF25
 783 01a3 01       		.byte	0x1
 784 01a4 1F       		.byte	0x1f
 785 01a5 80000000 		.4byte	0x80
 786 01a9 02       		.uleb128 0x2
 787 01aa 91       		.byte	0x91
 788 01ab 60       		.sleb128 -32
 789 01ac 07       		.uleb128 0x7
 790 01ad E4010000 		.4byte	.LASF26
 791 01b1 01       		.byte	0x1
 792 01b2 22       		.byte	0x22
 793 01b3 80000000 		.4byte	0x80
 794 01b7 02       		.uleb128 0x2
 795 01b8 91       		.byte	0x91
 796 01b9 68       		.sleb128 -24
 797 01ba 07       		.uleb128 0x7
 798 01bb A3010000 		.4byte	.LASF27
 799 01bf 01       		.byte	0x1
 800 01c0 23       		.byte	0x23
 801 01c1 80000000 		.4byte	0x80
 802 01c5 02       		.uleb128 0x2
 803 01c6 91       		.byte	0x91
 804 01c7 58       		.sleb128 -40
 805 01c8 07       		.uleb128 0x7
 806 01c9 1B010000 		.4byte	.LASF28
 807 01cd 01       		.byte	0x1
 808 01ce 24       		.byte	0x24
 809 01cf 80000000 		.4byte	0x80
 810 01d3 02       		.uleb128 0x2
 811 01d4 91       		.byte	0x91
 812 01d5 50       		.sleb128 -48
 813 01d6 07       		.uleb128 0x7
 814 01d7 B2000000 		.4byte	.LASF29
 815 01db 01       		.byte	0x1
 816 01dc 25       		.byte	0x25
ARM GAS  C:\Users\jmspi\AppData\Local\Temp\ccfUwy0I.s 			page 17


 817 01dd 80000000 		.4byte	0x80
 818 01e1 02       		.uleb128 0x2
 819 01e2 91       		.byte	0x91
 820 01e3 48       		.sleb128 -56
 821 01e4 00       		.byte	0
 822 01e5 08       		.uleb128 0x8
 823 01e6 0E020000 		.4byte	.LASF38
 824 01ea 01       		.byte	0x1
 825 01eb 38       		.byte	0x38
 826 01ec 2C000000 		.4byte	0x2c
 827 01f0 00000000 		.4byte	.LFB4
 828 01f4 C4010000 		.4byte	.LFE4-.LFB4
 829 01f8 01       		.uleb128 0x1
 830 01f9 9C       		.byte	0x9c
 831 01fa 05       		.uleb128 0x5
 832 01fb 37010000 		.4byte	.LASF16
 833 01ff 01       		.byte	0x1
 834 0200 38       		.byte	0x38
 835 0201 80000000 		.4byte	0x80
 836 0205 02       		.uleb128 0x2
 837 0206 91       		.byte	0x91
 838 0207 48       		.sleb128 -56
 839 0208 05       		.uleb128 0x5
 840 0209 C4000000 		.4byte	.LASF24
 841 020d 01       		.byte	0x1
 842 020e 38       		.byte	0x38
 843 020f 80000000 		.4byte	0x80
 844 0213 02       		.uleb128 0x2
 845 0214 91       		.byte	0x91
 846 0215 40       		.sleb128 -64
 847 0216 05       		.uleb128 0x5
 848 0217 27020000 		.4byte	.LASF18
 849 021b 01       		.byte	0x1
 850 021c 38       		.byte	0x38
 851 021d 80000000 		.4byte	0x80
 852 0221 02       		.uleb128 0x2
 853 0222 91       		.byte	0x91
 854 0223 00       		.sleb128 0
 855 0224 05       		.uleb128 0x5
 856 0225 AC000000 		.4byte	.LASF19
 857 0229 01       		.byte	0x1
 858 022a 38       		.byte	0x38
 859 022b 80000000 		.4byte	0x80
 860 022f 02       		.uleb128 0x2
 861 0230 91       		.byte	0x91
 862 0231 08       		.sleb128 8
 863 0232 05       		.uleb128 0x5
 864 0233 04020000 		.4byte	.LASF30
 865 0237 01       		.byte	0x1
 866 0238 38       		.byte	0x38
 867 0239 80000000 		.4byte	0x80
 868 023d 02       		.uleb128 0x2
 869 023e 91       		.byte	0x91
 870 023f 10       		.sleb128 16
 871 0240 05       		.uleb128 0x5
 872 0241 FF000000 		.4byte	.LASF31
 873 0245 01       		.byte	0x1
ARM GAS  C:\Users\jmspi\AppData\Local\Temp\ccfUwy0I.s 			page 18


 874 0246 38       		.byte	0x38
 875 0247 80000000 		.4byte	0x80
 876 024b 02       		.uleb128 0x2
 877 024c 91       		.byte	0x91
 878 024d 18       		.sleb128 24
 879 024e 07       		.uleb128 0x7
 880 024f E0000000 		.4byte	.LASF32
 881 0253 01       		.byte	0x1
 882 0254 3A       		.byte	0x3a
 883 0255 2C000000 		.4byte	0x2c
 884 0259 02       		.uleb128 0x2
 885 025a 91       		.byte	0x91
 886 025b 6C       		.sleb128 -20
 887 025c 09       		.uleb128 0x9
 888 025d 72616400 		.ascii	"rad\000"
 889 0261 01       		.byte	0x1
 890 0262 3B       		.byte	0x3b
 891 0263 80000000 		.4byte	0x80
 892 0267 02       		.uleb128 0x2
 893 0268 91       		.byte	0x91
 894 0269 58       		.sleb128 -40
 895 026a 07       		.uleb128 0x7
 896 026b AD010000 		.4byte	.LASF33
 897 026f 01       		.byte	0x1
 898 0270 3E       		.byte	0x3e
 899 0271 80000000 		.4byte	0x80
 900 0275 02       		.uleb128 0x2
 901 0276 91       		.byte	0x91
 902 0277 60       		.sleb128 -32
 903 0278 07       		.uleb128 0x7
 904 0279 CD000000 		.4byte	.LASF34
 905 027d 01       		.byte	0x1
 906 027e 41       		.byte	0x41
 907 027f 80000000 		.4byte	0x80
 908 0283 02       		.uleb128 0x2
 909 0284 91       		.byte	0x91
 910 0285 50       		.sleb128 -48
 911 0286 00       		.byte	0
 912 0287 00       		.byte	0
 913              		.section	.debug_abbrev,"",%progbits
 914              	.Ldebug_abbrev0:
 915 0000 01       		.uleb128 0x1
 916 0001 11       		.uleb128 0x11
 917 0002 01       		.byte	0x1
 918 0003 25       		.uleb128 0x25
 919 0004 0E       		.uleb128 0xe
 920 0005 13       		.uleb128 0x13
 921 0006 0B       		.uleb128 0xb
 922 0007 03       		.uleb128 0x3
 923 0008 0E       		.uleb128 0xe
 924 0009 1B       		.uleb128 0x1b
 925 000a 0E       		.uleb128 0xe
 926 000b 55       		.uleb128 0x55
 927 000c 17       		.uleb128 0x17
 928 000d 11       		.uleb128 0x11
 929 000e 01       		.uleb128 0x1
 930 000f 10       		.uleb128 0x10
ARM GAS  C:\Users\jmspi\AppData\Local\Temp\ccfUwy0I.s 			page 19


 931 0010 17       		.uleb128 0x17
 932 0011 00       		.byte	0
 933 0012 00       		.byte	0
 934 0013 02       		.uleb128 0x2
 935 0014 24       		.uleb128 0x24
 936 0015 00       		.byte	0
 937 0016 0B       		.uleb128 0xb
 938 0017 0B       		.uleb128 0xb
 939 0018 3E       		.uleb128 0x3e
 940 0019 0B       		.uleb128 0xb
 941 001a 03       		.uleb128 0x3
 942 001b 0E       		.uleb128 0xe
 943 001c 00       		.byte	0
 944 001d 00       		.byte	0
 945 001e 03       		.uleb128 0x3
 946 001f 24       		.uleb128 0x24
 947 0020 00       		.byte	0
 948 0021 0B       		.uleb128 0xb
 949 0022 0B       		.uleb128 0xb
 950 0023 3E       		.uleb128 0x3e
 951 0024 0B       		.uleb128 0xb
 952 0025 03       		.uleb128 0x3
 953 0026 08       		.uleb128 0x8
 954 0027 00       		.byte	0
 955 0028 00       		.byte	0
 956 0029 04       		.uleb128 0x4
 957 002a 2E       		.uleb128 0x2e
 958 002b 01       		.byte	0x1
 959 002c 3F       		.uleb128 0x3f
 960 002d 19       		.uleb128 0x19
 961 002e 03       		.uleb128 0x3
 962 002f 0E       		.uleb128 0xe
 963 0030 3A       		.uleb128 0x3a
 964 0031 0B       		.uleb128 0xb
 965 0032 3B       		.uleb128 0x3b
 966 0033 0B       		.uleb128 0xb
 967 0034 27       		.uleb128 0x27
 968 0035 19       		.uleb128 0x19
 969 0036 49       		.uleb128 0x49
 970 0037 13       		.uleb128 0x13
 971 0038 11       		.uleb128 0x11
 972 0039 01       		.uleb128 0x1
 973 003a 12       		.uleb128 0x12
 974 003b 06       		.uleb128 0x6
 975 003c 40       		.uleb128 0x40
 976 003d 18       		.uleb128 0x18
 977 003e 9642     		.uleb128 0x2116
 978 0040 19       		.uleb128 0x19
 979 0041 01       		.uleb128 0x1
 980 0042 13       		.uleb128 0x13
 981 0043 00       		.byte	0
 982 0044 00       		.byte	0
 983 0045 05       		.uleb128 0x5
 984 0046 05       		.uleb128 0x5
 985 0047 00       		.byte	0
 986 0048 03       		.uleb128 0x3
 987 0049 0E       		.uleb128 0xe
ARM GAS  C:\Users\jmspi\AppData\Local\Temp\ccfUwy0I.s 			page 20


 988 004a 3A       		.uleb128 0x3a
 989 004b 0B       		.uleb128 0xb
 990 004c 3B       		.uleb128 0x3b
 991 004d 0B       		.uleb128 0xb
 992 004e 49       		.uleb128 0x49
 993 004f 13       		.uleb128 0x13
 994 0050 02       		.uleb128 0x2
 995 0051 18       		.uleb128 0x18
 996 0052 00       		.byte	0
 997 0053 00       		.byte	0
 998 0054 06       		.uleb128 0x6
 999 0055 2E       		.uleb128 0x2e
 1000 0056 01       		.byte	0x1
 1001 0057 3F       		.uleb128 0x3f
 1002 0058 19       		.uleb128 0x19
 1003 0059 03       		.uleb128 0x3
 1004 005a 0E       		.uleb128 0xe
 1005 005b 3A       		.uleb128 0x3a
 1006 005c 0B       		.uleb128 0xb
 1007 005d 3B       		.uleb128 0x3b
 1008 005e 0B       		.uleb128 0xb
 1009 005f 27       		.uleb128 0x27
 1010 0060 19       		.uleb128 0x19
 1011 0061 49       		.uleb128 0x49
 1012 0062 13       		.uleb128 0x13
 1013 0063 11       		.uleb128 0x11
 1014 0064 01       		.uleb128 0x1
 1015 0065 12       		.uleb128 0x12
 1016 0066 06       		.uleb128 0x6
 1017 0067 40       		.uleb128 0x40
 1018 0068 18       		.uleb128 0x18
 1019 0069 9742     		.uleb128 0x2117
 1020 006b 19       		.uleb128 0x19
 1021 006c 01       		.uleb128 0x1
 1022 006d 13       		.uleb128 0x13
 1023 006e 00       		.byte	0
 1024 006f 00       		.byte	0
 1025 0070 07       		.uleb128 0x7
 1026 0071 34       		.uleb128 0x34
 1027 0072 00       		.byte	0
 1028 0073 03       		.uleb128 0x3
 1029 0074 0E       		.uleb128 0xe
 1030 0075 3A       		.uleb128 0x3a
 1031 0076 0B       		.uleb128 0xb
 1032 0077 3B       		.uleb128 0x3b
 1033 0078 0B       		.uleb128 0xb
 1034 0079 49       		.uleb128 0x49
 1035 007a 13       		.uleb128 0x13
 1036 007b 02       		.uleb128 0x2
 1037 007c 18       		.uleb128 0x18
 1038 007d 00       		.byte	0
 1039 007e 00       		.byte	0
 1040 007f 08       		.uleb128 0x8
 1041 0080 2E       		.uleb128 0x2e
 1042 0081 01       		.byte	0x1
 1043 0082 3F       		.uleb128 0x3f
 1044 0083 19       		.uleb128 0x19
ARM GAS  C:\Users\jmspi\AppData\Local\Temp\ccfUwy0I.s 			page 21


 1045 0084 03       		.uleb128 0x3
 1046 0085 0E       		.uleb128 0xe
 1047 0086 3A       		.uleb128 0x3a
 1048 0087 0B       		.uleb128 0xb
 1049 0088 3B       		.uleb128 0x3b
 1050 0089 0B       		.uleb128 0xb
 1051 008a 27       		.uleb128 0x27
 1052 008b 19       		.uleb128 0x19
 1053 008c 49       		.uleb128 0x49
 1054 008d 13       		.uleb128 0x13
 1055 008e 11       		.uleb128 0x11
 1056 008f 01       		.uleb128 0x1
 1057 0090 12       		.uleb128 0x12
 1058 0091 06       		.uleb128 0x6
 1059 0092 40       		.uleb128 0x40
 1060 0093 18       		.uleb128 0x18
 1061 0094 9642     		.uleb128 0x2116
 1062 0096 19       		.uleb128 0x19
 1063 0097 00       		.byte	0
 1064 0098 00       		.byte	0
 1065 0099 09       		.uleb128 0x9
 1066 009a 34       		.uleb128 0x34
 1067 009b 00       		.byte	0
 1068 009c 03       		.uleb128 0x3
 1069 009d 08       		.uleb128 0x8
 1070 009e 3A       		.uleb128 0x3a
 1071 009f 0B       		.uleb128 0xb
 1072 00a0 3B       		.uleb128 0x3b
 1073 00a1 0B       		.uleb128 0xb
 1074 00a2 49       		.uleb128 0x49
 1075 00a3 13       		.uleb128 0x13
 1076 00a4 02       		.uleb128 0x2
 1077 00a5 18       		.uleb128 0x18
 1078 00a6 00       		.byte	0
 1079 00a7 00       		.byte	0
 1080 00a8 00       		.byte	0
 1081              		.section	.debug_aranges,"",%progbits
 1082 0000 3C000000 		.4byte	0x3c
 1083 0004 0200     		.2byte	0x2
 1084 0006 00000000 		.4byte	.Ldebug_info0
 1085 000a 04       		.byte	0x4
 1086 000b 00       		.byte	0
 1087 000c 0000     		.2byte	0
 1088 000e 0000     		.2byte	0
 1089 0010 00000000 		.4byte	.LFB0
 1090 0014 58000000 		.4byte	.LFE0-.LFB0
 1091 0018 00000000 		.4byte	.LFB1
 1092 001c 44000000 		.4byte	.LFE1-.LFB1
 1093 0020 00000000 		.4byte	.LFB2
 1094 0024 7C000000 		.4byte	.LFE2-.LFB2
 1095 0028 00000000 		.4byte	.LFB3
 1096 002c 18010000 		.4byte	.LFE3-.LFB3
 1097 0030 00000000 		.4byte	.LFB4
 1098 0034 C4010000 		.4byte	.LFE4-.LFB4
 1099 0038 00000000 		.4byte	0
 1100 003c 00000000 		.4byte	0
 1101              		.section	.debug_ranges,"",%progbits
ARM GAS  C:\Users\jmspi\AppData\Local\Temp\ccfUwy0I.s 			page 22


 1102              	.Ldebug_ranges0:
 1103 0000 00000000 		.4byte	.LFB0
 1104 0004 58000000 		.4byte	.LFE0
 1105 0008 00000000 		.4byte	.LFB1
 1106 000c 44000000 		.4byte	.LFE1
 1107 0010 00000000 		.4byte	.LFB2
 1108 0014 7C000000 		.4byte	.LFE2
 1109 0018 00000000 		.4byte	.LFB3
 1110 001c 18010000 		.4byte	.LFE3
 1111 0020 00000000 		.4byte	.LFB4
 1112 0024 C4010000 		.4byte	.LFE4
 1113 0028 00000000 		.4byte	0
 1114 002c 00000000 		.4byte	0
 1115              		.section	.debug_line,"",%progbits
 1116              	.Ldebug_line0:
 1117 0000 B8000000 		.section	.debug_str,"MS",%progbits,1
 1117      02002900 
 1117      00000201 
 1117      FB0E0D00 
 1117      01010101 
 1118              	.LASF35:
 1119 0000 474E5520 		.ascii	"GNU C11 5.4.1 20160609 (release) [ARM/embedded-5-br"
 1119      43313120 
 1119      352E342E 
 1119      31203230 
 1119      31363036 
 1120 0033 616E6368 		.ascii	"anch revision 237715] -mcpu=cortex-m3 -mthumb -g -O"
 1120      20726576 
 1120      6973696F 
 1120      6E203233 
 1120      37373135 
 1121 0066 30202D66 		.ascii	"0 -ffunction-sections -ffat-lto-objects\000"
 1121      66756E63 
 1121      74696F6E 
 1121      2D736563 
 1121      74696F6E 
 1122              	.LASF20:
 1123 008e 676F616C 		.ascii	"goal_x\000"
 1123      5F7800
 1124              	.LASF14:
 1125 0095 63616C63 		.ascii	"calculate_angle_modulo\000"
 1125      756C6174 
 1125      655F616E 
 1125      676C655F 
 1125      6D6F6475 
 1126              	.LASF19:
 1127 00ac 706F735F 		.ascii	"pos_y\000"
 1127      7900
 1128              	.LASF29:
 1129 00b2 67616D6D 		.ascii	"gamma_rot\000"
 1129      615F726F 
 1129      7400
 1130              	.LASF23:
 1131 00bc 706F735F 		.ascii	"pos_yaw\000"
 1131      79617700 
 1132              	.LASF24:
 1133 00c4 64697374 		.ascii	"distance\000"
ARM GAS  C:\Users\jmspi\AppData\Local\Temp\ccfUwy0I.s 			page 23


 1133      616E6365 
 1133      00
 1134              	.LASF34:
 1135 00cd 616E676C 		.ascii	"angle_modulo\000"
 1135      655F6D6F 
 1135      64756C6F 
 1135      00
 1136              	.LASF13:
 1137 00da 666C6F61 		.ascii	"float\000"
 1137      7400
 1138              	.LASF32:
 1139 00e0 6F627374 		.ascii	"obstacles\000"
 1139      61636C65 
 1139      7300
 1140              	.LASF22:
 1141 00ea 63616C63 		.ascii	"calculate_goal_angle\000"
 1141      756C6174 
 1141      655F676F 
 1141      616C5F61 
 1141      6E676C65 
 1142              	.LASF31:
 1143 00ff 74687265 		.ascii	"threshold\000"
 1143      73686F6C 
 1143      6400
 1144              	.LASF8:
 1145 0109 6C6F6E67 		.ascii	"long unsigned int\000"
 1145      20756E73 
 1145      69676E65 
 1145      6420696E 
 1145      7400
 1146              	.LASF28:
 1147 011b 62657461 		.ascii	"beta_rot\000"
 1147      5F726F74 
 1147      00
 1148              	.LASF6:
 1149 0124 73686F72 		.ascii	"short unsigned int\000"
 1149      7420756E 
 1149      7369676E 
 1149      65642069 
 1149      6E7400
 1150              	.LASF16:
 1151 0137 616E676C 		.ascii	"angle\000"
 1151      6500
 1152              	.LASF37:
 1153 013d 433A5C55 		.ascii	"C:\\Users\\jmspi\\OneDrive\\Documents\\GitHub\\ECE4"
 1153      73657273 
 1153      5C6A6D73 
 1153      70695C4F 
 1153      6E654472 
 1154 016a 3139315C 		.ascii	"191\\DeliveryRobot.cydsn\000"
 1154      44656C69 
 1154      76657279 
 1154      526F626F 
 1154      742E6379 
 1155              	.LASF15:
 1156 0182 616E676C 		.ascii	"angle_clamp\000"
 1156      655F636C 
ARM GAS  C:\Users\jmspi\AppData\Local\Temp\ccfUwy0I.s 			page 24


 1156      616D7000 
 1157              	.LASF4:
 1158 018e 756E7369 		.ascii	"unsigned char\000"
 1158      676E6564 
 1158      20636861 
 1158      7200
 1159              	.LASF12:
 1160 019c 646F7562 		.ascii	"double\000"
 1160      6C6500
 1161              	.LASF27:
 1162 01a3 616C7068 		.ascii	"alpha_rot\000"
 1162      615F726F 
 1162      7400
 1163              	.LASF33:
 1164 01ad 6D61785F 		.ascii	"max_distance\000"
 1164      64697374 
 1164      616E6365 
 1164      00
 1165              	.LASF17:
 1166 01ba 63616C63 		.ascii	"calculate_distance_from_goal\000"
 1166      756C6174 
 1166      655F6469 
 1166      7374616E 
 1166      63655F66 
 1167              	.LASF0:
 1168 01d7 756E7369 		.ascii	"unsigned int\000"
 1168      676E6564 
 1168      20696E74 
 1168      00
 1169              	.LASF26:
 1170 01e4 726F7461 		.ascii	"rotation\000"
 1170      74696F6E 
 1170      00
 1171              	.LASF9:
 1172 01ed 6C6F6E67 		.ascii	"long long unsigned int\000"
 1172      206C6F6E 
 1172      6720756E 
 1172      7369676E 
 1172      65642069 
 1173              	.LASF30:
 1174 0204 706F735F 		.ascii	"pos_theta\000"
 1174      74686574 
 1174      6100
 1175              	.LASF38:
 1176 020e 64657465 		.ascii	"detect_obstacle\000"
 1176      63745F6F 
 1176      62737461 
 1176      636C6500 
 1177              	.LASF10:
 1178 021e 73697A65 		.ascii	"sizetype\000"
 1178      74797065 
 1178      00
 1179              	.LASF18:
 1180 0227 706F735F 		.ascii	"pos_x\000"
 1180      7800
 1181              	.LASF1:
 1182 022d 6C6F6E67 		.ascii	"long long int\000"
ARM GAS  C:\Users\jmspi\AppData\Local\Temp\ccfUwy0I.s 			page 25


 1182      206C6F6E 
 1182      6720696E 
 1182      7400
 1183              	.LASF11:
 1184 023b 63686172 		.ascii	"char\000"
 1184      00
 1185              	.LASF5:
 1186 0240 73686F72 		.ascii	"short int\000"
 1186      7420696E 
 1186      7400
 1187              	.LASF25:
 1188 024a 676F616C 		.ascii	"goal_angle\000"
 1188      5F616E67 
 1188      6C6500
 1189              	.LASF7:
 1190 0255 6C6F6E67 		.ascii	"long int\000"
 1190      20696E74 
 1190      00
 1191              	.LASF2:
 1192 025e 6C6F6E67 		.ascii	"long double\000"
 1192      20646F75 
 1192      626C6500 
 1193              	.LASF21:
 1194 026a 676F616C 		.ascii	"goal_y\000"
 1194      5F7900
 1195              	.LASF3:
 1196 0271 7369676E 		.ascii	"signed char\000"
 1196      65642063 
 1196      68617200 
 1197              	.LASF36:
 1198 027d 2E2E5C48 		.ascii	"..\\Helper\\helper.c\000"
 1198      656C7065 
 1198      725C6865 
 1198      6C706572 
 1198      2E6300
 1199              		.ident	"GCC: (GNU Tools for ARM Embedded Processors) 5.4.1 20160609 (release) [ARM/embedded-5-bran
