ARM GAS  C:\Users\cyu13\AppData\Local\Temp\ccUHINBN.s 			page 1


   1              		.syntax unified
   2              		.cpu cortex-m3
   3              		.fpu softvfp
   4              		.eabi_attribute 20, 1
   5              		.eabi_attribute 21, 1
   6              		.eabi_attribute 23, 3
   7              		.eabi_attribute 24, 1
   8              		.eabi_attribute 25, 1
   9              		.eabi_attribute 26, 1
  10              		.eabi_attribute 30, 6
  11              		.eabi_attribute 34, 1
  12              		.eabi_attribute 18, 4
  13              		.thumb
  14              		.syntax unified
  15              		.file	"helper.c"
  16              		.text
  17              	.Ltext0:
  18              		.cfi_sections	.debug_frame
  19              		.global	__aeabi_ddiv
  20              		.global	__aeabi_dmul
  21              		.global	__aeabi_dsub
  22              		.section	.text.calculate_angle_modulo,"ax",%progbits
  23              		.align	2
  24              		.global	calculate_angle_modulo
  25              		.thumb
  26              		.thumb_func
  27              		.type	calculate_angle_modulo, %function
  28              	calculate_angle_modulo:
  29              	.LFB0:
  30              		.file 1 "..\\Helper\\helper.c"
   1:..\Helper/helper.c **** /*
   2:..\Helper/helper.c **** ** Helper Functions
   3:..\Helper/helper.c **** **
   4:..\Helper/helper.c **** ** Host all generic helper functions
   5:..\Helper/helper.c **** */
   6:..\Helper/helper.c **** 
   7:..\Helper/helper.c **** /*===========================================================================*/
   8:..\Helper/helper.c **** #include <stdlib.h>
   9:..\Helper/helper.c **** #include <math.h>
  10:..\Helper/helper.c **** #include "helper.h"
  11:..\Helper/helper.c **** 
  12:..\Helper/helper.c **** long double calculate_angle_modulo(long double angle) {
  31              		.loc 1 12 0
  32              		.cfi_startproc
  33              		@ args = 0, pretend = 0, frame = 8
  34              		@ frame_needed = 1, uses_anonymous_args = 0
  35 0000 90B5     		push	{r4, r7, lr}
  36              		.cfi_def_cfa_offset 12
  37              		.cfi_offset 4, -12
  38              		.cfi_offset 7, -8
  39              		.cfi_offset 14, -4
  40 0002 83B0     		sub	sp, sp, #12
  41              		.cfi_def_cfa_offset 24
  42 0004 00AF     		add	r7, sp, #0
  43              		.cfi_def_cfa_register 7
  44 0006 C7E90001 		strd	r0, [r7]
  13:..\Helper/helper.c ****     return angle - M_TWOPI * floor(angle / M_TWOPI);  
ARM GAS  C:\Users\cyu13\AppData\Local\Temp\ccUHINBN.s 			page 2


  45              		.loc 1 13 0
  46 000a 11A3     		adr	r3, .L3
  47 000c D3E90023 		ldrd	r2, [r3]
  48 0010 D7E90001 		ldrd	r0, [r7]
  49 0014 FFF7FEFF 		bl	__aeabi_ddiv
  50 0018 0346     		mov	r3, r0
  51 001a 0C46     		mov	r4, r1
  52 001c 1846     		mov	r0, r3
  53 001e 2146     		mov	r1, r4
  54 0020 FFF7FEFF 		bl	floor
  55 0024 0AA3     		adr	r3, .L3
  56 0026 D3E90023 		ldrd	r2, [r3]
  57 002a FFF7FEFF 		bl	__aeabi_dmul
  58 002e 0346     		mov	r3, r0
  59 0030 0C46     		mov	r4, r1
  60 0032 1A46     		mov	r2, r3
  61 0034 2346     		mov	r3, r4
  62 0036 D7E90001 		ldrd	r0, [r7]
  63 003a FFF7FEFF 		bl	__aeabi_dsub
  64 003e 0346     		mov	r3, r0
  65 0040 0C46     		mov	r4, r1
  14:..\Helper/helper.c **** }
  66              		.loc 1 14 0
  67 0042 1846     		mov	r0, r3
  68 0044 2146     		mov	r1, r4
  69 0046 0C37     		adds	r7, r7, #12
  70              		.cfi_def_cfa_offset 12
  71 0048 BD46     		mov	sp, r7
  72              		.cfi_def_cfa_register 13
  73              		@ sp needed
  74 004a 90BD     		pop	{r4, r7, pc}
  75              	.L4:
  76 004c AFF30080 		.align	3
  77              	.L3:
  78 0050 182D4454 		.word	1413754136
  79 0054 FB211940 		.word	1075388923
  80              		.cfi_endproc
  81              	.LFE0:
  82              		.size	calculate_angle_modulo, .-calculate_angle_modulo
  83              		.section	.text.angle_clamp,"ax",%progbits
  84              		.align	2
  85              		.global	angle_clamp
  86              		.thumb
  87              		.thumb_func
  88              		.type	angle_clamp, %function
  89              	angle_clamp:
  90              	.LFB1:
  15:..\Helper/helper.c **** 
  16:..\Helper/helper.c **** int angle_clamp(int angle) {
  91              		.loc 1 16 0
  92              		.cfi_startproc
  93              		@ args = 0, pretend = 0, frame = 8
  94              		@ frame_needed = 1, uses_anonymous_args = 0
  95              		@ link register save eliminated.
  96 0000 80B4     		push	{r7}
  97              		.cfi_def_cfa_offset 4
  98              		.cfi_offset 7, -4
ARM GAS  C:\Users\cyu13\AppData\Local\Temp\ccUHINBN.s 			page 3


  99 0002 83B0     		sub	sp, sp, #12
 100              		.cfi_def_cfa_offset 16
 101 0004 00AF     		add	r7, sp, #0
 102              		.cfi_def_cfa_register 7
 103 0006 7860     		str	r0, [r7, #4]
  17:..\Helper/helper.c ****   while (angle < 0) {angle += 360;}
 104              		.loc 1 17 0
 105 0008 03E0     		b	.L6
 106              	.L7:
 107              		.loc 1 17 0 is_stmt 0 discriminator 2
 108 000a 7B68     		ldr	r3, [r7, #4]
 109 000c 03F5B473 		add	r3, r3, #360
 110 0010 7B60     		str	r3, [r7, #4]
 111              	.L6:
 112              		.loc 1 17 0 discriminator 1
 113 0012 7B68     		ldr	r3, [r7, #4]
 114 0014 002B     		cmp	r3, #0
 115 0016 F8DB     		blt	.L7
  18:..\Helper/helper.c ****     angle = angle % 360;
 116              		.loc 1 18 0 is_stmt 1
 117 0018 7B68     		ldr	r3, [r7, #4]
 118 001a 094A     		ldr	r2, .L9
 119 001c 83FB0212 		smull	r1, r2, r3, r2
 120 0020 1A44     		add	r2, r2, r3
 121 0022 1112     		asrs	r1, r2, #8
 122 0024 DA17     		asrs	r2, r3, #31
 123 0026 8A1A     		subs	r2, r1, r2
 124 0028 4FF4B471 		mov	r1, #360
 125 002c 01FB02F2 		mul	r2, r1, r2
 126 0030 9B1A     		subs	r3, r3, r2
 127 0032 7B60     		str	r3, [r7, #4]
  19:..\Helper/helper.c ****     return angle;
 128              		.loc 1 19 0
 129 0034 7B68     		ldr	r3, [r7, #4]
  20:..\Helper/helper.c **** }
 130              		.loc 1 20 0
 131 0036 1846     		mov	r0, r3
 132 0038 0C37     		adds	r7, r7, #12
 133              		.cfi_def_cfa_offset 4
 134 003a BD46     		mov	sp, r7
 135              		.cfi_def_cfa_register 13
 136              		@ sp needed
 137 003c 80BC     		pop	{r7}
 138              		.cfi_restore 7
 139              		.cfi_def_cfa_offset 0
 140 003e 7047     		bx	lr
 141              	.L10:
 142              		.align	2
 143              	.L9:
 144 0040 B7600BB6 		.word	-1240768329
 145              		.cfi_endproc
 146              	.LFE1:
 147              		.size	angle_clamp, .-angle_clamp
 148              		.global	__aeabi_dadd
 149              		.section	.text.calculate_distance_from_goal,"ax",%progbits
 150              		.align	2
 151              		.global	calculate_distance_from_goal
ARM GAS  C:\Users\cyu13\AppData\Local\Temp\ccUHINBN.s 			page 4


 152              		.thumb
 153              		.thumb_func
 154              		.type	calculate_distance_from_goal, %function
 155              	calculate_distance_from_goal:
 156              	.LFB2:
  21:..\Helper/helper.c **** 
  22:..\Helper/helper.c **** double calculate_distance_from_goal(double pos_x, double pos_y, double goal_x, double goal_y) {
 157              		.loc 1 22 0
 158              		.cfi_startproc
 159              		@ args = 16, pretend = 0, frame = 24
 160              		@ frame_needed = 1, uses_anonymous_args = 0
 161 0000 B0B5     		push	{r4, r5, r7, lr}
 162              		.cfi_def_cfa_offset 16
 163              		.cfi_offset 4, -16
 164              		.cfi_offset 5, -12
 165              		.cfi_offset 7, -8
 166              		.cfi_offset 14, -4
 167 0002 86B0     		sub	sp, sp, #24
 168              		.cfi_def_cfa_offset 40
 169 0004 00AF     		add	r7, sp, #0
 170              		.cfi_def_cfa_register 7
 171 0006 C7E90201 		strd	r0, [r7, #8]
 172 000a C7E90023 		strd	r2, [r7]
  23:..\Helper/helper.c ****   // Calculate distance between current position and end goal
  24:..\Helper/helper.c ****   double distance = sqrt( pow( goal_x - pos_x, 2 ) + pow( goal_y - pos_y, 2 ) ); 
 173              		.loc 1 24 0
 174 000e D7E90223 		ldrd	r2, [r7, #8]
 175 0012 D7E90A01 		ldrd	r0, [r7, #40]
 176 0016 FFF7FEFF 		bl	__aeabi_dsub
 177 001a 0346     		mov	r3, r0
 178 001c 0C46     		mov	r4, r1
 179 001e 1846     		mov	r0, r3
 180 0020 2146     		mov	r1, r4
 181 0022 4FF00002 		mov	r2, #0
 182 0026 4FF08043 		mov	r3, #1073741824
 183 002a FFF7FEFF 		bl	pow
 184 002e 0446     		mov	r4, r0
 185 0030 0D46     		mov	r5, r1
 186 0032 D7E90023 		ldrd	r2, [r7]
 187 0036 D7E90C01 		ldrd	r0, [r7, #48]
 188 003a FFF7FEFF 		bl	__aeabi_dsub
 189 003e 0246     		mov	r2, r0
 190 0040 0B46     		mov	r3, r1
 191 0042 1046     		mov	r0, r2
 192 0044 1946     		mov	r1, r3
 193 0046 4FF00002 		mov	r2, #0
 194 004a 4FF08043 		mov	r3, #1073741824
 195 004e FFF7FEFF 		bl	pow
 196 0052 0246     		mov	r2, r0
 197 0054 0B46     		mov	r3, r1
 198 0056 2046     		mov	r0, r4
 199 0058 2946     		mov	r1, r5
 200 005a FFF7FEFF 		bl	__aeabi_dadd
 201 005e 0346     		mov	r3, r0
 202 0060 0C46     		mov	r4, r1
 203 0062 1846     		mov	r0, r3
 204 0064 2146     		mov	r1, r4
ARM GAS  C:\Users\cyu13\AppData\Local\Temp\ccUHINBN.s 			page 5


 205 0066 FFF7FEFF 		bl	sqrt
 206 006a C7E90401 		strd	r0, [r7, #16]
  25:..\Helper/helper.c **** 
  26:..\Helper/helper.c ****   return distance;
 207              		.loc 1 26 0
 208 006e D7E90434 		ldrd	r3, [r7, #16]
  27:..\Helper/helper.c **** }
 209              		.loc 1 27 0
 210 0072 1846     		mov	r0, r3
 211 0074 2146     		mov	r1, r4
 212 0076 1837     		adds	r7, r7, #24
 213              		.cfi_def_cfa_offset 16
 214 0078 BD46     		mov	sp, r7
 215              		.cfi_def_cfa_register 13
 216              		@ sp needed
 217 007a B0BD     		pop	{r4, r5, r7, pc}
 218              		.cfi_endproc
 219              	.LFE2:
 220              		.size	calculate_distance_from_goal, .-calculate_distance_from_goal
 221              		.global	__aeabi_dcmplt
 222              		.section	.text.calculate_goal_angle,"ax",%progbits
 223              		.align	2
 224              		.global	calculate_goal_angle
 225              		.thumb
 226              		.thumb_func
 227              		.type	calculate_goal_angle, %function
 228              	calculate_goal_angle:
 229              	.LFB3:
  28:..\Helper/helper.c **** 
  29:..\Helper/helper.c **** double calculate_goal_angle(double pos_x, double pos_y, double pos_yaw, double goal_x, double goal_
 230              		.loc 1 29 0
 231              		.cfi_startproc
 232              		@ args = 24, pretend = 0, frame = 56
 233              		@ frame_needed = 1, uses_anonymous_args = 0
 234 0000 B0B5     		push	{r4, r5, r7, lr}
 235              		.cfi_def_cfa_offset 16
 236              		.cfi_offset 4, -16
 237              		.cfi_offset 5, -12
 238              		.cfi_offset 7, -8
 239              		.cfi_offset 14, -4
 240 0002 8EB0     		sub	sp, sp, #56
 241              		.cfi_def_cfa_offset 72
 242 0004 00AF     		add	r7, sp, #0
 243              		.cfi_def_cfa_register 7
 244 0006 C7E90201 		strd	r0, [r7, #8]
 245 000a C7E90023 		strd	r2, [r7]
  30:..\Helper/helper.c ****   // Calculate the angle from current position to goal
  31:..\Helper/helper.c ****   double goal_angle = atan2(goal_y - pos_y, goal_x - pos_x);
 246              		.loc 1 31 0
 247 000e D7E90023 		ldrd	r2, [r7]
 248 0012 D7E91601 		ldrd	r0, [r7, #88]
 249 0016 FFF7FEFF 		bl	__aeabi_dsub
 250 001a 0346     		mov	r3, r0
 251 001c 0C46     		mov	r4, r1
 252 001e 2546     		mov	r5, r4
 253 0020 1C46     		mov	r4, r3
 254 0022 D7E90223 		ldrd	r2, [r7, #8]
ARM GAS  C:\Users\cyu13\AppData\Local\Temp\ccUHINBN.s 			page 6


 255 0026 D7E91401 		ldrd	r0, [r7, #80]
 256 002a FFF7FEFF 		bl	__aeabi_dsub
 257 002e 0246     		mov	r2, r0
 258 0030 0B46     		mov	r3, r1
 259 0032 2046     		mov	r0, r4
 260 0034 2946     		mov	r1, r5
 261 0036 FFF7FEFF 		bl	atan2
 262 003a C7E90A01 		strd	r0, [r7, #40]
  32:..\Helper/helper.c **** 
  33:..\Helper/helper.c ****   // Calculate robot rotation to point towards goal with respect to current heading
  34:..\Helper/helper.c ****   double rotation;
  35:..\Helper/helper.c ****   double alpha_rot = goal_angle - pos_yaw;
 263              		.loc 1 35 0
 264 003e D7E91223 		ldrd	r2, [r7, #72]
 265 0042 D7E90A01 		ldrd	r0, [r7, #40]
 266 0046 FFF7FEFF 		bl	__aeabi_dsub
 267 004a 0346     		mov	r3, r0
 268 004c 0C46     		mov	r4, r1
 269 004e C7E90834 		strd	r3, [r7, #32]
  36:..\Helper/helper.c ****   double beta_rot = alpha_rot + 2 * M_PI;
 270              		.loc 1 36 0
 271 0052 2FA3     		adr	r3, .L28
 272 0054 D3E90023 		ldrd	r2, [r3]
 273 0058 D7E90801 		ldrd	r0, [r7, #32]
 274 005c FFF7FEFF 		bl	__aeabi_dadd
 275 0060 0346     		mov	r3, r0
 276 0062 0C46     		mov	r4, r1
 277 0064 C7E90634 		strd	r3, [r7, #24]
  37:..\Helper/helper.c ****   double gamma_rot = alpha_rot - 2 * M_PI;
 278              		.loc 1 37 0
 279 0068 29A3     		adr	r3, .L28
 280 006a D3E90023 		ldrd	r2, [r3]
 281 006e D7E90801 		ldrd	r0, [r7, #32]
 282 0072 FFF7FEFF 		bl	__aeabi_dsub
 283 0076 0346     		mov	r3, r0
 284 0078 0C46     		mov	r4, r1
 285 007a C7E90434 		strd	r3, [r7, #16]
  38:..\Helper/helper.c **** 
  39:..\Helper/helper.c ****   // Find shortest rotation required
  40:..\Helper/helper.c ****   if (alpha_rot < beta_rot && alpha_rot < gamma_rot) {
 286              		.loc 1 40 0
 287 007e D7E90623 		ldrd	r2, [r7, #24]
 288 0082 D7E90801 		ldrd	r0, [r7, #32]
 289 0086 FFF7FEFF 		bl	__aeabi_dcmplt
 290 008a 0346     		mov	r3, r0
 291 008c 002B     		cmp	r3, #0
 292 008e 0DD0     		beq	.L14
 293              		.loc 1 40 0 is_stmt 0 discriminator 1
 294 0090 D7E90423 		ldrd	r2, [r7, #16]
 295 0094 D7E90801 		ldrd	r0, [r7, #32]
 296 0098 FFF7FEFF 		bl	__aeabi_dcmplt
 297 009c 0346     		mov	r3, r0
 298 009e 002B     		cmp	r3, #0
 299 00a0 04D0     		beq	.L14
  41:..\Helper/helper.c ****     rotation = alpha_rot;
 300              		.loc 1 41 0 is_stmt 1
 301 00a2 D7E90834 		ldrd	r3, [r7, #32]
ARM GAS  C:\Users\cyu13\AppData\Local\Temp\ccUHINBN.s 			page 7


 302 00a6 C7E90C34 		strd	r3, [r7, #48]
 303 00aa 11E0     		b	.L17
 304              	.L14:
  42:..\Helper/helper.c ****   } else if (beta_rot < gamma_rot) {
 305              		.loc 1 42 0
 306 00ac D7E90423 		ldrd	r2, [r7, #16]
 307 00b0 D7E90601 		ldrd	r0, [r7, #24]
 308 00b4 FFF7FEFF 		bl	__aeabi_dcmplt
 309 00b8 0346     		mov	r3, r0
 310 00ba 002B     		cmp	r3, #0
 311 00bc 04D0     		beq	.L27
  43:..\Helper/helper.c ****     rotation = beta_rot;
 312              		.loc 1 43 0
 313 00be D7E90634 		ldrd	r3, [r7, #24]
 314 00c2 C7E90C34 		strd	r3, [r7, #48]
 315 00c6 03E0     		b	.L17
 316              	.L27:
  44:..\Helper/helper.c ****   } else {
  45:..\Helper/helper.c ****     rotation = gamma_rot;
 317              		.loc 1 45 0
 318 00c8 D7E90434 		ldrd	r3, [r7, #16]
 319 00cc C7E90C34 		strd	r3, [r7, #48]
 320              	.L17:
  46:..\Helper/helper.c ****   }
  47:..\Helper/helper.c **** 
  48:..\Helper/helper.c ****   if (rotation < 0) {
 321              		.loc 1 48 0
 322 00d0 4FF00002 		mov	r2, #0
 323 00d4 4FF00003 		mov	r3, #0
 324 00d8 D7E90C01 		ldrd	r0, [r7, #48]
 325 00dc FFF7FEFF 		bl	__aeabi_dcmplt
 326 00e0 0346     		mov	r3, r0
 327 00e2 002B     		cmp	r3, #0
 328 00e4 0AD0     		beq	.L20
  49:..\Helper/helper.c ****     rotation = rotation + 2 * M_PI;
 329              		.loc 1 49 0
 330 00e6 0AA3     		adr	r3, .L28
 331 00e8 D3E90023 		ldrd	r2, [r3]
 332 00ec D7E90C01 		ldrd	r0, [r7, #48]
 333 00f0 FFF7FEFF 		bl	__aeabi_dadd
 334 00f4 0346     		mov	r3, r0
 335 00f6 0C46     		mov	r4, r1
 336 00f8 C7E90C34 		strd	r3, [r7, #48]
 337              	.L20:
  50:..\Helper/helper.c ****   }
  51:..\Helper/helper.c **** 
  52:..\Helper/helper.c ****   return rotation;
 338              		.loc 1 52 0
 339 00fc D7E90C34 		ldrd	r3, [r7, #48]
  53:..\Helper/helper.c ****   
  54:..\Helper/helper.c **** }
 340              		.loc 1 54 0
 341 0100 1846     		mov	r0, r3
 342 0102 2146     		mov	r1, r4
 343 0104 3837     		adds	r7, r7, #56
 344              		.cfi_def_cfa_offset 16
 345 0106 BD46     		mov	sp, r7
ARM GAS  C:\Users\cyu13\AppData\Local\Temp\ccUHINBN.s 			page 8


 346              		.cfi_def_cfa_register 13
 347              		@ sp needed
 348 0108 B0BD     		pop	{r4, r5, r7, pc}
 349              	.L29:
 350 010a 00BFAFF3 		.align	3
 350      0080
 351              	.L28:
 352 0110 182D4454 		.word	1413754136
 353 0114 FB211940 		.word	1075388923
 354              		.cfi_endproc
 355              	.LFE3:
 356              		.size	calculate_goal_angle, .-calculate_goal_angle
 357              		.global	__aeabi_d2iz
 358              		.section	.text.detect_obstacle,"ax",%progbits
 359              		.align	2
 360              		.global	detect_obstacle
 361              		.thumb
 362              		.thumb_func
 363              		.type	detect_obstacle, %function
 364              	detect_obstacle:
 365              	.LFB4:
  55:..\Helper/helper.c **** 
  56:..\Helper/helper.c **** int detect_obstacle(double angle, double distance, double pos_x, double pos_y, double pos_theta, do
 366              		.loc 1 56 0
 367              		.cfi_startproc
 368              		@ args = 32, pretend = 0, frame = 48
 369              		@ frame_needed = 1, uses_anonymous_args = 0
 370 0000 B0B5     		push	{r4, r5, r7, lr}
 371              		.cfi_def_cfa_offset 16
 372              		.cfi_offset 4, -16
 373              		.cfi_offset 5, -12
 374              		.cfi_offset 7, -8
 375              		.cfi_offset 14, -4
 376 0002 8CB0     		sub	sp, sp, #48
 377              		.cfi_def_cfa_offset 64
 378 0004 00AF     		add	r7, sp, #0
 379              		.cfi_def_cfa_register 7
 380 0006 C7E90201 		strd	r0, [r7, #8]
 381 000a C7E90023 		strd	r2, [r7]
  57:..\Helper/helper.c ****     // Checks if detected item is obstacle or wall
  58:..\Helper/helper.c ****     int obstacles;
  59:..\Helper/helper.c ****     double rad = M_PI / 180;
 382              		.loc 1 59 0
 383 000e 66A4     		adr	r4, .L43
 384 0010 D4E90034 		ldrd	r3, [r4]
 385 0014 C7E90634 		strd	r3, [r7, #24]
  60:..\Helper/helper.c ****     
  61:..\Helper/helper.c ****     // Distance between wall and robot based on robot orientation
  62:..\Helper/helper.c ****     double max_distance;;
  63:..\Helper/helper.c ****     
  64:..\Helper/helper.c ****     // Find if obstacle in specified angle
  65:..\Helper/helper.c ****     double angle_modulo;
  66:..\Helper/helper.c ****     switch ((int) angle) {
 386              		.loc 1 66 0
 387 0018 D7E90201 		ldrd	r0, [r7, #8]
 388 001c FFF7FEFF 		bl	__aeabi_d2iz
 389 0020 0346     		mov	r3, r0
ARM GAS  C:\Users\cyu13\AppData\Local\Temp\ccUHINBN.s 			page 9


 390 0022 5A2B     		cmp	r3, #90
 391 0024 26D0     		beq	.L32
 392 0026 B3F5877F 		cmp	r3, #270
 393 002a 54D0     		beq	.L33
 394 002c 002B     		cmp	r3, #0
 395 002e 7AD1     		bne	.L41
  67:..\Helper/helper.c ****         case 0:
  68:..\Helper/helper.c ****             max_distance = (ARENA - pos_x) / cos(pos_theta) - threshold;
 396              		.loc 1 68 0
 397 0030 D7E91023 		ldrd	r2, [r7, #64]
 398 0034 4FF00000 		mov	r0, #0
 399 0038 6149     		ldr	r1, .L43+24
 400 003a FFF7FEFF 		bl	__aeabi_dsub
 401 003e 0346     		mov	r3, r0
 402 0040 0C46     		mov	r4, r1
 403 0042 2546     		mov	r5, r4
 404 0044 1C46     		mov	r4, r3
 405 0046 D7E91401 		ldrd	r0, [r7, #80]
 406 004a FFF7FEFF 		bl	cos
 407 004e 0246     		mov	r2, r0
 408 0050 0B46     		mov	r3, r1
 409 0052 2046     		mov	r0, r4
 410 0054 2946     		mov	r1, r5
 411 0056 FFF7FEFF 		bl	__aeabi_ddiv
 412 005a 0346     		mov	r3, r0
 413 005c 0C46     		mov	r4, r1
 414 005e 1846     		mov	r0, r3
 415 0060 2146     		mov	r1, r4
 416 0062 D7E91623 		ldrd	r2, [r7, #88]
 417 0066 FFF7FEFF 		bl	__aeabi_dsub
 418 006a 0346     		mov	r3, r0
 419 006c 0C46     		mov	r4, r1
 420 006e C7E90834 		strd	r3, [r7, #32]
  69:..\Helper/helper.c ****             break;
 421              		.loc 1 69 0
 422 0072 86E0     		b	.L35
 423              	.L32:
  70:..\Helper/helper.c ****             
  71:..\Helper/helper.c ****         case 90:
  72:..\Helper/helper.c ****             angle_modulo = calculate_angle_modulo(M_PI / 2 + pos_theta);
 424              		.loc 1 72 0
 425 0074 4EA3     		adr	r3, .L43+8
 426 0076 D3E90023 		ldrd	r2, [r3]
 427 007a D7E91401 		ldrd	r0, [r7, #80]
 428 007e FFF7FEFF 		bl	__aeabi_dadd
 429 0082 0346     		mov	r3, r0
 430 0084 0C46     		mov	r4, r1
 431 0086 1846     		mov	r0, r3
 432 0088 2146     		mov	r1, r4
 433 008a FFF7FEFF 		bl	calculate_angle_modulo
 434 008e C7E90401 		strd	r0, [r7, #16]
  73:..\Helper/helper.c ****             max_distance = (ARENA - pos_y) / sin(angle_modulo) - threshold;
 435              		.loc 1 73 0
 436 0092 D7E91223 		ldrd	r2, [r7, #72]
 437 0096 4FF00000 		mov	r0, #0
 438 009a 4949     		ldr	r1, .L43+24
 439 009c FFF7FEFF 		bl	__aeabi_dsub
ARM GAS  C:\Users\cyu13\AppData\Local\Temp\ccUHINBN.s 			page 10


 440 00a0 0346     		mov	r3, r0
 441 00a2 0C46     		mov	r4, r1
 442 00a4 2546     		mov	r5, r4
 443 00a6 1C46     		mov	r4, r3
 444 00a8 D7E90401 		ldrd	r0, [r7, #16]
 445 00ac FFF7FEFF 		bl	sin
 446 00b0 0246     		mov	r2, r0
 447 00b2 0B46     		mov	r3, r1
 448 00b4 2046     		mov	r0, r4
 449 00b6 2946     		mov	r1, r5
 450 00b8 FFF7FEFF 		bl	__aeabi_ddiv
 451 00bc 0346     		mov	r3, r0
 452 00be 0C46     		mov	r4, r1
 453 00c0 1846     		mov	r0, r3
 454 00c2 2146     		mov	r1, r4
 455 00c4 D7E91623 		ldrd	r2, [r7, #88]
 456 00c8 FFF7FEFF 		bl	__aeabi_dsub
 457 00cc 0346     		mov	r3, r0
 458 00ce 0C46     		mov	r4, r1
 459 00d0 C7E90834 		strd	r3, [r7, #32]
  74:..\Helper/helper.c ****             break;
 460              		.loc 1 74 0
 461 00d4 55E0     		b	.L35
 462              	.L33:
  75:..\Helper/helper.c ****             
  76:..\Helper/helper.c ****             
  77:..\Helper/helper.c ****         case 270:
  78:..\Helper/helper.c ****             angle_modulo = calculate_angle_modulo(3*M_PI / 2 + pos_theta);
 463              		.loc 1 78 0
 464 00d6 38A3     		adr	r3, .L43+16
 465 00d8 D3E90023 		ldrd	r2, [r3]
 466 00dc D7E91401 		ldrd	r0, [r7, #80]
 467 00e0 FFF7FEFF 		bl	__aeabi_dadd
 468 00e4 0346     		mov	r3, r0
 469 00e6 0C46     		mov	r4, r1
 470 00e8 1846     		mov	r0, r3
 471 00ea 2146     		mov	r1, r4
 472 00ec FFF7FEFF 		bl	calculate_angle_modulo
 473 00f0 C7E90401 		strd	r0, [r7, #16]
  79:..\Helper/helper.c ****             max_distance = (pos_y) / sin(angle_modulo) - threshold;
 474              		.loc 1 79 0
 475 00f4 D7E90401 		ldrd	r0, [r7, #16]
 476 00f8 FFF7FEFF 		bl	sin
 477 00fc 0346     		mov	r3, r0
 478 00fe 0C46     		mov	r4, r1
 479 0100 1A46     		mov	r2, r3
 480 0102 2346     		mov	r3, r4
 481 0104 D7E91201 		ldrd	r0, [r7, #72]
 482 0108 FFF7FEFF 		bl	__aeabi_ddiv
 483 010c 0346     		mov	r3, r0
 484 010e 0C46     		mov	r4, r1
 485 0110 1846     		mov	r0, r3
 486 0112 2146     		mov	r1, r4
 487 0114 D7E91623 		ldrd	r2, [r7, #88]
 488 0118 FFF7FEFF 		bl	__aeabi_dsub
 489 011c 0346     		mov	r3, r0
 490 011e 0C46     		mov	r4, r1
ARM GAS  C:\Users\cyu13\AppData\Local\Temp\ccUHINBN.s 			page 11


 491 0120 C7E90834 		strd	r3, [r7, #32]
  80:..\Helper/helper.c ****             break;
 492              		.loc 1 80 0
 493 0124 2DE0     		b	.L35
 494              	.L41:
  81:..\Helper/helper.c ****             
  82:..\Helper/helper.c ****         default:
  83:..\Helper/helper.c ****             angle_modulo = calculate_angle_modulo(angle * rad + pos_theta);
 495              		.loc 1 83 0
 496 0126 D7E90623 		ldrd	r2, [r7, #24]
 497 012a D7E90201 		ldrd	r0, [r7, #8]
 498 012e FFF7FEFF 		bl	__aeabi_dmul
 499 0132 0346     		mov	r3, r0
 500 0134 0C46     		mov	r4, r1
 501 0136 1846     		mov	r0, r3
 502 0138 2146     		mov	r1, r4
 503 013a D7E91423 		ldrd	r2, [r7, #80]
 504 013e FFF7FEFF 		bl	__aeabi_dadd
 505 0142 0346     		mov	r3, r0
 506 0144 0C46     		mov	r4, r1
 507 0146 1846     		mov	r0, r3
 508 0148 2146     		mov	r1, r4
 509 014a FFF7FEFF 		bl	calculate_angle_modulo
 510 014e C7E90401 		strd	r0, [r7, #16]
  84:..\Helper/helper.c ****             max_distance = pos_x / cos(angle_modulo) - threshold;
 511              		.loc 1 84 0
 512 0152 D7E90401 		ldrd	r0, [r7, #16]
 513 0156 FFF7FEFF 		bl	cos
 514 015a 0346     		mov	r3, r0
 515 015c 0C46     		mov	r4, r1
 516 015e 1A46     		mov	r2, r3
 517 0160 2346     		mov	r3, r4
 518 0162 D7E91001 		ldrd	r0, [r7, #64]
 519 0166 FFF7FEFF 		bl	__aeabi_ddiv
 520 016a 0346     		mov	r3, r0
 521 016c 0C46     		mov	r4, r1
 522 016e 1846     		mov	r0, r3
 523 0170 2146     		mov	r1, r4
 524 0172 D7E91623 		ldrd	r2, [r7, #88]
 525 0176 FFF7FEFF 		bl	__aeabi_dsub
 526 017a 0346     		mov	r3, r0
 527 017c 0C46     		mov	r4, r1
 528 017e C7E90834 		strd	r3, [r7, #32]
 529              	.L35:
  85:..\Helper/helper.c ****     }
  86:..\Helper/helper.c ****     
  87:..\Helper/helper.c ****     if (distance < max_distance) {
 530              		.loc 1 87 0
 531 0182 D7E90823 		ldrd	r2, [r7, #32]
 532 0186 D7E90001 		ldrd	r0, [r7]
 533 018a FFF7FEFF 		bl	__aeabi_dcmplt
 534 018e 0346     		mov	r3, r0
 535 0190 002B     		cmp	r3, #0
 536 0192 02D0     		beq	.L42
  88:..\Helper/helper.c ****         obstacles = 1;
 537              		.loc 1 88 0
 538 0194 0123     		movs	r3, #1
ARM GAS  C:\Users\cyu13\AppData\Local\Temp\ccUHINBN.s 			page 12


 539 0196 FB62     		str	r3, [r7, #44]
 540 0198 01E0     		b	.L38
 541              	.L42:
  89:..\Helper/helper.c ****     } else {
  90:..\Helper/helper.c ****         obstacles = 0;
 542              		.loc 1 90 0
 543 019a 0023     		movs	r3, #0
 544 019c FB62     		str	r3, [r7, #44]
 545              	.L38:
  91:..\Helper/helper.c ****     }
  92:..\Helper/helper.c ****     
  93:..\Helper/helper.c **** 
  94:..\Helper/helper.c ****   return obstacles;
 546              		.loc 1 94 0
 547 019e FB6A     		ldr	r3, [r7, #44]
  95:..\Helper/helper.c **** }...
 548              		.loc 1 95 0
 549 01a0 1846     		mov	r0, r3
 550 01a2 3037     		adds	r7, r7, #48
 551              		.cfi_def_cfa_offset 16
 552 01a4 BD46     		mov	sp, r7
 553              		.cfi_def_cfa_register 13
 554              		@ sp needed
 555 01a6 B0BD     		pop	{r4, r5, r7, pc}
 556              	.L44:
 557              		.align	3
 558              	.L43:
 559 01a8 399D52A2 		.word	-1571644103
 560 01ac 46DF913F 		.word	1066524486
 561 01b0 182D4454 		.word	1413754136
 562 01b4 FB21F93F 		.word	1073291771
 563 01b8 D221337F 		.word	2134057426
 564 01bc 7CD91240 		.word	1074977148
 565 01c0 00005E40 		.word	1079902208
 566              		.cfi_endproc
 567              	.LFE4:
 568              		.size	detect_obstacle, .-detect_obstacle
 569              		.text
 570              	.Letext0: