ARM GAS  C:\Users\cyu13\AppData\Local\Temp\ccSXIDcA.s 			page 1


   1              		.syntax unified
   2              		.cpu cortex-m3
   3              		.fpu softvfp
   4              		.eabi_attribute 20, 1
   5              		.eabi_attribute 21, 1
   6              		.eabi_attribute 23, 3
   7              		.eabi_attribute 24, 1
   8              		.eabi_attribute 25, 1
   9              		.eabi_attribute 26, 1
  10              		.eabi_attribute 30, 6
  11              		.eabi_attribute 34, 1
  12              		.eabi_attribute 18, 4
  13              		.thumb
  14              		.syntax unified
  15              		.file	"histogram_grid.c"
  16              		.text
  17              	.Ltext0:
  18              		.cfi_sections	.debug_frame
  19              		.section	.text.grid_create,"ax",%progbits
  20              		.align	2
  21              		.global	grid_create
  22              		.thumb
  23              		.thumb_func
  24              		.type	grid_create, %function
  25              	grid_create:
  26              	.LFB0:
  27              		.file 1 "..\\VFH\\histogram_grid.c"
   1:..\VFH/histogram_grid.c **** #include <assert.h>
   2:..\VFH/histogram_grid.c **** #include <math.h>
   3:..\VFH/histogram_grid.c **** #include <stdlib.h>
   4:..\VFH/histogram_grid.c **** #include "vfh.h"
   5:..\VFH/histogram_grid.c **** 
   6:..\VFH/histogram_grid.c **** // Histogram Grid for VFH implementation
   7:..\VFH/histogram_grid.c **** 
   8:..\VFH/histogram_grid.c **** grid * grid_create(int width, int height, int resolution) {
  28              		.loc 1 8 0
  29              		.cfi_startproc
  30              		@ args = 0, pretend = 0, frame = 32
  31              		@ frame_needed = 1, uses_anonymous_args = 0
  32 0000 80B5     		push	{r7, lr}
  33              		.cfi_def_cfa_offset 8
  34              		.cfi_offset 7, -8
  35              		.cfi_offset 14, -4
  36 0002 88B0     		sub	sp, sp, #32
  37              		.cfi_def_cfa_offset 40
  38 0004 00AF     		add	r7, sp, #0
  39              		.cfi_def_cfa_register 7
  40 0006 F860     		str	r0, [r7, #12]
  41 0008 B960     		str	r1, [r7, #8]
  42 000a 7A60     		str	r2, [r7, #4]
   9:..\VFH/histogram_grid.c ****   /* Source code mentions assertions for poorly defined resolution values
  10:..\VFH/histogram_grid.c ****    * This assertion shouldn't be necessary given how well defined our environment is
  11:..\VFH/histogram_grid.c ****   */
  12:..\VFH/histogram_grid.c **** 
  13:..\VFH/histogram_grid.c ****   grid * map = malloc(sizeof(grid));  // Allocate memory for grid map
  43              		.loc 1 13 0
  44 000c 1020     		movs	r0, #16
ARM GAS  C:\Users\cyu13\AppData\Local\Temp\ccSXIDcA.s 			page 2


  45 000e FFF7FEFF 		bl	malloc
  46 0012 0346     		mov	r3, r0
  47 0014 7B61     		str	r3, [r7, #20]
  14:..\VFH/histogram_grid.c **** 
  15:..\VFH/histogram_grid.c ****   // Return NULL if not enough memory
  16:..\VFH/histogram_grid.c ****   if (map == NULL) {
  48              		.loc 1 16 0
  49 0016 7B69     		ldr	r3, [r7, #20]
  50 0018 002B     		cmp	r3, #0
  51 001a 04D1     		bne	.L2
  17:..\VFH/histogram_grid.c ****     free(map);
  52              		.loc 1 17 0
  53 001c 7869     		ldr	r0, [r7, #20]
  54 001e FFF7FEFF 		bl	free
  18:..\VFH/histogram_grid.c ****     return NULL;
  55              		.loc 1 18 0
  56 0022 0023     		movs	r3, #0
  57 0024 40E0     		b	.L3
  58              	.L2:
  19:..\VFH/histogram_grid.c ****   }
  20:..\VFH/histogram_grid.c **** 
  21:..\VFH/histogram_grid.c ****   // Define variables
  22:..\VFH/histogram_grid.c ****   map->width = width;
  59              		.loc 1 22 0
  60 0026 7B69     		ldr	r3, [r7, #20]
  61 0028 FA68     		ldr	r2, [r7, #12]
  62 002a 1A60     		str	r2, [r3]
  23:..\VFH/histogram_grid.c ****   map->height = height;
  63              		.loc 1 23 0
  64 002c 7B69     		ldr	r3, [r7, #20]
  65 002e BA68     		ldr	r2, [r7, #8]
  66 0030 5A60     		str	r2, [r3, #4]
  24:..\VFH/histogram_grid.c ****   map->resolution = resolution;
  67              		.loc 1 24 0
  68 0032 7B69     		ldr	r3, [r7, #20]
  69 0034 7A68     		ldr	r2, [r7, #4]
  70 0036 9A60     		str	r2, [r3, #8]
  25:..\VFH/histogram_grid.c ****   map->cells = malloc(width * height * sizeof(int));
  71              		.loc 1 25 0
  72 0038 FB68     		ldr	r3, [r7, #12]
  73 003a BA68     		ldr	r2, [r7, #8]
  74 003c 02FB03F3 		mul	r3, r2, r3
  75 0040 9B00     		lsls	r3, r3, #2
  76 0042 1846     		mov	r0, r3
  77 0044 FFF7FEFF 		bl	malloc
  78 0048 0346     		mov	r3, r0
  79 004a 1A46     		mov	r2, r3
  80 004c 7B69     		ldr	r3, [r7, #20]
  81 004e DA60     		str	r2, [r3, #12]
  26:..\VFH/histogram_grid.c **** 
  27:..\VFH/histogram_grid.c ****   // Return NULL if not enough memory
  28:..\VFH/histogram_grid.c ****   if (map->cells == NULL) {
  82              		.loc 1 28 0
  83 0050 7B69     		ldr	r3, [r7, #20]
  84 0052 DB68     		ldr	r3, [r3, #12]
  85 0054 002B     		cmp	r3, #0
  86 0056 06D1     		bne	.L4
ARM GAS  C:\Users\cyu13\AppData\Local\Temp\ccSXIDcA.s 			page 3


  29:..\VFH/histogram_grid.c ****     free(map->cells);
  87              		.loc 1 29 0
  88 0058 7B69     		ldr	r3, [r7, #20]
  89 005a DB68     		ldr	r3, [r3, #12]
  90 005c 1846     		mov	r0, r3
  91 005e FFF7FEFF 		bl	free
  30:..\VFH/histogram_grid.c ****     return NULL;
  92              		.loc 1 30 0
  93 0062 0023     		movs	r3, #0
  94 0064 20E0     		b	.L3
  95              	.L4:
  96              	.LBB2:
  31:..\VFH/histogram_grid.c ****   }
  32:..\VFH/histogram_grid.c **** 
  33:..\VFH/histogram_grid.c ****   // Define all initial grid values to be 0 as there are no obstacles
  34:..\VFH/histogram_grid.c ****   for (int i = 0; i < width; ++i) {
  97              		.loc 1 34 0
  98 0066 0023     		movs	r3, #0
  99 0068 FB61     		str	r3, [r7, #28]
 100 006a 18E0     		b	.L5
 101              	.L8:
 102              	.LBB3:
  35:..\VFH/histogram_grid.c ****     for (int j = 0; j < height; ++j) {
 103              		.loc 1 35 0
 104 006c 0023     		movs	r3, #0
 105 006e BB61     		str	r3, [r7, #24]
 106 0070 0EE0     		b	.L6
 107              	.L7:
  36:..\VFH/histogram_grid.c ****       map->cells[i * width + j] = 0;    // Map grid is defined as a 1D array
 108              		.loc 1 36 0 discriminator 3
 109 0072 7B69     		ldr	r3, [r7, #20]
 110 0074 DA68     		ldr	r2, [r3, #12]
 111 0076 FB69     		ldr	r3, [r7, #28]
 112 0078 F968     		ldr	r1, [r7, #12]
 113 007a 01FB03F1 		mul	r1, r1, r3
 114 007e BB69     		ldr	r3, [r7, #24]
 115 0080 0B44     		add	r3, r3, r1
 116 0082 9B00     		lsls	r3, r3, #2
 117 0084 1344     		add	r3, r3, r2
 118 0086 0022     		movs	r2, #0
 119 0088 1A60     		str	r2, [r3]
  35:..\VFH/histogram_grid.c ****     for (int j = 0; j < height; ++j) {
 120              		.loc 1 35 0 discriminator 3
 121 008a BB69     		ldr	r3, [r7, #24]
 122 008c 0133     		adds	r3, r3, #1
 123 008e BB61     		str	r3, [r7, #24]
 124              	.L6:
  35:..\VFH/histogram_grid.c ****     for (int j = 0; j < height; ++j) {
 125              		.loc 1 35 0 is_stmt 0 discriminator 1
 126 0090 BA69     		ldr	r2, [r7, #24]
 127 0092 BB68     		ldr	r3, [r7, #8]
 128 0094 9A42     		cmp	r2, r3
 129 0096 ECDB     		blt	.L7
 130              	.LBE3:
  34:..\VFH/histogram_grid.c ****     for (int j = 0; j < height; ++j) {
 131              		.loc 1 34 0 is_stmt 1 discriminator 2
 132 0098 FB69     		ldr	r3, [r7, #28]
ARM GAS  C:\Users\cyu13\AppData\Local\Temp\ccSXIDcA.s 			page 4


 133 009a 0133     		adds	r3, r3, #1
 134 009c FB61     		str	r3, [r7, #28]
 135              	.L5:
  34:..\VFH/histogram_grid.c ****     for (int j = 0; j < height; ++j) {
 136              		.loc 1 34 0 is_stmt 0 discriminator 1
 137 009e FA69     		ldr	r2, [r7, #28]
 138 00a0 FB68     		ldr	r3, [r7, #12]
 139 00a2 9A42     		cmp	r2, r3
 140 00a4 E2DB     		blt	.L8
 141              	.LBE2:
  37:..\VFH/histogram_grid.c ****     }
  38:..\VFH/histogram_grid.c ****   }
  39:..\VFH/histogram_grid.c **** 
  40:..\VFH/histogram_grid.c ****   return map;
 142              		.loc 1 40 0 is_stmt 1
 143 00a6 7B69     		ldr	r3, [r7, #20]
 144              	.L3:
  41:..\VFH/histogram_grid.c **** }
 145              		.loc 1 41 0
 146 00a8 1846     		mov	r0, r3
 147 00aa 2037     		adds	r7, r7, #32
 148              		.cfi_def_cfa_offset 8
 149 00ac BD46     		mov	sp, r7
 150              		.cfi_def_cfa_register 13
 151              		@ sp needed
 152 00ae 80BD     		pop	{r7, pc}
 153              		.cfi_endproc
 154              	.LFE0:
 155              		.size	grid_create, .-grid_create
 156              		.global	__aeabi_i2d
 157              		.global	__aeabi_dmul
 158              		.global	__aeabi_ddiv
 159              		.global	__aeabi_dadd
 160              		.global	__aeabi_dcmplt
 161              		.global	__aeabi_dcmpge
 162              		.global	__aeabi_dsub
 163              		.global	__aeabi_dcmpgt
 164              		.global	__aeabi_d2iz
 165              		.section	.text.grid_update,"ax",%progbits
 166              		.align	2
 167              		.global	grid_update
 168              		.thumb
 169              		.thumb_func
 170              		.type	grid_update, %function
 171              	grid_update:
 172              	.LFB1:
  42:..\VFH/histogram_grid.c **** 
  43:..\VFH/histogram_grid.c **** int grid_update(grid * map, Sensor * sensors, Robot * robot) {
 173              		.loc 1 43 0
 174              		.cfi_startproc
 175              		@ args = 0, pretend = 0, frame = 168
 176              		@ frame_needed = 1, uses_anonymous_args = 0
 177 0000 2DE9F043 		push	{r4, r5, r6, r7, r8, r9, lr}
 178              		.cfi_def_cfa_offset 28
 179              		.cfi_offset 4, -28
 180              		.cfi_offset 5, -24
 181              		.cfi_offset 6, -20
ARM GAS  C:\Users\cyu13\AppData\Local\Temp\ccSXIDcA.s 			page 5


 182              		.cfi_offset 7, -16
 183              		.cfi_offset 8, -12
 184              		.cfi_offset 9, -8
 185              		.cfi_offset 14, -4
 186 0004 ABB0     		sub	sp, sp, #172
 187              		.cfi_def_cfa_offset 200
 188 0006 00AF     		add	r7, sp, #0
 189              		.cfi_def_cfa_register 7
 190 0008 F860     		str	r0, [r7, #12]
 191 000a B960     		str	r1, [r7, #8]
 192 000c 7A60     		str	r2, [r7, #4]
  44:..\VFH/histogram_grid.c ****   /*
  45:..\VFH/histogram_grid.c ****    * Updates Histogram with detected obstacles.
  46:..\VFH/histogram_grid.c ****    * Takes robot positioning and sensor measurements to determine obstacles location.
  47:..\VFH/histogram_grid.c ****    *
  48:..\VFH/histogram_grid.c ****    * Remember that cos() and sin() expect angles in RADIANS, not DEGREES.
  49:..\VFH/histogram_grid.c ****   */
  50:..\VFH/histogram_grid.c **** 
  51:..\VFH/histogram_grid.c ****   // Check if grid map exists
  52:..\VFH/histogram_grid.c ****   if (map == NULL) return 0;
 193              		.loc 1 52 0
 194 000e FB68     		ldr	r3, [r7, #12]
 195 0010 002B     		cmp	r3, #0
 196 0012 01D1     		bne	.L10
 197              		.loc 1 52 0 is_stmt 0 discriminator 1
 198 0014 0023     		movs	r3, #0
 199 0016 6DE1     		b	.L25
 200              	.L10:
  53:..\VFH/histogram_grid.c ****   if (map->cells == NULL) return 0;
 201              		.loc 1 53 0 is_stmt 1
 202 0018 FB68     		ldr	r3, [r7, #12]
 203 001a DB68     		ldr	r3, [r3, #12]
 204 001c 002B     		cmp	r3, #0
 205 001e 01D1     		bne	.L12
 206              		.loc 1 53 0 is_stmt 0 discriminator 1
 207 0020 0023     		movs	r3, #0
 208 0022 67E1     		b	.L25
 209              	.L12:
  54:..\VFH/histogram_grid.c **** 
  55:..\VFH/histogram_grid.c ****   // Extract needed variables from structure
  56:..\VFH/histogram_grid.c ****   double pos_x = robot->x;
 210              		.loc 1 56 0 is_stmt 1
 211 0024 7B68     		ldr	r3, [r7, #4]
 212 0026 03F11004 		add	r4, r3, #16
 213 002a D4E90034 		ldrd	r3, [r4]
 214 002e C7E92234 		strd	r3, [r7, #136]
  57:..\VFH/histogram_grid.c ****   double pos_y = robot->y;
 215              		.loc 1 57 0
 216 0032 7B68     		ldr	r3, [r7, #4]
 217 0034 03F11804 		add	r4, r3, #24
 218 0038 D4E90034 		ldrd	r3, [r4]
 219 003c C7E92034 		strd	r3, [r7, #128]
  58:..\VFH/histogram_grid.c ****   double yaw = robot->theta;
 220              		.loc 1 58 0
 221 0040 7B68     		ldr	r3, [r7, #4]
 222 0042 03F10804 		add	r4, r3, #8
 223 0046 D4E90034 		ldrd	r3, [r4]
ARM GAS  C:\Users\cyu13\AppData\Local\Temp\ccSXIDcA.s 			page 6


 224 004a C7E91E34 		strd	r3, [r7, #120]
 225              	.LBB4:
  59:..\VFH/histogram_grid.c **** 
  60:..\VFH/histogram_grid.c ****   // Determine distance of obstacle
  61:..\VFH/histogram_grid.c ****   double cell_distance[N_SENSORS];
  62:..\VFH/histogram_grid.c ****   for (int i = 0; i < N_SENSORS; ++i) {
 226              		.loc 1 62 0
 227 004e 0023     		movs	r3, #0
 228 0050 C7F8A430 		str	r3, [r7, #164]
 229 0054 1DE0     		b	.L13
 230              	.L14:
  63:..\VFH/histogram_grid.c ****     cell_distance[i] = sensors->distance[i] / map->resolution;
 231              		.loc 1 63 0 discriminator 3
 232 0056 BA68     		ldr	r2, [r7, #8]
 233 0058 D7F8A430 		ldr	r3, [r7, #164]
 234 005c 0433     		adds	r3, r3, #4
 235 005e 9B00     		lsls	r3, r3, #2
 236 0060 1344     		add	r3, r3, r2
 237 0062 5A68     		ldr	r2, [r3, #4]
 238 0064 FB68     		ldr	r3, [r7, #12]
 239 0066 9B68     		ldr	r3, [r3, #8]
 240 0068 92FBF3F3 		sdiv	r3, r2, r3
 241 006c 1846     		mov	r0, r3
 242 006e FFF7FEFF 		bl	__aeabi_i2d
 243 0072 0346     		mov	r3, r0
 244 0074 0C46     		mov	r4, r1
 245 0076 D7F8A420 		ldr	r2, [r7, #164]
 246 007a D200     		lsls	r2, r2, #3
 247 007c 07F1A801 		add	r1, r7, #168
 248 0080 0A44     		add	r2, r2, r1
 249 0082 703A     		subs	r2, r2, #112
 250 0084 C2E90034 		strd	r3, [r2]
  62:..\VFH/histogram_grid.c ****     cell_distance[i] = sensors->distance[i] / map->resolution;
 251              		.loc 1 62 0 discriminator 3
 252 0088 D7F8A430 		ldr	r3, [r7, #164]
 253 008c 0133     		adds	r3, r3, #1
 254 008e C7F8A430 		str	r3, [r7, #164]
 255              	.L13:
  62:..\VFH/histogram_grid.c ****     cell_distance[i] = sensors->distance[i] / map->resolution;
 256              		.loc 1 62 0 is_stmt 0 discriminator 1
 257 0092 D7F8A430 		ldr	r3, [r7, #164]
 258 0096 042B     		cmp	r3, #4
 259 0098 DDDD     		ble	.L14
 260              	.LBE4:
 261              	.LBB5:
  64:..\VFH/histogram_grid.c ****   }
  65:..\VFH/histogram_grid.c **** 
  66:..\VFH/histogram_grid.c ****   // Determine cell location of obstacles
  67:..\VFH/histogram_grid.c ****   double cell_location[N_SENSORS];
  68:..\VFH/histogram_grid.c ****   double theta; 
  69:..\VFH/histogram_grid.c ****   double robot_radians;
  70:..\VFH/histogram_grid.c **** 
  71:..\VFH/histogram_grid.c ****   for (int i = 0; i < N_SENSORS; ++i){
 262              		.loc 1 71 0 is_stmt 1
 263 009a 0023     		movs	r3, #0
 264 009c C7F89430 		str	r3, [r7, #148]
 265 00a0 22E1     		b	.L15
ARM GAS  C:\Users\cyu13\AppData\Local\Temp\ccSXIDcA.s 			page 7


 266              	.L24:
 267              	.LBB6:
  72:..\VFH/histogram_grid.c ****     // Convert sensor angle into radians
  73:..\VFH/histogram_grid.c ****     robot_radians = M_PI * sensors->direction[i] / 180;
 268              		.loc 1 73 0
 269 00a2 BB68     		ldr	r3, [r7, #8]
 270 00a4 D7F89420 		ldr	r2, [r7, #148]
 271 00a8 53F82230 		ldr	r3, [r3, r2, lsl #2]
 272 00ac 1846     		mov	r0, r3
 273 00ae FFF7FEFF 		bl	__aeabi_i2d
 274 00b2 93A3     		adr	r3, .L32
 275 00b4 D3E90023 		ldrd	r2, [r3]
 276 00b8 FFF7FEFF 		bl	__aeabi_dmul
 277 00bc 0346     		mov	r3, r0
 278 00be 0C46     		mov	r4, r1
 279 00c0 1846     		mov	r0, r3
 280 00c2 2146     		mov	r1, r4
 281 00c4 4FF00002 		mov	r2, #0
 282 00c8 914B     		ldr	r3, .L32+16
 283 00ca FFF7FEFF 		bl	__aeabi_ddiv
 284 00ce 0346     		mov	r3, r0
 285 00d0 0C46     		mov	r4, r1
 286 00d2 C7E91C34 		strd	r3, [r7, #112]
  74:..\VFH/histogram_grid.c ****     if (yaw + robot_radians < 0) {
 287              		.loc 1 74 0
 288 00d6 D7E91C23 		ldrd	r2, [r7, #112]
 289 00da D7E91E01 		ldrd	r0, [r7, #120]
 290 00de FFF7FEFF 		bl	__aeabi_dadd
 291 00e2 0346     		mov	r3, r0
 292 00e4 0C46     		mov	r4, r1
 293 00e6 1846     		mov	r0, r3
 294 00e8 2146     		mov	r1, r4
 295 00ea 4FF00002 		mov	r2, #0
 296 00ee 4FF00003 		mov	r3, #0
 297 00f2 FFF7FEFF 		bl	__aeabi_dcmplt
 298 00f6 0346     		mov	r3, r0
 299 00f8 002B     		cmp	r3, #0
 300 00fa 13D0     		beq	.L30
  75:..\VFH/histogram_grid.c ****       theta = yaw + robot_radians + M_TWOPI;
 301              		.loc 1 75 0
 302 00fc D7E91C23 		ldrd	r2, [r7, #112]
 303 0100 D7E91E01 		ldrd	r0, [r7, #120]
 304 0104 FFF7FEFF 		bl	__aeabi_dadd
 305 0108 0346     		mov	r3, r0
 306 010a 0C46     		mov	r4, r1
 307 010c 1846     		mov	r0, r3
 308 010e 2146     		mov	r1, r4
 309 0110 7DA3     		adr	r3, .L32+8
 310 0112 D3E90023 		ldrd	r2, [r3]
 311 0116 FFF7FEFF 		bl	__aeabi_dadd
 312 011a 0346     		mov	r3, r0
 313 011c 0C46     		mov	r4, r1
 314 011e C7E92634 		strd	r3, [r7, #152]
 315 0122 2FE0     		b	.L18
 316              	.L30:
  76:..\VFH/histogram_grid.c ****     } else if (yaw + robot_radians >= M_TWOPI) {
 317              		.loc 1 76 0
ARM GAS  C:\Users\cyu13\AppData\Local\Temp\ccSXIDcA.s 			page 8


 318 0124 D7E91C23 		ldrd	r2, [r7, #112]
 319 0128 D7E91E01 		ldrd	r0, [r7, #120]
 320 012c FFF7FEFF 		bl	__aeabi_dadd
 321 0130 0346     		mov	r3, r0
 322 0132 0C46     		mov	r4, r1
 323 0134 1846     		mov	r0, r3
 324 0136 2146     		mov	r1, r4
 325 0138 73A3     		adr	r3, .L32+8
 326 013a D3E90023 		ldrd	r2, [r3]
 327 013e FFF7FEFF 		bl	__aeabi_dcmpge
 328 0142 0346     		mov	r3, r0
 329 0144 002B     		cmp	r3, #0
 330 0146 13D0     		beq	.L31
  77:..\VFH/histogram_grid.c ****       theta = yaw + robot_radians - M_TWOPI;
 331              		.loc 1 77 0
 332 0148 D7E91C23 		ldrd	r2, [r7, #112]
 333 014c D7E91E01 		ldrd	r0, [r7, #120]
 334 0150 FFF7FEFF 		bl	__aeabi_dadd
 335 0154 0346     		mov	r3, r0
 336 0156 0C46     		mov	r4, r1
 337 0158 1846     		mov	r0, r3
 338 015a 2146     		mov	r1, r4
 339 015c 6AA3     		adr	r3, .L32+8
 340 015e D3E90023 		ldrd	r2, [r3]
 341 0162 FFF7FEFF 		bl	__aeabi_dsub
 342 0166 0346     		mov	r3, r0
 343 0168 0C46     		mov	r4, r1
 344 016a C7E92634 		strd	r3, [r7, #152]
 345 016e 09E0     		b	.L18
 346              	.L31:
  78:..\VFH/histogram_grid.c ****     } else {
  79:..\VFH/histogram_grid.c ****       theta = yaw + robot_radians;
 347              		.loc 1 79 0
 348 0170 D7E91C23 		ldrd	r2, [r7, #112]
 349 0174 D7E91E01 		ldrd	r0, [r7, #120]
 350 0178 FFF7FEFF 		bl	__aeabi_dadd
 351 017c 0346     		mov	r3, r0
 352 017e 0C46     		mov	r4, r1
 353 0180 C7E92634 		strd	r3, [r7, #152]
 354              	.L18:
  80:..\VFH/histogram_grid.c ****     }
  81:..\VFH/histogram_grid.c ****     
  82:..\VFH/histogram_grid.c ****     double new_x = pos_x/map->resolution + floor(cell_distance[i] * cos(theta));
 355              		.loc 1 82 0
 356 0184 FB68     		ldr	r3, [r7, #12]
 357 0186 9B68     		ldr	r3, [r3, #8]
 358 0188 1846     		mov	r0, r3
 359 018a FFF7FEFF 		bl	__aeabi_i2d
 360 018e 0346     		mov	r3, r0
 361 0190 0C46     		mov	r4, r1
 362 0192 1A46     		mov	r2, r3
 363 0194 2346     		mov	r3, r4
 364 0196 D7E92201 		ldrd	r0, [r7, #136]
 365 019a FFF7FEFF 		bl	__aeabi_ddiv
 366 019e 0346     		mov	r3, r0
 367 01a0 0C46     		mov	r4, r1
 368 01a2 9846     		mov	r8, r3
ARM GAS  C:\Users\cyu13\AppData\Local\Temp\ccSXIDcA.s 			page 9


 369 01a4 A146     		mov	r9, r4
 370 01a6 D7F89430 		ldr	r3, [r7, #148]
 371 01aa DB00     		lsls	r3, r3, #3
 372 01ac 07F1A802 		add	r2, r7, #168
 373 01b0 1344     		add	r3, r3, r2
 374 01b2 703B     		subs	r3, r3, #112
 375 01b4 D3E90045 		ldrd	r4, [r3]
 376 01b8 D7E92601 		ldrd	r0, [r7, #152]
 377 01bc FFF7FEFF 		bl	cos
 378 01c0 0246     		mov	r2, r0
 379 01c2 0B46     		mov	r3, r1
 380 01c4 2046     		mov	r0, r4
 381 01c6 2946     		mov	r1, r5
 382 01c8 FFF7FEFF 		bl	__aeabi_dmul
 383 01cc 0346     		mov	r3, r0
 384 01ce 0C46     		mov	r4, r1
 385 01d0 1846     		mov	r0, r3
 386 01d2 2146     		mov	r1, r4
 387 01d4 FFF7FEFF 		bl	floor
 388 01d8 0346     		mov	r3, r0
 389 01da 0C46     		mov	r4, r1
 390 01dc 1A46     		mov	r2, r3
 391 01de 2346     		mov	r3, r4
 392 01e0 4046     		mov	r0, r8
 393 01e2 4946     		mov	r1, r9
 394 01e4 FFF7FEFF 		bl	__aeabi_dadd
 395 01e8 0346     		mov	r3, r0
 396 01ea 0C46     		mov	r4, r1
 397 01ec C7E91A34 		strd	r3, [r7, #104]
  83:..\VFH/histogram_grid.c ****     double new_y = pos_y/map->resolution + floor(cell_distance[i] * sin(theta));
 398              		.loc 1 83 0
 399 01f0 FB68     		ldr	r3, [r7, #12]
 400 01f2 9B68     		ldr	r3, [r3, #8]
 401 01f4 1846     		mov	r0, r3
 402 01f6 FFF7FEFF 		bl	__aeabi_i2d
 403 01fa 0346     		mov	r3, r0
 404 01fc 0C46     		mov	r4, r1
 405 01fe 1A46     		mov	r2, r3
 406 0200 2346     		mov	r3, r4
 407 0202 D7E92001 		ldrd	r0, [r7, #128]
 408 0206 FFF7FEFF 		bl	__aeabi_ddiv
 409 020a 0346     		mov	r3, r0
 410 020c 0C46     		mov	r4, r1
 411 020e 9846     		mov	r8, r3
 412 0210 A146     		mov	r9, r4
 413 0212 D7F89430 		ldr	r3, [r7, #148]
 414 0216 DB00     		lsls	r3, r3, #3
 415 0218 07F1A802 		add	r2, r7, #168
 416 021c 1344     		add	r3, r3, r2
 417 021e 703B     		subs	r3, r3, #112
 418 0220 D3E90045 		ldrd	r4, [r3]
 419 0224 D7E92601 		ldrd	r0, [r7, #152]
 420 0228 FFF7FEFF 		bl	sin
 421 022c 0246     		mov	r2, r0
 422 022e 0B46     		mov	r3, r1
 423 0230 2046     		mov	r0, r4
 424 0232 2946     		mov	r1, r5
ARM GAS  C:\Users\cyu13\AppData\Local\Temp\ccSXIDcA.s 			page 10


 425 0234 FFF7FEFF 		bl	__aeabi_dmul
 426 0238 0346     		mov	r3, r0
 427 023a 0C46     		mov	r4, r1
 428 023c 1846     		mov	r0, r3
 429 023e 2146     		mov	r1, r4
 430 0240 FFF7FEFF 		bl	floor
 431 0244 0346     		mov	r3, r0
 432 0246 0C46     		mov	r4, r1
 433 0248 1A46     		mov	r2, r3
 434 024a 2346     		mov	r3, r4
 435 024c 4046     		mov	r0, r8
 436 024e 4946     		mov	r1, r9
 437 0250 FFF7FEFF 		bl	__aeabi_dadd
 438 0254 0346     		mov	r3, r0
 439 0256 0C46     		mov	r4, r1
 440 0258 C7E91834 		strd	r3, [r7, #96]
  84:..\VFH/histogram_grid.c ****     
  85:..\VFH/histogram_grid.c ****     // Check if point is within grid to avoid overflow
  86:..\VFH/histogram_grid.c ****     if (new_x < map->width && new_y < map->height) {
 441              		.loc 1 86 0
 442 025c FB68     		ldr	r3, [r7, #12]
 443 025e 1B68     		ldr	r3, [r3]
 444 0260 1846     		mov	r0, r3
 445 0262 FFF7FEFF 		bl	__aeabi_i2d
 446 0266 D7E91A23 		ldrd	r2, [r7, #104]
 447 026a FFF7FEFF 		bl	__aeabi_dcmpgt
 448 026e 0346     		mov	r3, r0
 449 0270 002B     		cmp	r3, #0
 450 0272 34D0     		beq	.L21
 451              		.loc 1 86 0 is_stmt 0 discriminator 1
 452 0274 FB68     		ldr	r3, [r7, #12]
 453 0276 5B68     		ldr	r3, [r3, #4]
 454 0278 1846     		mov	r0, r3
 455 027a FFF7FEFF 		bl	__aeabi_i2d
 456 027e D7E91823 		ldrd	r2, [r7, #96]
 457 0282 FFF7FEFF 		bl	__aeabi_dcmpgt
 458 0286 0346     		mov	r3, r0
 459 0288 002B     		cmp	r3, #0
 460 028a 28D0     		beq	.L21
  87:..\VFH/histogram_grid.c ****       map->cells[(int) new_x * map->width + (int) new_y] += 1;
 461              		.loc 1 87 0 is_stmt 1
 462 028c FB68     		ldr	r3, [r7, #12]
 463 028e DC68     		ldr	r4, [r3, #12]
 464 0290 D7E91A01 		ldrd	r0, [r7, #104]
 465 0294 FFF7FEFF 		bl	__aeabi_d2iz
 466 0298 0246     		mov	r2, r0
 467 029a FB68     		ldr	r3, [r7, #12]
 468 029c 1B68     		ldr	r3, [r3]
 469 029e 03FB02F5 		mul	r5, r3, r2
 470 02a2 D7E91801 		ldrd	r0, [r7, #96]
 471 02a6 FFF7FEFF 		bl	__aeabi_d2iz
 472 02aa 0346     		mov	r3, r0
 473 02ac 2B44     		add	r3, r3, r5
 474 02ae 9B00     		lsls	r3, r3, #2
 475 02b0 1C44     		add	r4, r4, r3
 476 02b2 FB68     		ldr	r3, [r7, #12]
 477 02b4 DD68     		ldr	r5, [r3, #12]
ARM GAS  C:\Users\cyu13\AppData\Local\Temp\ccSXIDcA.s 			page 11


 478 02b6 D7E91A01 		ldrd	r0, [r7, #104]
 479 02ba FFF7FEFF 		bl	__aeabi_d2iz
 480 02be 0246     		mov	r2, r0
 481 02c0 FB68     		ldr	r3, [r7, #12]
 482 02c2 1B68     		ldr	r3, [r3]
 483 02c4 03FB02F6 		mul	r6, r3, r2
 484 02c8 D7E91801 		ldrd	r0, [r7, #96]
 485 02cc FFF7FEFF 		bl	__aeabi_d2iz
 486 02d0 0346     		mov	r3, r0
 487 02d2 3344     		add	r3, r3, r6
 488 02d4 9B00     		lsls	r3, r3, #2
 489 02d6 2B44     		add	r3, r3, r5
 490 02d8 1B68     		ldr	r3, [r3]
 491 02da 0133     		adds	r3, r3, #1
 492 02dc 2360     		str	r3, [r4]
 493              	.L21:
 494              	.LBE6:
  71:..\VFH/histogram_grid.c ****     // Convert sensor angle into radians
 495              		.loc 1 71 0 discriminator 2
 496 02de D7F89430 		ldr	r3, [r7, #148]
 497 02e2 0133     		adds	r3, r3, #1
 498 02e4 C7F89430 		str	r3, [r7, #148]
 499              	.L15:
  71:..\VFH/histogram_grid.c ****     // Convert sensor angle into radians
 500              		.loc 1 71 0 is_stmt 0 discriminator 1
 501 02e8 D7F89430 		ldr	r3, [r7, #148]
 502 02ec 042B     		cmp	r3, #4
 503 02ee 7FF7D8AE 		ble	.L24
 504              	.LBE5:
  88:..\VFH/histogram_grid.c ****     } 
  89:..\VFH/histogram_grid.c ****   }
  90:..\VFH/histogram_grid.c **** 
  91:..\VFH/histogram_grid.c ****   return 1;
 505              		.loc 1 91 0 is_stmt 1
 506 02f2 0123     		movs	r3, #1
 507              	.L25:
  92:..\VFH/histogram_grid.c **** }
 508              		.loc 1 92 0 discriminator 1
 509 02f4 1846     		mov	r0, r3
 510 02f6 AC37     		adds	r7, r7, #172
 511              		.cfi_def_cfa_offset 28
 512 02f8 BD46     		mov	sp, r7
 513              		.cfi_def_cfa_register 13
 514              		@ sp needed
 515 02fa BDE8F083 		pop	{r4, r5, r6, r7, r8, r9, pc}
 516              	.L33:
 517 02fe 00BF     		.align	3
 518              	.L32:
 519 0300 182D4454 		.word	1413754136
 520 0304 FB210940 		.word	1074340347
 521 0308 182D4454 		.word	1413754136
 522 030c FB211940 		.word	1075388923
 523 0310 00806640 		.word	1080459264
 524              		.cfi_endproc
 525              	.LFE1:
 526              		.size	grid_update, .-grid_update
 527              		.section	.text.active_window,"ax",%progbits
ARM GAS  C:\Users\cyu13\AppData\Local\Temp\ccSXIDcA.s 			page 12


 528              		.align	2
 529              		.global	active_window
 530              		.thumb
 531              		.thumb_func
 532              		.type	active_window, %function
 533              	active_window:
 534              	.LFB2:
  93:..\VFH/histogram_grid.c **** 
  94:..\VFH/histogram_grid.c **** /* TODO: Finish implementing get_moving_window. */
  95:..\VFH/histogram_grid.c **** grid * active_window(grid * map, int curr_x, int curr_y, int dimension) {
 535              		.loc 1 95 0
 536              		.cfi_startproc
 537              		@ args = 0, pretend = 0, frame = 40
 538              		@ frame_needed = 1, uses_anonymous_args = 0
 539 0000 80B5     		push	{r7, lr}
 540              		.cfi_def_cfa_offset 8
 541              		.cfi_offset 7, -8
 542              		.cfi_offset 14, -4
 543 0002 8AB0     		sub	sp, sp, #40
 544              		.cfi_def_cfa_offset 48
 545 0004 00AF     		add	r7, sp, #0
 546              		.cfi_def_cfa_register 7
 547 0006 F860     		str	r0, [r7, #12]
 548 0008 B960     		str	r1, [r7, #8]
 549 000a 7A60     		str	r2, [r7, #4]
 550 000c 3B60     		str	r3, [r7]
  96:..\VFH/histogram_grid.c ****   /*
  97:..\VFH/histogram_grid.c ****    * Creates an active window surrounding robot.
  98:..\VFH/histogram_grid.c ****    *
  99:..\VFH/histogram_grid.c ****    * If grid_init returns NULL, exit the function.
 100:..\VFH/histogram_grid.c ****   */
 101:..\VFH/histogram_grid.c ****   grid * active = grid_create(dimension, dimension, map->resolution);
 551              		.loc 1 101 0
 552 000e FB68     		ldr	r3, [r7, #12]
 553 0010 9B68     		ldr	r3, [r3, #8]
 554 0012 1A46     		mov	r2, r3
 555 0014 3968     		ldr	r1, [r7]
 556 0016 3868     		ldr	r0, [r7]
 557 0018 FFF7FEFF 		bl	grid_create
 558 001c F861     		str	r0, [r7, #28]
 102:..\VFH/histogram_grid.c **** 
 103:..\VFH/histogram_grid.c ****   if (active != NULL) {
 559              		.loc 1 103 0
 560 001e FB69     		ldr	r3, [r7, #28]
 561 0020 002B     		cmp	r3, #0
 562 0022 51D0     		beq	.L35
 563              	.LBB7:
 104:..\VFH/histogram_grid.c **** 
 105:..\VFH/histogram_grid.c ****     /* Populate active window with existing values in grid map 
 106:..\VFH/histogram_grid.c ****      * Original author suggests using pointers to point directly to grid map values.
 107:..\VFH/histogram_grid.c ****      * This can be done but whether or not it is necessary is up for debate.
 108:..\VFH/histogram_grid.c ****     
 109:..\VFH/histogram_grid.c ****     */
 110:..\VFH/histogram_grid.c ****     for (int i = 0; i < dimension; ++i) {
 564              		.loc 1 110 0
 565 0024 0023     		movs	r3, #0
 566 0026 7B62     		str	r3, [r7, #36]
ARM GAS  C:\Users\cyu13\AppData\Local\Temp\ccSXIDcA.s 			page 13


 567 0028 49E0     		b	.L36
 568              	.L40:
 569              	.LBB8:
 111:..\VFH/histogram_grid.c ****       for (int j = 0; j < dimension; ++j) {
 570              		.loc 1 111 0
 571 002a 0023     		movs	r3, #0
 572 002c 3B62     		str	r3, [r7, #32]
 573 002e 3FE0     		b	.L37
 574              	.L39:
 575              	.LBB9:
 112:..\VFH/histogram_grid.c **** 
 113:..\VFH/histogram_grid.c ****         /* x and y are the center coordinates of the robot body with sensors. */
 114:..\VFH/histogram_grid.c ****         int grid_i = i + curr_x/map->resolution + (dimension - 1) / 2;
 576              		.loc 1 114 0
 577 0030 FB68     		ldr	r3, [r7, #12]
 578 0032 9B68     		ldr	r3, [r3, #8]
 579 0034 BA68     		ldr	r2, [r7, #8]
 580 0036 92FBF3F2 		sdiv	r2, r2, r3
 581 003a 7B6A     		ldr	r3, [r7, #36]
 582 003c 1A44     		add	r2, r2, r3
 583 003e 3B68     		ldr	r3, [r7]
 584 0040 013B     		subs	r3, r3, #1
 585 0042 D90F     		lsrs	r1, r3, #31
 586 0044 0B44     		add	r3, r3, r1
 587 0046 5B10     		asrs	r3, r3, #1
 588 0048 1344     		add	r3, r3, r2
 589 004a BB61     		str	r3, [r7, #24]
 115:..\VFH/histogram_grid.c ****         int grid_j = j + curr_y/map->resolution + (dimension - 1) / 2;
 590              		.loc 1 115 0
 591 004c FB68     		ldr	r3, [r7, #12]
 592 004e 9B68     		ldr	r3, [r3, #8]
 593 0050 7A68     		ldr	r2, [r7, #4]
 594 0052 92FBF3F2 		sdiv	r2, r2, r3
 595 0056 3B6A     		ldr	r3, [r7, #32]
 596 0058 1A44     		add	r2, r2, r3
 597 005a 3B68     		ldr	r3, [r7]
 598 005c 013B     		subs	r3, r3, #1
 599 005e D90F     		lsrs	r1, r3, #31
 600 0060 0B44     		add	r3, r3, r1
 601 0062 5B10     		asrs	r3, r3, #1
 602 0064 1344     		add	r3, r3, r2
 603 0066 7B61     		str	r3, [r7, #20]
 116:..\VFH/histogram_grid.c **** 
 117:..\VFH/histogram_grid.c ****         /* Copy the information from the grid to the moving window. */
 118:..\VFH/histogram_grid.c ****         if (grid_i < map->width && grid_j < map->height) {
 604              		.loc 1 118 0
 605 0068 FB68     		ldr	r3, [r7, #12]
 606 006a 1A68     		ldr	r2, [r3]
 607 006c BB69     		ldr	r3, [r7, #24]
 608 006e 9A42     		cmp	r2, r3
 609 0070 1BDD     		ble	.L38
 610              		.loc 1 118 0 is_stmt 0 discriminator 1
 611 0072 FB68     		ldr	r3, [r7, #12]
 612 0074 5A68     		ldr	r2, [r3, #4]
 613 0076 7B69     		ldr	r3, [r7, #20]
 614 0078 9A42     		cmp	r2, r3
 615 007a 16DD     		ble	.L38
ARM GAS  C:\Users\cyu13\AppData\Local\Temp\ccSXIDcA.s 			page 14


 119:..\VFH/histogram_grid.c ****           active->cells[i * dimension + j] = map->cells[grid_i * map->width + grid_j];
 616              		.loc 1 119 0 is_stmt 1
 617 007c FB69     		ldr	r3, [r7, #28]
 618 007e DA68     		ldr	r2, [r3, #12]
 619 0080 7B6A     		ldr	r3, [r7, #36]
 620 0082 3968     		ldr	r1, [r7]
 621 0084 01FB03F1 		mul	r1, r1, r3
 622 0088 3B6A     		ldr	r3, [r7, #32]
 623 008a 0B44     		add	r3, r3, r1
 624 008c 9B00     		lsls	r3, r3, #2
 625 008e 1344     		add	r3, r3, r2
 626 0090 FA68     		ldr	r2, [r7, #12]
 627 0092 D168     		ldr	r1, [r2, #12]
 628 0094 FA68     		ldr	r2, [r7, #12]
 629 0096 1268     		ldr	r2, [r2]
 630 0098 B869     		ldr	r0, [r7, #24]
 631 009a 00FB02F0 		mul	r0, r0, r2
 632 009e 7A69     		ldr	r2, [r7, #20]
 633 00a0 0244     		add	r2, r2, r0
 634 00a2 9200     		lsls	r2, r2, #2
 635 00a4 0A44     		add	r2, r2, r1
 636 00a6 1268     		ldr	r2, [r2]
 637 00a8 1A60     		str	r2, [r3]
 638              	.L38:
 639              	.LBE9:
 111:..\VFH/histogram_grid.c **** 
 640              		.loc 1 111 0 discriminator 2
 641 00aa 3B6A     		ldr	r3, [r7, #32]
 642 00ac 0133     		adds	r3, r3, #1
 643 00ae 3B62     		str	r3, [r7, #32]
 644              	.L37:
 111:..\VFH/histogram_grid.c **** 
 645              		.loc 1 111 0 is_stmt 0 discriminator 1
 646 00b0 3A6A     		ldr	r2, [r7, #32]
 647 00b2 3B68     		ldr	r3, [r7]
 648 00b4 9A42     		cmp	r2, r3
 649 00b6 BBDB     		blt	.L39
 650              	.LBE8:
 110:..\VFH/histogram_grid.c ****       for (int j = 0; j < dimension; ++j) {
 651              		.loc 1 110 0 is_stmt 1 discriminator 2
 652 00b8 7B6A     		ldr	r3, [r7, #36]
 653 00ba 0133     		adds	r3, r3, #1
 654 00bc 7B62     		str	r3, [r7, #36]
 655              	.L36:
 110:..\VFH/histogram_grid.c ****       for (int j = 0; j < dimension; ++j) {
 656              		.loc 1 110 0 is_stmt 0 discriminator 1
 657 00be 7A6A     		ldr	r2, [r7, #36]
 658 00c0 3B68     		ldr	r3, [r7]
 659 00c2 9A42     		cmp	r2, r3
 660 00c4 B1DB     		blt	.L40
 661 00c6 04E0     		b	.L43
 662              	.L35:
 663              	.LBE7:
 120:..\VFH/histogram_grid.c ****         }
 121:..\VFH/histogram_grid.c ****       }
 122:..\VFH/histogram_grid.c ****     }
 123:..\VFH/histogram_grid.c ****   } else {
ARM GAS  C:\Users\cyu13\AppData\Local\Temp\ccSXIDcA.s 			page 15


 124:..\VFH/histogram_grid.c ****     free(active);
 664              		.loc 1 124 0 is_stmt 1
 665 00c8 F869     		ldr	r0, [r7, #28]
 666 00ca FFF7FEFF 		bl	free
 125:..\VFH/histogram_grid.c ****     return NULL;
 667              		.loc 1 125 0
 668 00ce 0023     		movs	r3, #0
 669 00d0 00E0     		b	.L42
 670              	.L43:
 126:..\VFH/histogram_grid.c ****   }
 127:..\VFH/histogram_grid.c **** 
 128:..\VFH/histogram_grid.c ****   return active;
 671              		.loc 1 128 0
 672 00d2 FB69     		ldr	r3, [r7, #28]
 673              	.L42:
 129:..\VFH/histogram_grid.c **** }
 674              		.loc 1 129 0
 675 00d4 1846     		mov	r0, r3
 676 00d6 2837     		adds	r7, r7, #40
 677              		.cfi_def_cfa_offset 8
 678 00d8 BD46     		mov	sp, r7
 679              		.cfi_def_cfa_register 13
 680              		@ sp needed
 681 00da 80BD     		pop	{r7, pc}
 682              		.cfi_endproc
 683              	.LFE2:
 684              		.size	active_window, .-active_window
 685              		.text
 686              	.Letext0:
 687              		.file 2 "..\\VFH\\..\\Helper\\helper.h"
 688              		.file 3 "..\\VFH\\..\\Robot\\robot.h"
 689              		.file 4 "..\\VFH\\vfh.h"
 690              		.section	.debug_info,"",%progbits
 691              	.Ldebug_info0:
 692 0000 17040000 		.4byte	0x417
 693 0004 0400     		.2byte	0x4
 694 0006 00000000 		.4byte	.Ldebug_abbrev0
 695 000a 04       		.byte	0x4
 696 000b 01       		.uleb128 0x1
 697 000c 4A020000 		.4byte	.LASF48
 698 0010 0C       		.byte	0xc
 699 0011 8E010000 		.4byte	.LASF49
 700 0015 EC010000 		.4byte	.LASF50
 701 0019 00000000 		.4byte	.Ldebug_ranges0+0
 702 001d 00000000 		.4byte	0
 703 0021 00000000 		.4byte	.Ldebug_line0
 704 0025 02       		.uleb128 0x2
 705 0026 04       		.byte	0x4
 706 0027 05       		.byte	0x5
 707 0028 696E7400 		.ascii	"int\000"
 708 002c 03       		.uleb128 0x3
 709 002d 04       		.byte	0x4
 710 002e 07       		.byte	0x7
 711 002f 05010000 		.4byte	.LASF0
 712 0033 03       		.uleb128 0x3
 713 0034 08       		.byte	0x8
 714 0035 05       		.byte	0x5
ARM GAS  C:\Users\cyu13\AppData\Local\Temp\ccSXIDcA.s 			page 16


 715 0036 5A010000 		.4byte	.LASF1
 716 003a 03       		.uleb128 0x3
 717 003b 08       		.byte	0x8
 718 003c 04       		.byte	0x4
 719 003d C2010000 		.4byte	.LASF2
 720 0041 03       		.uleb128 0x3
 721 0042 01       		.byte	0x1
 722 0043 06       		.byte	0x6
 723 0044 D5010000 		.4byte	.LASF3
 724 0048 03       		.uleb128 0x3
 725 0049 01       		.byte	0x1
 726 004a 08       		.byte	0x8
 727 004b B2000000 		.4byte	.LASF4
 728 004f 03       		.uleb128 0x3
 729 0050 02       		.byte	0x2
 730 0051 05       		.byte	0x5
 731 0052 2F000000 		.4byte	.LASF5
 732 0056 03       		.uleb128 0x3
 733 0057 02       		.byte	0x2
 734 0058 07       		.byte	0x7
 735 0059 8A000000 		.4byte	.LASF6
 736 005d 03       		.uleb128 0x3
 737 005e 04       		.byte	0x4
 738 005f 05       		.byte	0x5
 739 0060 AB010000 		.4byte	.LASF7
 740 0064 03       		.uleb128 0x3
 741 0065 04       		.byte	0x4
 742 0066 07       		.byte	0x7
 743 0067 78000000 		.4byte	.LASF8
 744 006b 03       		.uleb128 0x3
 745 006c 08       		.byte	0x8
 746 006d 07       		.byte	0x7
 747 006e 18010000 		.4byte	.LASF9
 748 0072 03       		.uleb128 0x3
 749 0073 04       		.byte	0x4
 750 0074 07       		.byte	0x7
 751 0075 4A010000 		.4byte	.LASF10
 752 0079 03       		.uleb128 0x3
 753 007a 01       		.byte	0x1
 754 007b 08       		.byte	0x8
 755 007c 76010000 		.4byte	.LASF11
 756 0080 03       		.uleb128 0x3
 757 0081 08       		.byte	0x8
 758 0082 04       		.byte	0x4
 759 0083 CE000000 		.4byte	.LASF12
 760 0087 03       		.uleb128 0x3
 761 0088 04       		.byte	0x4
 762 0089 04       		.byte	0x4
 763 008a 53000000 		.4byte	.LASF13
 764 008e 04       		.uleb128 0x4
 765 008f 28       		.byte	0x28
 766 0090 02       		.byte	0x2
 767 0091 1A       		.byte	0x1a
 768 0092 AF000000 		.4byte	0xaf
 769 0096 05       		.uleb128 0x5
 770 0097 39000000 		.4byte	.LASF14
 771 009b 02       		.byte	0x2
ARM GAS  C:\Users\cyu13\AppData\Local\Temp\ccSXIDcA.s 			page 17


 772 009c 1B       		.byte	0x1b
 773 009d AF000000 		.4byte	0xaf
 774 00a1 00       		.byte	0
 775 00a2 05       		.uleb128 0x5
 776 00a3 4A000000 		.4byte	.LASF15
 777 00a7 02       		.byte	0x2
 778 00a8 1C       		.byte	0x1c
 779 00a9 AF000000 		.4byte	0xaf
 780 00ad 14       		.byte	0x14
 781 00ae 00       		.byte	0
 782 00af 06       		.uleb128 0x6
 783 00b0 25000000 		.4byte	0x25
 784 00b4 BF000000 		.4byte	0xbf
 785 00b8 07       		.uleb128 0x7
 786 00b9 72000000 		.4byte	0x72
 787 00bd 04       		.byte	0x4
 788 00be 00       		.byte	0
 789 00bf 08       		.uleb128 0x8
 790 00c0 53010000 		.4byte	.LASF24
 791 00c4 02       		.byte	0x2
 792 00c5 1D       		.byte	0x1d
 793 00c6 8E000000 		.4byte	0x8e
 794 00ca 04       		.uleb128 0x4
 795 00cb 70       		.byte	0x70
 796 00cc 03       		.byte	0x3
 797 00cd 1A       		.byte	0x1a
 798 00ce 71010000 		.4byte	0x171
 799 00d2 05       		.uleb128 0x5
 800 00d3 6D000000 		.4byte	.LASF16
 801 00d7 03       		.byte	0x3
 802 00d8 1C       		.byte	0x1c
 803 00d9 3A000000 		.4byte	0x3a
 804 00dd 00       		.byte	0
 805 00de 05       		.uleb128 0x5
 806 00df 1D000000 		.4byte	.LASF17
 807 00e3 03       		.byte	0x3
 808 00e4 1F       		.byte	0x1f
 809 00e5 3A000000 		.4byte	0x3a
 810 00e9 08       		.byte	0x8
 811 00ea 09       		.uleb128 0x9
 812 00eb 7800     		.ascii	"x\000"
 813 00ed 03       		.byte	0x3
 814 00ee 20       		.byte	0x20
 815 00ef 3A000000 		.4byte	0x3a
 816 00f3 10       		.byte	0x10
 817 00f4 09       		.uleb128 0x9
 818 00f5 7900     		.ascii	"y\000"
 819 00f7 03       		.byte	0x3
 820 00f8 21       		.byte	0x21
 821 00f9 3A000000 		.4byte	0x3a
 822 00fd 18       		.byte	0x18
 823 00fe 09       		.uleb128 0x9
 824 00ff 7600     		.ascii	"v\000"
 825 0101 03       		.byte	0x3
 826 0102 24       		.byte	0x24
 827 0103 3A000000 		.4byte	0x3a
 828 0107 20       		.byte	0x20
ARM GAS  C:\Users\cyu13\AppData\Local\Temp\ccSXIDcA.s 			page 18


 829 0108 09       		.uleb128 0x9
 830 0109 7700     		.ascii	"w\000"
 831 010b 03       		.byte	0x3
 832 010c 25       		.byte	0x25
 833 010d 3A000000 		.4byte	0x3a
 834 0111 28       		.byte	0x28
 835 0112 05       		.uleb128 0x5
 836 0113 36010000 		.4byte	.LASF18
 837 0117 03       		.byte	0x3
 838 0118 28       		.byte	0x28
 839 0119 3A000000 		.4byte	0x3a
 840 011d 30       		.byte	0x30
 841 011e 05       		.uleb128 0x5
 842 011f E9000000 		.4byte	.LASF19
 843 0123 03       		.byte	0x3
 844 0124 29       		.byte	0x29
 845 0125 3A000000 		.4byte	0x3a
 846 0129 38       		.byte	0x38
 847 012a 09       		.uleb128 0x9
 848 012b 4B6900   		.ascii	"Ki\000"
 849 012e 03       		.byte	0x3
 850 012f 2C       		.byte	0x2c
 851 0130 3A000000 		.4byte	0x3a
 852 0134 40       		.byte	0x40
 853 0135 09       		.uleb128 0x9
 854 0136 4B7000   		.ascii	"Kp\000"
 855 0139 03       		.byte	0x3
 856 013a 2D       		.byte	0x2d
 857 013b 3A000000 		.4byte	0x3a
 858 013f 48       		.byte	0x48
 859 0140 05       		.uleb128 0x5
 860 0141 40010000 		.4byte	.LASF20
 861 0145 03       		.byte	0x3
 862 0146 2E       		.byte	0x2e
 863 0147 3A000000 		.4byte	0x3a
 864 014b 50       		.byte	0x50
 865 014c 05       		.uleb128 0x5
 866 014d 43000000 		.4byte	.LASF21
 867 0151 03       		.byte	0x3
 868 0152 31       		.byte	0x31
 869 0153 3A000000 		.4byte	0x3a
 870 0157 58       		.byte	0x58
 871 0158 05       		.uleb128 0x5
 872 0159 CE010000 		.4byte	.LASF22
 873 015d 03       		.byte	0x3
 874 015e 32       		.byte	0x32
 875 015f 3A000000 		.4byte	0x3a
 876 0163 60       		.byte	0x60
 877 0164 05       		.uleb128 0x5
 878 0165 B4010000 		.4byte	.LASF23
 879 0169 03       		.byte	0x3
 880 016a 33       		.byte	0x33
 881 016b 3A000000 		.4byte	0x3a
 882 016f 68       		.byte	0x68
 883 0170 00       		.byte	0
 884 0171 08       		.uleb128 0x8
 885 0172 67000000 		.4byte	.LASF25
ARM GAS  C:\Users\cyu13\AppData\Local\Temp\ccSXIDcA.s 			page 19


 886 0176 03       		.byte	0x3
 887 0177 35       		.byte	0x35
 888 0178 CA000000 		.4byte	0xca
 889 017c 04       		.uleb128 0x4
 890 017d 10       		.byte	0x10
 891 017e 04       		.byte	0x4
 892 017f 12       		.byte	0x12
 893 0180 B5010000 		.4byte	0x1b5
 894 0184 05       		.uleb128 0x5
 895 0185 82010000 		.4byte	.LASF26
 896 0189 04       		.byte	0x4
 897 018a 13       		.byte	0x13
 898 018b 25000000 		.4byte	0x25
 899 018f 00       		.byte	0
 900 0190 05       		.uleb128 0x5
 901 0191 AB000000 		.4byte	.LASF27
 902 0195 04       		.byte	0x4
 903 0196 14       		.byte	0x14
 904 0197 25000000 		.4byte	0x25
 905 019b 04       		.byte	0x4
 906 019c 05       		.uleb128 0x5
 907 019d E1010000 		.4byte	.LASF28
 908 01a1 04       		.byte	0x4
 909 01a2 15       		.byte	0x15
 910 01a3 25000000 		.4byte	0x25
 911 01a7 08       		.byte	0x8
 912 01a8 05       		.uleb128 0x5
 913 01a9 88010000 		.4byte	.LASF29
 914 01ad 04       		.byte	0x4
 915 01ae 16       		.byte	0x16
 916 01af B5010000 		.4byte	0x1b5
 917 01b3 0C       		.byte	0xc
 918 01b4 00       		.byte	0
 919 01b5 0A       		.uleb128 0xa
 920 01b6 04       		.byte	0x4
 921 01b7 25000000 		.4byte	0x25
 922 01bb 08       		.uleb128 0x8
 923 01bc A6010000 		.4byte	.LASF30
 924 01c0 04       		.byte	0x4
 925 01c1 17       		.byte	0x17
 926 01c2 7C010000 		.4byte	0x17c
 927 01c6 0B       		.uleb128 0xb
 928 01c7 0A000000 		.4byte	.LASF31
 929 01cb 01       		.byte	0x1
 930 01cc 08       		.byte	0x8
 931 01cd 44020000 		.4byte	0x244
 932 01d1 00000000 		.4byte	.LFB0
 933 01d5 B0000000 		.4byte	.LFE0-.LFB0
 934 01d9 01       		.uleb128 0x1
 935 01da 9C       		.byte	0x9c
 936 01db 44020000 		.4byte	0x244
 937 01df 0C       		.uleb128 0xc
 938 01e0 82010000 		.4byte	.LASF26
 939 01e4 01       		.byte	0x1
 940 01e5 08       		.byte	0x8
 941 01e6 25000000 		.4byte	0x25
 942 01ea 02       		.uleb128 0x2
ARM GAS  C:\Users\cyu13\AppData\Local\Temp\ccSXIDcA.s 			page 20


 943 01eb 91       		.byte	0x91
 944 01ec 64       		.sleb128 -28
 945 01ed 0C       		.uleb128 0xc
 946 01ee AB000000 		.4byte	.LASF27
 947 01f2 01       		.byte	0x1
 948 01f3 08       		.byte	0x8
 949 01f4 25000000 		.4byte	0x25
 950 01f8 02       		.uleb128 0x2
 951 01f9 91       		.byte	0x91
 952 01fa 60       		.sleb128 -32
 953 01fb 0C       		.uleb128 0xc
 954 01fc E1010000 		.4byte	.LASF28
 955 0200 01       		.byte	0x1
 956 0201 08       		.byte	0x8
 957 0202 25000000 		.4byte	0x25
 958 0206 02       		.uleb128 0x2
 959 0207 91       		.byte	0x91
 960 0208 5C       		.sleb128 -36
 961 0209 0D       		.uleb128 0xd
 962 020a 6D617000 		.ascii	"map\000"
 963 020e 01       		.byte	0x1
 964 020f 0D       		.byte	0xd
 965 0210 44020000 		.4byte	0x244
 966 0214 02       		.uleb128 0x2
 967 0215 91       		.byte	0x91
 968 0216 6C       		.sleb128 -20
 969 0217 0E       		.uleb128 0xe
 970 0218 66000000 		.4byte	.LBB2
 971 021c 40000000 		.4byte	.LBE2-.LBB2
 972 0220 0D       		.uleb128 0xd
 973 0221 6900     		.ascii	"i\000"
 974 0223 01       		.byte	0x1
 975 0224 22       		.byte	0x22
 976 0225 25000000 		.4byte	0x25
 977 0229 02       		.uleb128 0x2
 978 022a 91       		.byte	0x91
 979 022b 74       		.sleb128 -12
 980 022c 0E       		.uleb128 0xe
 981 022d 6C000000 		.4byte	.LBB3
 982 0231 2C000000 		.4byte	.LBE3-.LBB3
 983 0235 0D       		.uleb128 0xd
 984 0236 6A00     		.ascii	"j\000"
 985 0238 01       		.byte	0x1
 986 0239 23       		.byte	0x23
 987 023a 25000000 		.4byte	0x25
 988 023e 02       		.uleb128 0x2
 989 023f 91       		.byte	0x91
 990 0240 70       		.sleb128 -16
 991 0241 00       		.byte	0
 992 0242 00       		.byte	0
 993 0243 00       		.byte	0
 994 0244 0A       		.uleb128 0xa
 995 0245 04       		.byte	0x4
 996 0246 BB010000 		.4byte	0x1bb
 997 024a 0B       		.uleb128 0xb
 998 024b 3E020000 		.4byte	.LASF32
 999 024f 01       		.byte	0x1
ARM GAS  C:\Users\cyu13\AppData\Local\Temp\ccSXIDcA.s 			page 21


 1000 0250 2B       		.byte	0x2b
 1001 0251 25000000 		.4byte	0x25
 1002 0255 00000000 		.4byte	.LFB1
 1003 0259 14030000 		.4byte	.LFE1-.LFB1
 1004 025d 01       		.uleb128 0x1
 1005 025e 9C       		.byte	0x9c
 1006 025f 50030000 		.4byte	0x350
 1007 0263 0F       		.uleb128 0xf
 1008 0264 6D617000 		.ascii	"map\000"
 1009 0268 01       		.byte	0x1
 1010 0269 2B       		.byte	0x2b
 1011 026a 44020000 		.4byte	0x244
 1012 026e 03       		.uleb128 0x3
 1013 026f 91       		.byte	0x91
 1014 0270 C47E     		.sleb128 -188
 1015 0272 0C       		.uleb128 0xc
 1016 0273 D5000000 		.4byte	.LASF33
 1017 0277 01       		.byte	0x1
 1018 0278 2B       		.byte	0x2b
 1019 0279 50030000 		.4byte	0x350
 1020 027d 03       		.uleb128 0x3
 1021 027e 91       		.byte	0x91
 1022 027f C07E     		.sleb128 -192
 1023 0281 0C       		.uleb128 0xc
 1024 0282 12010000 		.4byte	.LASF34
 1025 0286 01       		.byte	0x1
 1026 0287 2B       		.byte	0x2b
 1027 0288 56030000 		.4byte	0x356
 1028 028c 03       		.uleb128 0x3
 1029 028d 91       		.byte	0x91
 1030 028e BC7E     		.sleb128 -196
 1031 0290 10       		.uleb128 0x10
 1032 0291 23000000 		.4byte	.LASF35
 1033 0295 01       		.byte	0x1
 1034 0296 38       		.byte	0x38
 1035 0297 80000000 		.4byte	0x80
 1036 029b 02       		.uleb128 0x2
 1037 029c 91       		.byte	0x91
 1038 029d 40       		.sleb128 -64
 1039 029e 10       		.uleb128 0x10
 1040 029f 29000000 		.4byte	.LASF36
 1041 02a3 01       		.byte	0x1
 1042 02a4 39       		.byte	0x39
 1043 02a5 80000000 		.4byte	0x80
 1044 02a9 03       		.uleb128 0x3
 1045 02aa 91       		.byte	0x91
 1046 02ab B87F     		.sleb128 -72
 1047 02ad 0D       		.uleb128 0xd
 1048 02ae 79617700 		.ascii	"yaw\000"
 1049 02b2 01       		.byte	0x1
 1050 02b3 3A       		.byte	0x3a
 1051 02b4 80000000 		.4byte	0x80
 1052 02b8 03       		.uleb128 0x3
 1053 02b9 91       		.byte	0x91
 1054 02ba B07F     		.sleb128 -80
 1055 02bc 10       		.uleb128 0x10
 1056 02bd 9D000000 		.4byte	.LASF37
ARM GAS  C:\Users\cyu13\AppData\Local\Temp\ccSXIDcA.s 			page 22


 1057 02c1 01       		.byte	0x1
 1058 02c2 3D       		.byte	0x3d
 1059 02c3 5C030000 		.4byte	0x35c
 1060 02c7 03       		.uleb128 0x3
 1061 02c8 91       		.byte	0x91
 1062 02c9 F07E     		.sleb128 -144
 1063 02cb 10       		.uleb128 0x10
 1064 02cc 68010000 		.4byte	.LASF38
 1065 02d0 01       		.byte	0x1
 1066 02d1 43       		.byte	0x43
 1067 02d2 5C030000 		.4byte	0x35c
 1068 02d6 03       		.uleb128 0x3
 1069 02d7 91       		.byte	0x91
 1070 02d8 C87E     		.sleb128 -184
 1071 02da 10       		.uleb128 0x10
 1072 02db 1D000000 		.4byte	.LASF17
 1073 02df 01       		.byte	0x1
 1074 02e0 44       		.byte	0x44
 1075 02e1 80000000 		.4byte	0x80
 1076 02e5 02       		.uleb128 0x2
 1077 02e6 91       		.byte	0x91
 1078 02e7 50       		.sleb128 -48
 1079 02e8 10       		.uleb128 0x10
 1080 02e9 59000000 		.4byte	.LASF39
 1081 02ed 01       		.byte	0x1
 1082 02ee 45       		.byte	0x45
 1083 02ef 80000000 		.4byte	0x80
 1084 02f3 03       		.uleb128 0x3
 1085 02f4 91       		.byte	0x91
 1086 02f5 A87F     		.sleb128 -88
 1087 02f7 11       		.uleb128 0x11
 1088 02f8 4E000000 		.4byte	.LBB4
 1089 02fc 4C000000 		.4byte	.LBE4-.LBB4
 1090 0300 11030000 		.4byte	0x311
 1091 0304 0D       		.uleb128 0xd
 1092 0305 6900     		.ascii	"i\000"
 1093 0307 01       		.byte	0x1
 1094 0308 3E       		.byte	0x3e
 1095 0309 25000000 		.4byte	0x25
 1096 030d 02       		.uleb128 0x2
 1097 030e 91       		.byte	0x91
 1098 030f 5C       		.sleb128 -36
 1099 0310 00       		.byte	0
 1100 0311 0E       		.uleb128 0xe
 1101 0312 9A000000 		.4byte	.LBB5
 1102 0316 58020000 		.4byte	.LBE5-.LBB5
 1103 031a 0D       		.uleb128 0xd
 1104 031b 6900     		.ascii	"i\000"
 1105 031d 01       		.byte	0x1
 1106 031e 47       		.byte	0x47
 1107 031f 25000000 		.4byte	0x25
 1108 0323 02       		.uleb128 0x2
 1109 0324 91       		.byte	0x91
 1110 0325 4C       		.sleb128 -52
 1111 0326 0E       		.uleb128 0xe
 1112 0327 A2000000 		.4byte	.LBB6
 1113 032b 3C020000 		.4byte	.LBE6-.LBB6
ARM GAS  C:\Users\cyu13\AppData\Local\Temp\ccSXIDcA.s 			page 23


 1114 032f 10       		.uleb128 0x10
 1115 0330 DD000000 		.4byte	.LASF40
 1116 0334 01       		.byte	0x1
 1117 0335 52       		.byte	0x52
 1118 0336 80000000 		.4byte	0x80
 1119 033a 03       		.uleb128 0x3
 1120 033b 91       		.byte	0x91
 1121 033c A07F     		.sleb128 -96
 1122 033e 10       		.uleb128 0x10
 1123 033f E3000000 		.4byte	.LASF41
 1124 0343 01       		.byte	0x1
 1125 0344 53       		.byte	0x53
 1126 0345 80000000 		.4byte	0x80
 1127 0349 03       		.uleb128 0x3
 1128 034a 91       		.byte	0x91
 1129 034b 987F     		.sleb128 -104
 1130 034d 00       		.byte	0
 1131 034e 00       		.byte	0
 1132 034f 00       		.byte	0
 1133 0350 0A       		.uleb128 0xa
 1134 0351 04       		.byte	0x4
 1135 0352 BF000000 		.4byte	0xbf
 1136 0356 0A       		.uleb128 0xa
 1137 0357 04       		.byte	0x4
 1138 0358 71010000 		.4byte	0x171
 1139 035c 06       		.uleb128 0x6
 1140 035d 80000000 		.4byte	0x80
 1141 0361 6C030000 		.4byte	0x36c
 1142 0365 07       		.uleb128 0x7
 1143 0366 72000000 		.4byte	0x72
 1144 036a 04       		.byte	0x4
 1145 036b 00       		.byte	0
 1146 036c 12       		.uleb128 0x12
 1147 036d F7000000 		.4byte	.LASF51
 1148 0371 01       		.byte	0x1
 1149 0372 5F       		.byte	0x5f
 1150 0373 44020000 		.4byte	0x244
 1151 0377 00000000 		.4byte	.LFB2
 1152 037b DC000000 		.4byte	.LFE2-.LFB2
 1153 037f 01       		.uleb128 0x1
 1154 0380 9C       		.byte	0x9c
 1155 0381 0F       		.uleb128 0xf
 1156 0382 6D617000 		.ascii	"map\000"
 1157 0386 01       		.byte	0x1
 1158 0387 5F       		.byte	0x5f
 1159 0388 44020000 		.4byte	0x244
 1160 038c 02       		.uleb128 0x2
 1161 038d 91       		.byte	0x91
 1162 038e 5C       		.sleb128 -36
 1163 038f 0C       		.uleb128 0xc
 1164 0390 7B010000 		.4byte	.LASF42
 1165 0394 01       		.byte	0x1
 1166 0395 5F       		.byte	0x5f
 1167 0396 25000000 		.4byte	0x25
 1168 039a 02       		.uleb128 0x2
 1169 039b 91       		.byte	0x91
 1170 039c 58       		.sleb128 -40
ARM GAS  C:\Users\cyu13\AppData\Local\Temp\ccSXIDcA.s 			page 24


 1171 039d 0C       		.uleb128 0xc
 1172 039e 16000000 		.4byte	.LASF43
 1173 03a2 01       		.byte	0x1
 1174 03a3 5F       		.byte	0x5f
 1175 03a4 25000000 		.4byte	0x25
 1176 03a8 02       		.uleb128 0x2
 1177 03a9 91       		.byte	0x91
 1178 03aa 54       		.sleb128 -44
 1179 03ab 0C       		.uleb128 0xc
 1180 03ac 00000000 		.4byte	.LASF44
 1181 03b0 01       		.byte	0x1
 1182 03b1 5F       		.byte	0x5f
 1183 03b2 25000000 		.4byte	0x25
 1184 03b6 02       		.uleb128 0x2
 1185 03b7 91       		.byte	0x91
 1186 03b8 50       		.sleb128 -48
 1187 03b9 10       		.uleb128 0x10
 1188 03ba 2F010000 		.4byte	.LASF45
 1189 03be 01       		.byte	0x1
 1190 03bf 65       		.byte	0x65
 1191 03c0 44020000 		.4byte	0x244
 1192 03c4 02       		.uleb128 0x2
 1193 03c5 91       		.byte	0x91
 1194 03c6 6C       		.sleb128 -20
 1195 03c7 0E       		.uleb128 0xe
 1196 03c8 24000000 		.4byte	.LBB7
 1197 03cc A4000000 		.4byte	.LBE7-.LBB7
 1198 03d0 0D       		.uleb128 0xd
 1199 03d1 6900     		.ascii	"i\000"
 1200 03d3 01       		.byte	0x1
 1201 03d4 6E       		.byte	0x6e
 1202 03d5 25000000 		.4byte	0x25
 1203 03d9 02       		.uleb128 0x2
 1204 03da 91       		.byte	0x91
 1205 03db 74       		.sleb128 -12
 1206 03dc 0E       		.uleb128 0xe
 1207 03dd 2A000000 		.4byte	.LBB8
 1208 03e1 8E000000 		.4byte	.LBE8-.LBB8
 1209 03e5 0D       		.uleb128 0xd
 1210 03e6 6A00     		.ascii	"j\000"
 1211 03e8 01       		.byte	0x1
 1212 03e9 6F       		.byte	0x6f
 1213 03ea 25000000 		.4byte	0x25
 1214 03ee 02       		.uleb128 0x2
 1215 03ef 91       		.byte	0x91
 1216 03f0 70       		.sleb128 -16
 1217 03f1 0E       		.uleb128 0xe
 1218 03f2 30000000 		.4byte	.LBB9
 1219 03f6 7A000000 		.4byte	.LBE9-.LBB9
 1220 03fa 10       		.uleb128 0x10
 1221 03fb C0000000 		.4byte	.LASF46
 1222 03ff 01       		.byte	0x1
 1223 0400 72       		.byte	0x72
 1224 0401 25000000 		.4byte	0x25
 1225 0405 02       		.uleb128 0x2
 1226 0406 91       		.byte	0x91
 1227 0407 68       		.sleb128 -24
ARM GAS  C:\Users\cyu13\AppData\Local\Temp\ccSXIDcA.s 			page 25


 1228 0408 10       		.uleb128 0x10
 1229 0409 C7000000 		.4byte	.LASF47
 1230 040d 01       		.byte	0x1
 1231 040e 73       		.byte	0x73
 1232 040f 25000000 		.4byte	0x25
 1233 0413 02       		.uleb128 0x2
 1234 0414 91       		.byte	0x91
 1235 0415 64       		.sleb128 -28
 1236 0416 00       		.byte	0
 1237 0417 00       		.byte	0
 1238 0418 00       		.byte	0
 1239 0419 00       		.byte	0
 1240 041a 00       		.byte	0
 1241              		.section	.debug_abbrev,"",%progbits
 1242              	.Ldebug_abbrev0:
 1243 0000 01       		.uleb128 0x1
 1244 0001 11       		.uleb128 0x11
 1245 0002 01       		.byte	0x1
 1246 0003 25       		.uleb128 0x25
 1247 0004 0E       		.uleb128 0xe
 1248 0005 13       		.uleb128 0x13
 1249 0006 0B       		.uleb128 0xb
 1250 0007 03       		.uleb128 0x3
 1251 0008 0E       		.uleb128 0xe
 1252 0009 1B       		.uleb128 0x1b
 1253 000a 0E       		.uleb128 0xe
 1254 000b 55       		.uleb128 0x55
 1255 000c 17       		.uleb128 0x17
 1256 000d 11       		.uleb128 0x11
 1257 000e 01       		.uleb128 0x1
 1258 000f 10       		.uleb128 0x10
 1259 0010 17       		.uleb128 0x17
 1260 0011 00       		.byte	0
 1261 0012 00       		.byte	0
 1262 0013 02       		.uleb128 0x2
 1263 0014 24       		.uleb128 0x24
 1264 0015 00       		.byte	0
 1265 0016 0B       		.uleb128 0xb
 1266 0017 0B       		.uleb128 0xb
 1267 0018 3E       		.uleb128 0x3e
 1268 0019 0B       		.uleb128 0xb
 1269 001a 03       		.uleb128 0x3
 1270 001b 08       		.uleb128 0x8
 1271 001c 00       		.byte	0
 1272 001d 00       		.byte	0
 1273 001e 03       		.uleb128 0x3
 1274 001f 24       		.uleb128 0x24
 1275 0020 00       		.byte	0
 1276 0021 0B       		.uleb128 0xb
 1277 0022 0B       		.uleb128 0xb
 1278 0023 3E       		.uleb128 0x3e
 1279 0024 0B       		.uleb128 0xb
 1280 0025 03       		.uleb128 0x3
 1281 0026 0E       		.uleb128 0xe
 1282 0027 00       		.byte	0
 1283 0028 00       		.byte	0
 1284 0029 04       		.uleb128 0x4
ARM GAS  C:\Users\cyu13\AppData\Local\Temp\ccSXIDcA.s 			page 26


 1285 002a 13       		.uleb128 0x13
 1286 002b 01       		.byte	0x1
 1287 002c 0B       		.uleb128 0xb
 1288 002d 0B       		.uleb128 0xb
 1289 002e 3A       		.uleb128 0x3a
 1290 002f 0B       		.uleb128 0xb
 1291 0030 3B       		.uleb128 0x3b
 1292 0031 0B       		.uleb128 0xb
 1293 0032 01       		.uleb128 0x1
 1294 0033 13       		.uleb128 0x13
 1295 0034 00       		.byte	0
 1296 0035 00       		.byte	0
 1297 0036 05       		.uleb128 0x5
 1298 0037 0D       		.uleb128 0xd
 1299 0038 00       		.byte	0
 1300 0039 03       		.uleb128 0x3
 1301 003a 0E       		.uleb128 0xe
 1302 003b 3A       		.uleb128 0x3a
 1303 003c 0B       		.uleb128 0xb
 1304 003d 3B       		.uleb128 0x3b
 1305 003e 0B       		.uleb128 0xb
 1306 003f 49       		.uleb128 0x49
 1307 0040 13       		.uleb128 0x13
 1308 0041 38       		.uleb128 0x38
 1309 0042 0B       		.uleb128 0xb
 1310 0043 00       		.byte	0
 1311 0044 00       		.byte	0
 1312 0045 06       		.uleb128 0x6
 1313 0046 01       		.uleb128 0x1
 1314 0047 01       		.byte	0x1
 1315 0048 49       		.uleb128 0x49
 1316 0049 13       		.uleb128 0x13
 1317 004a 01       		.uleb128 0x1
 1318 004b 13       		.uleb128 0x13
 1319 004c 00       		.byte	0
 1320 004d 00       		.byte	0
 1321 004e 07       		.uleb128 0x7
 1322 004f 21       		.uleb128 0x21
 1323 0050 00       		.byte	0
 1324 0051 49       		.uleb128 0x49
 1325 0052 13       		.uleb128 0x13
 1326 0053 2F       		.uleb128 0x2f
 1327 0054 0B       		.uleb128 0xb
 1328 0055 00       		.byte	0
 1329 0056 00       		.byte	0
 1330 0057 08       		.uleb128 0x8
 1331 0058 16       		.uleb128 0x16
 1332 0059 00       		.byte	0
 1333 005a 03       		.uleb128 0x3
 1334 005b 0E       		.uleb128 0xe
 1335 005c 3A       		.uleb128 0x3a
 1336 005d 0B       		.uleb128 0xb
 1337 005e 3B       		.uleb128 0x3b
 1338 005f 0B       		.uleb128 0xb
 1339 0060 49       		.uleb128 0x49
 1340 0061 13       		.uleb128 0x13
 1341 0062 00       		.byte	0
ARM GAS  C:\Users\cyu13\AppData\Local\Temp\ccSXIDcA.s 			page 27


 1342 0063 00       		.byte	0
 1343 0064 09       		.uleb128 0x9
 1344 0065 0D       		.uleb128 0xd
 1345 0066 00       		.byte	0
 1346 0067 03       		.uleb128 0x3
 1347 0068 08       		.uleb128 0x8
 1348 0069 3A       		.uleb128 0x3a
 1349 006a 0B       		.uleb128 0xb
 1350 006b 3B       		.uleb128 0x3b
 1351 006c 0B       		.uleb128 0xb
 1352 006d 49       		.uleb128 0x49
 1353 006e 13       		.uleb128 0x13
 1354 006f 38       		.uleb128 0x38
 1355 0070 0B       		.uleb128 0xb
 1356 0071 00       		.byte	0
 1357 0072 00       		.byte	0
 1358 0073 0A       		.uleb128 0xa
 1359 0074 0F       		.uleb128 0xf
 1360 0075 00       		.byte	0
 1361 0076 0B       		.uleb128 0xb
 1362 0077 0B       		.uleb128 0xb
 1363 0078 49       		.uleb128 0x49
 1364 0079 13       		.uleb128 0x13
 1365 007a 00       		.byte	0
 1366 007b 00       		.byte	0
 1367 007c 0B       		.uleb128 0xb
 1368 007d 2E       		.uleb128 0x2e
 1369 007e 01       		.byte	0x1
 1370 007f 3F       		.uleb128 0x3f
 1371 0080 19       		.uleb128 0x19
 1372 0081 03       		.uleb128 0x3
 1373 0082 0E       		.uleb128 0xe
 1374 0083 3A       		.uleb128 0x3a
 1375 0084 0B       		.uleb128 0xb
 1376 0085 3B       		.uleb128 0x3b
 1377 0086 0B       		.uleb128 0xb
 1378 0087 27       		.uleb128 0x27
 1379 0088 19       		.uleb128 0x19
 1380 0089 49       		.uleb128 0x49
 1381 008a 13       		.uleb128 0x13
 1382 008b 11       		.uleb128 0x11
 1383 008c 01       		.uleb128 0x1
 1384 008d 12       		.uleb128 0x12
 1385 008e 06       		.uleb128 0x6
 1386 008f 40       		.uleb128 0x40
 1387 0090 18       		.uleb128 0x18
 1388 0091 9642     		.uleb128 0x2116
 1389 0093 19       		.uleb128 0x19
 1390 0094 01       		.uleb128 0x1
 1391 0095 13       		.uleb128 0x13
 1392 0096 00       		.byte	0
 1393 0097 00       		.byte	0
 1394 0098 0C       		.uleb128 0xc
 1395 0099 05       		.uleb128 0x5
 1396 009a 00       		.byte	0
 1397 009b 03       		.uleb128 0x3
 1398 009c 0E       		.uleb128 0xe
ARM GAS  C:\Users\cyu13\AppData\Local\Temp\ccSXIDcA.s 			page 28


 1399 009d 3A       		.uleb128 0x3a
 1400 009e 0B       		.uleb128 0xb
 1401 009f 3B       		.uleb128 0x3b
 1402 00a0 0B       		.uleb128 0xb
 1403 00a1 49       		.uleb128 0x49
 1404 00a2 13       		.uleb128 0x13
 1405 00a3 02       		.uleb128 0x2
 1406 00a4 18       		.uleb128 0x18
 1407 00a5 00       		.byte	0
 1408 00a6 00       		.byte	0
 1409 00a7 0D       		.uleb128 0xd
 1410 00a8 34       		.uleb128 0x34
 1411 00a9 00       		.byte	0
 1412 00aa 03       		.uleb128 0x3
 1413 00ab 08       		.uleb128 0x8
 1414 00ac 3A       		.uleb128 0x3a
 1415 00ad 0B       		.uleb128 0xb
 1416 00ae 3B       		.uleb128 0x3b
 1417 00af 0B       		.uleb128 0xb
 1418 00b0 49       		.uleb128 0x49
 1419 00b1 13       		.uleb128 0x13
 1420 00b2 02       		.uleb128 0x2
 1421 00b3 18       		.uleb128 0x18
 1422 00b4 00       		.byte	0
 1423 00b5 00       		.byte	0
 1424 00b6 0E       		.uleb128 0xe
 1425 00b7 0B       		.uleb128 0xb
 1426 00b8 01       		.byte	0x1
 1427 00b9 11       		.uleb128 0x11
 1428 00ba 01       		.uleb128 0x1
 1429 00bb 12       		.uleb128 0x12
 1430 00bc 06       		.uleb128 0x6
 1431 00bd 00       		.byte	0
 1432 00be 00       		.byte	0
 1433 00bf 0F       		.uleb128 0xf
 1434 00c0 05       		.uleb128 0x5
 1435 00c1 00       		.byte	0
 1436 00c2 03       		.uleb128 0x3
 1437 00c3 08       		.uleb128 0x8
 1438 00c4 3A       		.uleb128 0x3a
 1439 00c5 0B       		.uleb128 0xb
 1440 00c6 3B       		.uleb128 0x3b
 1441 00c7 0B       		.uleb128 0xb
 1442 00c8 49       		.uleb128 0x49
 1443 00c9 13       		.uleb128 0x13
 1444 00ca 02       		.uleb128 0x2
 1445 00cb 18       		.uleb128 0x18
 1446 00cc 00       		.byte	0
 1447 00cd 00       		.byte	0
 1448 00ce 10       		.uleb128 0x10
 1449 00cf 34       		.uleb128 0x34
 1450 00d0 00       		.byte	0
 1451 00d1 03       		.uleb128 0x3
 1452 00d2 0E       		.uleb128 0xe
 1453 00d3 3A       		.uleb128 0x3a
 1454 00d4 0B       		.uleb128 0xb
 1455 00d5 3B       		.uleb128 0x3b
ARM GAS  C:\Users\cyu13\AppData\Local\Temp\ccSXIDcA.s 			page 29


 1456 00d6 0B       		.uleb128 0xb
 1457 00d7 49       		.uleb128 0x49
 1458 00d8 13       		.uleb128 0x13
 1459 00d9 02       		.uleb128 0x2
 1460 00da 18       		.uleb128 0x18
 1461 00db 00       		.byte	0
 1462 00dc 00       		.byte	0
 1463 00dd 11       		.uleb128 0x11
 1464 00de 0B       		.uleb128 0xb
 1465 00df 01       		.byte	0x1
 1466 00e0 11       		.uleb128 0x11
 1467 00e1 01       		.uleb128 0x1
 1468 00e2 12       		.uleb128 0x12
 1469 00e3 06       		.uleb128 0x6
 1470 00e4 01       		.uleb128 0x1
 1471 00e5 13       		.uleb128 0x13
 1472 00e6 00       		.byte	0
 1473 00e7 00       		.byte	0
 1474 00e8 12       		.uleb128 0x12
 1475 00e9 2E       		.uleb128 0x2e
 1476 00ea 01       		.byte	0x1
 1477 00eb 3F       		.uleb128 0x3f
 1478 00ec 19       		.uleb128 0x19
 1479 00ed 03       		.uleb128 0x3
 1480 00ee 0E       		.uleb128 0xe
 1481 00ef 3A       		.uleb128 0x3a
 1482 00f0 0B       		.uleb128 0xb
 1483 00f1 3B       		.uleb128 0x3b
 1484 00f2 0B       		.uleb128 0xb
 1485 00f3 27       		.uleb128 0x27
 1486 00f4 19       		.uleb128 0x19
 1487 00f5 49       		.uleb128 0x49
 1488 00f6 13       		.uleb128 0x13
 1489 00f7 11       		.uleb128 0x11
 1490 00f8 01       		.uleb128 0x1
 1491 00f9 12       		.uleb128 0x12
 1492 00fa 06       		.uleb128 0x6
 1493 00fb 40       		.uleb128 0x40
 1494 00fc 18       		.uleb128 0x18
 1495 00fd 9642     		.uleb128 0x2116
 1496 00ff 19       		.uleb128 0x19
 1497 0100 00       		.byte	0
 1498 0101 00       		.byte	0
 1499 0102 00       		.byte	0
 1500              		.section	.debug_aranges,"",%progbits
 1501 0000 2C000000 		.4byte	0x2c
 1502 0004 0200     		.2byte	0x2
 1503 0006 00000000 		.4byte	.Ldebug_info0
 1504 000a 04       		.byte	0x4
 1505 000b 00       		.byte	0
 1506 000c 0000     		.2byte	0
 1507 000e 0000     		.2byte	0
 1508 0010 00000000 		.4byte	.LFB0
 1509 0014 B0000000 		.4byte	.LFE0-.LFB0
 1510 0018 00000000 		.4byte	.LFB1
 1511 001c 14030000 		.4byte	.LFE1-.LFB1
 1512 0020 00000000 		.4byte	.LFB2
ARM GAS  C:\Users\cyu13\AppData\Local\Temp\ccSXIDcA.s 			page 30


 1513 0024 DC000000 		.4byte	.LFE2-.LFB2
 1514 0028 00000000 		.4byte	0
 1515 002c 00000000 		.4byte	0
 1516              		.section	.debug_ranges,"",%progbits
 1517              	.Ldebug_ranges0:
 1518 0000 00000000 		.4byte	.LFB0
 1519 0004 B0000000 		.4byte	.LFE0
 1520 0008 00000000 		.4byte	.LFB1
 1521 000c 14030000 		.4byte	.LFE1
 1522 0010 00000000 		.4byte	.LFB2
 1523 0014 DC000000 		.4byte	.LFE2
 1524 0018 00000000 		.4byte	0
 1525 001c 00000000 		.4byte	0
 1526              		.section	.debug_line,"",%progbits
 1527              	.Ldebug_line0:
 1528 0000 5A010000 		.section	.debug_str,"MS",%progbits,1
 1528      02006F00 
 1528      00000201 
 1528      FB0E0D00 
 1528      01010101 
 1529              	.LASF44:
 1530 0000 64696D65 		.ascii	"dimension\000"
 1530      6E73696F 
 1530      6E00
 1531              	.LASF31:
 1532 000a 67726964 		.ascii	"grid_create\000"
 1532      5F637265 
 1532      61746500 
 1533              	.LASF43:
 1534 0016 63757272 		.ascii	"curr_y\000"
 1534      5F7900
 1535              	.LASF17:
 1536 001d 74686574 		.ascii	"theta\000"
 1536      6100
 1537              	.LASF35:
 1538 0023 706F735F 		.ascii	"pos_x\000"
 1538      7800
 1539              	.LASF36:
 1540 0029 706F735F 		.ascii	"pos_y\000"
 1540      7900
 1541              	.LASF5:
 1542 002f 73686F72 		.ascii	"short int\000"
 1542      7420696E 
 1542      7400
 1543              	.LASF14:
 1544 0039 64697265 		.ascii	"direction\000"
 1544      6374696F 
 1544      6E00
 1545              	.LASF21:
 1546 0043 676F616C 		.ascii	"goal_x\000"
 1546      5F7800
 1547              	.LASF15:
 1548 004a 64697374 		.ascii	"distance\000"
 1548      616E6365 
 1548      00
 1549              	.LASF13:
 1550 0053 666C6F61 		.ascii	"float\000"
ARM GAS  C:\Users\cyu13\AppData\Local\Temp\ccSXIDcA.s 			page 31


 1550      7400
 1551              	.LASF39:
 1552 0059 726F626F 		.ascii	"robot_radians\000"
 1552      745F7261 
 1552      6469616E 
 1552      7300
 1553              	.LASF25:
 1554 0067 526F626F 		.ascii	"Robot\000"
 1554      7400
 1555              	.LASF16:
 1556 006d 61786C65 		.ascii	"axle_width\000"
 1556      5F776964 
 1556      746800
 1557              	.LASF8:
 1558 0078 6C6F6E67 		.ascii	"long unsigned int\000"
 1558      20756E73 
 1558      69676E65 
 1558      6420696E 
 1558      7400
 1559              	.LASF6:
 1560 008a 73686F72 		.ascii	"short unsigned int\000"
 1560      7420756E 
 1560      7369676E 
 1560      65642069 
 1560      6E7400
 1561              	.LASF37:
 1562 009d 63656C6C 		.ascii	"cell_distance\000"
 1562      5F646973 
 1562      74616E63 
 1562      6500
 1563              	.LASF27:
 1564 00ab 68656967 		.ascii	"height\000"
 1564      687400
 1565              	.LASF4:
 1566 00b2 756E7369 		.ascii	"unsigned char\000"
 1566      676E6564 
 1566      20636861 
 1566      7200
 1567              	.LASF46:
 1568 00c0 67726964 		.ascii	"grid_i\000"
 1568      5F6900
 1569              	.LASF47:
 1570 00c7 67726964 		.ascii	"grid_j\000"
 1570      5F6A00
 1571              	.LASF12:
 1572 00ce 646F7562 		.ascii	"double\000"
 1572      6C6500
 1573              	.LASF33:
 1574 00d5 73656E73 		.ascii	"sensors\000"
 1574      6F727300 
 1575              	.LASF40:
 1576 00dd 6E65775F 		.ascii	"new_x\000"
 1576      7800
 1577              	.LASF41:
 1578 00e3 6E65775F 		.ascii	"new_y\000"
 1578      7900
 1579              	.LASF19:
ARM GAS  C:\Users\cyu13\AppData\Local\Temp\ccSXIDcA.s 			page 32


 1580 00e9 64657369 		.ascii	"desired_theta\000"
 1580      7265645F 
 1580      74686574 
 1580      6100
 1581              	.LASF51:
 1582 00f7 61637469 		.ascii	"active_window\000"
 1582      76655F77 
 1582      696E646F 
 1582      7700
 1583              	.LASF0:
 1584 0105 756E7369 		.ascii	"unsigned int\000"
 1584      676E6564 
 1584      20696E74 
 1584      00
 1585              	.LASF34:
 1586 0112 726F626F 		.ascii	"robot\000"
 1586      7400
 1587              	.LASF9:
 1588 0118 6C6F6E67 		.ascii	"long long unsigned int\000"
 1588      206C6F6E 
 1588      6720756E 
 1588      7369676E 
 1588      65642069 
 1589              	.LASF45:
 1590 012f 61637469 		.ascii	"active\000"
 1590      766500
 1591              	.LASF18:
 1592 0136 64657369 		.ascii	"desired_v\000"
 1592      7265645F 
 1592      7600
 1593              	.LASF20:
 1594 0140 696E745F 		.ascii	"int_error\000"
 1594      6572726F 
 1594      7200
 1595              	.LASF10:
 1596 014a 73697A65 		.ascii	"sizetype\000"
 1596      74797065 
 1596      00
 1597              	.LASF24:
 1598 0153 53656E73 		.ascii	"Sensor\000"
 1598      6F7200
 1599              	.LASF1:
 1600 015a 6C6F6E67 		.ascii	"long long int\000"
 1600      206C6F6E 
 1600      6720696E 
 1600      7400
 1601              	.LASF38:
 1602 0168 63656C6C 		.ascii	"cell_location\000"
 1602      5F6C6F63 
 1602      6174696F 
 1602      6E00
 1603              	.LASF11:
 1604 0176 63686172 		.ascii	"char\000"
 1604      00
 1605              	.LASF42:
 1606 017b 63757272 		.ascii	"curr_x\000"
 1606      5F7800
ARM GAS  C:\Users\cyu13\AppData\Local\Temp\ccSXIDcA.s 			page 33


 1607              	.LASF26:
 1608 0182 77696474 		.ascii	"width\000"
 1608      6800
 1609              	.LASF29:
 1610 0188 63656C6C 		.ascii	"cells\000"
 1610      7300
 1611              	.LASF49:
 1612 018e 2E2E5C56 		.ascii	"..\\VFH\\histogram_grid.c\000"
 1612      46485C68 
 1612      6973746F 
 1612      6772616D 
 1612      5F677269 
 1613              	.LASF30:
 1614 01a6 67726964 		.ascii	"grid\000"
 1614      00
 1615              	.LASF7:
 1616 01ab 6C6F6E67 		.ascii	"long int\000"
 1616      20696E74 
 1616      00
 1617              	.LASF23:
 1618 01b4 676F616C 		.ascii	"goal_min_dist\000"
 1618      5F6D696E 
 1618      5F646973 
 1618      7400
 1619              	.LASF2:
 1620 01c2 6C6F6E67 		.ascii	"long double\000"
 1620      20646F75 
 1620      626C6500 
 1621              	.LASF22:
 1622 01ce 676F616C 		.ascii	"goal_y\000"
 1622      5F7900
 1623              	.LASF3:
 1624 01d5 7369676E 		.ascii	"signed char\000"
 1624      65642063 
 1624      68617200 
 1625              	.LASF28:
 1626 01e1 7265736F 		.ascii	"resolution\000"
 1626      6C757469 
 1626      6F6E00
 1627              	.LASF50:
 1628 01ec 433A5C55 		.ascii	"C:\\Users\\cyu13\\Desktop\\ECE4191 GitHub\\pathfind"
 1628      73657273 
 1628      5C637975 
 1628      31335C44 
 1628      65736B74 
 1629 021a 696E672D 		.ascii	"ing-vfh\\ECE4191\\DeliveryRobot.cydsn\000"
 1629      7666685C 
 1629      45434534 
 1629      3139315C 
 1629      44656C69 
 1630              	.LASF32:
 1631 023e 67726964 		.ascii	"grid_update\000"
 1631      5F757064 
 1631      61746500 
 1632              	.LASF48:
 1633 024a 474E5520 		.ascii	"GNU C11 5.4.1 20160609 (release) [ARM/embedded-5-br"
 1633      43313120 
ARM GAS  C:\Users\cyu13\AppData\Local\Temp\ccSXIDcA.s 			page 34


 1633      352E342E 
 1633      31203230 
 1633      31363036 
 1634 027d 616E6368 		.ascii	"anch revision 237715] -mcpu=cortex-m3 -mthumb -g -O"
 1634      20726576 
 1634      6973696F 
 1634      6E203233 
 1634      37373135 
 1635 02b0 30202D66 		.ascii	"0 -ffunction-sections -ffat-lto-objects\000"
 1635      66756E63 
 1635      74696F6E 
 1635      2D736563 
 1635      74696F6E 
 1636              		.ident	"GCC: (GNU Tools for ARM Embedded Processors) 5.4.1 20160609 (release) [ARM/embedded-5-bran
