ARM GAS  C:\Users\jmspi\AppData\Local\Temp\cc60T6yb.s 			page 1


   1              		.syntax unified
   2              		.cpu cortex-m3
   3              		.fpu softvfp
   4              		.eabi_attribute 20, 1
   5              		.eabi_attribute 21, 1
   6              		.eabi_attribute 23, 3
   7              		.eabi_attribute 24, 1
   8              		.eabi_attribute 25, 1
   9              		.eabi_attribute 26, 1
  10              		.eabi_attribute 30, 6
  11              		.eabi_attribute 34, 1
  12              		.eabi_attribute 18, 4
  13              		.thumb
  14              		.syntax unified
  15              		.file	"histogram_grid.c"
  16              		.text
  17              	.Ltext0:
  18              		.cfi_sections	.debug_frame
  19              		.section	.text.initial_grid,"ax",%progbits
  20              		.align	2
  21              		.global	initial_grid
  22              		.thumb
  23              		.thumb_func
  24              		.type	initial_grid, %function
  25              	initial_grid:
  26              	.LFB0:
  27              		.file 1 "VFH\\src\\histogram_grid.c"
   1:VFH\src/histogram_grid.c **** #include <assert.h>
   2:VFH\src/histogram_grid.c **** #include <math.h>
   3:VFH\src/histogram_grid.c **** #include <stdlib.h>
   4:VFH\src/histogram_grid.c **** 
   5:VFH\src/histogram_grid.c **** #include "histogram_grid.h"
   6:VFH\src/histogram_grid.c **** 
   7:VFH\src/histogram_grid.c **** // Histogram Grid for VFH implementation
   8:VFH\src/histogram_grid.c **** 
   9:VFH\src/histogram_grid.c **** grid * initial_grid(int width, int height, int resolution) {
  28              		.loc 1 9 0
  29              		.cfi_startproc
  30              		@ args = 0, pretend = 0, frame = 32
  31              		@ frame_needed = 1, uses_anonymous_args = 0
  32 0000 80B5     		push	{r7, lr}
  33              		.cfi_def_cfa_offset 8
  34              		.cfi_offset 7, -8
  35              		.cfi_offset 14, -4
  36 0002 88B0     		sub	sp, sp, #32
  37              		.cfi_def_cfa_offset 40
  38 0004 00AF     		add	r7, sp, #0
  39              		.cfi_def_cfa_register 7
  40 0006 F860     		str	r0, [r7, #12]
  41 0008 B960     		str	r1, [r7, #8]
  42 000a 7A60     		str	r2, [r7, #4]
  10:VFH\src/histogram_grid.c ****   /* Source code mentions assertions for poorly defined resolution values
  11:VFH\src/histogram_grid.c ****    * This assertion shouldn't be necessary given how well defined our environment is
  12:VFH\src/histogram_grid.c ****   */
  13:VFH\src/histogram_grid.c **** 
  14:VFH\src/histogram_grid.c ****   grid * map = malloc(sizeof(grid));  // Allocate memory for grid map
  43              		.loc 1 14 0
ARM GAS  C:\Users\jmspi\AppData\Local\Temp\cc60T6yb.s 			page 2


  44 000c 1020     		movs	r0, #16
  45 000e FFF7FEFF 		bl	malloc
  46 0012 0346     		mov	r3, r0
  47 0014 7B61     		str	r3, [r7, #20]
  15:VFH\src/histogram_grid.c **** 
  16:VFH\src/histogram_grid.c ****   // Return NULL if not enough memory
  17:VFH\src/histogram_grid.c ****   if (map == NULL) {
  48              		.loc 1 17 0
  49 0016 7B69     		ldr	r3, [r7, #20]
  50 0018 002B     		cmp	r3, #0
  51 001a 04D1     		bne	.L2
  18:VFH\src/histogram_grid.c ****     free(map);
  52              		.loc 1 18 0
  53 001c 7869     		ldr	r0, [r7, #20]
  54 001e FFF7FEFF 		bl	free
  19:VFH\src/histogram_grid.c ****     return NULL;
  55              		.loc 1 19 0
  56 0022 0023     		movs	r3, #0
  57 0024 40E0     		b	.L3
  58              	.L2:
  20:VFH\src/histogram_grid.c ****   }
  21:VFH\src/histogram_grid.c **** 
  22:VFH\src/histogram_grid.c ****   // Define variables
  23:VFH\src/histogram_grid.c ****   map->width = width;
  59              		.loc 1 23 0
  60 0026 7B69     		ldr	r3, [r7, #20]
  61 0028 FA68     		ldr	r2, [r7, #12]
  62 002a 1A60     		str	r2, [r3]
  24:VFH\src/histogram_grid.c ****   map->height = height;
  63              		.loc 1 24 0
  64 002c 7B69     		ldr	r3, [r7, #20]
  65 002e BA68     		ldr	r2, [r7, #8]
  66 0030 5A60     		str	r2, [r3, #4]
  25:VFH\src/histogram_grid.c ****   map->resolution = resolution;
  67              		.loc 1 25 0
  68 0032 7B69     		ldr	r3, [r7, #20]
  69 0034 7A68     		ldr	r2, [r7, #4]
  70 0036 9A60     		str	r2, [r3, #8]
  26:VFH\src/histogram_grid.c ****   map->cells = malloc(width * height * sizeof(unsigned long));
  71              		.loc 1 26 0
  72 0038 FB68     		ldr	r3, [r7, #12]
  73 003a BA68     		ldr	r2, [r7, #8]
  74 003c 02FB03F3 		mul	r3, r2, r3
  75 0040 9B00     		lsls	r3, r3, #2
  76 0042 1846     		mov	r0, r3
  77 0044 FFF7FEFF 		bl	malloc
  78 0048 0346     		mov	r3, r0
  79 004a 1A46     		mov	r2, r3
  80 004c 7B69     		ldr	r3, [r7, #20]
  81 004e DA60     		str	r2, [r3, #12]
  27:VFH\src/histogram_grid.c **** 
  28:VFH\src/histogram_grid.c ****   // Return NULL if not enough memory
  29:VFH\src/histogram_grid.c ****   if (map->cells == NULL) {
  82              		.loc 1 29 0
  83 0050 7B69     		ldr	r3, [r7, #20]
  84 0052 DB68     		ldr	r3, [r3, #12]
  85 0054 002B     		cmp	r3, #0
ARM GAS  C:\Users\jmspi\AppData\Local\Temp\cc60T6yb.s 			page 3


  86 0056 06D1     		bne	.L4
  30:VFH\src/histogram_grid.c ****     free(map->cells);
  87              		.loc 1 30 0
  88 0058 7B69     		ldr	r3, [r7, #20]
  89 005a DB68     		ldr	r3, [r3, #12]
  90 005c 1846     		mov	r0, r3
  91 005e FFF7FEFF 		bl	free
  31:VFH\src/histogram_grid.c ****     return NULL;
  92              		.loc 1 31 0
  93 0062 0023     		movs	r3, #0
  94 0064 20E0     		b	.L3
  95              	.L4:
  96              	.LBB2:
  32:VFH\src/histogram_grid.c ****   }
  33:VFH\src/histogram_grid.c **** 
  34:VFH\src/histogram_grid.c ****   // Define all initial grid values to be 0 as there are no obstacles
  35:VFH\src/histogram_grid.c ****   for (int i = 0; i < width; ++i) {
  97              		.loc 1 35 0
  98 0066 0023     		movs	r3, #0
  99 0068 FB61     		str	r3, [r7, #28]
 100 006a 18E0     		b	.L5
 101              	.L8:
 102              	.LBB3:
  36:VFH\src/histogram_grid.c ****     for (int j = 0; j < height; ++j) {
 103              		.loc 1 36 0
 104 006c 0023     		movs	r3, #0
 105 006e BB61     		str	r3, [r7, #24]
 106 0070 0EE0     		b	.L6
 107              	.L7:
  37:VFH\src/histogram_grid.c ****       map->cells[i * width + j] = 0;    // Map grid is defined as a 1D array
 108              		.loc 1 37 0 discriminator 3
 109 0072 7B69     		ldr	r3, [r7, #20]
 110 0074 DA68     		ldr	r2, [r3, #12]
 111 0076 FB69     		ldr	r3, [r7, #28]
 112 0078 F968     		ldr	r1, [r7, #12]
 113 007a 01FB03F1 		mul	r1, r1, r3
 114 007e BB69     		ldr	r3, [r7, #24]
 115 0080 0B44     		add	r3, r3, r1
 116 0082 9B00     		lsls	r3, r3, #2
 117 0084 1344     		add	r3, r3, r2
 118 0086 0022     		movs	r2, #0
 119 0088 1A60     		str	r2, [r3]
  36:VFH\src/histogram_grid.c ****     for (int j = 0; j < height; ++j) {
 120              		.loc 1 36 0 discriminator 3
 121 008a BB69     		ldr	r3, [r7, #24]
 122 008c 0133     		adds	r3, r3, #1
 123 008e BB61     		str	r3, [r7, #24]
 124              	.L6:
  36:VFH\src/histogram_grid.c ****     for (int j = 0; j < height; ++j) {
 125              		.loc 1 36 0 is_stmt 0 discriminator 1
 126 0090 BA69     		ldr	r2, [r7, #24]
 127 0092 BB68     		ldr	r3, [r7, #8]
 128 0094 9A42     		cmp	r2, r3
 129 0096 ECDB     		blt	.L7
 130              	.LBE3:
  35:VFH\src/histogram_grid.c ****     for (int j = 0; j < height; ++j) {
 131              		.loc 1 35 0 is_stmt 1 discriminator 2
ARM GAS  C:\Users\jmspi\AppData\Local\Temp\cc60T6yb.s 			page 4


 132 0098 FB69     		ldr	r3, [r7, #28]
 133 009a 0133     		adds	r3, r3, #1
 134 009c FB61     		str	r3, [r7, #28]
 135              	.L5:
  35:VFH\src/histogram_grid.c ****     for (int j = 0; j < height; ++j) {
 136              		.loc 1 35 0 is_stmt 0 discriminator 1
 137 009e FA69     		ldr	r2, [r7, #28]
 138 00a0 FB68     		ldr	r3, [r7, #12]
 139 00a2 9A42     		cmp	r2, r3
 140 00a4 E2DB     		blt	.L8
 141              	.LBE2:
  38:VFH\src/histogram_grid.c ****     }
  39:VFH\src/histogram_grid.c ****   }
  40:VFH\src/histogram_grid.c **** 
  41:VFH\src/histogram_grid.c ****   return map;
 142              		.loc 1 41 0 is_stmt 1
 143 00a6 7B69     		ldr	r3, [r7, #20]
 144              	.L3:
  42:VFH\src/histogram_grid.c **** }
 145              		.loc 1 42 0
 146 00a8 1846     		mov	r0, r3
 147 00aa 2037     		adds	r7, r7, #32
 148              		.cfi_def_cfa_offset 8
 149 00ac BD46     		mov	sp, r7
 150              		.cfi_def_cfa_register 13
 151              		@ sp needed
 152 00ae 80BD     		pop	{r7, pc}
 153              		.cfi_endproc
 154              	.LFE0:
 155              		.size	initial_grid, .-initial_grid
 156              		.global	__aeabi_ui2d
 157              		.global	__aeabi_i2d
 158              		.global	__aeabi_dmul
 159              		.global	__aeabi_ddiv
 160              		.global	__aeabi_d2iz
 161              		.section	.text.update_grid,"ax",%progbits
 162              		.align	2
 163              		.global	update_grid
 164              		.thumb
 165              		.thumb_func
 166              		.type	update_grid, %function
 167              	update_grid:
 168              	.LFB1:
  43:VFH\src/histogram_grid.c **** 
  44:VFH\src/histogram_grid.c **** int update_grid(grid * map, int pos_x, int pos_y, int yaw, sensor_data data) {
 169              		.loc 1 44 0
 170              		.cfi_startproc
 171              		@ args = 40, pretend = 0, frame = 80
 172              		@ frame_needed = 1, uses_anonymous_args = 0
 173 0000 F0B5     		push	{r4, r5, r6, r7, lr}
 174              		.cfi_def_cfa_offset 20
 175              		.cfi_offset 4, -20
 176              		.cfi_offset 5, -16
 177              		.cfi_offset 6, -12
 178              		.cfi_offset 7, -8
 179              		.cfi_offset 14, -4
 180 0002 95B0     		sub	sp, sp, #84
ARM GAS  C:\Users\jmspi\AppData\Local\Temp\cc60T6yb.s 			page 5


 181              		.cfi_def_cfa_offset 104
 182 0004 00AF     		add	r7, sp, #0
 183              		.cfi_def_cfa_register 7
 184 0006 F860     		str	r0, [r7, #12]
 185 0008 B960     		str	r1, [r7, #8]
 186 000a 7A60     		str	r2, [r7, #4]
 187 000c 3B60     		str	r3, [r7]
  45:VFH\src/histogram_grid.c ****   /*
  46:VFH\src/histogram_grid.c ****    * Updates Histogram with detected obstacles.
  47:VFH\src/histogram_grid.c ****    * Takes robot positioning and sensor measurements to determine obstacles location.
  48:VFH\src/histogram_grid.c ****    *
  49:VFH\src/histogram_grid.c ****    * Remember that cos() and sin() expect angles in RADIANS, not DEGREES.
  50:VFH\src/histogram_grid.c ****   */
  51:VFH\src/histogram_grid.c **** 
  52:VFH\src/histogram_grid.c ****   // Check if grid map exists
  53:VFH\src/histogram_grid.c ****   if (map == NULL) return 0;
 188              		.loc 1 53 0
 189 000e FB68     		ldr	r3, [r7, #12]
 190 0010 002B     		cmp	r3, #0
 191 0012 01D1     		bne	.L10
 192              		.loc 1 53 0 is_stmt 0 discriminator 1
 193 0014 0023     		movs	r3, #0
 194 0016 FDE0     		b	.L21
 195              	.L10:
  54:VFH\src/histogram_grid.c ****   if (map->cells == NULL) return 0;
 196              		.loc 1 54 0 is_stmt 1
 197 0018 FB68     		ldr	r3, [r7, #12]
 198 001a DB68     		ldr	r3, [r3, #12]
 199 001c 002B     		cmp	r3, #0
 200 001e 01D1     		bne	.L12
 201              		.loc 1 54 0 is_stmt 0 discriminator 1
 202 0020 0023     		movs	r3, #0
 203 0022 F7E0     		b	.L21
 204              	.L12:
 205              	.LBB4:
  55:VFH\src/histogram_grid.c **** 
  56:VFH\src/histogram_grid.c ****   // Determine distance of obstacle
  57:VFH\src/histogram_grid.c ****   double cell_distance[N_SENSORS];
  58:VFH\src/histogram_grid.c ****   for (int i = 0; i < N_SENSORS; ++i) {
 206              		.loc 1 58 0 is_stmt 1
 207 0024 0023     		movs	r3, #0
 208 0026 FB64     		str	r3, [r7, #76]
 209 0028 1AE0     		b	.L13
 210              	.L14:
  59:VFH\src/histogram_grid.c ****     cell_distance[i] = data.distance[i] / map->resolution;
 211              		.loc 1 59 0 discriminator 3
 212 002a FB6C     		ldr	r3, [r7, #76]
 213 002c 0433     		adds	r3, r3, #4
 214 002e 9B00     		lsls	r3, r3, #2
 215 0030 07F16802 		add	r2, r7, #104
 216 0034 1344     		add	r3, r3, r2
 217 0036 5B68     		ldr	r3, [r3, #4]
 218 0038 FA68     		ldr	r2, [r7, #12]
 219 003a 9268     		ldr	r2, [r2, #8]
 220 003c B3FBF2F3 		udiv	r3, r3, r2
 221 0040 1846     		mov	r0, r3
 222 0042 FFF7FEFF 		bl	__aeabi_ui2d
ARM GAS  C:\Users\jmspi\AppData\Local\Temp\cc60T6yb.s 			page 6


 223 0046 0346     		mov	r3, r0
 224 0048 0C46     		mov	r4, r1
 225 004a FA6C     		ldr	r2, [r7, #76]
 226 004c D200     		lsls	r2, r2, #3
 227 004e 07F15001 		add	r1, r7, #80
 228 0052 0A44     		add	r2, r2, r1
 229 0054 403A     		subs	r2, r2, #64
 230 0056 C2E90034 		strd	r3, [r2]
  58:VFH\src/histogram_grid.c ****     cell_distance[i] = data.distance[i] / map->resolution;
 231              		.loc 1 58 0 discriminator 3
 232 005a FB6C     		ldr	r3, [r7, #76]
 233 005c 0133     		adds	r3, r3, #1
 234 005e FB64     		str	r3, [r7, #76]
 235              	.L13:
  58:VFH\src/histogram_grid.c ****     cell_distance[i] = data.distance[i] / map->resolution;
 236              		.loc 1 58 0 is_stmt 0 discriminator 1
 237 0060 FB6C     		ldr	r3, [r7, #76]
 238 0062 042B     		cmp	r3, #4
 239 0064 E1DD     		ble	.L14
 240              	.LBE4:
 241              	.LBB5:
  60:VFH\src/histogram_grid.c ****   }
  61:VFH\src/histogram_grid.c **** 
  62:VFH\src/histogram_grid.c ****   int theta;
  63:VFH\src/histogram_grid.c **** 
  64:VFH\src/histogram_grid.c ****   for (int i = 0; i < N_SENSORS; ++i){
 242              		.loc 1 64 0 is_stmt 1
 243 0066 0023     		movs	r3, #0
 244 0068 7B64     		str	r3, [r7, #68]
 245 006a CEE0     		b	.L15
 246              	.L20:
 247              	.LBB6:
  65:VFH\src/histogram_grid.c ****     if (yaw + data.direction[i] < 0) {
 248              		.loc 1 65 0
 249 006c 7B6C     		ldr	r3, [r7, #68]
 250 006e 07F16802 		add	r2, r7, #104
 251 0072 52F82320 		ldr	r2, [r2, r3, lsl #2]
 252 0076 3B68     		ldr	r3, [r7]
 253 0078 1344     		add	r3, r3, r2
 254 007a 002B     		cmp	r3, #0
 255 007c 0ADA     		bge	.L16
  66:VFH\src/histogram_grid.c ****       theta = yaw + data.direction[i] + 360;
 256              		.loc 1 66 0
 257 007e 7B6C     		ldr	r3, [r7, #68]
 258 0080 07F16802 		add	r2, r7, #104
 259 0084 52F82320 		ldr	r2, [r2, r3, lsl #2]
 260 0088 3B68     		ldr	r3, [r7]
 261 008a 1344     		add	r3, r3, r2
 262 008c 03F5B473 		add	r3, r3, #360
 263 0090 BB64     		str	r3, [r7, #72]
 264 0092 1CE0     		b	.L17
 265              	.L16:
  67:VFH\src/histogram_grid.c ****     } else if (yaw + data.direction[i] >= 360) {
 266              		.loc 1 67 0
 267 0094 7B6C     		ldr	r3, [r7, #68]
 268 0096 07F16802 		add	r2, r7, #104
 269 009a 52F82320 		ldr	r2, [r2, r3, lsl #2]
ARM GAS  C:\Users\jmspi\AppData\Local\Temp\cc60T6yb.s 			page 7


 270 009e 3B68     		ldr	r3, [r7]
 271 00a0 1344     		add	r3, r3, r2
 272 00a2 B3F5B47F 		cmp	r3, #360
 273 00a6 0ADB     		blt	.L18
  68:VFH\src/histogram_grid.c ****       theta = yaw + data.direction[i] - 360;
 274              		.loc 1 68 0
 275 00a8 7B6C     		ldr	r3, [r7, #68]
 276 00aa 07F16802 		add	r2, r7, #104
 277 00ae 52F82320 		ldr	r2, [r2, r3, lsl #2]
 278 00b2 3B68     		ldr	r3, [r7]
 279 00b4 1344     		add	r3, r3, r2
 280 00b6 A3F5B473 		sub	r3, r3, #360
 281 00ba BB64     		str	r3, [r7, #72]
 282 00bc 07E0     		b	.L17
 283              	.L18:
  69:VFH\src/histogram_grid.c ****     } else {
  70:VFH\src/histogram_grid.c ****       theta = yaw + data.direction[i];
 284              		.loc 1 70 0
 285 00be 7B6C     		ldr	r3, [r7, #68]
 286 00c0 07F16802 		add	r2, r7, #104
 287 00c4 52F82320 		ldr	r2, [r2, r3, lsl #2]
 288 00c8 3B68     		ldr	r3, [r7]
 289 00ca 1344     		add	r3, r3, r2
 290 00cc BB64     		str	r3, [r7, #72]
 291              	.L17:
  71:VFH\src/histogram_grid.c ****     }
  72:VFH\src/histogram_grid.c **** 
  73:VFH\src/histogram_grid.c ****     int new_x = pos_x/map->resolution + (int) floor(cell_distance[i] * cos(theta * M_PI / 180));
 292              		.loc 1 73 0
 293 00ce FB68     		ldr	r3, [r7, #12]
 294 00d0 9B68     		ldr	r3, [r3, #8]
 295 00d2 BA68     		ldr	r2, [r7, #8]
 296 00d4 92FBF3F6 		sdiv	r6, r2, r3
 297 00d8 7B6C     		ldr	r3, [r7, #68]
 298 00da DB00     		lsls	r3, r3, #3
 299 00dc 07F15002 		add	r2, r7, #80
 300 00e0 1344     		add	r3, r3, r2
 301 00e2 403B     		subs	r3, r3, #64
 302 00e4 D3E90045 		ldrd	r4, [r3]
 303 00e8 B86C     		ldr	r0, [r7, #72]
 304 00ea FFF7FEFF 		bl	__aeabi_i2d
 305 00ee 4CA3     		adr	r3, .L22
 306 00f0 D3E90023 		ldrd	r2, [r3]
 307 00f4 FFF7FEFF 		bl	__aeabi_dmul
 308 00f8 0246     		mov	r2, r0
 309 00fa 0B46     		mov	r3, r1
 310 00fc 1046     		mov	r0, r2
 311 00fe 1946     		mov	r1, r3
 312 0100 4FF00002 		mov	r2, #0
 313 0104 484B     		ldr	r3, .L22+8
 314 0106 FFF7FEFF 		bl	__aeabi_ddiv
 315 010a 0246     		mov	r2, r0
 316 010c 0B46     		mov	r3, r1
 317 010e 1046     		mov	r0, r2
 318 0110 1946     		mov	r1, r3
 319 0112 FFF7FEFF 		bl	cos
 320 0116 0246     		mov	r2, r0
ARM GAS  C:\Users\jmspi\AppData\Local\Temp\cc60T6yb.s 			page 8


 321 0118 0B46     		mov	r3, r1
 322 011a 2046     		mov	r0, r4
 323 011c 2946     		mov	r1, r5
 324 011e FFF7FEFF 		bl	__aeabi_dmul
 325 0122 0346     		mov	r3, r0
 326 0124 0C46     		mov	r4, r1
 327 0126 1846     		mov	r0, r3
 328 0128 2146     		mov	r1, r4
 329 012a FFF7FEFF 		bl	floor
 330 012e 0346     		mov	r3, r0
 331 0130 0C46     		mov	r4, r1
 332 0132 1846     		mov	r0, r3
 333 0134 2146     		mov	r1, r4
 334 0136 FFF7FEFF 		bl	__aeabi_d2iz
 335 013a 0346     		mov	r3, r0
 336 013c 3344     		add	r3, r3, r6
 337 013e 3B64     		str	r3, [r7, #64]
  74:VFH\src/histogram_grid.c ****     int new_y = pos_y/map->resolution + (int) floor(cell_distance[i] * sin(theta * M_PI / 180));
 338              		.loc 1 74 0
 339 0140 FB68     		ldr	r3, [r7, #12]
 340 0142 9B68     		ldr	r3, [r3, #8]
 341 0144 7A68     		ldr	r2, [r7, #4]
 342 0146 92FBF3F6 		sdiv	r6, r2, r3
 343 014a 7B6C     		ldr	r3, [r7, #68]
 344 014c DB00     		lsls	r3, r3, #3
 345 014e 07F15002 		add	r2, r7, #80
 346 0152 1344     		add	r3, r3, r2
 347 0154 403B     		subs	r3, r3, #64
 348 0156 D3E90045 		ldrd	r4, [r3]
 349 015a B86C     		ldr	r0, [r7, #72]
 350 015c FFF7FEFF 		bl	__aeabi_i2d
 351 0160 2FA3     		adr	r3, .L22
 352 0162 D3E90023 		ldrd	r2, [r3]
 353 0166 FFF7FEFF 		bl	__aeabi_dmul
 354 016a 0246     		mov	r2, r0
 355 016c 0B46     		mov	r3, r1
 356 016e 1046     		mov	r0, r2
 357 0170 1946     		mov	r1, r3
 358 0172 4FF00002 		mov	r2, #0
 359 0176 2C4B     		ldr	r3, .L22+8
 360 0178 FFF7FEFF 		bl	__aeabi_ddiv
 361 017c 0246     		mov	r2, r0
 362 017e 0B46     		mov	r3, r1
 363 0180 1046     		mov	r0, r2
 364 0182 1946     		mov	r1, r3
 365 0184 FFF7FEFF 		bl	sin
 366 0188 0246     		mov	r2, r0
 367 018a 0B46     		mov	r3, r1
 368 018c 2046     		mov	r0, r4
 369 018e 2946     		mov	r1, r5
 370 0190 FFF7FEFF 		bl	__aeabi_dmul
 371 0194 0346     		mov	r3, r0
 372 0196 0C46     		mov	r4, r1
 373 0198 1846     		mov	r0, r3
 374 019a 2146     		mov	r1, r4
 375 019c FFF7FEFF 		bl	floor
 376 01a0 0346     		mov	r3, r0
ARM GAS  C:\Users\jmspi\AppData\Local\Temp\cc60T6yb.s 			page 9


 377 01a2 0C46     		mov	r4, r1
 378 01a4 1846     		mov	r0, r3
 379 01a6 2146     		mov	r1, r4
 380 01a8 FFF7FEFF 		bl	__aeabi_d2iz
 381 01ac 0346     		mov	r3, r0
 382 01ae 3344     		add	r3, r3, r6
 383 01b0 FB63     		str	r3, [r7, #60]
  75:VFH\src/histogram_grid.c ****     
  76:VFH\src/histogram_grid.c ****     // Check if point is within grid to avoid overflow
  77:VFH\src/histogram_grid.c ****     if (new_x < map->width && new_y < map->height && new_x >= 0 && new_y >= 0) {
 384              		.loc 1 77 0
 385 01b2 FB68     		ldr	r3, [r7, #12]
 386 01b4 1A68     		ldr	r2, [r3]
 387 01b6 3B6C     		ldr	r3, [r7, #64]
 388 01b8 9A42     		cmp	r2, r3
 389 01ba 23DD     		ble	.L19
 390              		.loc 1 77 0 is_stmt 0 discriminator 1
 391 01bc FB68     		ldr	r3, [r7, #12]
 392 01be 5A68     		ldr	r2, [r3, #4]
 393 01c0 FB6B     		ldr	r3, [r7, #60]
 394 01c2 9A42     		cmp	r2, r3
 395 01c4 1EDD     		ble	.L19
 396              		.loc 1 77 0 discriminator 2
 397 01c6 3B6C     		ldr	r3, [r7, #64]
 398 01c8 002B     		cmp	r3, #0
 399 01ca 1BDB     		blt	.L19
 400              		.loc 1 77 0 discriminator 3
 401 01cc FB6B     		ldr	r3, [r7, #60]
 402 01ce 002B     		cmp	r3, #0
 403 01d0 18DB     		blt	.L19
  78:VFH\src/histogram_grid.c ****       map->cells[new_x * map->width + new_y] += 1;
 404              		.loc 1 78 0 is_stmt 1
 405 01d2 FB68     		ldr	r3, [r7, #12]
 406 01d4 DA68     		ldr	r2, [r3, #12]
 407 01d6 FB68     		ldr	r3, [r7, #12]
 408 01d8 1B68     		ldr	r3, [r3]
 409 01da 396C     		ldr	r1, [r7, #64]
 410 01dc 01FB03F1 		mul	r1, r1, r3
 411 01e0 FB6B     		ldr	r3, [r7, #60]
 412 01e2 0B44     		add	r3, r3, r1
 413 01e4 9B00     		lsls	r3, r3, #2
 414 01e6 1344     		add	r3, r3, r2
 415 01e8 FA68     		ldr	r2, [r7, #12]
 416 01ea D168     		ldr	r1, [r2, #12]
 417 01ec FA68     		ldr	r2, [r7, #12]
 418 01ee 1268     		ldr	r2, [r2]
 419 01f0 386C     		ldr	r0, [r7, #64]
 420 01f2 00FB02F0 		mul	r0, r0, r2
 421 01f6 FA6B     		ldr	r2, [r7, #60]
 422 01f8 0244     		add	r2, r2, r0
 423 01fa 9200     		lsls	r2, r2, #2
 424 01fc 0A44     		add	r2, r2, r1
 425 01fe 1268     		ldr	r2, [r2]
 426 0200 0132     		adds	r2, r2, #1
 427 0202 1A60     		str	r2, [r3]
 428              	.L19:
 429              	.LBE6:
ARM GAS  C:\Users\jmspi\AppData\Local\Temp\cc60T6yb.s 			page 10


  64:VFH\src/histogram_grid.c ****     if (yaw + data.direction[i] < 0) {
 430              		.loc 1 64 0 discriminator 2
 431 0204 7B6C     		ldr	r3, [r7, #68]
 432 0206 0133     		adds	r3, r3, #1
 433 0208 7B64     		str	r3, [r7, #68]
 434              	.L15:
  64:VFH\src/histogram_grid.c ****     if (yaw + data.direction[i] < 0) {
 435              		.loc 1 64 0 is_stmt 0 discriminator 1
 436 020a 7B6C     		ldr	r3, [r7, #68]
 437 020c 042B     		cmp	r3, #4
 438 020e 7FF72DAF 		ble	.L20
 439              	.LBE5:
  79:VFH\src/histogram_grid.c ****     } 
  80:VFH\src/histogram_grid.c ****   }
  81:VFH\src/histogram_grid.c **** 
  82:VFH\src/histogram_grid.c ****   return 1;
 440              		.loc 1 82 0 is_stmt 1
 441 0212 0123     		movs	r3, #1
 442              	.L21:
  83:VFH\src/histogram_grid.c **** }
 443              		.loc 1 83 0 discriminator 1
 444 0214 1846     		mov	r0, r3
 445 0216 5437     		adds	r7, r7, #84
 446              		.cfi_def_cfa_offset 20
 447 0218 BD46     		mov	sp, r7
 448              		.cfi_def_cfa_register 13
 449              		@ sp needed
 450 021a F0BD     		pop	{r4, r5, r6, r7, pc}
 451              	.L23:
 452 021c AFF30080 		.align	3
 453              	.L22:
 454 0220 182D4454 		.word	1413754136
 455 0224 FB210940 		.word	1074340347
 456 0228 00806640 		.word	1080459264
 457              		.cfi_endproc
 458              	.LFE1:
 459              		.size	update_grid, .-update_grid
 460              		.section	.text.active_window,"ax",%progbits
 461              		.align	2
 462              		.global	active_window
 463              		.thumb
 464              		.thumb_func
 465              		.type	active_window, %function
 466              	active_window:
 467              	.LFB2:
  84:VFH\src/histogram_grid.c **** 
  85:VFH\src/histogram_grid.c **** /* TODO: Finish implementing get_moving_window. */
  86:VFH\src/histogram_grid.c **** grid * active_window(grid * map, int curr_x, int curr_y, int dimension) {
 468              		.loc 1 86 0
 469              		.cfi_startproc
 470              		@ args = 0, pretend = 0, frame = 40
 471              		@ frame_needed = 1, uses_anonymous_args = 0
 472 0000 80B5     		push	{r7, lr}
 473              		.cfi_def_cfa_offset 8
 474              		.cfi_offset 7, -8
 475              		.cfi_offset 14, -4
 476 0002 8AB0     		sub	sp, sp, #40
ARM GAS  C:\Users\jmspi\AppData\Local\Temp\cc60T6yb.s 			page 11


 477              		.cfi_def_cfa_offset 48
 478 0004 00AF     		add	r7, sp, #0
 479              		.cfi_def_cfa_register 7
 480 0006 F860     		str	r0, [r7, #12]
 481 0008 B960     		str	r1, [r7, #8]
 482 000a 7A60     		str	r2, [r7, #4]
 483 000c 3B60     		str	r3, [r7]
  87:VFH\src/histogram_grid.c ****   /*
  88:VFH\src/histogram_grid.c ****    * Creates an active window surrounding robot.
  89:VFH\src/histogram_grid.c ****    *
  90:VFH\src/histogram_grid.c ****    * If grid_init returns NULL, exit the function.
  91:VFH\src/histogram_grid.c ****   */
  92:VFH\src/histogram_grid.c ****   grid * active = initial_grid(dimension, dimension, map->resolution);
 484              		.loc 1 92 0
 485 000e FB68     		ldr	r3, [r7, #12]
 486 0010 9B68     		ldr	r3, [r3, #8]
 487 0012 1A46     		mov	r2, r3
 488 0014 3968     		ldr	r1, [r7]
 489 0016 3868     		ldr	r0, [r7]
 490 0018 FFF7FEFF 		bl	initial_grid
 491 001c F861     		str	r0, [r7, #28]
  93:VFH\src/histogram_grid.c **** 
  94:VFH\src/histogram_grid.c ****   if (active != NULL) {
 492              		.loc 1 94 0
 493 001e FB69     		ldr	r3, [r7, #28]
 494 0020 002B     		cmp	r3, #0
 495 0022 57D0     		beq	.L25
 496              	.LBB7:
  95:VFH\src/histogram_grid.c **** 
  96:VFH\src/histogram_grid.c ****     /* Populate active window with existing values in grid map 
  97:VFH\src/histogram_grid.c ****      * Original author suggests using pointers to point directly to grid map values.
  98:VFH\src/histogram_grid.c ****      * This can be done but whether or not it is necessary is up for debate.
  99:VFH\src/histogram_grid.c ****     
 100:VFH\src/histogram_grid.c ****     */
 101:VFH\src/histogram_grid.c ****     for (int i = 0; i < dimension; ++i) {
 497              		.loc 1 101 0
 498 0024 0023     		movs	r3, #0
 499 0026 7B62     		str	r3, [r7, #36]
 500 0028 4FE0     		b	.L26
 501              	.L30:
 502              	.LBB8:
 102:VFH\src/histogram_grid.c ****       for (int j = 0; j < dimension; ++j) {
 503              		.loc 1 102 0
 504 002a 0023     		movs	r3, #0
 505 002c 3B62     		str	r3, [r7, #32]
 506 002e 45E0     		b	.L27
 507              	.L29:
 508              	.LBB9:
 103:VFH\src/histogram_grid.c **** 
 104:VFH\src/histogram_grid.c ****         /* x and y are the center coordinates of the body with sensors. */
 105:VFH\src/histogram_grid.c ****         int grid_i = i + curr_x/map->resolution - (dimension - 1) / 2;
 509              		.loc 1 105 0
 510 0030 FB68     		ldr	r3, [r7, #12]
 511 0032 9B68     		ldr	r3, [r3, #8]
 512 0034 BA68     		ldr	r2, [r7, #8]
 513 0036 92FBF3F2 		sdiv	r2, r2, r3
 514 003a 7B6A     		ldr	r3, [r7, #36]
ARM GAS  C:\Users\jmspi\AppData\Local\Temp\cc60T6yb.s 			page 12


 515 003c 1A44     		add	r2, r2, r3
 516 003e 3B68     		ldr	r3, [r7]
 517 0040 013B     		subs	r3, r3, #1
 518 0042 D90F     		lsrs	r1, r3, #31
 519 0044 0B44     		add	r3, r3, r1
 520 0046 5B10     		asrs	r3, r3, #1
 521 0048 D31A     		subs	r3, r2, r3
 522 004a BB61     		str	r3, [r7, #24]
 106:VFH\src/histogram_grid.c ****         int grid_j = j + curr_y/map->resolution - (dimension - 1) / 2;
 523              		.loc 1 106 0
 524 004c FB68     		ldr	r3, [r7, #12]
 525 004e 9B68     		ldr	r3, [r3, #8]
 526 0050 7A68     		ldr	r2, [r7, #4]
 527 0052 92FBF3F2 		sdiv	r2, r2, r3
 528 0056 3B6A     		ldr	r3, [r7, #32]
 529 0058 1A44     		add	r2, r2, r3
 530 005a 3B68     		ldr	r3, [r7]
 531 005c 013B     		subs	r3, r3, #1
 532 005e D90F     		lsrs	r1, r3, #31
 533 0060 0B44     		add	r3, r3, r1
 534 0062 5B10     		asrs	r3, r3, #1
 535 0064 D31A     		subs	r3, r2, r3
 536 0066 7B61     		str	r3, [r7, #20]
 107:VFH\src/histogram_grid.c **** 
 108:VFH\src/histogram_grid.c ****         /* Copy the information from the grid to the moving window. */
 109:VFH\src/histogram_grid.c ****         if (grid_i < map->width && grid_j < map->height && grid_i >= 0 && grid_j >= 0) {
 537              		.loc 1 109 0
 538 0068 FB68     		ldr	r3, [r7, #12]
 539 006a 1A68     		ldr	r2, [r3]
 540 006c BB69     		ldr	r3, [r7, #24]
 541 006e 9A42     		cmp	r2, r3
 542 0070 21DD     		ble	.L28
 543              		.loc 1 109 0 is_stmt 0 discriminator 1
 544 0072 FB68     		ldr	r3, [r7, #12]
 545 0074 5A68     		ldr	r2, [r3, #4]
 546 0076 7B69     		ldr	r3, [r7, #20]
 547 0078 9A42     		cmp	r2, r3
 548 007a 1CDD     		ble	.L28
 549              		.loc 1 109 0 discriminator 2
 550 007c BB69     		ldr	r3, [r7, #24]
 551 007e 002B     		cmp	r3, #0
 552 0080 19DB     		blt	.L28
 553              		.loc 1 109 0 discriminator 3
 554 0082 7B69     		ldr	r3, [r7, #20]
 555 0084 002B     		cmp	r3, #0
 556 0086 16DB     		blt	.L28
 110:VFH\src/histogram_grid.c ****           active->cells[i * dimension + j] = map->cells[grid_i * map->width + grid_j];
 557              		.loc 1 110 0 is_stmt 1
 558 0088 FB69     		ldr	r3, [r7, #28]
 559 008a DA68     		ldr	r2, [r3, #12]
 560 008c 7B6A     		ldr	r3, [r7, #36]
 561 008e 3968     		ldr	r1, [r7]
 562 0090 01FB03F1 		mul	r1, r1, r3
 563 0094 3B6A     		ldr	r3, [r7, #32]
 564 0096 0B44     		add	r3, r3, r1
 565 0098 9B00     		lsls	r3, r3, #2
 566 009a 1344     		add	r3, r3, r2
ARM GAS  C:\Users\jmspi\AppData\Local\Temp\cc60T6yb.s 			page 13


 567 009c FA68     		ldr	r2, [r7, #12]
 568 009e D168     		ldr	r1, [r2, #12]
 569 00a0 FA68     		ldr	r2, [r7, #12]
 570 00a2 1268     		ldr	r2, [r2]
 571 00a4 B869     		ldr	r0, [r7, #24]
 572 00a6 00FB02F0 		mul	r0, r0, r2
 573 00aa 7A69     		ldr	r2, [r7, #20]
 574 00ac 0244     		add	r2, r2, r0
 575 00ae 9200     		lsls	r2, r2, #2
 576 00b0 0A44     		add	r2, r2, r1
 577 00b2 1268     		ldr	r2, [r2]
 578 00b4 1A60     		str	r2, [r3]
 579              	.L28:
 580              	.LBE9:
 102:VFH\src/histogram_grid.c **** 
 581              		.loc 1 102 0 discriminator 2
 582 00b6 3B6A     		ldr	r3, [r7, #32]
 583 00b8 0133     		adds	r3, r3, #1
 584 00ba 3B62     		str	r3, [r7, #32]
 585              	.L27:
 102:VFH\src/histogram_grid.c **** 
 586              		.loc 1 102 0 is_stmt 0 discriminator 1
 587 00bc 3A6A     		ldr	r2, [r7, #32]
 588 00be 3B68     		ldr	r3, [r7]
 589 00c0 9A42     		cmp	r2, r3
 590 00c2 B5DB     		blt	.L29
 591              	.LBE8:
 101:VFH\src/histogram_grid.c ****       for (int j = 0; j < dimension; ++j) {
 592              		.loc 1 101 0 is_stmt 1 discriminator 2
 593 00c4 7B6A     		ldr	r3, [r7, #36]
 594 00c6 0133     		adds	r3, r3, #1
 595 00c8 7B62     		str	r3, [r7, #36]
 596              	.L26:
 101:VFH\src/histogram_grid.c ****       for (int j = 0; j < dimension; ++j) {
 597              		.loc 1 101 0 is_stmt 0 discriminator 1
 598 00ca 7A6A     		ldr	r2, [r7, #36]
 599 00cc 3B68     		ldr	r3, [r7]
 600 00ce 9A42     		cmp	r2, r3
 601 00d0 ABDB     		blt	.L30
 602 00d2 04E0     		b	.L33
 603              	.L25:
 604              	.LBE7:
 111:VFH\src/histogram_grid.c ****         }
 112:VFH\src/histogram_grid.c ****       }
 113:VFH\src/histogram_grid.c ****     }
 114:VFH\src/histogram_grid.c ****   } else {
 115:VFH\src/histogram_grid.c ****     free(active);
 605              		.loc 1 115 0 is_stmt 1
 606 00d4 F869     		ldr	r0, [r7, #28]
 607 00d6 FFF7FEFF 		bl	free
 116:VFH\src/histogram_grid.c ****     return NULL;
 608              		.loc 1 116 0
 609 00da 0023     		movs	r3, #0
 610 00dc 00E0     		b	.L32
 611              	.L33:
 117:VFH\src/histogram_grid.c ****   }
 118:VFH\src/histogram_grid.c **** 
ARM GAS  C:\Users\jmspi\AppData\Local\Temp\cc60T6yb.s 			page 14


 119:VFH\src/histogram_grid.c ****   return active;
 612              		.loc 1 119 0
 613 00de FB69     		ldr	r3, [r7, #28]
 614              	.L32:
 120:VFH\src/histogram_grid.c **** }
 615              		.loc 1 120 0
 616 00e0 1846     		mov	r0, r3
 617 00e2 2837     		adds	r7, r7, #40
 618              		.cfi_def_cfa_offset 8
 619 00e4 BD46     		mov	sp, r7
 620              		.cfi_def_cfa_register 13
 621              		@ sp needed
 622 00e6 80BD     		pop	{r7, pc}
 623              		.cfi_endproc
 624              	.LFE2:
 625              		.size	active_window, .-active_window
 626              		.text
 627              	.Letext0:
 628              		.file 2 ".\\VFH\\include/histogram_grid.h"