ARM GAS  C:\Users\jmspi\AppData\Local\Temp\ccgnXNFz.s 			page 1


   1              		.syntax unified
   2              		.cpu cortex-m3
   3              		.fpu softvfp
   4              		.eabi_attribute 20, 1
   5              		.eabi_attribute 21, 1
   6              		.eabi_attribute 23, 3
   7              		.eabi_attribute 24, 1
   8              		.eabi_attribute 25, 1
   9              		.eabi_attribute 26, 1
  10              		.eabi_attribute 30, 4
  11              		.eabi_attribute 34, 1
  12              		.eabi_attribute 18, 4
  13              		.thumb
  14              		.syntax unified
  15              		.file	"lidarScan.c"
  16              		.text
  17              	.Ltext0:
  18              		.cfi_sections	.debug_frame
  19              		.global	__aeabi_dcmpgt
  20              		.global	__aeabi_dadd
  21              		.global	__aeabi_dcmpeq
  22              		.global	__aeabi_dsub
  23              		.section	.text.lidarScan_lidarScan,"ax",%progbits
  24              		.align	1
  25              		.global	lidarScan_lidarScan
  26              		.thumb
  27              		.thumb_func
  28              		.type	lidarScan_lidarScan, %function
  29              	lidarScan_lidarScan:
  30              	.LFB0:
  31              		.file 1 "VFH+\\src\\lidarScan.c"
   1:VFH+\src/lidarScan.c **** /*
   2:VFH+\src/lidarScan.c ****  * Academic License - for use in teaching, academic research, and meeting
   3:VFH+\src/lidarScan.c ****  * course requirements at degree granting institutions only.  Not for
   4:VFH+\src/lidarScan.c ****  * government, commercial, or other organizational use.
   5:VFH+\src/lidarScan.c ****  * File: lidarScan.c
   6:VFH+\src/lidarScan.c ****  *
   7:VFH+\src/lidarScan.c ****  * MATLAB Coder version            : 5.3
   8:VFH+\src/lidarScan.c ****  * C/C++ source code generated on  : 30-Aug-2023 22:51:35
   9:VFH+\src/lidarScan.c ****  */
  10:VFH+\src/lidarScan.c **** 
  11:VFH+\src/lidarScan.c **** /* Include Files */
  12:VFH+\src/lidarScan.c **** #include "lidarScan.h"
  13:VFH+\src/lidarScan.c **** #include "mod.h"
  14:VFH+\src/lidarScan.c **** #include "nullAssignment.h"
  15:VFH+\src/lidarScan.c **** #include "rt_nonfinite.h"
  16:VFH+\src/lidarScan.c **** #include "sort.h"
  17:VFH+\src/lidarScan.c **** #include "vfhTest_emxutil.h"
  18:VFH+\src/lidarScan.c **** #include "vfhTest_types.h"
  19:VFH+\src/lidarScan.c **** #include "rtGetInf.h"
  20:VFH+\src/lidarScan.c **** #include "rt_nonfinite.h"
  21:VFH+\src/lidarScan.c **** #include <math.h>
  22:VFH+\src/lidarScan.c **** 
  23:VFH+\src/lidarScan.c **** /* Type Definitions */
  24:VFH+\src/lidarScan.c **** #ifndef typedef_cell_wrap_17
  25:VFH+\src/lidarScan.c **** #define typedef_cell_wrap_17
  26:VFH+\src/lidarScan.c **** typedef struct {
ARM GAS  C:\Users\jmspi\AppData\Local\Temp\ccgnXNFz.s 			page 2


  27:VFH+\src/lidarScan.c ****   double f1[2];
  28:VFH+\src/lidarScan.c **** } cell_wrap_17;
  29:VFH+\src/lidarScan.c **** #endif /* typedef_cell_wrap_17 */
  30:VFH+\src/lidarScan.c **** 
  31:VFH+\src/lidarScan.c **** /* Function Definitions */
  32:VFH+\src/lidarScan.c **** /*
  33:VFH+\src/lidarScan.c ****  * Arguments    : const emxArray_real_T *varargin_1
  34:VFH+\src/lidarScan.c ****  *                const emxArray_real_T *varargin_2
  35:VFH+\src/lidarScan.c ****  *                emxArray_real_T *obj_InternalRanges
  36:VFH+\src/lidarScan.c ****  *                emxArray_real_T *obj_InternalAngles
  37:VFH+\src/lidarScan.c ****  *                bool *obj_ContainsOnlyFiniteData
  38:VFH+\src/lidarScan.c ****  * Return Type  : void
  39:VFH+\src/lidarScan.c ****  */
  40:VFH+\src/lidarScan.c **** void lidarScan_lidarScan(const emxArray_real_T *varargin_1,
  41:VFH+\src/lidarScan.c ****                          const emxArray_real_T *varargin_2,
  42:VFH+\src/lidarScan.c ****                          emxArray_real_T *obj_InternalRanges,
  43:VFH+\src/lidarScan.c ****                          emxArray_real_T *obj_InternalAngles,
  44:VFH+\src/lidarScan.c ****                          bool *obj_ContainsOnlyFiniteData)
  45:VFH+\src/lidarScan.c **** {
  32              		.loc 1 45 0
  33              		.cfi_startproc
  34              		@ args = 4, pretend = 0, frame = 16
  35              		@ frame_needed = 0, uses_anonymous_args = 0
  36              	.LVL0:
  37 0000 2DE9F04F 		push	{r4, r5, r6, r7, r8, r9, r10, fp, lr}
  38              		.cfi_def_cfa_offset 36
  39              		.cfi_offset 4, -36
  40              		.cfi_offset 5, -32
  41              		.cfi_offset 6, -28
  42              		.cfi_offset 7, -24
  43              		.cfi_offset 8, -20
  44              		.cfi_offset 9, -16
  45              		.cfi_offset 10, -12
  46              		.cfi_offset 11, -8
  47              		.cfi_offset 14, -4
  48 0004 9046     		mov	r8, r2
  49 0006 8146     		mov	r9, r0
  50 0008 1E46     		mov	r6, r3
  46:VFH+\src/lidarScan.c ****   static bool x_data[40000];
  47:VFH+\src/lidarScan.c ****   emxArray_real_T *thetaWrap;
  48:VFH+\src/lidarScan.c ****   emxArray_real_T *y;
  49:VFH+\src/lidarScan.c ****   const double *varargin_1_data;
  50:VFH+\src/lidarScan.c ****   const double *varargin_2_data;
  51:VFH+\src/lidarScan.c ****   double *obj_InternalRanges_data;
  52:VFH+\src/lidarScan.c ****   double *thetaWrap_data;
  53:VFH+\src/lidarScan.c ****   int i;
  54:VFH+\src/lidarScan.c ****   int k;
  55:VFH+\src/lidarScan.c ****   int nx;
  56:VFH+\src/lidarScan.c ****   bool exitg1;
  57:VFH+\src/lidarScan.c ****   bool varargout_1;
  58:VFH+\src/lidarScan.c ****   varargin_2_data = varargin_2->data;
  59:VFH+\src/lidarScan.c ****   varargin_1_data = varargin_1->data;
  60:VFH+\src/lidarScan.c ****   i = obj_InternalRanges->size[0];
  51              		.loc 1 60 0
  52 000a 5368     		ldr	r3, [r2, #4]
  53              	.LVL1:
  61:VFH+\src/lidarScan.c ****   obj_InternalRanges->size[0] = varargin_1->size[0];
ARM GAS  C:\Users\jmspi\AppData\Local\Temp\ccgnXNFz.s 			page 3


  54              		.loc 1 61 0
  55 000c 4268     		ldr	r2, [r0, #4]
  56              	.LVL2:
  59:VFH+\src/lidarScan.c ****   i = obj_InternalRanges->size[0];
  57              		.loc 1 59 0
  58 000e 0768     		ldr	r7, [r0]
  59              		.loc 1 61 0
  60 0010 1268     		ldr	r2, [r2]
  58:VFH+\src/lidarScan.c ****   varargin_1_data = varargin_1->data;
  61              		.loc 1 58 0
  62 0012 0D68     		ldr	r5, [r1]
  63              	.LVL3:
  45:VFH+\src/lidarScan.c ****   static bool x_data[40000];
  64              		.loc 1 45 0
  65 0014 85B0     		sub	sp, sp, #20
  66              		.cfi_def_cfa_offset 56
  45:VFH+\src/lidarScan.c ****   static bool x_data[40000];
  67              		.loc 1 45 0
  68 0016 0C46     		mov	r4, r1
  62:VFH+\src/lidarScan.c ****   emxEnsureCapacity_real_T(obj_InternalRanges, i);
  69              		.loc 1 62 0
  70 0018 4046     		mov	r0, r8
  71              	.LVL4:
  60:VFH+\src/lidarScan.c ****   obj_InternalRanges->size[0] = varargin_1->size[0];
  72              		.loc 1 60 0
  73 001a 1968     		ldr	r1, [r3]
  74              	.LVL5:
  61:VFH+\src/lidarScan.c ****   emxEnsureCapacity_real_T(obj_InternalRanges, i);
  75              		.loc 1 61 0
  76 001c 1A60     		str	r2, [r3]
  77              		.loc 1 62 0
  78 001e FFF7FEFF 		bl	emxEnsureCapacity_real_T
  79              	.LVL6:
  63:VFH+\src/lidarScan.c ****   obj_InternalRanges_data = obj_InternalRanges->data;
  64:VFH+\src/lidarScan.c ****   nx = varargin_1->size[0];
  80              		.loc 1 64 0
  81 0022 D9F80430 		ldr	r3, [r9, #4]
  82 0026 D8F80020 		ldr	r2, [r8]
  83 002a D3F800E0 		ldr	lr, [r3]
  84              	.LVL7:
  85 002e 083A     		subs	r2, r2, #8
  86 0030 A7F10803 		sub	r3, r7, #8
  65:VFH+\src/lidarScan.c ****   for (i = 0; i < nx; i++) {
  87              		.loc 1 65 0
  88 0034 0027     		movs	r7, #0
  89              	.LVL8:
  90              	.L2:
  91              		.loc 1 65 0 is_stmt 0 discriminator 1
  92 0036 7745     		cmp	r7, lr
  93 0038 05DA     		bge	.L34
  66:VFH+\src/lidarScan.c ****     obj_InternalRanges_data[i] = varargin_1_data[i];
  94              		.loc 1 66 0 is_stmt 1 discriminator 3
  95 003a F3E90201 		ldrd	r0, [r3, #8]!
  65:VFH+\src/lidarScan.c ****   for (i = 0; i < nx; i++) {
  96              		.loc 1 65 0 discriminator 3
  97 003e 0137     		adds	r7, r7, #1
  98              	.LVL9:
ARM GAS  C:\Users\jmspi\AppData\Local\Temp\ccgnXNFz.s 			page 4


  99              		.loc 1 66 0 discriminator 3
 100 0040 E2E90201 		strd	r0, [r2, #8]!
 101 0044 F7E7     		b	.L2
 102              	.L34:
 103 0046 083D     		subs	r5, r5, #8
 104              	.LVL10:
  67:VFH+\src/lidarScan.c ****   }
  68:VFH+\src/lidarScan.c ****   i = obj_InternalAngles->size[0];
  69:VFH+\src/lidarScan.c ****   obj_InternalAngles->size[0] = varargin_2->size[0];
  70:VFH+\src/lidarScan.c ****   emxEnsureCapacity_real_T(obj_InternalAngles, i);
  71:VFH+\src/lidarScan.c ****   obj_InternalRanges_data = obj_InternalAngles->data;
  72:VFH+\src/lidarScan.c ****   nx = varargin_2->size[0];
  73:VFH+\src/lidarScan.c ****   for (i = 0; i < nx; i++) {
 105              		.loc 1 73 0
 106 0048 2F46     		mov	r7, r5
 107              	.LVL11:
  69:VFH+\src/lidarScan.c ****   emxEnsureCapacity_real_T(obj_InternalAngles, i);
 108              		.loc 1 69 0
 109 004a 6268     		ldr	r2, [r4, #4]
  68:VFH+\src/lidarScan.c ****   obj_InternalAngles->size[0] = varargin_2->size[0];
 110              		.loc 1 68 0
 111 004c 7368     		ldr	r3, [r6, #4]
  69:VFH+\src/lidarScan.c ****   emxEnsureCapacity_real_T(obj_InternalAngles, i);
 112              		.loc 1 69 0
 113 004e 1268     		ldr	r2, [r2]
  68:VFH+\src/lidarScan.c ****   obj_InternalAngles->size[0] = varargin_2->size[0];
 114              		.loc 1 68 0
 115 0050 1968     		ldr	r1, [r3]
 116              	.LVL12:
  70:VFH+\src/lidarScan.c ****   obj_InternalRanges_data = obj_InternalAngles->data;
 117              		.loc 1 70 0
 118 0052 3046     		mov	r0, r6
  69:VFH+\src/lidarScan.c ****   emxEnsureCapacity_real_T(obj_InternalAngles, i);
 119              		.loc 1 69 0
 120 0054 1A60     		str	r2, [r3]
  70:VFH+\src/lidarScan.c ****   obj_InternalRanges_data = obj_InternalAngles->data;
 121              		.loc 1 70 0
 122 0056 FFF7FEFF 		bl	emxEnsureCapacity_real_T
 123              	.LVL13:
  72:VFH+\src/lidarScan.c ****   for (i = 0; i < nx; i++) {
 124              		.loc 1 72 0
 125 005a 6368     		ldr	r3, [r4, #4]
 126              		.loc 1 73 0
 127 005c 0022     		movs	r2, #0
  72:VFH+\src/lidarScan.c ****   for (i = 0; i < nx; i++) {
 128              		.loc 1 72 0
 129 005e D3F800E0 		ldr	lr, [r3]
 130              	.LVL14:
 131 0062 3368     		ldr	r3, [r6]
 132 0064 083B     		subs	r3, r3, #8
 133              	.LVL15:
 134              	.L4:
 135              		.loc 1 73 0 discriminator 1
 136 0066 7245     		cmp	r2, lr
 137 0068 05DA     		bge	.L35
  74:VFH+\src/lidarScan.c ****     obj_InternalRanges_data[i] = varargin_2_data[i];
 138              		.loc 1 74 0 discriminator 3
ARM GAS  C:\Users\jmspi\AppData\Local\Temp\ccgnXNFz.s 			page 5


 139 006a F7E90201 		ldrd	r0, [r7, #8]!
  73:VFH+\src/lidarScan.c ****     obj_InternalRanges_data[i] = varargin_2_data[i];
 140              		.loc 1 73 0 discriminator 3
 141 006e 0132     		adds	r2, r2, #1
 142              	.LVL16:
 143              		.loc 1 74 0 discriminator 3
 144 0070 E3E90201 		strd	r0, [r3, #8]!
 145 0074 F7E7     		b	.L4
 146              	.L35:
  75:VFH+\src/lidarScan.c ****   }
  76:VFH+\src/lidarScan.c ****   emxInit_real_T(&y, 1);
 147              		.loc 1 76 0
 148 0076 0121     		movs	r1, #1
 149 0078 03A8     		add	r0, sp, #12
 150 007a FFF7FEFF 		bl	emxInit_real_T
 151              	.LVL17:
  77:VFH+\src/lidarScan.c ****   nx = varargin_2->size[0];
 152              		.loc 1 77 0
 153 007e 6368     		ldr	r3, [r4, #4]
  78:VFH+\src/lidarScan.c ****   i = y->size[0];
 154              		.loc 1 78 0
 155 0080 0398     		ldr	r0, [sp, #12]
  77:VFH+\src/lidarScan.c ****   nx = varargin_2->size[0];
 156              		.loc 1 77 0
 157 0082 D3F80080 		ldr	r8, [r3]
 158              	.LVL18:
 159              		.loc 1 78 0
 160 0086 4368     		ldr	r3, [r0, #4]
 161 0088 1968     		ldr	r1, [r3]
 162              	.LVL19:
  79:VFH+\src/lidarScan.c ****   y->size[0] = varargin_2->size[0];
 163              		.loc 1 79 0
 164 008a C3F80080 		str	r8, [r3]
  80:VFH+\src/lidarScan.c ****   emxEnsureCapacity_real_T(y, i);
 165              		.loc 1 80 0
 166 008e FFF7FEFF 		bl	emxEnsureCapacity_real_T
 167              	.LVL20:
  81:VFH+\src/lidarScan.c ****   obj_InternalRanges_data = y->data;
 168              		.loc 1 81 0
 169 0092 DDF80C90 		ldr	r9, [sp, #12]
 170              	.LVL21:
  82:VFH+\src/lidarScan.c ****   for (k = 0; k < nx; k++) {
 171              		.loc 1 82 0
 172 0096 2A46     		mov	r2, r5
 173 0098 D9F80070 		ldr	r7, [r9]
 174 009c 0023     		movs	r3, #0
 175 009e 083F     		subs	r7, r7, #8
 176 00a0 3946     		mov	r1, r7
 177              	.LVL22:
 178              	.L6:
 179              		.loc 1 82 0 is_stmt 0 discriminator 1
 180 00a2 4345     		cmp	r3, r8
 181 00a4 09DA     		bge	.L36
  83:VFH+\src/lidarScan.c ****     obj_InternalRanges_data[k] = fabs(varargin_2_data[k]);
 182              		.loc 1 83 0 is_stmt 1 discriminator 3
 183 00a6 52F8080F 		ldr	r0, [r2, #8]!
  82:VFH+\src/lidarScan.c ****   for (k = 0; k < nx; k++) {
ARM GAS  C:\Users\jmspi\AppData\Local\Temp\ccgnXNFz.s 			page 6


 184              		.loc 1 82 0 discriminator 3
 185 00aa 0133     		adds	r3, r3, #1
 186              	.LVL23:
 187              		.loc 1 83 0 discriminator 3
 188 00ac 41F8080F 		str	r0, [r1, #8]!
 189 00b0 5068     		ldr	r0, [r2, #4]
 190 00b2 20F00040 		bic	r0, r0, #-2147483648
 191 00b6 4860     		str	r0, [r1, #4]
 192 00b8 F3E7     		b	.L6
 193              	.L36:
  84:VFH+\src/lidarScan.c ****   }
  85:VFH+\src/lidarScan.c ****   k = y->size[0];
 194              		.loc 1 85 0
 195 00ba D9F80430 		ldr	r3, [r9, #4]
 196              	.LVL24:
  86:VFH+\src/lidarScan.c ****   nx = y->size[0];
  87:VFH+\src/lidarScan.c ****   for (i = 0; i < nx; i++) {
 197              		.loc 1 87 0
 198 00be 4FF00008 		mov	r8, #0
 199              	.LVL25:
  85:VFH+\src/lidarScan.c ****   nx = y->size[0];
 200              		.loc 1 85 0
 201 00c2 D3F800A0 		ldr	r10, [r3]
 202              	.LVL26:
 203 00c6 0193     		str	r3, [sp, #4]
 204              	.LVL27:
 205              	.L8:
 206              		.loc 1 87 0 discriminator 1
 207 00c8 D045     		cmp	r8, r10
 208 00ca 10DA     		bge	.L37
  88:VFH+\src/lidarScan.c ****     x_data[i] = (obj_InternalRanges_data[i] > 3.1415926535897931);
 209              		.loc 1 88 0 discriminator 3
 210 00cc 5AA3     		adr	r3, .L43
 211 00ce D3E90023 		ldrd	r2, [r3]
 212 00d2 F7E90201 		ldrd	r0, [r7, #8]!
 213 00d6 4FF0010B 		mov	fp, #1
 214 00da FFF7FEFF 		bl	__aeabi_dcmpgt
 215              	.LVL28:
 216 00de 00B9     		cbnz	r0, .L9
 217 00e0 8346     		mov	fp, r0
 218              	.L9:
 219 00e2 594B     		ldr	r3, .L43+16
 220 00e4 08F803B0 		strb	fp, [r8, r3]
  87:VFH+\src/lidarScan.c ****     x_data[i] = (obj_InternalRanges_data[i] > 3.1415926535897931);
 221              		.loc 1 87 0 discriminator 3
 222 00e8 08F10108 		add	r8, r8, #1
 223              	.LVL29:
 224 00ec ECE7     		b	.L8
 225              	.L37:
  89:VFH+\src/lidarScan.c ****   }
  90:VFH+\src/lidarScan.c ****   varargout_1 = false;
  91:VFH+\src/lidarScan.c ****   nx = 1;
  92:VFH+\src/lidarScan.c ****   exitg1 = false;
  93:VFH+\src/lidarScan.c ****   while ((!exitg1) && (nx <= k)) {
  94:VFH+\src/lidarScan.c ****     if (x_data[nx - 1]) {
 226              		.loc 1 94 0
 227 00ee 564A     		ldr	r2, .L43+16
ARM GAS  C:\Users\jmspi\AppData\Local\Temp\ccgnXNFz.s 			page 7


 228 00f0 0123     		movs	r3, #1
 229              	.LVL30:
 230              	.L11:
  93:VFH+\src/lidarScan.c ****     if (x_data[nx - 1]) {
 231              		.loc 1 93 0
 232 00f2 5345     		cmp	r3, r10
 233 00f4 08DC     		bgt	.L14
 234              		.loc 1 94 0
 235 00f6 D118     		adds	r1, r2, r3
 236 00f8 11F8011C 		ldrb	r1, [r1, #-1]	@ zero_extendqisi2
 237 00fc 69B9     		cbnz	r1, .L12
  95:VFH+\src/lidarScan.c ****       varargout_1 = true;
  96:VFH+\src/lidarScan.c ****       exitg1 = true;
  97:VFH+\src/lidarScan.c ****     } else {
  98:VFH+\src/lidarScan.c ****       nx++;
 238              		.loc 1 98 0
 239 00fe 0133     		adds	r3, r3, #1
 240              	.LVL31:
 241 0100 F7E7     		b	.L11
 242              	.LVL32:
 243              	.L42:
  99:VFH+\src/lidarScan.c ****     }
 100:VFH+\src/lidarScan.c ****   }
 101:VFH+\src/lidarScan.c ****   if (varargout_1) {
 102:VFH+\src/lidarScan.c ****     i = y->size[0];
 103:VFH+\src/lidarScan.c ****     y->size[0] = varargin_2->size[0];
 104:VFH+\src/lidarScan.c ****     emxEnsureCapacity_real_T(y, i);
 105:VFH+\src/lidarScan.c ****     obj_InternalRanges_data = y->data;
 106:VFH+\src/lidarScan.c ****     nx = varargin_2->size[0];
 107:VFH+\src/lidarScan.c ****     for (i = 0; i < nx; i++) {
 108:VFH+\src/lidarScan.c ****       obj_InternalRanges_data[i] = varargin_2_data[i] + 3.1415926535897931;
 109:VFH+\src/lidarScan.c ****     }
 110:VFH+\src/lidarScan.c ****     emxInit_real_T(&thetaWrap, 1);
 111:VFH+\src/lidarScan.c ****     i = thetaWrap->size[0];
 112:VFH+\src/lidarScan.c ****     thetaWrap->size[0] = y->size[0];
 113:VFH+\src/lidarScan.c ****     emxEnsureCapacity_real_T(thetaWrap, i);
 114:VFH+\src/lidarScan.c ****     thetaWrap_data = thetaWrap->data;
 115:VFH+\src/lidarScan.c ****     nx = y->size[0];
 116:VFH+\src/lidarScan.c ****     for (k = 0; k < nx; k++) {
 117:VFH+\src/lidarScan.c ****       thetaWrap_data[k] = b_mod(obj_InternalRanges_data[k]);
 118:VFH+\src/lidarScan.c ****     }
 119:VFH+\src/lidarScan.c ****     k = thetaWrap->size[0];
 120:VFH+\src/lidarScan.c ****     nx = thetaWrap->size[0];
 121:VFH+\src/lidarScan.c ****     for (i = 0; i < nx; i++) {
 122:VFH+\src/lidarScan.c ****       x_data[i] = (thetaWrap_data[i] == 0.0);
 123:VFH+\src/lidarScan.c ****     }
 124:VFH+\src/lidarScan.c ****     for (nx = 0; nx < k; nx++) {
 125:VFH+\src/lidarScan.c ****       if (x_data[nx] && (obj_InternalRanges_data[nx] > 0.0)) {
 126:VFH+\src/lidarScan.c ****         thetaWrap_data[nx] = 6.2831853071795862;
 127:VFH+\src/lidarScan.c ****       }
 128:VFH+\src/lidarScan.c ****     }
 129:VFH+\src/lidarScan.c ****     i = obj_InternalAngles->size[0];
 130:VFH+\src/lidarScan.c ****     obj_InternalAngles->size[0] = thetaWrap->size[0];
 131:VFH+\src/lidarScan.c ****     emxEnsureCapacity_real_T(obj_InternalAngles, i);
 132:VFH+\src/lidarScan.c ****     obj_InternalRanges_data = obj_InternalAngles->data;
 133:VFH+\src/lidarScan.c ****     nx = thetaWrap->size[0];
 134:VFH+\src/lidarScan.c ****     for (i = 0; i < nx; i++) {
ARM GAS  C:\Users\jmspi\AppData\Local\Temp\ccgnXNFz.s 			page 8


 135:VFH+\src/lidarScan.c ****       obj_InternalRanges_data[i] = thetaWrap_data[i] - 3.1415926535897931;
 136:VFH+\src/lidarScan.c ****     }
 137:VFH+\src/lidarScan.c ****     emxFree_real_T(&thetaWrap);
 244              		.loc 1 137 0
 245 0102 02A8     		add	r0, sp, #8
 246 0104 FFF7FEFF 		bl	emxFree_real_T
 247              	.LVL33:
 248              	.L14:
 138:VFH+\src/lidarScan.c ****   }
 139:VFH+\src/lidarScan.c ****   emxFree_real_T(&y);
 249              		.loc 1 139 0
 250 0108 03A8     		add	r0, sp, #12
 251 010a FFF7FEFF 		bl	emxFree_real_T
 252              	.LVL34:
 140:VFH+\src/lidarScan.c ****   *obj_ContainsOnlyFiniteData = false;
 253              		.loc 1 140 0
 254 010e 0E9B     		ldr	r3, [sp, #56]
 255 0110 0022     		movs	r2, #0
 256 0112 1A70     		strb	r2, [r3]
 141:VFH+\src/lidarScan.c **** }
 257              		.loc 1 141 0
 258 0114 05B0     		add	sp, sp, #20
 259              		.cfi_remember_state
 260              		.cfi_def_cfa_offset 36
 261              		@ sp needed
 262 0116 BDE8F08F 		pop	{r4, r5, r6, r7, r8, r9, r10, fp, pc}
 263              	.LVL35:
 264              	.L12:
 265              		.cfi_restore_state
 103:VFH+\src/lidarScan.c ****     emxEnsureCapacity_real_T(y, i);
 266              		.loc 1 103 0
 267 011a 6368     		ldr	r3, [r4, #4]
 268              	.LVL36:
 269 011c 019A     		ldr	r2, [sp, #4]
 270 011e 1B68     		ldr	r3, [r3]
 104:VFH+\src/lidarScan.c ****     obj_InternalRanges_data = y->data;
 271              		.loc 1 104 0
 272 0120 5146     		mov	r1, r10
 103:VFH+\src/lidarScan.c ****     emxEnsureCapacity_real_T(y, i);
 273              		.loc 1 103 0
 274 0122 1360     		str	r3, [r2]
 104:VFH+\src/lidarScan.c ****     obj_InternalRanges_data = y->data;
 275              		.loc 1 104 0
 276 0124 4846     		mov	r0, r9
 277 0126 FFF7FEFF 		bl	emxEnsureCapacity_real_T
 278              	.LVL37:
 105:VFH+\src/lidarScan.c ****     nx = varargin_2->size[0];
 279              		.loc 1 105 0
 280 012a 039B     		ldr	r3, [sp, #12]
 281 012c 1F68     		ldr	r7, [r3]
 282              	.LVL38:
 106:VFH+\src/lidarScan.c ****     for (i = 0; i < nx; i++) {
 283              		.loc 1 106 0
 284 012e 6368     		ldr	r3, [r4, #4]
 285 0130 A7F10808 		sub	r8, r7, #8
 107:VFH+\src/lidarScan.c ****       obj_InternalRanges_data[i] = varargin_2_data[i] + 3.1415926535897931;
 286              		.loc 1 107 0
ARM GAS  C:\Users\jmspi\AppData\Local\Temp\ccgnXNFz.s 			page 9


 287 0134 C146     		mov	r9, r8
 106:VFH+\src/lidarScan.c ****     for (i = 0; i < nx; i++) {
 288              		.loc 1 106 0
 289 0136 D3F800A0 		ldr	r10, [r3]
 290              	.LVL39:
 107:VFH+\src/lidarScan.c ****       obj_InternalRanges_data[i] = varargin_2_data[i] + 3.1415926535897931;
 291              		.loc 1 107 0
 292 013a 0024     		movs	r4, #0
 293              	.LVL40:
 294              	.L27:
 107:VFH+\src/lidarScan.c ****       obj_InternalRanges_data[i] = varargin_2_data[i] + 3.1415926535897931;
 295              		.loc 1 107 0 is_stmt 0 discriminator 1
 296 013c 5445     		cmp	r4, r10
 297 013e 0ADA     		bge	.L38
 108:VFH+\src/lidarScan.c ****     }
 298              		.loc 1 108 0 is_stmt 1 discriminator 3
 299 0140 F5E90201 		ldrd	r0, [r5, #8]!
 300 0144 3CA3     		adr	r3, .L43
 301 0146 D3E90023 		ldrd	r2, [r3]
 302 014a FFF7FEFF 		bl	__aeabi_dadd
 303              	.LVL41:
 107:VFH+\src/lidarScan.c ****       obj_InternalRanges_data[i] = varargin_2_data[i] + 3.1415926535897931;
 304              		.loc 1 107 0 discriminator 3
 305 014e 0134     		adds	r4, r4, #1
 306              	.LVL42:
 108:VFH+\src/lidarScan.c ****     }
 307              		.loc 1 108 0 discriminator 3
 308 0150 E9E90201 		strd	r0, [r9, #8]!
 309 0154 F2E7     		b	.L27
 310              	.L38:
 110:VFH+\src/lidarScan.c ****     i = thetaWrap->size[0];
 311              		.loc 1 110 0
 312 0156 0121     		movs	r1, #1
 313 0158 02A8     		add	r0, sp, #8
 314 015a FFF7FEFF 		bl	emxInit_real_T
 315              	.LVL43:
 112:VFH+\src/lidarScan.c ****     emxEnsureCapacity_real_T(thetaWrap, i);
 316              		.loc 1 112 0
 317 015e 039A     		ldr	r2, [sp, #12]
 111:VFH+\src/lidarScan.c ****     thetaWrap->size[0] = y->size[0];
 318              		.loc 1 111 0
 319 0160 0298     		ldr	r0, [sp, #8]
 112:VFH+\src/lidarScan.c ****     emxEnsureCapacity_real_T(thetaWrap, i);
 320              		.loc 1 112 0
 321 0162 5268     		ldr	r2, [r2, #4]
 111:VFH+\src/lidarScan.c ****     thetaWrap->size[0] = y->size[0];
 322              		.loc 1 111 0
 323 0164 4368     		ldr	r3, [r0, #4]
 112:VFH+\src/lidarScan.c ****     emxEnsureCapacity_real_T(thetaWrap, i);
 324              		.loc 1 112 0
 325 0166 1268     		ldr	r2, [r2]
 111:VFH+\src/lidarScan.c ****     thetaWrap->size[0] = y->size[0];
 326              		.loc 1 111 0
 327 0168 1968     		ldr	r1, [r3]
 328              	.LVL44:
 112:VFH+\src/lidarScan.c ****     emxEnsureCapacity_real_T(thetaWrap, i);
 329              		.loc 1 112 0
ARM GAS  C:\Users\jmspi\AppData\Local\Temp\ccgnXNFz.s 			page 10


 330 016a 1A60     		str	r2, [r3]
 113:VFH+\src/lidarScan.c ****     thetaWrap_data = thetaWrap->data;
 331              		.loc 1 113 0
 332 016c FFF7FEFF 		bl	emxEnsureCapacity_real_T
 333              	.LVL45:
 114:VFH+\src/lidarScan.c ****     nx = y->size[0];
 334              		.loc 1 114 0
 335 0170 029B     		ldr	r3, [sp, #8]
 116:VFH+\src/lidarScan.c ****       thetaWrap_data[k] = b_mod(obj_InternalRanges_data[k]);
 336              		.loc 1 116 0
 337 0172 4FF00009 		mov	r9, #0
 114:VFH+\src/lidarScan.c ****     nx = y->size[0];
 338              		.loc 1 114 0
 339 0176 1C68     		ldr	r4, [r3]
 340              	.LVL46:
 115:VFH+\src/lidarScan.c ****     for (k = 0; k < nx; k++) {
 341              		.loc 1 115 0
 342 0178 039B     		ldr	r3, [sp, #12]
 343 017a A4F10805 		sub	r5, r4, #8
 116:VFH+\src/lidarScan.c ****       thetaWrap_data[k] = b_mod(obj_InternalRanges_data[k]);
 344              		.loc 1 116 0
 345 017e AA46     		mov	r10, r5
 346              	.LVL47:
 115:VFH+\src/lidarScan.c ****     for (k = 0; k < nx; k++) {
 347              		.loc 1 115 0
 348 0180 5B68     		ldr	r3, [r3, #4]
 349 0182 D3F800B0 		ldr	fp, [r3]
 350              	.LVL48:
 351              	.L16:
 116:VFH+\src/lidarScan.c ****       thetaWrap_data[k] = b_mod(obj_InternalRanges_data[k]);
 352              		.loc 1 116 0 discriminator 1
 353 0186 D945     		cmp	r9, fp
 354 0188 08DA     		bge	.L39
 117:VFH+\src/lidarScan.c ****     }
 355              		.loc 1 117 0 discriminator 3
 356 018a F8E90201 		ldrd	r0, [r8, #8]!
 357 018e FFF7FEFF 		bl	b_mod
 358              	.LVL49:
 116:VFH+\src/lidarScan.c ****       thetaWrap_data[k] = b_mod(obj_InternalRanges_data[k]);
 359              		.loc 1 116 0 discriminator 3
 360 0192 09F10109 		add	r9, r9, #1
 361              	.LVL50:
 117:VFH+\src/lidarScan.c ****     }
 362              		.loc 1 117 0 discriminator 3
 363 0196 EAE90201 		strd	r0, [r10, #8]!
 364 019a F4E7     		b	.L16
 365              	.L39:
 121:VFH+\src/lidarScan.c ****       x_data[i] = (thetaWrap_data[i] == 0.0);
 366              		.loc 1 121 0
 367 019c AA46     		mov	r10, r5
 119:VFH+\src/lidarScan.c ****     nx = thetaWrap->size[0];
 368              		.loc 1 119 0
 369 019e 029B     		ldr	r3, [sp, #8]
 121:VFH+\src/lidarScan.c ****       x_data[i] = (thetaWrap_data[i] == 0.0);
 370              		.loc 1 121 0
 371 01a0 4FF00008 		mov	r8, #0
 119:VFH+\src/lidarScan.c ****     nx = thetaWrap->size[0];
ARM GAS  C:\Users\jmspi\AppData\Local\Temp\ccgnXNFz.s 			page 11


 372              		.loc 1 119 0
 373 01a4 5B68     		ldr	r3, [r3, #4]
 374 01a6 D3F80090 		ldr	r9, [r3]
 375              	.LVL51:
 376              	.L18:
 121:VFH+\src/lidarScan.c ****       x_data[i] = (thetaWrap_data[i] == 0.0);
 377              		.loc 1 121 0 discriminator 1
 378 01aa C845     		cmp	r8, r9
 379 01ac 0FDA     		bge	.L40
 122:VFH+\src/lidarScan.c ****     }
 380              		.loc 1 122 0 discriminator 3
 381 01ae FAE90201 		ldrd	r0, [r10, #8]!
 382 01b2 0022     		movs	r2, #0
 383 01b4 0023     		movs	r3, #0
 384 01b6 4FF0010B 		mov	fp, #1
 385 01ba FFF7FEFF 		bl	__aeabi_dcmpeq
 386              	.LVL52:
 387 01be 00B9     		cbnz	r0, .L19
 388 01c0 8346     		mov	fp, r0
 389              	.L19:
 390 01c2 214B     		ldr	r3, .L43+16
 391 01c4 08F803B0 		strb	fp, [r8, r3]
 121:VFH+\src/lidarScan.c ****       x_data[i] = (thetaWrap_data[i] == 0.0);
 392              		.loc 1 121 0 discriminator 3
 393 01c8 08F10108 		add	r8, r8, #1
 394              	.LVL53:
 395 01cc EDE7     		b	.L18
 396              	.L40:
 121:VFH+\src/lidarScan.c ****       x_data[i] = (thetaWrap_data[i] == 0.0);
 397              		.loc 1 121 0 is_stmt 0
 398 01ce 4FF00008 		mov	r8, #0
 399              	.LVL54:
 126:VFH+\src/lidarScan.c ****       }
 400              		.loc 1 126 0 is_stmt 1
 401 01d2 0FF26C0B 		adr	fp, .L43+8
 402 01d6 DBE900AB 		ldrd	r10, [fp]
 403              	.LVL55:
 404              	.L21:
 124:VFH+\src/lidarScan.c ****       if (x_data[nx] && (obj_InternalRanges_data[nx] > 0.0)) {
 405              		.loc 1 124 0 discriminator 1
 406 01da C845     		cmp	r8, r9
 407 01dc 11DA     		bge	.L41
 125:VFH+\src/lidarScan.c ****         thetaWrap_data[nx] = 6.2831853071795862;
 408              		.loc 1 125 0
 409 01de 1A4B     		ldr	r3, .L43+16
 410 01e0 13F80830 		ldrb	r3, [r3, r8]	@ zero_extendqisi2
 411 01e4 43B1     		cbz	r3, .L22
 125:VFH+\src/lidarScan.c ****         thetaWrap_data[nx] = 6.2831853071795862;
 412              		.loc 1 125 0 is_stmt 0 discriminator 1
 413 01e6 D7E90001 		ldrd	r0, [r7]
 414 01ea 0022     		movs	r2, #0
 415 01ec 0023     		movs	r3, #0
 416 01ee FFF7FEFF 		bl	__aeabi_dcmpgt
 417              	.LVL56:
 418 01f2 08B1     		cbz	r0, .L22
 126:VFH+\src/lidarScan.c ****       }
 419              		.loc 1 126 0 is_stmt 1
ARM GAS  C:\Users\jmspi\AppData\Local\Temp\ccgnXNFz.s 			page 12


 420 01f4 C4E900AB 		strd	r10, [r4]
 421              	.L22:
 124:VFH+\src/lidarScan.c ****       if (x_data[nx] && (obj_InternalRanges_data[nx] > 0.0)) {
 422              		.loc 1 124 0 discriminator 2
 423 01f8 08F10108 		add	r8, r8, #1
 424              	.LVL57:
 425 01fc 0837     		adds	r7, r7, #8
 426 01fe 0834     		adds	r4, r4, #8
 427 0200 EBE7     		b	.L21
 428              	.L41:
 129:VFH+\src/lidarScan.c ****     obj_InternalAngles->size[0] = thetaWrap->size[0];
 429              		.loc 1 129 0
 430 0202 7368     		ldr	r3, [r6, #4]
 131:VFH+\src/lidarScan.c ****     obj_InternalRanges_data = obj_InternalAngles->data;
 431              		.loc 1 131 0
 432 0204 3046     		mov	r0, r6
 129:VFH+\src/lidarScan.c ****     obj_InternalAngles->size[0] = thetaWrap->size[0];
 433              		.loc 1 129 0
 434 0206 1968     		ldr	r1, [r3]
 435              	.LVL58:
 130:VFH+\src/lidarScan.c ****     emxEnsureCapacity_real_T(obj_InternalAngles, i);
 436              		.loc 1 130 0
 437 0208 C3F80090 		str	r9, [r3]
 131:VFH+\src/lidarScan.c ****     obj_InternalRanges_data = obj_InternalAngles->data;
 438              		.loc 1 131 0
 439 020c FFF7FEFF 		bl	emxEnsureCapacity_real_T
 440              	.LVL59:
 133:VFH+\src/lidarScan.c ****     for (i = 0; i < nx; i++) {
 441              		.loc 1 133 0
 442 0210 029B     		ldr	r3, [sp, #8]
 443 0212 3468     		ldr	r4, [r6]
 444 0214 5B68     		ldr	r3, [r3, #4]
 445 0216 083C     		subs	r4, r4, #8
 446 0218 1F68     		ldr	r7, [r3]
 447              	.LVL60:
 134:VFH+\src/lidarScan.c ****       obj_InternalRanges_data[i] = thetaWrap_data[i] - 3.1415926535897931;
 448              		.loc 1 134 0
 449 021a 0026     		movs	r6, #0
 450              	.LVL61:
 451              	.L25:
 134:VFH+\src/lidarScan.c ****       obj_InternalRanges_data[i] = thetaWrap_data[i] - 3.1415926535897931;
 452              		.loc 1 134 0 is_stmt 0 discriminator 1
 453 021c BE42     		cmp	r6, r7
 454 021e BFF670AF 		bge	.L42
 135:VFH+\src/lidarScan.c ****     }
 455              		.loc 1 135 0 is_stmt 1 discriminator 3
 456 0222 F5E90201 		ldrd	r0, [r5, #8]!
 457 0226 04A3     		adr	r3, .L43
 458 0228 D3E90023 		ldrd	r2, [r3]
 459 022c FFF7FEFF 		bl	__aeabi_dsub
 460              	.LVL62:
 134:VFH+\src/lidarScan.c ****       obj_InternalRanges_data[i] = thetaWrap_data[i] - 3.1415926535897931;
 461              		.loc 1 134 0 discriminator 3
 462 0230 0136     		adds	r6, r6, #1
 463              	.LVL63:
 135:VFH+\src/lidarScan.c ****     }
 464              		.loc 1 135 0 discriminator 3
ARM GAS  C:\Users\jmspi\AppData\Local\Temp\ccgnXNFz.s 			page 13


 465 0232 E4E90201 		strd	r0, [r4, #8]!
 466 0236 F1E7     		b	.L25
 467              	.L44:
 468              		.align	3
 469              	.L43:
 470 0238 182D4454 		.word	1413754136
 471 023c FB210940 		.word	1074340347
 472 0240 182D4454 		.word	1413754136
 473 0244 FB211940 		.word	1075388923
 474 0248 00000000 		.word	.LANCHOR0
 475              		.cfi_endproc
 476              	.LFE0:
 477              		.size	lidarScan_lidarScan, .-lidarScan_lidarScan
 478              		.global	__aeabi_dcmpge
 479              		.global	__aeabi_dcmple
 480              		.section	.text.lidarScan_removeInvalidData,"ax",%progbits
 481              		.align	1
 482              		.global	lidarScan_removeInvalidData
 483              		.thumb
 484              		.thumb_func
 485              		.type	lidarScan_removeInvalidData, %function
 486              	lidarScan_removeInvalidData:
 487              	.LFB1:
 142:VFH+\src/lidarScan.c **** 
 143:VFH+\src/lidarScan.c **** /*
 144:VFH+\src/lidarScan.c ****  * Arguments    : const emxArray_real_T *obj_InternalRanges
 145:VFH+\src/lidarScan.c ****  *                const emxArray_real_T *obj_InternalAngles
 146:VFH+\src/lidarScan.c ****  *                const double varargin_2[2]
 147:VFH+\src/lidarScan.c ****  *                emxArray_real_T *objOut_InternalRanges
 148:VFH+\src/lidarScan.c ****  *                emxArray_real_T *objOut_InternalAngles
 149:VFH+\src/lidarScan.c ****  *                bool *objOut_ContainsOnlyFiniteData
 150:VFH+\src/lidarScan.c ****  * Return Type  : void
 151:VFH+\src/lidarScan.c ****  */
 152:VFH+\src/lidarScan.c **** void lidarScan_removeInvalidData(const emxArray_real_T *obj_InternalRanges,
 153:VFH+\src/lidarScan.c ****                                  const emxArray_real_T *obj_InternalAngles,
 154:VFH+\src/lidarScan.c ****                                  const double varargin_2[2],
 155:VFH+\src/lidarScan.c ****                                  emxArray_real_T *objOut_InternalRanges,
 156:VFH+\src/lidarScan.c ****                                  emxArray_real_T *objOut_InternalAngles,
 157:VFH+\src/lidarScan.c ****                                  bool *objOut_ContainsOnlyFiniteData)
 158:VFH+\src/lidarScan.c **** {
 488              		.loc 1 158 0
 489              		.cfi_startproc
 490              		@ args = 8, pretend = 0, frame = 32
 491              		@ frame_needed = 0, uses_anonymous_args = 0
 492              	.LVL64:
 493 0000 2DE9F04F 		push	{r4, r5, r6, r7, r8, r9, r10, fp, lr}
 494              		.cfi_def_cfa_offset 36
 495              		.cfi_offset 4, -36
 496              		.cfi_offset 5, -32
 497              		.cfi_offset 6, -28
 498              		.cfi_offset 7, -24
 499              		.cfi_offset 8, -20
 500              		.cfi_offset 9, -16
 501              		.cfi_offset 10, -12
 502              		.cfi_offset 11, -8
 503              		.cfi_offset 14, -4
 504 0004 8BB0     		sub	sp, sp, #44
ARM GAS  C:\Users\jmspi\AppData\Local\Temp\ccgnXNFz.s 			page 14


 505              		.cfi_def_cfa_offset 80
 506              		.loc 1 158 0
 507 0006 1D46     		mov	r5, r3
 508 0008 0446     		mov	r4, r0
 509 000a 0F46     		mov	r7, r1
 510 000c 149E     		ldr	r6, [sp, #80]
 511 000e DDF85480 		ldr	r8, [sp, #84]
 512 0012 9246     		mov	r10, r2
 159:VFH+\src/lidarScan.c ****   static double dv[2] = {0.0, 0.0};
 160:VFH+\src/lidarScan.c ****   static bool b_tmp_data[40000];
 161:VFH+\src/lidarScan.c ****   static bool c_tmp_data[40000];
 162:VFH+\src/lidarScan.c ****   static bool tmp_data[40000];
 163:VFH+\src/lidarScan.c ****   static bool validAngleLimitIndices_data[40000];
 164:VFH+\src/lidarScan.c ****   static bool validIdx_data[40000];
 165:VFH+\src/lidarScan.c ****   static bool validRangeLimitIndices_data[40000];
 166:VFH+\src/lidarScan.c ****   cell_wrap_17 parsedResults[2];
 167:VFH+\src/lidarScan.c ****   emxArray_real_T *b_objOut_InternalAngles;
 168:VFH+\src/lidarScan.c ****   emxArray_real_T *b_objOut_InternalRanges;
 169:VFH+\src/lidarScan.c ****   double *b_objOut_InternalRanges_data;
 170:VFH+\src/lidarScan.c ****   double *objOut_InternalAngles_data;
 171:VFH+\src/lidarScan.c ****   double *objOut_InternalRanges_data;
 172:VFH+\src/lidarScan.c ****   int i;
 173:VFH+\src/lidarScan.c ****   int loop_ub;
 174:VFH+\src/lidarScan.c ****   int validIdx_size;
 175:VFH+\src/lidarScan.c ****   bool exitg1;
 176:VFH+\src/lidarScan.c ****   bool p;
 177:VFH+\src/lidarScan.c ****   dv[1U] = rtGetInf();
 513              		.loc 1 177 0
 514 0014 FFF7FEFF 		bl	rtGetInf
 515              	.LVL65:
 516 0018 DFF87092 		ldr	r9, .L104+4
 178:VFH+\src/lidarScan.c ****   lidarScan_lidarScan(obj_InternalRanges, obj_InternalAngles,
 517              		.loc 1 178 0
 518 001c 3346     		mov	r3, r6
 177:VFH+\src/lidarScan.c ****   lidarScan_lidarScan(obj_InternalRanges, obj_InternalAngles,
 519              		.loc 1 177 0
 520 001e C9E90201 		strd	r0, [r9, #8]
 521              		.loc 1 178 0
 522 0022 2A46     		mov	r2, r5
 523 0024 3946     		mov	r1, r7
 524 0026 2046     		mov	r0, r4
 525 0028 CDF80080 		str	r8, [sp]
 526 002c FFF7FEFF 		bl	lidarScan_lidarScan
 527              	.LVL66:
 179:VFH+\src/lidarScan.c ****                       objOut_InternalRanges, objOut_InternalAngles,
 180:VFH+\src/lidarScan.c ****                       objOut_ContainsOnlyFiniteData);
 181:VFH+\src/lidarScan.c ****   objOut_InternalAngles_data = objOut_InternalAngles->data;
 528              		.loc 1 181 0
 529 0030 3368     		ldr	r3, [r6]
 182:VFH+\src/lidarScan.c ****   objOut_InternalRanges_data = objOut_InternalRanges->data;
 183:VFH+\src/lidarScan.c ****   *objOut_ContainsOnlyFiniteData = true;
 530              		.loc 1 183 0
 531 0032 0122     		movs	r2, #1
 181:VFH+\src/lidarScan.c ****   objOut_InternalRanges_data = objOut_InternalRanges->data;
 532              		.loc 1 181 0
 533 0034 0793     		str	r3, [sp, #28]
 534              	.LVL67:
ARM GAS  C:\Users\jmspi\AppData\Local\Temp\ccgnXNFz.s 			page 15


 184:VFH+\src/lidarScan.c ****   loop_ub = objOut_InternalRanges->size[0];
 535              		.loc 1 184 0
 536 0036 6B68     		ldr	r3, [r5, #4]
 537              	.LVL68:
 182:VFH+\src/lidarScan.c ****   objOut_InternalRanges_data = objOut_InternalRanges->data;
 538              		.loc 1 182 0
 539 0038 2F68     		ldr	r7, [r5]
 540              	.LVL69:
 541              		.loc 1 184 0
 542 003a 1C68     		ldr	r4, [r3]
 543              	.LVL70:
 183:VFH+\src/lidarScan.c ****   loop_ub = objOut_InternalRanges->size[0];
 544              		.loc 1 183 0
 545 003c 88F80020 		strb	r2, [r8]
 185:VFH+\src/lidarScan.c ****   for (i = 0; i < loop_ub; i++) {
 546              		.loc 1 185 0
 547 0040 0023     		movs	r3, #0
 186:VFH+\src/lidarScan.c ****     validRangeLimitIndices_data[i] = true;
 548              		.loc 1 186 0
 549 0042 09F11001 		add	r1, r9, #16
 550              	.LVL71:
 551              	.L46:
 185:VFH+\src/lidarScan.c ****   for (i = 0; i < loop_ub; i++) {
 552              		.loc 1 185 0 discriminator 1
 553 0046 A342     		cmp	r3, r4
 554 0048 02DA     		bge	.L94
 555              		.loc 1 186 0 discriminator 3
 556 004a 5A54     		strb	r2, [r3, r1]
 185:VFH+\src/lidarScan.c ****   for (i = 0; i < loop_ub; i++) {
 557              		.loc 1 185 0 discriminator 3
 558 004c 0133     		adds	r3, r3, #1
 559              	.LVL72:
 560 004e FAE7     		b	.L46
 561              	.L94:
 187:VFH+\src/lidarScan.c ****   }
 188:VFH+\src/lidarScan.c ****   loop_ub = objOut_InternalRanges->size[0];
 189:VFH+\src/lidarScan.c ****   for (i = 0; i < loop_ub; i++) {
 190:VFH+\src/lidarScan.c ****     validAngleLimitIndices_data[i] = true;
 562              		.loc 1 190 0 discriminator 1
 563 0050 8D4A     		ldr	r2, .L104
 564 0052 0023     		movs	r3, #0
 565              	.LVL73:
 566 0054 0121     		movs	r1, #1
 567              	.L48:
 568              	.LVL74:
 189:VFH+\src/lidarScan.c ****     validAngleLimitIndices_data[i] = true;
 569              		.loc 1 189 0 discriminator 1
 570 0056 A342     		cmp	r3, r4
 571 0058 02DA     		bge	.L95
 572              		.loc 1 190 0 discriminator 3
 573 005a 9954     		strb	r1, [r3, r2]
 189:VFH+\src/lidarScan.c ****     validAngleLimitIndices_data[i] = true;
 574              		.loc 1 189 0 discriminator 3
 575 005c 0133     		adds	r3, r3, #1
 576              	.LVL75:
 577 005e FAE7     		b	.L48
 578              	.L95:
ARM GAS  C:\Users\jmspi\AppData\Local\Temp\ccgnXNFz.s 			page 16


 579              	.LVL76:
 191:VFH+\src/lidarScan.c ****   }
 192:VFH+\src/lidarScan.c ****   parsedResults[1].f1[0] = -3.1415926535897931;
 193:VFH+\src/lidarScan.c ****   parsedResults[1].f1[1] = 3.1415926535897931;
 194:VFH+\src/lidarScan.c ****   p = true;
 195:VFH+\src/lidarScan.c ****   loop_ub = 0;
 196:VFH+\src/lidarScan.c ****   exitg1 = false;
 197:VFH+\src/lidarScan.c ****   while ((!exitg1) && (loop_ub < 2)) {
 198:VFH+\src/lidarScan.c ****     if (!(varargin_2[loop_ub] == dv[loop_ub])) {
 580              		.loc 1 198 0
 581 0060 DAE90023 		ldrd	r2, [r10]
 582 0064 D9E90001 		ldrd	r0, [r9]
 583 0068 CDE90423 		strd	r2, [sp, #16]
 584 006c FFF7FEFF 		bl	__aeabi_dcmpeq
 585              	.LVL77:
 586 0070 38B1     		cbz	r0, .L50
 587              	.LVL78:
 588 0072 DAE90201 		ldrd	r0, [r10, #8]
 589 0076 854B     		ldr	r3, .L104+4
 590 0078 D3E90223 		ldrd	r2, [r3, #8]
 591 007c FFF7FEFF 		bl	__aeabi_dcmpeq
 592              	.LVL79:
 593 0080 08BB     		cbnz	r0, .L51
 594              	.LVL80:
 595              	.L50:
 596 0082 A7F1080B 		sub	fp, r7, #8
 199:VFH+\src/lidarScan.c ****       p = false;
 200:VFH+\src/lidarScan.c ****       exitg1 = true;
 201:VFH+\src/lidarScan.c ****     } else {
 202:VFH+\src/lidarScan.c ****       loop_ub++;
 203:VFH+\src/lidarScan.c ****     }
 204:VFH+\src/lidarScan.c ****   }
 205:VFH+\src/lidarScan.c ****   if (!p) {
 206:VFH+\src/lidarScan.c ****     loop_ub = objOut_InternalRanges->size[0];
 207:VFH+\src/lidarScan.c ****     for (i = 0; i < loop_ub; i++) {
 208:VFH+\src/lidarScan.c ****       validRangeLimitIndices_data[i] =
 209:VFH+\src/lidarScan.c ****           ((objOut_InternalRanges_data[i] >= varargin_2[0]) &&
 597              		.loc 1 209 0
 598 0086 4FF00009 		mov	r9, #0
 599              	.L53:
 600              	.LVL81:
 207:VFH+\src/lidarScan.c ****       validRangeLimitIndices_data[i] =
 601              		.loc 1 207 0 discriminator 2
 602 008a A145     		cmp	r9, r4
 603 008c 1BDA     		bge	.L51
 604              		.loc 1 209 0
 605 008e FBE90223 		ldrd	r2, [fp, #8]!
 606 0092 CDE90223 		strd	r2, [sp, #8]
 607 0096 DDE90201 		ldrd	r0, [sp, #8]
 608 009a DDE90423 		ldrd	r2, [sp, #16]
 609 009e FFF7FEFF 		bl	__aeabi_dcmpge
 610              	.LVL82:
 611 00a2 40B1     		cbz	r0, .L54
 612              		.loc 1 209 0 is_stmt 0 discriminator 1
 613 00a4 DAE90223 		ldrd	r2, [r10, #8]
 614 00a8 DDE90201 		ldrd	r0, [sp, #8]
 615 00ac FFF7FEFF 		bl	__aeabi_dcmple
ARM GAS  C:\Users\jmspi\AppData\Local\Temp\ccgnXNFz.s 			page 17


 616              	.LVL83:
 617 00b0 0030     		adds	r0, r0, #0
 618 00b2 18BF     		it	ne
 619 00b4 0120     		movne	r0, #1
 620              	.L54:
 208:VFH+\src/lidarScan.c ****           ((objOut_InternalRanges_data[i] >= varargin_2[0]) &&
 621              		.loc 1 208 0 is_stmt 1 discriminator 6
 622 00b6 764B     		ldr	r3, .L104+8
 623 00b8 00F00100 		and	r0, r0, #1
 624 00bc 09F80300 		strb	r0, [r9, r3]
 207:VFH+\src/lidarScan.c ****       validRangeLimitIndices_data[i] =
 625              		.loc 1 207 0 discriminator 6
 626 00c0 09F10109 		add	r9, r9, #1
 627              	.LVL84:
 628 00c4 E1E7     		b	.L53
 629              	.LVL85:
 630              	.L51:
 631 00c6 083F     		subs	r7, r7, #8
 632              	.LVL86:
 633              		.loc 1 209 0
 634 00c8 BA46     		mov	r10, r7
 635              	.LVL87:
 210:VFH+\src/lidarScan.c ****            (objOut_InternalRanges_data[i] <= varargin_2[1]));
 211:VFH+\src/lidarScan.c ****     }
 212:VFH+\src/lidarScan.c ****   }
 213:VFH+\src/lidarScan.c ****   p = true;
 214:VFH+\src/lidarScan.c ****   loop_ub = 0;
 215:VFH+\src/lidarScan.c ****   exitg1 = false;
 216:VFH+\src/lidarScan.c ****   while ((!exitg1) && (loop_ub < 2)) {
 217:VFH+\src/lidarScan.c ****     if (!(parsedResults[1].f1[loop_ub] ==
 218:VFH+\src/lidarScan.c ****           6.2831853071795862 * (double)loop_ub + -3.1415926535897931)) {
 219:VFH+\src/lidarScan.c ****       p = false;
 220:VFH+\src/lidarScan.c ****       exitg1 = true;
 221:VFH+\src/lidarScan.c ****     } else {
 222:VFH+\src/lidarScan.c ****       loop_ub++;
 223:VFH+\src/lidarScan.c ****     }
 224:VFH+\src/lidarScan.c ****   }
 225:VFH+\src/lidarScan.c ****   if (!p) {
 226:VFH+\src/lidarScan.c ****     sort(parsedResults[1].f1);
 227:VFH+\src/lidarScan.c ****     loop_ub = objOut_InternalAngles->size[0];
 228:VFH+\src/lidarScan.c ****     for (i = 0; i < loop_ub; i++) {
 229:VFH+\src/lidarScan.c ****       validAngleLimitIndices_data[i] =
 230:VFH+\src/lidarScan.c ****           ((objOut_InternalAngles_data[i] >= parsedResults[1].f1[0]) &&
 231:VFH+\src/lidarScan.c ****            (objOut_InternalAngles_data[i] <= parsedResults[1].f1[1]));
 232:VFH+\src/lidarScan.c ****     }
 233:VFH+\src/lidarScan.c ****   }
 234:VFH+\src/lidarScan.c ****   validIdx_size = objOut_InternalRanges->size[0];
 235:VFH+\src/lidarScan.c ****   loop_ub = objOut_InternalRanges->size[0];
 236:VFH+\src/lidarScan.c ****   for (i = 0; i < loop_ub; i++) {
 237:VFH+\src/lidarScan.c ****     validIdx_data[i] = rtIsInf(objOut_InternalRanges_data[i]);
 636              		.loc 1 237 0
 637 00ca DFF8D4B1 		ldr	fp, .L104+24
 209:VFH+\src/lidarScan.c ****            (objOut_InternalRanges_data[i] <= varargin_2[1]));
 638              		.loc 1 209 0
 639 00ce 4FF00009 		mov	r9, #0
 640              	.L78:
 641              	.LVL88:
ARM GAS  C:\Users\jmspi\AppData\Local\Temp\ccgnXNFz.s 			page 18


 236:VFH+\src/lidarScan.c ****     validIdx_data[i] = rtIsInf(objOut_InternalRanges_data[i]);
 642              		.loc 1 236 0 discriminator 1
 643 00d2 A145     		cmp	r9, r4
 644 00d4 08DA     		bge	.L96
 645              		.loc 1 237 0 discriminator 3
 646 00d6 FAE90201 		ldrd	r0, [r10, #8]!
 647 00da FFF7FEFF 		bl	rtIsInf
 648              	.LVL89:
 649 00de 0BF80900 		strb	r0, [fp, r9]
 236:VFH+\src/lidarScan.c ****     validIdx_data[i] = rtIsInf(objOut_InternalRanges_data[i]);
 650              		.loc 1 236 0 discriminator 3
 651 00e2 09F10109 		add	r9, r9, #1
 652              	.LVL90:
 653 00e6 F4E7     		b	.L78
 654              	.L96:
 238:VFH+\src/lidarScan.c ****   }
 239:VFH+\src/lidarScan.c ****   loop_ub = objOut_InternalRanges->size[0];
 655              		.loc 1 239 0
 656 00e8 6B68     		ldr	r3, [r5, #4]
 240:VFH+\src/lidarScan.c ****   for (i = 0; i < loop_ub; i++) {
 241:VFH+\src/lidarScan.c ****     tmp_data[i] = rtIsNaN(objOut_InternalRanges_data[i]);
 657              		.loc 1 241 0
 658 00ea DFF8B0B1 		ldr	fp, .L104+20
 239:VFH+\src/lidarScan.c ****   for (i = 0; i < loop_ub; i++) {
 659              		.loc 1 239 0
 660 00ee D3F800A0 		ldr	r10, [r3]
 661              	.LVL91:
 240:VFH+\src/lidarScan.c ****   for (i = 0; i < loop_ub; i++) {
 662              		.loc 1 240 0
 663 00f2 4FF00009 		mov	r9, #0
 664              	.LVL92:
 665              	.L59:
 240:VFH+\src/lidarScan.c ****   for (i = 0; i < loop_ub; i++) {
 666              		.loc 1 240 0 is_stmt 0 discriminator 1
 667 00f6 D145     		cmp	r9, r10
 668 00f8 08DA     		bge	.L97
 669              		.loc 1 241 0 is_stmt 1 discriminator 3
 670 00fa F7E90201 		ldrd	r0, [r7, #8]!
 671 00fe FFF7FEFF 		bl	rtIsNaN
 672              	.LVL93:
 673 0102 0BF80900 		strb	r0, [fp, r9]
 240:VFH+\src/lidarScan.c ****   for (i = 0; i < loop_ub; i++) {
 674              		.loc 1 240 0 discriminator 3
 675 0106 09F10109 		add	r9, r9, #1
 676              	.LVL94:
 677 010a F4E7     		b	.L59
 678              	.L97:
 242:VFH+\src/lidarScan.c ****   }
 243:VFH+\src/lidarScan.c ****   loop_ub = objOut_InternalAngles->size[0];
 679              		.loc 1 243 0
 680 010c 7368     		ldr	r3, [r6, #4]
 244:VFH+\src/lidarScan.c ****   for (i = 0; i < loop_ub; i++) {
 681              		.loc 1 244 0
 682 010e 0027     		movs	r7, #0
 243:VFH+\src/lidarScan.c ****   for (i = 0; i < loop_ub; i++) {
 683              		.loc 1 243 0
 684 0110 D3F800B0 		ldr	fp, [r3]
ARM GAS  C:\Users\jmspi\AppData\Local\Temp\ccgnXNFz.s 			page 19


 685              	.LVL95:
 686 0114 079B     		ldr	r3, [sp, #28]
 687 0116 A3F10809 		sub	r9, r3, #8
 688              		.loc 1 244 0
 689 011a CA46     		mov	r10, r9
 245:VFH+\src/lidarScan.c ****     b_tmp_data[i] = rtIsInf(objOut_InternalAngles_data[i]);
 690              		.loc 1 245 0
 691 011c 5D4B     		ldr	r3, .L104+12
 692              	.LVL96:
 693              	.L61:
 244:VFH+\src/lidarScan.c ****   for (i = 0; i < loop_ub; i++) {
 694              		.loc 1 244 0 discriminator 1
 695 011e 5F45     		cmp	r7, fp
 696 0120 08DA     		bge	.L98
 697              		.loc 1 245 0 discriminator 3
 698 0122 FAE90201 		ldrd	r0, [r10, #8]!
 699 0126 0293     		str	r3, [sp, #8]
 700 0128 FFF7FEFF 		bl	rtIsInf
 701              	.LVL97:
 702 012c 029B     		ldr	r3, [sp, #8]
 703 012e D855     		strb	r0, [r3, r7]
 244:VFH+\src/lidarScan.c ****   for (i = 0; i < loop_ub; i++) {
 704              		.loc 1 244 0 discriminator 3
 705 0130 0137     		adds	r7, r7, #1
 706              	.LVL98:
 707 0132 F4E7     		b	.L61
 708              	.L98:
 246:VFH+\src/lidarScan.c ****   }
 247:VFH+\src/lidarScan.c ****   loop_ub = objOut_InternalAngles->size[0];
 709              		.loc 1 247 0
 710 0134 7368     		ldr	r3, [r6, #4]
 248:VFH+\src/lidarScan.c ****   for (i = 0; i < loop_ub; i++) {
 249:VFH+\src/lidarScan.c ****     c_tmp_data[i] = rtIsNaN(objOut_InternalAngles_data[i]);
 711              		.loc 1 249 0
 712 0136 DFF86CB1 		ldr	fp, .L104+28
 713              	.LVL99:
 247:VFH+\src/lidarScan.c ****   for (i = 0; i < loop_ub; i++) {
 714              		.loc 1 247 0
 715 013a D3F800A0 		ldr	r10, [r3]
 716              	.LVL100:
 248:VFH+\src/lidarScan.c ****   for (i = 0; i < loop_ub; i++) {
 717              		.loc 1 248 0
 718 013e 0027     		movs	r7, #0
 719              	.LVL101:
 720              	.L63:
 248:VFH+\src/lidarScan.c ****   for (i = 0; i < loop_ub; i++) {
 721              		.loc 1 248 0 is_stmt 0 discriminator 1
 722 0140 5745     		cmp	r7, r10
 723 0142 07DA     		bge	.L99
 724              		.loc 1 249 0 is_stmt 1 discriminator 3
 725 0144 F9E90201 		ldrd	r0, [r9, #8]!
 726 0148 FFF7FEFF 		bl	rtIsNaN
 727              	.LVL102:
 728 014c 0BF80700 		strb	r0, [fp, r7]
 248:VFH+\src/lidarScan.c ****   for (i = 0; i < loop_ub; i++) {
 729              		.loc 1 248 0 discriminator 3
 730 0150 0137     		adds	r7, r7, #1
ARM GAS  C:\Users\jmspi\AppData\Local\Temp\ccgnXNFz.s 			page 20


 731              	.LVL103:
 732 0152 F5E7     		b	.L63
 733              	.L99:
 734 0154 5049     		ldr	r1, .L104+16
 250:VFH+\src/lidarScan.c ****   }
 251:VFH+\src/lidarScan.c ****   for (i = 0; i < validIdx_size; i++) {
 252:VFH+\src/lidarScan.c ****     validIdx_data[i] =
 253:VFH+\src/lidarScan.c ****         ((!validIdx_data[i]) && (!tmp_data[i]) &&
 735              		.loc 1 253 0
 736 0156 5148     		ldr	r0, .L104+20
 254:VFH+\src/lidarScan.c ****          ((!b_tmp_data[i]) && (!c_tmp_data[i])) &&
 737              		.loc 1 254 0
 738 0158 4E4F     		ldr	r7, .L104+12
 739              	.LVL104:
 740 015a DFF848E1 		ldr	lr, .L104+28
 255:VFH+\src/lidarScan.c ****          validRangeLimitIndices_data[i] && validAngleLimitIndices_data[i]);
 741              		.loc 1 255 0
 742 015e DFF830C1 		ldr	ip, .L104+8
 743 0162 DFF82491 		ldr	r9, .L104
 248:VFH+\src/lidarScan.c ****     c_tmp_data[i] = rtIsNaN(objOut_InternalAngles_data[i]);
 744              		.loc 1 248 0
 745 0166 0022     		movs	r2, #0
 746              	.LVL105:
 747              	.L65:
 251:VFH+\src/lidarScan.c ****     validIdx_data[i] =
 748              		.loc 1 251 0 discriminator 2
 749 0168 A242     		cmp	r2, r4
 750 016a 1CDA     		bge	.L100
 751              		.loc 1 255 0
 752 016c 11F8013F 		ldrb	r3, [r1, #1]!	@ zero_extendqisi2
 753 0170 8BB9     		cbnz	r3, .L80
 253:VFH+\src/lidarScan.c ****          ((!b_tmp_data[i]) && (!c_tmp_data[i])) &&
 754              		.loc 1 253 0
 755 0172 12F800A0 		ldrb	r10, [r2, r0]	@ zero_extendqisi2
 756 0176 BAF1000F 		cmp	r10, #0
 757 017a 0FD1     		bne	.L66
 253:VFH+\src/lidarScan.c ****          ((!b_tmp_data[i]) && (!c_tmp_data[i])) &&
 758              		.loc 1 253 0 is_stmt 0 discriminator 1
 759 017c D35D     		ldrb	r3, [r2, r7]	@ zero_extendqisi2
 760 017e 63B9     		cbnz	r3, .L82
 254:VFH+\src/lidarScan.c ****          validRangeLimitIndices_data[i] && validAngleLimitIndices_data[i]);
 761              		.loc 1 254 0 is_stmt 1
 762 0180 12F80EA0 		ldrb	r10, [r2, lr]	@ zero_extendqisi2
 763 0184 BAF1000F 		cmp	r10, #0
 764 0188 08D1     		bne	.L66
 254:VFH+\src/lidarScan.c ****          validRangeLimitIndices_data[i] && validAngleLimitIndices_data[i]);
 765              		.loc 1 254 0 is_stmt 0 discriminator 1
 766 018a 12F80C30 		ldrb	r3, [r2, ip]	@ zero_extendqisi2
 767 018e 2BB1     		cbz	r3, .L66
 768              		.loc 1 255 0 is_stmt 1 discriminator 3
 769 0190 12F80930 		ldrb	r3, [r2, r9]	@ zero_extendqisi2
 770 0194 02E0     		b	.L66
 771              	.L80:
 772              		.loc 1 255 0 is_stmt 0
 773 0196 0023     		movs	r3, #0
 774 0198 00E0     		b	.L66
 775              	.L82:
ARM GAS  C:\Users\jmspi\AppData\Local\Temp\ccgnXNFz.s 			page 21


 776 019a 5346     		mov	r3, r10
 777              	.L66:
 252:VFH+\src/lidarScan.c ****         ((!validIdx_data[i]) && (!tmp_data[i]) &&
 778              		.loc 1 252 0 is_stmt 1 discriminator 5
 779 019c 03F00103 		and	r3, r3, #1
 780 01a0 0B70     		strb	r3, [r1]
 251:VFH+\src/lidarScan.c ****     validIdx_data[i] =
 781              		.loc 1 251 0 discriminator 5
 782 01a2 0132     		adds	r2, r2, #1
 783              	.LVL106:
 784 01a4 E0E7     		b	.L65
 785              	.L100:
 256:VFH+\src/lidarScan.c ****   }
 257:VFH+\src/lidarScan.c ****   p = true;
 258:VFH+\src/lidarScan.c ****   loop_ub = 1;
 259:VFH+\src/lidarScan.c ****   exitg1 = false;
 260:VFH+\src/lidarScan.c ****   while ((!exitg1) && (loop_ub <= validIdx_size)) {
 261:VFH+\src/lidarScan.c ****     if (!validIdx_data[loop_ub - 1]) {
 786              		.loc 1 261 0
 787 01a6 3E4A     		ldr	r2, .L104+24
 788              	.LVL107:
 789 01a8 0123     		movs	r3, #1
 790              	.L68:
 791              	.LVL108:
 260:VFH+\src/lidarScan.c ****     if (!validIdx_data[loop_ub - 1]) {
 792              		.loc 1 260 0
 793 01aa 9C42     		cmp	r4, r3
 794 01ac 65DB     		blt	.L72
 795              		.loc 1 261 0
 796 01ae D118     		adds	r1, r2, r3
 797 01b0 11F8011C 		ldrb	r1, [r1, #-1]	@ zero_extendqisi2
 798 01b4 11B9     		cbnz	r1, .L69
 799 01b6 3A49     		ldr	r1, .L104+24
 800 01b8 0B46     		mov	r3, r1
 801              	.LVL109:
 802 01ba 01E0     		b	.L70
 803              	.LVL110:
 804              	.L69:
 262:VFH+\src/lidarScan.c ****       p = false;
 263:VFH+\src/lidarScan.c ****       exitg1 = true;
 264:VFH+\src/lidarScan.c ****     } else {
 265:VFH+\src/lidarScan.c ****       loop_ub++;
 805              		.loc 1 265 0
 806 01bc 0133     		adds	r3, r3, #1
 807              	.LVL111:
 808 01be F4E7     		b	.L68
 809              	.LVL112:
 810              	.L70:
 266:VFH+\src/lidarScan.c ****     }
 267:VFH+\src/lidarScan.c ****   }
 268:VFH+\src/lidarScan.c ****   if (!p) {
 269:VFH+\src/lidarScan.c ****     for (i = 0; i < validIdx_size; i++) {
 811              		.loc 1 269 0 discriminator 1
 812 01c0 5A1A     		subs	r2, r3, r1
 813 01c2 9442     		cmp	r4, r2
 814 01c4 05DD     		ble	.L101
 270:VFH+\src/lidarScan.c ****       validIdx_data[i] = !validIdx_data[i];
ARM GAS  C:\Users\jmspi\AppData\Local\Temp\ccgnXNFz.s 			page 22


 815              		.loc 1 270 0 discriminator 3
 816 01c6 1A78     		ldrb	r2, [r3]	@ zero_extendqisi2
 817 01c8 82F00102 		eor	r2, r2, #1
 818 01cc 03F8012B 		strb	r2, [r3], #1
 819              	.LVL113:
 820 01d0 F6E7     		b	.L70
 821              	.L101:
 271:VFH+\src/lidarScan.c ****     }
 272:VFH+\src/lidarScan.c ****     emxInit_real_T(&b_objOut_InternalRanges, 1);
 822              		.loc 1 272 0
 823 01d2 0121     		movs	r1, #1
 824 01d4 09A8     		add	r0, sp, #36
 825 01d6 FFF7FEFF 		bl	emxInit_real_T
 826              	.LVL114:
 273:VFH+\src/lidarScan.c ****     nullAssignment(objOut_InternalRanges, validIdx_data, validIdx_size);
 827              		.loc 1 273 0
 828 01da 2246     		mov	r2, r4
 829 01dc 3049     		ldr	r1, .L104+24
 830 01de 2846     		mov	r0, r5
 831 01e0 FFF7FEFF 		bl	nullAssignment
 832              	.LVL115:
 274:VFH+\src/lidarScan.c ****     objOut_InternalRanges_data = objOut_InternalRanges->data;
 275:VFH+\src/lidarScan.c ****     nullAssignment(objOut_InternalAngles, validIdx_data, validIdx_size);
 833              		.loc 1 275 0
 834 01e4 2246     		mov	r2, r4
 835 01e6 2E49     		ldr	r1, .L104+24
 836 01e8 3046     		mov	r0, r6
 274:VFH+\src/lidarScan.c ****     objOut_InternalRanges_data = objOut_InternalRanges->data;
 837              		.loc 1 274 0
 838 01ea 2F68     		ldr	r7, [r5]
 839              	.LVL116:
 840              		.loc 1 275 0
 841 01ec FFF7FEFF 		bl	nullAssignment
 842              	.LVL117:
 276:VFH+\src/lidarScan.c ****     objOut_InternalAngles_data = objOut_InternalAngles->data;
 277:VFH+\src/lidarScan.c ****     i = b_objOut_InternalRanges->size[0];
 843              		.loc 1 277 0
 844 01f0 0998     		ldr	r0, [sp, #36]
 278:VFH+\src/lidarScan.c ****     b_objOut_InternalRanges->size[0] = objOut_InternalRanges->size[0];
 845              		.loc 1 278 0
 846 01f2 6A68     		ldr	r2, [r5, #4]
 277:VFH+\src/lidarScan.c ****     b_objOut_InternalRanges->size[0] = objOut_InternalRanges->size[0];
 847              		.loc 1 277 0
 848 01f4 4368     		ldr	r3, [r0, #4]
 849              		.loc 1 278 0
 850 01f6 1268     		ldr	r2, [r2]
 277:VFH+\src/lidarScan.c ****     b_objOut_InternalRanges->size[0] = objOut_InternalRanges->size[0];
 851              		.loc 1 277 0
 852 01f8 1968     		ldr	r1, [r3]
 276:VFH+\src/lidarScan.c ****     objOut_InternalAngles_data = objOut_InternalAngles->data;
 853              		.loc 1 276 0
 854 01fa 3468     		ldr	r4, [r6]
 855              	.LVL118:
 856              		.loc 1 278 0
 857 01fc 1A60     		str	r2, [r3]
 279:VFH+\src/lidarScan.c ****     emxEnsureCapacity_real_T(b_objOut_InternalRanges, i);
 858              		.loc 1 279 0
ARM GAS  C:\Users\jmspi\AppData\Local\Temp\ccgnXNFz.s 			page 23


 859 01fe FFF7FEFF 		bl	emxEnsureCapacity_real_T
 860              	.LVL119:
 280:VFH+\src/lidarScan.c ****     b_objOut_InternalRanges_data = b_objOut_InternalRanges->data;
 281:VFH+\src/lidarScan.c ****     loop_ub = objOut_InternalRanges->size[0] - 1;
 861              		.loc 1 281 0
 862 0202 6B68     		ldr	r3, [r5, #4]
 863 0204 A7F10802 		sub	r2, r7, #8
 864 0208 D3F800E0 		ldr	lr, [r3]
 865              	.LVL120:
 280:VFH+\src/lidarScan.c ****     b_objOut_InternalRanges_data = b_objOut_InternalRanges->data;
 866              		.loc 1 280 0
 867 020c 099B     		ldr	r3, [sp, #36]
 282:VFH+\src/lidarScan.c ****     for (i = 0; i <= loop_ub; i++) {
 868              		.loc 1 282 0
 869 020e 0027     		movs	r7, #0
 870              	.LVL121:
 871 0210 1B68     		ldr	r3, [r3]
 872 0212 083B     		subs	r3, r3, #8
 873              	.LVL122:
 874              	.L74:
 875              		.loc 1 282 0 is_stmt 0 discriminator 1
 876 0214 7745     		cmp	r7, lr
 877 0216 05DA     		bge	.L102
 283:VFH+\src/lidarScan.c ****       b_objOut_InternalRanges_data[i] = objOut_InternalRanges_data[i];
 878              		.loc 1 283 0 is_stmt 1 discriminator 3
 879 0218 F2E90201 		ldrd	r0, [r2, #8]!
 282:VFH+\src/lidarScan.c ****     for (i = 0; i <= loop_ub; i++) {
 880              		.loc 1 282 0 discriminator 3
 881 021c 0137     		adds	r7, r7, #1
 882              	.LVL123:
 883              		.loc 1 283 0 discriminator 3
 884 021e E3E90201 		strd	r0, [r3, #8]!
 885 0222 F7E7     		b	.L74
 886              	.L102:
 284:VFH+\src/lidarScan.c ****     }
 285:VFH+\src/lidarScan.c ****     emxInit_real_T(&b_objOut_InternalAngles, 1);
 887              		.loc 1 285 0
 888 0224 0121     		movs	r1, #1
 889 0226 08A8     		add	r0, sp, #32
 890 0228 FFF7FEFF 		bl	emxInit_real_T
 891              	.LVL124:
 286:VFH+\src/lidarScan.c ****     i = b_objOut_InternalAngles->size[0];
 892              		.loc 1 286 0
 893 022c 0898     		ldr	r0, [sp, #32]
 287:VFH+\src/lidarScan.c ****     b_objOut_InternalAngles->size[0] = objOut_InternalAngles->size[0];
 894              		.loc 1 287 0
 895 022e 7268     		ldr	r2, [r6, #4]
 286:VFH+\src/lidarScan.c ****     i = b_objOut_InternalAngles->size[0];
 896              		.loc 1 286 0
 897 0230 4368     		ldr	r3, [r0, #4]
 898              		.loc 1 287 0
 899 0232 1268     		ldr	r2, [r2]
 286:VFH+\src/lidarScan.c ****     i = b_objOut_InternalAngles->size[0];
 900              		.loc 1 286 0
 901 0234 1968     		ldr	r1, [r3]
 902              	.LVL125:
 903              		.loc 1 287 0
ARM GAS  C:\Users\jmspi\AppData\Local\Temp\ccgnXNFz.s 			page 24


 904 0236 1A60     		str	r2, [r3]
 288:VFH+\src/lidarScan.c ****     emxEnsureCapacity_real_T(b_objOut_InternalAngles, i);
 905              		.loc 1 288 0
 906 0238 FFF7FEFF 		bl	emxEnsureCapacity_real_T
 907              	.LVL126:
 289:VFH+\src/lidarScan.c ****     objOut_InternalRanges_data = b_objOut_InternalAngles->data;
 290:VFH+\src/lidarScan.c ****     loop_ub = objOut_InternalAngles->size[0] - 1;
 908              		.loc 1 290 0
 909 023c 7368     		ldr	r3, [r6, #4]
 289:VFH+\src/lidarScan.c ****     objOut_InternalRanges_data = b_objOut_InternalAngles->data;
 910              		.loc 1 289 0
 911 023e 089F     		ldr	r7, [sp, #32]
 912              	.LVL127:
 913              		.loc 1 290 0
 914 0240 D3F800E0 		ldr	lr, [r3]
 915              	.LVL128:
 916 0244 3B68     		ldr	r3, [r7]
 917 0246 A4F10802 		sub	r2, r4, #8
 918 024a 083B     		subs	r3, r3, #8
 291:VFH+\src/lidarScan.c ****     for (i = 0; i <= loop_ub; i++) {
 919              		.loc 1 291 0
 920 024c 0024     		movs	r4, #0
 921              	.LVL129:
 922              	.L76:
 923              		.loc 1 291 0 is_stmt 0 discriminator 1
 924 024e 7445     		cmp	r4, lr
 925 0250 05DA     		bge	.L103
 292:VFH+\src/lidarScan.c ****       objOut_InternalRanges_data[i] = objOut_InternalAngles_data[i];
 926              		.loc 1 292 0 is_stmt 1 discriminator 3
 927 0252 F2E90201 		ldrd	r0, [r2, #8]!
 291:VFH+\src/lidarScan.c ****     for (i = 0; i <= loop_ub; i++) {
 928              		.loc 1 291 0 discriminator 3
 929 0256 0134     		adds	r4, r4, #1
 930              	.LVL130:
 931              		.loc 1 292 0 discriminator 3
 932 0258 E3E90201 		strd	r0, [r3, #8]!
 933 025c F7E7     		b	.L76
 934              	.L103:
 293:VFH+\src/lidarScan.c ****     }
 294:VFH+\src/lidarScan.c ****     lidarScan_lidarScan(b_objOut_InternalRanges, b_objOut_InternalAngles,
 935              		.loc 1 294 0
 936 025e 3346     		mov	r3, r6
 937 0260 2A46     		mov	r2, r5
 938 0262 3946     		mov	r1, r7
 939 0264 0998     		ldr	r0, [sp, #36]
 940 0266 CDF80080 		str	r8, [sp]
 941 026a FFF7FEFF 		bl	lidarScan_lidarScan
 942              	.LVL131:
 295:VFH+\src/lidarScan.c ****                         objOut_InternalRanges, objOut_InternalAngles,
 296:VFH+\src/lidarScan.c ****                         objOut_ContainsOnlyFiniteData);
 297:VFH+\src/lidarScan.c ****     emxFree_real_T(&b_objOut_InternalAngles);
 943              		.loc 1 297 0
 944 026e 08A8     		add	r0, sp, #32
 945 0270 FFF7FEFF 		bl	emxFree_real_T
 946              	.LVL132:
 298:VFH+\src/lidarScan.c ****     emxFree_real_T(&b_objOut_InternalRanges);
 947              		.loc 1 298 0
ARM GAS  C:\Users\jmspi\AppData\Local\Temp\ccgnXNFz.s 			page 25


 948 0274 09A8     		add	r0, sp, #36
 949 0276 FFF7FEFF 		bl	emxFree_real_T
 950              	.LVL133:
 951              	.L72:
 299:VFH+\src/lidarScan.c ****   }
 300:VFH+\src/lidarScan.c ****   *objOut_ContainsOnlyFiniteData = true;
 952              		.loc 1 300 0
 953 027a 0123     		movs	r3, #1
 954 027c 88F80030 		strb	r3, [r8]
 301:VFH+\src/lidarScan.c **** }
 955              		.loc 1 301 0
 956 0280 0BB0     		add	sp, sp, #44
 957              		.cfi_def_cfa_offset 36
 958              		@ sp needed
 959 0282 BDE8F08F 		pop	{r4, r5, r6, r7, r8, r9, r10, fp, pc}
 960              	.LVL134:
 961              	.L105:
 962 0286 00BF     		.align	2
 963              	.L104:
 964 0288 90380100 		.word	.LANCHOR2+1824
 965 028c 409C0000 		.word	.LANCHOR1+904
 966 0290 509C0000 		.word	.LANCHOR1+920
 967 0294 500D0300 		.word	.LANCHOR5+192
 968 0298 CFD40100 		.word	.LANCHOR3+2727
 969 029c 10710200 		.word	.LANCHOR4+3632
 970 02a0 D0D40100 		.word	.LANCHOR3+2728
 971 02a4 90A90300 		.word	.LANCHOR6+1096
 972              		.cfi_endproc
 973              	.LFE1:
 974              		.size	lidarScan_removeInvalidData, .-lidarScan_removeInvalidData
 975              		.bss
 976              		.align	3
 977              		.set	.LANCHOR0,. + 0
 978              		.set	.LANCHOR1,. + 39096
 979              		.set	.LANCHOR2,. + 78192
 980              		.set	.LANCHOR3,. + 117288
 981              		.set	.LANCHOR4,. + 156384
 982              		.set	.LANCHOR5,. + 199824
 983              		.set	.LANCHOR6,. + 238920
 984              		.type	x_data.5423, %object
 985              		.size	x_data.5423, 40000
 986              	x_data.5423:
 987 0000 00000000 		.space	40000
 987      00000000 
 987      00000000 
 987      00000000 
 987      00000000 
 988              		.type	dv.5473, %object
 989              		.size	dv.5473, 16
 990              	dv.5473:
 991 9c40 00000000 		.space	16
 991      00000000 
 991      00000000 
 991      00000000 
 992              		.type	validRangeLimitIndices_data.5479, %object
 993              		.size	validRangeLimitIndices_data.5479, 40000
 994              	validRangeLimitIndices_data.5479:
ARM GAS  C:\Users\jmspi\AppData\Local\Temp\ccgnXNFz.s 			page 26


 995 9c50 00000000 		.space	40000
 995      00000000 
 995      00000000 
 995      00000000 
 995      00000000 
 996              		.type	validAngleLimitIndices_data.5477, %object
 997              		.size	validAngleLimitIndices_data.5477, 40000
 998              	validAngleLimitIndices_data.5477:
 999 13890 00000000 		.space	40000
 999      00000000 
 999      00000000 
 999      00000000 
 999      00000000 
 1000              		.type	validIdx_data.5478, %object
 1001              		.size	validIdx_data.5478, 40000
 1002              	validIdx_data.5478:
 1003 1d4d0 00000000 		.space	40000
 1003      00000000 
 1003      00000000 
 1003      00000000 
 1003      00000000 
 1004              		.type	tmp_data.5476, %object
 1005              		.size	tmp_data.5476, 40000
 1006              	tmp_data.5476:
 1007 27110 00000000 		.space	40000
 1007      00000000 
 1007      00000000 
 1007      00000000 
 1007      00000000 
 1008              		.type	b_tmp_data.5474, %object
 1009              		.size	b_tmp_data.5474, 40000
 1010              	b_tmp_data.5474:
 1011 30d50 00000000 		.space	40000
 1011      00000000 
 1011      00000000 
 1011      00000000 
 1011      00000000 
 1012              		.type	c_tmp_data.5475, %object
 1013              		.size	c_tmp_data.5475, 40000
 1014              	c_tmp_data.5475:
 1015 3a990 00000000 		.space	40000
 1015      00000000 
 1015      00000000 
 1015      00000000 
 1015      00000000 
 1016              		.text
 1017              	.Letext0:
 1018              		.file 2 ".\\VFH+\\include/vfhTest_types.h"
 1019              		.file 3 ".\\VFH+\\include/vfhTest_emxutil.h"
 1020              		.file 4 ".\\VFH+\\include/mod.h"
 1021              		.file 5 ".\\VFH+\\include/rtGetInf.h"
 1022              		.file 6 ".\\VFH+\\include/rt_nonfinite.h"
 1023              		.file 7 ".\\VFH+\\include/nullAssignment.h"