ARM GAS  C:\Users\jmspi\AppData\Local\Temp\ccpe3dht.s 			page 1


   1              		.syntax unified
   2              		.cpu cortex-m3
   3              		.fpu softvfp
   4              		.eabi_attribute 20, 1
   5              		.eabi_attribute 21, 1
   6              		.eabi_attribute 23, 3
   7              		.eabi_attribute 24, 1
   8              		.eabi_attribute 25, 1
   9              		.eabi_attribute 26, 1
  10              		.eabi_attribute 30, 6
  11              		.eabi_attribute 34, 1
  12              		.eabi_attribute 18, 4
  13              		.thumb
  14              		.syntax unified
  15              		.file	"main.c"
  16              		.text
  17              	.Ltext0:
  18              		.cfi_sections	.debug_frame
  19              		.global	PULSES_PER_REV
  20              		.section	.rodata
  21              		.align	3
  22              		.type	PULSES_PER_REV, %object
  23              		.size	PULSES_PER_REV, 8
  24              	PULSES_PER_REV:
  25 0000 A4703D0A 		.word	171798692
  26 0004 D70FAC40 		.word	1085018071
  27              		.global	POSE_UPDATE_PERIOD
  28              		.align	3
  29              		.type	POSE_UPDATE_PERIOD, %object
  30              		.size	POSE_UPDATE_PERIOD, 8
  31              	POSE_UPDATE_PERIOD:
  32 0008 7B14AE47 		.word	1202590843
  33 000c E17A943F 		.word	1066695393
  34              		.global	echo_flag
  35              		.bss
  36              		.type	echo_flag, %object
  37              		.size	echo_flag, 1
  38              	echo_flag:
  39 0000 00       		.space	1
  40              		.global	max_count
  41              		.data
  42              		.align	1
  43              		.type	max_count, %object
  44              		.size	max_count, 2
  45              	max_count:
  46 0000 FFFF     		.short	-1
  47              		.comm	echo_distance,2,2
  48              		.global	mux_select
  49              		.bss
  50              		.type	mux_select, %object
  51              		.size	mux_select, 1
  52              	mux_select:
  53 0001 00       		.space	1
  54              		.global	left_wheel_count
  55 0002 0000     		.align	2
  56              		.type	left_wheel_count, %object
  57              		.size	left_wheel_count, 4
ARM GAS  C:\Users\jmspi\AppData\Local\Temp\ccpe3dht.s 			page 2


  58              	left_wheel_count:
  59 0004 00000000 		.space	4
  60              		.global	right_wheel_count
  61              		.align	2
  62              		.type	right_wheel_count, %object
  63              		.size	right_wheel_count, 4
  64              	right_wheel_count:
  65 0008 00000000 		.space	4
  66              		.comm	serial_output,150,4
  67              		.comm	left_motor,72,8
  68              		.comm	right_motor,72,8
  69              		.comm	robot,112,8
  70              		.section	.text.Timer_Int_Handler,"ax",%progbits
  71              		.align	2
  72              		.global	Timer_Int_Handler
  73              		.thumb
  74              		.thumb_func
  75              		.type	Timer_Int_Handler, %function
  76              	Timer_Int_Handler:
  77              	.LFB64:
  78              		.file 1 "main.c"
   1:main.c        **** /* ========================================
   2:main.c        ****  *
   3:main.c        ****  * Copyright YOUR COMPANY, THE YEAR
   4:main.c        ****  * All Rights Reserved
   5:main.c        ****  * UNPUBLISHED, LICENSED SOFTWARE.
   6:main.c        ****  *
   7:main.c        ****  * CONFIDENTIAL AND PROPRIETARY INFORMATION
   8:main.c        ****  * WHICH IS THE PROPERTY OF your company.
   9:main.c        ****  *
  10:main.c        ****  * ========================================
  11:main.c        **** */
  12:main.c        **** #include "project.h"
  13:main.c        **** #include <stdio.h>
  14:main.c        **** #include <stdlib.h>
  15:main.c        **** #include <math.h>
  16:main.c        **** 
  17:main.c        **** #include "vfh.h"
  18:main.c        **** //#include "polar_histogram.h"
  19:main.c        **** //#include "histogram_grid.h"
  20:main.c        **** 
  21:main.c        **** struct Motor {
  22:main.c        ****     long double duty_cycle;
  23:main.c        ****     long double int_error;  // integrated error
  24:main.c        ****     long double w; // omega, [rad per sec]
  25:main.c        ****     long double tangent_v; //tangential velocity, [cm per sec]
  26:main.c        ****     long double desired_w;
  27:main.c        ****     long double Ki;
  28:main.c        ****     long double Kp;
  29:main.c        ****     long double wheel_radius; // wheel radius in cm
  30:main.c        ****     int32 enc_count;
  31:main.c        **** };
  32:main.c        **** 
  33:main.c        **** struct Robot {
  34:main.c        ****     long double theta;  // in RADIANS
  35:main.c        ****     long double x;   // in cm
  36:main.c        ****     long double y;   // in cm
ARM GAS  C:\Users\jmspi\AppData\Local\Temp\ccpe3dht.s 			page 3


  37:main.c        ****     long double axle_width; // in cm
  38:main.c        ****     
  39:main.c        ****     long double V;   // in cm/s
  40:main.c        ****     long double w;   // in rad/s
  41:main.c        ****     
  42:main.c        ****     long double desired_V;
  43:main.c        ****     long double desired_theta;
  44:main.c        ****     
  45:main.c        ****     long double Ki;
  46:main.c        ****     long double Kp;
  47:main.c        ****     long double int_error; // integrated error for PI control
  48:main.c        ****     
  49:main.c        ****     long double goal_x;
  50:main.c        ****     long double goal_y;
  51:main.c        ****     long double goal_min_dist; // specifies a threshold of minimum distance to goal at which robot 
  52:main.c        **** };
  53:main.c        **** 
  54:main.c        **** const long double PULSES_PER_REV = 3591.92;
  55:main.c        **** const long double POSE_UPDATE_PERIOD = 1.0/50.0; // seconds
  56:main.c        **** 
  57:main.c        **** void Drive_Left_Motor(long double duty_cycle);
  58:main.c        **** void Drive_Right_Motor(long double duty_cycle);
  59:main.c        **** long double angle_modulo(long double angle);
  60:main.c        **** 
  61:main.c        **** uint8_t echo_flag = 0;
  62:main.c        **** uint16_t max_count = 65535;
  63:main.c        **** uint16_t echo_distance;
  64:main.c        **** uint8_t mux_select = 0;
  65:main.c        **** int32 left_wheel_count = 0;
  66:main.c        **** int32 right_wheel_count = 0;
  67:main.c        **** char serial_output[150];
  68:main.c        **** 
  69:main.c        **** struct Motor left_motor;
  70:main.c        **** struct Motor right_motor;
  71:main.c        **** struct Robot robot;
  72:main.c        **** 
  73:main.c        ****   
  74:main.c        **** CY_ISR( Timer_Int_Handler ) {
  79              		.loc 1 74 0
  80              		.cfi_startproc
  81              		@ args = 0, pretend = 0, frame = 0
  82              		@ frame_needed = 1, uses_anonymous_args = 0
  83              		@ link register save eliminated.
  84 0000 80B4     		push	{r7}
  85              		.cfi_def_cfa_offset 4
  86              		.cfi_offset 7, -4
  87 0002 00AF     		add	r7, sp, #0
  88              		.cfi_def_cfa_register 7
  75:main.c        ****     echo_flag = 1;
  89              		.loc 1 75 0
  90 0004 034B     		ldr	r3, .L2
  91 0006 0122     		movs	r2, #1
  92 0008 1A70     		strb	r2, [r3]
  76:main.c        **** }
  93              		.loc 1 76 0
  94 000a 00BF     		nop
  95 000c BD46     		mov	sp, r7
ARM GAS  C:\Users\jmspi\AppData\Local\Temp\ccpe3dht.s 			page 4


  96              		.cfi_def_cfa_register 13
  97              		@ sp needed
  98 000e 80BC     		pop	{r7}
  99              		.cfi_restore 7
 100              		.cfi_def_cfa_offset 0
 101 0010 7047     		bx	lr
 102              	.L3:
 103 0012 00BF     		.align	2
 104              	.L2:
 105 0014 00000000 		.word	echo_flag
 106              		.cfi_endproc
 107              	.LFE64:
 108              		.size	Timer_Int_Handler, .-Timer_Int_Handler
 109              		.global	__aeabi_i2d
 110              		.global	__aeabi_dmul
 111              		.global	__aeabi_ddiv
 112              		.global	__aeabi_dsub
 113              		.global	__aeabi_dadd
 114              		.global	__aeabi_dcmpgt
 115              		.global	__aeabi_dcmplt
 116              		.section	.text.Pose_Update_Int_Handler,"ax",%progbits
 117              		.align	2
 118              		.global	Pose_Update_Int_Handler
 119              		.thumb
 120              		.thumb_func
 121              		.type	Pose_Update_Int_Handler, %function
 122              	Pose_Update_Int_Handler:
 123              	.LFB65:
  77:main.c        **** 
  78:main.c        **** CY_ISR( Pose_Update_Int_Handler ) {
 124              		.loc 1 78 0
 125              		.cfi_startproc
 126              		@ args = 0, pretend = 0, frame = 24
 127              		@ frame_needed = 1, uses_anonymous_args = 0
 128 0000 2DE9F04F 		push	{r4, r5, r6, r7, r8, r9, r10, fp, lr}
 129              		.cfi_def_cfa_offset 36
 130              		.cfi_offset 4, -36
 131              		.cfi_offset 5, -32
 132              		.cfi_offset 6, -28
 133              		.cfi_offset 7, -24
 134              		.cfi_offset 8, -20
 135              		.cfi_offset 9, -16
 136              		.cfi_offset 10, -12
 137              		.cfi_offset 11, -8
 138              		.cfi_offset 14, -4
 139 0004 87B0     		sub	sp, sp, #28
 140              		.cfi_def_cfa_offset 64
 141 0006 00AF     		add	r7, sp, #0
 142              		.cfi_def_cfa_register 7
  79:main.c        ****     int32 new = QuadDec_R_GetCounter();
 143              		.loc 1 79 0
 144 0008 FFF7FEFF 		bl	QuadDec_R_GetCounter
 145 000c F860     		str	r0, [r7, #12]
  80:main.c        ****     int32 diff = new - right_motor.enc_count;
 146              		.loc 1 80 0
 147 000e B84B     		ldr	r3, .L11+48
 148 0010 1B6C     		ldr	r3, [r3, #64]
ARM GAS  C:\Users\jmspi\AppData\Local\Temp\ccpe3dht.s 			page 5


 149 0012 FA68     		ldr	r2, [r7, #12]
 150 0014 D31A     		subs	r3, r2, r3
 151 0016 BB60     		str	r3, [r7, #8]
  81:main.c        ****     right_motor.enc_count = new;
 152              		.loc 1 81 0
 153 0018 B54A     		ldr	r2, .L11+48
 154 001a FB68     		ldr	r3, [r7, #12]
 155 001c 1364     		str	r3, [r2, #64]
  82:main.c        ****     right_motor.w = M_TWOPI*diff/POSE_UPDATE_PERIOD/PULSES_PER_REV;
 156              		.loc 1 82 0
 157 001e B868     		ldr	r0, [r7, #8]
 158 0020 FFF7FEFF 		bl	__aeabi_i2d
 159 0024 A6A3     		adr	r3, .L11
 160 0026 D3E90023 		ldrd	r2, [r3]
 161 002a FFF7FEFF 		bl	__aeabi_dmul
 162 002e 0246     		mov	r2, r0
 163 0030 0B46     		mov	r3, r1
 164 0032 1046     		mov	r0, r2
 165 0034 1946     		mov	r1, r3
 166 0036 A4A3     		adr	r3, .L11+8
 167 0038 D3E90023 		ldrd	r2, [r3]
 168 003c FFF7FEFF 		bl	__aeabi_ddiv
 169 0040 0246     		mov	r2, r0
 170 0042 0B46     		mov	r3, r1
 171 0044 1046     		mov	r0, r2
 172 0046 1946     		mov	r1, r3
 173 0048 A1A3     		adr	r3, .L11+16
 174 004a D3E90023 		ldrd	r2, [r3]
 175 004e FFF7FEFF 		bl	__aeabi_ddiv
 176 0052 0246     		mov	r2, r0
 177 0054 0B46     		mov	r3, r1
 178 0056 A649     		ldr	r1, .L11+48
 179 0058 C1E90423 		strd	r2, [r1, #16]
  83:main.c        ****     
  84:main.c        ****     new = QuadDec_L_GetCounter();
 180              		.loc 1 84 0
 181 005c FFF7FEFF 		bl	QuadDec_L_GetCounter
 182 0060 F860     		str	r0, [r7, #12]
  85:main.c        ****     diff = new - left_motor.enc_count;
 183              		.loc 1 85 0
 184 0062 A44B     		ldr	r3, .L11+52
 185 0064 1B6C     		ldr	r3, [r3, #64]
 186 0066 FA68     		ldr	r2, [r7, #12]
 187 0068 D31A     		subs	r3, r2, r3
 188 006a BB60     		str	r3, [r7, #8]
  86:main.c        ****     left_motor.enc_count = new;
 189              		.loc 1 86 0
 190 006c A14A     		ldr	r2, .L11+52
 191 006e FB68     		ldr	r3, [r7, #12]
 192 0070 1364     		str	r3, [r2, #64]
  87:main.c        ****     left_motor.w = M_TWOPI*diff/POSE_UPDATE_PERIOD/PULSES_PER_REV;
 193              		.loc 1 87 0
 194 0072 B868     		ldr	r0, [r7, #8]
 195 0074 FFF7FEFF 		bl	__aeabi_i2d
 196 0078 91A3     		adr	r3, .L11
 197 007a D3E90023 		ldrd	r2, [r3]
 198 007e FFF7FEFF 		bl	__aeabi_dmul
ARM GAS  C:\Users\jmspi\AppData\Local\Temp\ccpe3dht.s 			page 6


 199 0082 0246     		mov	r2, r0
 200 0084 0B46     		mov	r3, r1
 201 0086 1046     		mov	r0, r2
 202 0088 1946     		mov	r1, r3
 203 008a 8FA3     		adr	r3, .L11+8
 204 008c D3E90023 		ldrd	r2, [r3]
 205 0090 FFF7FEFF 		bl	__aeabi_ddiv
 206 0094 0246     		mov	r2, r0
 207 0096 0B46     		mov	r3, r1
 208 0098 1046     		mov	r0, r2
 209 009a 1946     		mov	r1, r3
 210 009c 8CA3     		adr	r3, .L11+16
 211 009e D3E90023 		ldrd	r2, [r3]
 212 00a2 FFF7FEFF 		bl	__aeabi_ddiv
 213 00a6 0246     		mov	r2, r0
 214 00a8 0B46     		mov	r3, r1
 215 00aa 9249     		ldr	r1, .L11+52
 216 00ac C1E90423 		strd	r2, [r1, #16]
  88:main.c        ****     
  89:main.c        ****     
  90:main.c        ****     
  91:main.c        ****     //Calculate and update tangential velocity of wheels
  92:main.c        ****     left_motor.tangent_v = left_motor.w*left_motor.wheel_radius;
 217              		.loc 1 92 0
 218 00b0 904B     		ldr	r3, .L11+52
 219 00b2 D3E90401 		ldrd	r0, [r3, #16]
 220 00b6 8F4B     		ldr	r3, .L11+52
 221 00b8 D3E90E23 		ldrd	r2, [r3, #56]
 222 00bc FFF7FEFF 		bl	__aeabi_dmul
 223 00c0 0246     		mov	r2, r0
 224 00c2 0B46     		mov	r3, r1
 225 00c4 8B49     		ldr	r1, .L11+52
 226 00c6 C1E90623 		strd	r2, [r1, #24]
  93:main.c        ****     right_motor.tangent_v = right_motor.w*right_motor.wheel_radius;
 227              		.loc 1 93 0
 228 00ca 894B     		ldr	r3, .L11+48
 229 00cc D3E90401 		ldrd	r0, [r3, #16]
 230 00d0 874B     		ldr	r3, .L11+48
 231 00d2 D3E90E23 		ldrd	r2, [r3, #56]
 232 00d6 FFF7FEFF 		bl	__aeabi_dmul
 233 00da 0246     		mov	r2, r0
 234 00dc 0B46     		mov	r3, r1
 235 00de 8449     		ldr	r1, .L11+48
 236 00e0 C1E90623 		strd	r2, [r1, #24]
  94:main.c        **** 
  95:main.c        ****     //temporary values
  96:main.c        ****     robot.w = (right_motor.tangent_v - left_motor.tangent_v)/robot.axle_width; //instantaneous turn
 237              		.loc 1 96 0
 238 00e4 824B     		ldr	r3, .L11+48
 239 00e6 D3E90601 		ldrd	r0, [r3, #24]
 240 00ea 824B     		ldr	r3, .L11+52
 241 00ec D3E90623 		ldrd	r2, [r3, #24]
 242 00f0 FFF7FEFF 		bl	__aeabi_dsub
 243 00f4 0246     		mov	r2, r0
 244 00f6 0B46     		mov	r3, r1
 245 00f8 1046     		mov	r0, r2
 246 00fa 1946     		mov	r1, r3
ARM GAS  C:\Users\jmspi\AppData\Local\Temp\ccpe3dht.s 			page 7


 247 00fc 7E4B     		ldr	r3, .L11+56
 248 00fe D3E90623 		ldrd	r2, [r3, #24]
 249 0102 FFF7FEFF 		bl	__aeabi_ddiv
 250 0106 0246     		mov	r2, r0
 251 0108 0B46     		mov	r3, r1
 252 010a 7B49     		ldr	r1, .L11+56
 253 010c C1E90A23 		strd	r2, [r1, #40]
  97:main.c        ****     robot.V =  (right_motor.tangent_v + left_motor.tangent_v)/2; //instantaneous tangential velocit
 254              		.loc 1 97 0
 255 0110 774B     		ldr	r3, .L11+48
 256 0112 D3E90601 		ldrd	r0, [r3, #24]
 257 0116 774B     		ldr	r3, .L11+52
 258 0118 D3E90623 		ldrd	r2, [r3, #24]
 259 011c FFF7FEFF 		bl	__aeabi_dadd
 260 0120 0246     		mov	r2, r0
 261 0122 0B46     		mov	r3, r1
 262 0124 1046     		mov	r0, r2
 263 0126 1946     		mov	r1, r3
 264 0128 4FF00002 		mov	r2, #0
 265 012c 4FF08043 		mov	r3, #1073741824
 266 0130 FFF7FEFF 		bl	__aeabi_ddiv
 267 0134 0246     		mov	r2, r0
 268 0136 0B46     		mov	r3, r1
 269 0138 6F49     		ldr	r1, .L11+56
 270 013a C1E90823 		strd	r2, [r1, #32]
  98:main.c        **** 
  99:main.c        ****     // update pose variables
 100:main.c        ****     robot.theta = angle_modulo( robot.theta + robot.w * POSE_UPDATE_PERIOD );
 271              		.loc 1 100 0
 272 013e 6E4B     		ldr	r3, .L11+56
 273 0140 D3E90089 		ldrd	r8, [r3]
 274 0144 6C4B     		ldr	r3, .L11+56
 275 0146 D3E90A01 		ldrd	r0, [r3, #40]
 276 014a 5FA3     		adr	r3, .L11+8
 277 014c D3E90023 		ldrd	r2, [r3]
 278 0150 FFF7FEFF 		bl	__aeabi_dmul
 279 0154 0246     		mov	r2, r0
 280 0156 0B46     		mov	r3, r1
 281 0158 4046     		mov	r0, r8
 282 015a 4946     		mov	r1, r9
 283 015c FFF7FEFF 		bl	__aeabi_dadd
 284 0160 0246     		mov	r2, r0
 285 0162 0B46     		mov	r3, r1
 286 0164 1046     		mov	r0, r2
 287 0166 1946     		mov	r1, r3
 288 0168 FFF7FEFF 		bl	angle_modulo
 289 016c 0246     		mov	r2, r0
 290 016e 0B46     		mov	r3, r1
 291 0170 6149     		ldr	r1, .L11+56
 292 0172 C1E90023 		strd	r2, [r1]
 101:main.c        ****     robot.x = robot.x + POSE_UPDATE_PERIOD * robot.V * cos(robot.theta);
 293              		.loc 1 101 0
 294 0176 604B     		ldr	r3, .L11+56
 295 0178 D3E90289 		ldrd	r8, [r3, #8]
 296 017c 5E4B     		ldr	r3, .L11+56
 297 017e D3E90801 		ldrd	r0, [r3, #32]
 298 0182 51A3     		adr	r3, .L11+8
ARM GAS  C:\Users\jmspi\AppData\Local\Temp\ccpe3dht.s 			page 8


 299 0184 D3E90023 		ldrd	r2, [r3]
 300 0188 FFF7FEFF 		bl	__aeabi_dmul
 301 018c 0246     		mov	r2, r0
 302 018e 0B46     		mov	r3, r1
 303 0190 9246     		mov	r10, r2
 304 0192 9B46     		mov	fp, r3
 305 0194 584B     		ldr	r3, .L11+56
 306 0196 D3E90023 		ldrd	r2, [r3]
 307 019a 1046     		mov	r0, r2
 308 019c 1946     		mov	r1, r3
 309 019e FFF7FEFF 		bl	cos
 310 01a2 0246     		mov	r2, r0
 311 01a4 0B46     		mov	r3, r1
 312 01a6 5046     		mov	r0, r10
 313 01a8 5946     		mov	r1, fp
 314 01aa FFF7FEFF 		bl	__aeabi_dmul
 315 01ae 0246     		mov	r2, r0
 316 01b0 0B46     		mov	r3, r1
 317 01b2 4046     		mov	r0, r8
 318 01b4 4946     		mov	r1, r9
 319 01b6 FFF7FEFF 		bl	__aeabi_dadd
 320 01ba 0246     		mov	r2, r0
 321 01bc 0B46     		mov	r3, r1
 322 01be 4E49     		ldr	r1, .L11+56
 323 01c0 C1E90223 		strd	r2, [r1, #8]
 102:main.c        ****     robot.y = robot.y + POSE_UPDATE_PERIOD * robot.V * sin(robot.theta);
 324              		.loc 1 102 0
 325 01c4 4C4B     		ldr	r3, .L11+56
 326 01c6 D3E90489 		ldrd	r8, [r3, #16]
 327 01ca 4B4B     		ldr	r3, .L11+56
 328 01cc D3E90801 		ldrd	r0, [r3, #32]
 329 01d0 3DA3     		adr	r3, .L11+8
 330 01d2 D3E90023 		ldrd	r2, [r3]
 331 01d6 FFF7FEFF 		bl	__aeabi_dmul
 332 01da 0246     		mov	r2, r0
 333 01dc 0B46     		mov	r3, r1
 334 01de 9246     		mov	r10, r2
 335 01e0 9B46     		mov	fp, r3
 336 01e2 454B     		ldr	r3, .L11+56
 337 01e4 D3E90023 		ldrd	r2, [r3]
 338 01e8 1046     		mov	r0, r2
 339 01ea 1946     		mov	r1, r3
 340 01ec FFF7FEFF 		bl	sin
 341 01f0 0246     		mov	r2, r0
 342 01f2 0B46     		mov	r3, r1
 343 01f4 5046     		mov	r0, r10
 344 01f6 5946     		mov	r1, fp
 345 01f8 FFF7FEFF 		bl	__aeabi_dmul
 346 01fc 0246     		mov	r2, r0
 347 01fe 0B46     		mov	r3, r1
 348 0200 4046     		mov	r0, r8
 349 0202 4946     		mov	r1, r9
 350 0204 FFF7FEFF 		bl	__aeabi_dadd
 351 0208 0246     		mov	r2, r0
 352 020a 0B46     		mov	r3, r1
 353 020c 3A49     		ldr	r1, .L11+56
 354 020e C1E90423 		strd	r2, [r1, #16]
ARM GAS  C:\Users\jmspi\AppData\Local\Temp\ccpe3dht.s 			page 9


 103:main.c        ****     
 104:main.c        ****     
 105:main.c        ****     // do robot PI control
 106:main.c        ****     long double error = robot.desired_theta - robot.theta;   
 355              		.loc 1 106 0
 356 0212 394B     		ldr	r3, .L11+56
 357 0214 D3E90E01 		ldrd	r0, [r3, #56]
 358 0218 374B     		ldr	r3, .L11+56
 359 021a D3E90023 		ldrd	r2, [r3]
 360 021e FFF7FEFF 		bl	__aeabi_dsub
 361 0222 0246     		mov	r2, r0
 362 0224 0B46     		mov	r3, r1
 363 0226 C7E90423 		strd	r2, [r7, #16]
 107:main.c        ****     if( error > M_PI ) {     // TODO: give this more thought. Want the robot to choose direction of
 364              		.loc 1 107 0
 365 022a 2BA3     		adr	r3, .L11+24
 366 022c D3E90023 		ldrd	r2, [r3]
 367 0230 D7E90401 		ldrd	r0, [r7, #16]
 368 0234 FFF7FEFF 		bl	__aeabi_dcmpgt
 369 0238 0346     		mov	r3, r0
 370 023a 002B     		cmp	r3, #0
 371 023c 0AD0     		beq	.L5
 108:main.c        ****         error = error - M_TWOPI;
 372              		.loc 1 108 0
 373 023e 20A3     		adr	r3, .L11
 374 0240 D3E90023 		ldrd	r2, [r3]
 375 0244 D7E90401 		ldrd	r0, [r7, #16]
 376 0248 FFF7FEFF 		bl	__aeabi_dsub
 377 024c 0246     		mov	r2, r0
 378 024e 0B46     		mov	r3, r1
 379 0250 C7E90423 		strd	r2, [r7, #16]
 380              	.L5:
 109:main.c        ****     }
 110:main.c        ****     if( error < -M_PI) {
 381              		.loc 1 110 0
 382 0254 22A3     		adr	r3, .L11+32
 383 0256 D3E90023 		ldrd	r2, [r3]
 384 025a D7E90401 		ldrd	r0, [r7, #16]
 385 025e FFF7FEFF 		bl	__aeabi_dcmplt
 386 0262 0346     		mov	r3, r0
 387 0264 002B     		cmp	r3, #0
 388 0266 0AD0     		beq	.L7
 111:main.c        ****         error = error + M_TWOPI;
 389              		.loc 1 111 0
 390 0268 15A3     		adr	r3, .L11
 391 026a D3E90023 		ldrd	r2, [r3]
 392 026e D7E90401 		ldrd	r0, [r7, #16]
 393 0272 FFF7FEFF 		bl	__aeabi_dadd
 394 0276 0246     		mov	r2, r0
 395 0278 0B46     		mov	r3, r1
 396 027a C7E90423 		strd	r2, [r7, #16]
 397              	.L7:
 112:main.c        ****     }
 113:main.c        ****     
 114:main.c        ****     robot.V = robot.desired_V *( 1 - logl( (M_E-1) * fabsl(error) / M_PI + 1 )); // scales velocity
 398              		.loc 1 114 0
 399 027e 1E4B     		ldr	r3, .L11+56
ARM GAS  C:\Users\jmspi\AppData\Local\Temp\ccpe3dht.s 			page 10


 400 0280 D3E90C89 		ldrd	r8, [r3, #48]
 401 0284 3C69     		ldr	r4, [r7, #16]
 402 0286 7B69     		ldr	r3, [r7, #20]
 403 0288 23F00045 		bic	r5, r3, #-2147483648
 404 028c 16A3     		adr	r3, .L11+40
 405 028e D3E90023 		ldrd	r2, [r3]
 406 0292 2046     		mov	r0, r4
 407 0294 2946     		mov	r1, r5
 408 0296 FFF7FEFF 		bl	__aeabi_dmul
 409 029a 0346     		mov	r3, r0
 410 029c 0C46     		mov	r4, r1
 411 029e 1846     		mov	r0, r3
 412 02a0 2146     		mov	r1, r4
 413 02a2 0DA3     		adr	r3, .L11+24
 414 02a4 D3E90023 		ldrd	r2, [r3]
 415 02a8 FFF7FEFF 		bl	__aeabi_ddiv
 416 02ac 0346     		mov	r3, r0
 417 02ae 0C46     		mov	r4, r1
 418 02b0 1846     		mov	r0, r3
 419 02b2 2146     		mov	r1, r4
 420 02b4 4FF00002 		mov	r2, #0
 421 02b8 104B     		ldr	r3, .L11+60
 422 02ba FFF7FEFF 		bl	__aeabi_dadd
 423 02be 1FE0     		b	.L12
 424              	.L13:
 425              		.align	3
 426              	.L11:
 427 02c0 182D4454 		.word	1413754136
 428 02c4 FB211940 		.word	1075388923
 429 02c8 7B14AE47 		.word	1202590843
 430 02cc E17A943F 		.word	1066695393
 431 02d0 A4703D0A 		.word	171798692
 432 02d4 D70FAC40 		.word	1085018071
 433 02d8 182D4454 		.word	1413754136
 434 02dc FB210940 		.word	1074340347
 435 02e0 182D4454 		.word	1413754136
 436 02e4 FB2109C0 		.word	-1073143301
 437 02e8 D2AE2816 		.word	371764946
 438 02ec 157EFB3F 		.word	1073446421
 439 02f0 00000000 		.word	right_motor
 440 02f4 00000000 		.word	left_motor
 441 02f8 00000000 		.word	robot
 442 02fc 0000F03F 		.word	1072693248
 443              	.L12:
 444 0300 0346     		mov	r3, r0
 445 0302 0C46     		mov	r4, r1
 446 0304 1846     		mov	r0, r3
 447 0306 2146     		mov	r1, r4
 448 0308 FFF7FEFF 		bl	logl
 449 030c 0346     		mov	r3, r0
 450 030e 0C46     		mov	r4, r1
 451 0310 1A46     		mov	r2, r3
 452 0312 2346     		mov	r3, r4
 453 0314 4FF00000 		mov	r0, #0
 454 0318 4D49     		ldr	r1, .L14
 455 031a FFF7FEFF 		bl	__aeabi_dsub
 456 031e 0346     		mov	r3, r0
ARM GAS  C:\Users\jmspi\AppData\Local\Temp\ccpe3dht.s 			page 11


 457 0320 0C46     		mov	r4, r1
 458 0322 1A46     		mov	r2, r3
 459 0324 2346     		mov	r3, r4
 460 0326 4046     		mov	r0, r8
 461 0328 4946     		mov	r1, r9
 462 032a FFF7FEFF 		bl	__aeabi_dmul
 463 032e 0346     		mov	r3, r0
 464 0330 0C46     		mov	r4, r1
 465 0332 484A     		ldr	r2, .L14+4
 466 0334 C2E90834 		strd	r3, [r2, #32]
 115:main.c        ****     
 116:main.c        ****     robot.int_error = robot.int_error + error;
 467              		.loc 1 116 0
 468 0338 464B     		ldr	r3, .L14+4
 469 033a D3E91401 		ldrd	r0, [r3, #80]
 470 033e D7E90423 		ldrd	r2, [r7, #16]
 471 0342 FFF7FEFF 		bl	__aeabi_dadd
 472 0346 0346     		mov	r3, r0
 473 0348 0C46     		mov	r4, r1
 474 034a 424A     		ldr	r2, .L14+4
 475 034c C2E91434 		strd	r3, [r2, #80]
 117:main.c        ****     long double new_omega = robot.Kp * error + robot.Ki * robot.int_error;
 476              		.loc 1 117 0
 477 0350 404B     		ldr	r3, .L14+4
 478 0352 D3E91201 		ldrd	r0, [r3, #72]
 479 0356 D7E90423 		ldrd	r2, [r7, #16]
 480 035a FFF7FEFF 		bl	__aeabi_dmul
 481 035e 0346     		mov	r3, r0
 482 0360 0C46     		mov	r4, r1
 483 0362 1D46     		mov	r5, r3
 484 0364 2646     		mov	r6, r4
 485 0366 3B4B     		ldr	r3, .L14+4
 486 0368 D3E91001 		ldrd	r0, [r3, #64]
 487 036c 394B     		ldr	r3, .L14+4
 488 036e 03F15004 		add	r4, r3, #80
 489 0372 D4E90034 		ldrd	r3, [r4]
 490 0376 1A46     		mov	r2, r3
 491 0378 2346     		mov	r3, r4
 492 037a FFF7FEFF 		bl	__aeabi_dmul
 493 037e 0346     		mov	r3, r0
 494 0380 0C46     		mov	r4, r1
 495 0382 1A46     		mov	r2, r3
 496 0384 2346     		mov	r3, r4
 497 0386 2846     		mov	r0, r5
 498 0388 3146     		mov	r1, r6
 499 038a FFF7FEFF 		bl	__aeabi_dadd
 500 038e 0346     		mov	r3, r0
 501 0390 0C46     		mov	r4, r1
 502 0392 C7E90034 		strd	r3, [r7]
 118:main.c        ****     right_motor.desired_w = (robot.V + new_omega * robot.axle_width / 2) / right_motor.wheel_radius
 503              		.loc 1 118 0
 504 0396 2F4B     		ldr	r3, .L14+4
 505 0398 D3E90845 		ldrd	r4, [r3, #32]
 506 039c 2D4B     		ldr	r3, .L14+4
 507 039e D3E90601 		ldrd	r0, [r3, #24]
 508 03a2 D7E90023 		ldrd	r2, [r7]
 509 03a6 FFF7FEFF 		bl	__aeabi_dmul
ARM GAS  C:\Users\jmspi\AppData\Local\Temp\ccpe3dht.s 			page 12


 510 03aa 0246     		mov	r2, r0
 511 03ac 0B46     		mov	r3, r1
 512 03ae 1046     		mov	r0, r2
 513 03b0 1946     		mov	r1, r3
 514 03b2 4FF00002 		mov	r2, #0
 515 03b6 4FF08043 		mov	r3, #1073741824
 516 03ba FFF7FEFF 		bl	__aeabi_ddiv
 517 03be 0246     		mov	r2, r0
 518 03c0 0B46     		mov	r3, r1
 519 03c2 2046     		mov	r0, r4
 520 03c4 2946     		mov	r1, r5
 521 03c6 FFF7FEFF 		bl	__aeabi_dadd
 522 03ca 0346     		mov	r3, r0
 523 03cc 0C46     		mov	r4, r1
 524 03ce 1846     		mov	r0, r3
 525 03d0 2146     		mov	r1, r4
 526 03d2 214B     		ldr	r3, .L14+8
 527 03d4 03F13804 		add	r4, r3, #56
 528 03d8 D4E90034 		ldrd	r3, [r4]
 529 03dc 1A46     		mov	r2, r3
 530 03de 2346     		mov	r3, r4
 531 03e0 FFF7FEFF 		bl	__aeabi_ddiv
 532 03e4 0346     		mov	r3, r0
 533 03e6 0C46     		mov	r4, r1
 534 03e8 1B4A     		ldr	r2, .L14+8
 535 03ea C2E90834 		strd	r3, [r2, #32]
 119:main.c        ****     left_motor.desired_w = (robot.V - new_omega * robot.axle_width / 2) / left_motor.wheel_radius; 
 536              		.loc 1 119 0
 537 03ee 194B     		ldr	r3, .L14+4
 538 03f0 D3E90845 		ldrd	r4, [r3, #32]
 539 03f4 174B     		ldr	r3, .L14+4
 540 03f6 D3E90601 		ldrd	r0, [r3, #24]
 541 03fa D7E90023 		ldrd	r2, [r7]
 542 03fe FFF7FEFF 		bl	__aeabi_dmul
 543 0402 0246     		mov	r2, r0
 544 0404 0B46     		mov	r3, r1
 545 0406 1046     		mov	r0, r2
 546 0408 1946     		mov	r1, r3
 547 040a 4FF00002 		mov	r2, #0
 548 040e 4FF08043 		mov	r3, #1073741824
 549 0412 FFF7FEFF 		bl	__aeabi_ddiv
 550 0416 0246     		mov	r2, r0
 551 0418 0B46     		mov	r3, r1
 552 041a 2046     		mov	r0, r4
 553 041c 2946     		mov	r1, r5
 554 041e FFF7FEFF 		bl	__aeabi_dsub
 555 0422 0346     		mov	r3, r0
 556 0424 0C46     		mov	r4, r1
 557 0426 1846     		mov	r0, r3
 558 0428 2146     		mov	r1, r4
 559 042a 0C4B     		ldr	r3, .L14+12
 560 042c 03F13804 		add	r4, r3, #56
 561 0430 D4E90034 		ldrd	r3, [r4]
 562 0434 1A46     		mov	r2, r3
 563 0436 2346     		mov	r3, r4
 564 0438 FFF7FEFF 		bl	__aeabi_ddiv
 565 043c 0346     		mov	r3, r0
ARM GAS  C:\Users\jmspi\AppData\Local\Temp\ccpe3dht.s 			page 13


 566 043e 0C46     		mov	r4, r1
 567 0440 064A     		ldr	r2, .L14+12
 568 0442 C2E90834 		strd	r3, [r2, #32]
 120:main.c        ****     
 121:main.c        **** }
 569              		.loc 1 121 0
 570 0446 00BF     		nop
 571 0448 1C37     		adds	r7, r7, #28
 572              		.cfi_def_cfa_offset 36
 573 044a BD46     		mov	sp, r7
 574              		.cfi_def_cfa_register 13
 575              		@ sp needed
 576 044c BDE8F08F 		pop	{r4, r5, r6, r7, r8, r9, r10, fp, pc}
 577              	.L15:
 578              		.align	2
 579              	.L14:
 580 0450 0000F03F 		.word	1072693248
 581 0454 00000000 		.word	robot
 582 0458 00000000 		.word	right_motor
 583 045c 00000000 		.word	left_motor
 584              		.cfi_endproc
 585              	.LFE65:
 586              		.size	Pose_Update_Int_Handler, .-Pose_Update_Int_Handler
 587              		.section	.text.Motor_PI_Int_Handler,"ax",%progbits
 588              		.align	2
 589              		.global	Motor_PI_Int_Handler
 590              		.thumb
 591              		.thumb_func
 592              		.type	Motor_PI_Int_Handler, %function
 593              	Motor_PI_Int_Handler:
 594              	.LFB66:
 122:main.c        **** 
 123:main.c        **** CY_ISR( Motor_PI_Int_Handler ) {
 595              		.loc 1 123 0
 596              		.cfi_startproc
 597              		@ args = 0, pretend = 0, frame = 8
 598              		@ frame_needed = 1, uses_anonymous_args = 0
 599 0000 F0B5     		push	{r4, r5, r6, r7, lr}
 600              		.cfi_def_cfa_offset 20
 601              		.cfi_offset 4, -20
 602              		.cfi_offset 5, -16
 603              		.cfi_offset 6, -12
 604              		.cfi_offset 7, -8
 605              		.cfi_offset 14, -4
 606 0002 83B0     		sub	sp, sp, #12
 607              		.cfi_def_cfa_offset 32
 608 0004 00AF     		add	r7, sp, #0
 609              		.cfi_def_cfa_register 7
 124:main.c        ****     long double error = left_motor.desired_w - left_motor.w;
 610              		.loc 1 124 0
 611 0006 514B     		ldr	r3, .L17
 612 0008 D3E90801 		ldrd	r0, [r3, #32]
 613 000c 4F4B     		ldr	r3, .L17
 614 000e 03F11004 		add	r4, r3, #16
 615 0012 D4E90034 		ldrd	r3, [r4]
 616 0016 1A46     		mov	r2, r3
 617 0018 2346     		mov	r3, r4
ARM GAS  C:\Users\jmspi\AppData\Local\Temp\ccpe3dht.s 			page 14


 618 001a FFF7FEFF 		bl	__aeabi_dsub
 619 001e 0346     		mov	r3, r0
 620 0020 0C46     		mov	r4, r1
 621 0022 C7E90034 		strd	r3, [r7]
 125:main.c        ****     left_motor.int_error  = left_motor.int_error + error;
 622              		.loc 1 125 0
 623 0026 494B     		ldr	r3, .L17
 624 0028 D3E90201 		ldrd	r0, [r3, #8]
 625 002c D7E90023 		ldrd	r2, [r7]
 626 0030 FFF7FEFF 		bl	__aeabi_dadd
 627 0034 0346     		mov	r3, r0
 628 0036 0C46     		mov	r4, r1
 629 0038 444A     		ldr	r2, .L17
 630 003a C2E90234 		strd	r3, [r2, #8]
 126:main.c        ****     left_motor.duty_cycle = left_motor.duty_cycle + left_motor.Kp*error + left_motor.Ki*left_motor.
 631              		.loc 1 126 0
 632 003e 434B     		ldr	r3, .L17
 633 0040 D3E90045 		ldrd	r4, [r3]
 634 0044 414B     		ldr	r3, .L17
 635 0046 D3E90C01 		ldrd	r0, [r3, #48]
 636 004a D7E90023 		ldrd	r2, [r7]
 637 004e FFF7FEFF 		bl	__aeabi_dmul
 638 0052 0246     		mov	r2, r0
 639 0054 0B46     		mov	r3, r1
 640 0056 2046     		mov	r0, r4
 641 0058 2946     		mov	r1, r5
 642 005a FFF7FEFF 		bl	__aeabi_dadd
 643 005e 0346     		mov	r3, r0
 644 0060 0C46     		mov	r4, r1
 645 0062 1D46     		mov	r5, r3
 646 0064 2646     		mov	r6, r4
 647 0066 394B     		ldr	r3, .L17
 648 0068 D3E90A01 		ldrd	r0, [r3, #40]
 649 006c 374B     		ldr	r3, .L17
 650 006e 03F10804 		add	r4, r3, #8
 651 0072 D4E90034 		ldrd	r3, [r4]
 652 0076 1A46     		mov	r2, r3
 653 0078 2346     		mov	r3, r4
 654 007a FFF7FEFF 		bl	__aeabi_dmul
 655 007e 0346     		mov	r3, r0
 656 0080 0C46     		mov	r4, r1
 657 0082 1A46     		mov	r2, r3
 658 0084 2346     		mov	r3, r4
 659 0086 2846     		mov	r0, r5
 660 0088 3146     		mov	r1, r6
 661 008a FFF7FEFF 		bl	__aeabi_dadd
 662 008e 0346     		mov	r3, r0
 663 0090 0C46     		mov	r4, r1
 664 0092 2E4A     		ldr	r2, .L17
 665 0094 C2E90034 		strd	r3, [r2]
 127:main.c        ****     Drive_Left_Motor(left_motor.duty_cycle);
 666              		.loc 1 127 0
 667 0098 2C4B     		ldr	r3, .L17
 668 009a 18CB     		ldmia	r3, {r3-r4}
 669 009c 1846     		mov	r0, r3
 670 009e 2146     		mov	r1, r4
 671 00a0 FFF7FEFF 		bl	Drive_Left_Motor
ARM GAS  C:\Users\jmspi\AppData\Local\Temp\ccpe3dht.s 			page 15


 128:main.c        ****     
 129:main.c        ****     error = right_motor.desired_w - right_motor.w;
 672              		.loc 1 129 0
 673 00a4 2A4B     		ldr	r3, .L17+4
 674 00a6 D3E90801 		ldrd	r0, [r3, #32]
 675 00aa 294B     		ldr	r3, .L17+4
 676 00ac 03F11004 		add	r4, r3, #16
 677 00b0 D4E90034 		ldrd	r3, [r4]
 678 00b4 1A46     		mov	r2, r3
 679 00b6 2346     		mov	r3, r4
 680 00b8 FFF7FEFF 		bl	__aeabi_dsub
 681 00bc 0346     		mov	r3, r0
 682 00be 0C46     		mov	r4, r1
 683 00c0 C7E90034 		strd	r3, [r7]
 130:main.c        ****     right_motor.int_error  = right_motor.int_error + error;
 684              		.loc 1 130 0
 685 00c4 224B     		ldr	r3, .L17+4
 686 00c6 D3E90201 		ldrd	r0, [r3, #8]
 687 00ca D7E90023 		ldrd	r2, [r7]
 688 00ce FFF7FEFF 		bl	__aeabi_dadd
 689 00d2 0346     		mov	r3, r0
 690 00d4 0C46     		mov	r4, r1
 691 00d6 1E4A     		ldr	r2, .L17+4
 692 00d8 C2E90234 		strd	r3, [r2, #8]
 131:main.c        ****     right_motor.duty_cycle = right_motor.duty_cycle + right_motor.Kp*error + right_motor.Ki*right_m
 693              		.loc 1 131 0
 694 00dc 1C4B     		ldr	r3, .L17+4
 695 00de D3E90045 		ldrd	r4, [r3]
 696 00e2 1B4B     		ldr	r3, .L17+4
 697 00e4 D3E90C01 		ldrd	r0, [r3, #48]
 698 00e8 D7E90023 		ldrd	r2, [r7]
 699 00ec FFF7FEFF 		bl	__aeabi_dmul
 700 00f0 0246     		mov	r2, r0
 701 00f2 0B46     		mov	r3, r1
 702 00f4 2046     		mov	r0, r4
 703 00f6 2946     		mov	r1, r5
 704 00f8 FFF7FEFF 		bl	__aeabi_dadd
 705 00fc 0346     		mov	r3, r0
 706 00fe 0C46     		mov	r4, r1
 707 0100 1D46     		mov	r5, r3
 708 0102 2646     		mov	r6, r4
 709 0104 124B     		ldr	r3, .L17+4
 710 0106 D3E90A01 		ldrd	r0, [r3, #40]
 711 010a 114B     		ldr	r3, .L17+4
 712 010c 03F10804 		add	r4, r3, #8
 713 0110 D4E90034 		ldrd	r3, [r4]
 714 0114 1A46     		mov	r2, r3
 715 0116 2346     		mov	r3, r4
 716 0118 FFF7FEFF 		bl	__aeabi_dmul
 717 011c 0346     		mov	r3, r0
 718 011e 0C46     		mov	r4, r1
 719 0120 1A46     		mov	r2, r3
 720 0122 2346     		mov	r3, r4
 721 0124 2846     		mov	r0, r5
 722 0126 3146     		mov	r1, r6
 723 0128 FFF7FEFF 		bl	__aeabi_dadd
 724 012c 0346     		mov	r3, r0
ARM GAS  C:\Users\jmspi\AppData\Local\Temp\ccpe3dht.s 			page 16


 725 012e 0C46     		mov	r4, r1
 726 0130 074A     		ldr	r2, .L17+4
 727 0132 C2E90034 		strd	r3, [r2]
 132:main.c        ****     Drive_Right_Motor(right_motor.duty_cycle);
 728              		.loc 1 132 0
 729 0136 064B     		ldr	r3, .L17+4
 730 0138 18CB     		ldmia	r3, {r3-r4}
 731 013a 1846     		mov	r0, r3
 732 013c 2146     		mov	r1, r4
 733 013e FFF7FEFF 		bl	Drive_Right_Motor
 133:main.c        **** }
 734              		.loc 1 133 0
 735 0142 00BF     		nop
 736 0144 0C37     		adds	r7, r7, #12
 737              		.cfi_def_cfa_offset 20
 738 0146 BD46     		mov	sp, r7
 739              		.cfi_def_cfa_register 13
 740              		@ sp needed
 741 0148 F0BD     		pop	{r4, r5, r6, r7, pc}
 742              	.L18:
 743 014a 00BF     		.align	2
 744              	.L17:
 745 014c 00000000 		.word	left_motor
 746 0150 00000000 		.word	right_motor
 747              		.cfi_endproc
 748              	.LFE66:
 749              		.size	Motor_PI_Int_Handler, .-Motor_PI_Int_Handler
 750              		.global	__aeabi_dcmpge
 751              		.section	.text.Navigation_Test_Int_Handler,"ax",%progbits
 752              		.align	2
 753              		.global	Navigation_Test_Int_Handler
 754              		.thumb
 755              		.thumb_func
 756              		.type	Navigation_Test_Int_Handler, %function
 757              	Navigation_Test_Int_Handler:
 758              	.LFB67:
 134:main.c        **** 
 135:main.c        **** CY_ISR( Navigation_Test_Int_Handler ) {
 759              		.loc 1 135 0
 760              		.cfi_startproc
 761              		@ args = 0, pretend = 0, frame = 8
 762              		@ frame_needed = 1, uses_anonymous_args = 0
 763 0000 90B5     		push	{r4, r7, lr}
 764              		.cfi_def_cfa_offset 12
 765              		.cfi_offset 4, -12
 766              		.cfi_offset 7, -8
 767              		.cfi_offset 14, -4
 768 0002 83B0     		sub	sp, sp, #12
 769              		.cfi_def_cfa_offset 24
 770 0004 00AF     		add	r7, sp, #0
 771              		.cfi_def_cfa_register 7
 136:main.c        ****     long double angle;
 137:main.c        ****     angle = robot.desired_theta + M_PI/2;
 772              		.loc 1 137 0
 773 0006 1A4B     		ldr	r3, .L23+16
 774 0008 D3E90E01 		ldrd	r0, [r3, #56]
 775 000c 14A3     		adr	r3, .L23
ARM GAS  C:\Users\jmspi\AppData\Local\Temp\ccpe3dht.s 			page 17


 776 000e D3E90023 		ldrd	r2, [r3]
 777 0012 FFF7FEFF 		bl	__aeabi_dadd
 778 0016 0346     		mov	r3, r0
 779 0018 0C46     		mov	r4, r1
 780 001a C7E90034 		strd	r3, [r7]
 138:main.c        ****     if( angle >= M_TWOPI ) {
 781              		.loc 1 138 0
 782 001e 12A3     		adr	r3, .L23+8
 783 0020 D3E90023 		ldrd	r2, [r3]
 784 0024 D7E90001 		ldrd	r0, [r7]
 785 0028 FFF7FEFF 		bl	__aeabi_dcmpge
 786 002c 0346     		mov	r3, r0
 787 002e 002B     		cmp	r3, #0
 788 0030 0AD0     		beq	.L20
 139:main.c        ****         angle = angle - M_TWOPI;
 789              		.loc 1 139 0
 790 0032 0DA3     		adr	r3, .L23+8
 791 0034 D3E90023 		ldrd	r2, [r3]
 792 0038 D7E90001 		ldrd	r0, [r7]
 793 003c FFF7FEFF 		bl	__aeabi_dsub
 794 0040 0346     		mov	r3, r0
 795 0042 0C46     		mov	r4, r1
 796 0044 C7E90034 		strd	r3, [r7]
 797              	.L20:
 140:main.c        ****     }
 141:main.c        ****     robot.desired_theta = angle;
 798              		.loc 1 141 0
 799 0048 094A     		ldr	r2, .L23+16
 800 004a D7E90034 		ldrd	r3, [r7]
 801 004e C2E90E34 		strd	r3, [r2, #56]
 142:main.c        **** }
 802              		.loc 1 142 0
 803 0052 00BF     		nop
 804 0054 0C37     		adds	r7, r7, #12
 805              		.cfi_def_cfa_offset 12
 806 0056 BD46     		mov	sp, r7
 807              		.cfi_def_cfa_register 13
 808              		@ sp needed
 809 0058 90BD     		pop	{r4, r7, pc}
 810              	.L24:
 811 005a 00BFAFF3 		.align	3
 811      0080
 812              	.L23:
 813 0060 182D4454 		.word	1413754136
 814 0064 FB21F93F 		.word	1073291771
 815 0068 182D4454 		.word	1413754136
 816 006c FB211940 		.word	1075388923
 817 0070 00000000 		.word	robot
 818              		.cfi_endproc
 819              	.LFE67:
 820              		.size	Navigation_Test_Int_Handler, .-Navigation_Test_Int_Handler
 821              		.global	__aeabi_d2iz
 822              		.global	__aeabi_d2uiz
 823              		.section	.rodata
 824              		.align	2
 825              	.LC0:
 826 0010 256C7520 		.ascii	"%lu \000"
ARM GAS  C:\Users\jmspi\AppData\Local\Temp\ccpe3dht.s 			page 18


 826      00
 827 0015 000000   		.align	2
 828              	.LC1:
 829 0018 0A00     		.ascii	"\012\000"
 830 001a 0000     		.align	2
 831              	.LC2:
 832 001c 0A0A0A0A 		.ascii	"\012\012\012\012\012\000"
 832      0A00
 833 0022 0000     		.align	2
 834              	.LC3:
 835 0024 256C660A 		.ascii	"%lf\012\000"
 835      00
 836 0029 000000   		.align	2
 837              	.LC4:
 838 002c 62657374 		.ascii	"best_dir: %lf\012\000"
 838      5F646972 
 838      3A20256C 
 838      660A00
 839              		.section	.text.main,"ax",%progbits
 840              		.align	2
 841              		.global	main
 842              		.thumb
 843              		.thumb_func
 844              		.type	main, %function
 845              	main:
 846              	.LFB68:
 143:main.c        **** 
 144:main.c        **** 
 145:main.c        **** 
 146:main.c        **** 
 147:main.c        **** int main(void)
 148:main.c        **** {
 847              		.loc 1 148 0
 848              		.cfi_startproc
 849              		@ args = 0, pretend = 0, frame = 136
 850              		@ frame_needed = 1, uses_anonymous_args = 0
 851 0000 B0B5     		push	{r4, r5, r7, lr}
 852              		.cfi_def_cfa_offset 16
 853              		.cfi_offset 4, -16
 854              		.cfi_offset 5, -12
 855              		.cfi_offset 7, -8
 856              		.cfi_offset 14, -4
 857 0002 B2B0     		sub	sp, sp, #200
 858              		.cfi_def_cfa_offset 216
 859 0004 10AF     		add	r7, sp, #64
 860              		.cfi_def_cfa 7, 152
 149:main.c        ****     long double wheel_r_scale = 0.9578;   
 861              		.loc 1 149 0
 862 0006 AEA4     		adr	r4, .L50
 863 0008 D4E90034 		ldrd	r3, [r4]
 864 000c C7E91834 		strd	r3, [r7, #96]
 150:main.c        ****     left_motor.duty_cycle = 0;
 865              		.loc 1 150 0
 866 0010 B94A     		ldr	r2, .L50+56
 867 0012 4FF00003 		mov	r3, #0
 868 0016 4FF00004 		mov	r4, #0
 869 001a C2E90034 		strd	r3, [r2]
ARM GAS  C:\Users\jmspi\AppData\Local\Temp\ccpe3dht.s 			page 19


 151:main.c        ****     left_motor.int_error = 0;
 870              		.loc 1 151 0
 871 001e B64A     		ldr	r2, .L50+56
 872 0020 4FF00003 		mov	r3, #0
 873 0024 4FF00004 		mov	r4, #0
 874 0028 C2E90234 		strd	r3, [r2, #8]
 152:main.c        ****     left_motor.desired_w = 0;
 875              		.loc 1 152 0
 876 002c B24A     		ldr	r2, .L50+56
 877 002e 4FF00003 		mov	r3, #0
 878 0032 4FF00004 		mov	r4, #0
 879 0036 C2E90834 		strd	r3, [r2, #32]
 153:main.c        ****     left_motor.wheel_radius = wheel_r_scale * 2.75;
 880              		.loc 1 153 0
 881 003a 4FF00002 		mov	r2, #0
 882 003e AF4B     		ldr	r3, .L50+60
 883 0040 D7E91801 		ldrd	r0, [r7, #96]
 884 0044 FFF7FEFF 		bl	__aeabi_dmul
 885 0048 0346     		mov	r3, r0
 886 004a 0C46     		mov	r4, r1
 887 004c AA4A     		ldr	r2, .L50+56
 888 004e C2E90E34 		strd	r3, [r2, #56]
 154:main.c        ****     left_motor.enc_count = 0;
 889              		.loc 1 154 0
 890 0052 A94B     		ldr	r3, .L50+56
 891 0054 0022     		movs	r2, #0
 892 0056 1A64     		str	r2, [r3, #64]
 155:main.c        ****     left_motor.Ki = 3e-6;  // TODO: determine good PI params
 893              		.loc 1 155 0
 894 0058 A74A     		ldr	r2, .L50+56
 895 005a 9BA4     		adr	r4, .L50+8
 896 005c D4E90034 		ldrd	r3, [r4]
 897 0060 C2E90A34 		strd	r3, [r2, #40]
 156:main.c        ****     left_motor.Kp = 0.0025;
 898              		.loc 1 156 0
 899 0064 A44A     		ldr	r2, .L50+56
 900 0066 9AA4     		adr	r4, .L50+16
 901 0068 D4E90034 		ldrd	r3, [r4]
 902 006c C2E90C34 		strd	r3, [r2, #48]
 157:main.c        ****     
 158:main.c        ****     right_motor.duty_cycle = 0;
 903              		.loc 1 158 0
 904 0070 A34A     		ldr	r2, .L50+64
 905 0072 4FF00003 		mov	r3, #0
 906 0076 4FF00004 		mov	r4, #0
 907 007a C2E90034 		strd	r3, [r2]
 159:main.c        ****     right_motor.int_error = 0;
 908              		.loc 1 159 0
 909 007e A04A     		ldr	r2, .L50+64
 910 0080 4FF00003 		mov	r3, #0
 911 0084 4FF00004 		mov	r4, #0
 912 0088 C2E90234 		strd	r3, [r2, #8]
 160:main.c        ****     right_motor.desired_w = 0;
 913              		.loc 1 160 0
 914 008c 9C4A     		ldr	r2, .L50+64
 915 008e 4FF00003 		mov	r3, #0
 916 0092 4FF00004 		mov	r4, #0
ARM GAS  C:\Users\jmspi\AppData\Local\Temp\ccpe3dht.s 			page 20


 917 0096 C2E90834 		strd	r3, [r2, #32]
 161:main.c        ****     right_motor.wheel_radius = wheel_r_scale * 1.001*2.75;
 918              		.loc 1 161 0
 919 009a 8FA3     		adr	r3, .L50+24
 920 009c D3E90023 		ldrd	r2, [r3]
 921 00a0 D7E91801 		ldrd	r0, [r7, #96]
 922 00a4 FFF7FEFF 		bl	__aeabi_dmul
 923 00a8 0346     		mov	r3, r0
 924 00aa 0C46     		mov	r4, r1
 925 00ac 1846     		mov	r0, r3
 926 00ae 2146     		mov	r1, r4
 927 00b0 4FF00002 		mov	r2, #0
 928 00b4 914B     		ldr	r3, .L50+60
 929 00b6 FFF7FEFF 		bl	__aeabi_dmul
 930 00ba 0346     		mov	r3, r0
 931 00bc 0C46     		mov	r4, r1
 932 00be 904A     		ldr	r2, .L50+64
 933 00c0 C2E90E34 		strd	r3, [r2, #56]
 162:main.c        ****     right_motor.enc_count = 0;
 934              		.loc 1 162 0
 935 00c4 8E4B     		ldr	r3, .L50+64
 936 00c6 0022     		movs	r2, #0
 937 00c8 1A64     		str	r2, [r3, #64]
 163:main.c        ****     right_motor.Ki = 3e-6;  // TODO: determine good PI params
 938              		.loc 1 163 0
 939 00ca 8D4A     		ldr	r2, .L50+64
 940 00cc 7EA4     		adr	r4, .L50+8
 941 00ce D4E90034 		ldrd	r3, [r4]
 942 00d2 C2E90A34 		strd	r3, [r2, #40]
 164:main.c        ****     right_motor.Kp = 0.0025;
 943              		.loc 1 164 0
 944 00d6 8A4A     		ldr	r2, .L50+64
 945 00d8 7DA4     		adr	r4, .L50+16
 946 00da D4E90034 		ldrd	r3, [r4]
 947 00de C2E90C34 		strd	r3, [r2, #48]
 165:main.c        ****     
 166:main.c        ****     robot.axle_width = 0.967*22.5; // TODO: get accurate measurement
 948              		.loc 1 166 0
 949 00e2 884A     		ldr	r2, .L50+68
 950 00e4 7EA4     		adr	r4, .L50+32
 951 00e6 D4E90034 		ldrd	r3, [r4]
 952 00ea C2E90634 		strd	r3, [r2, #24]
 167:main.c        ****     robot.int_error = 0;
 953              		.loc 1 167 0
 954 00ee 854A     		ldr	r2, .L50+68
 955 00f0 4FF00003 		mov	r3, #0
 956 00f4 4FF00004 		mov	r4, #0
 957 00f8 C2E91434 		strd	r3, [r2, #80]
 168:main.c        ****     robot.Ki = 3e-5;    // TODO: determine good PI values
 958              		.loc 1 168 0
 959 00fc 814A     		ldr	r2, .L50+68
 960 00fe 7AA4     		adr	r4, .L50+40
 961 0100 D4E90034 		ldrd	r3, [r4]
 962 0104 C2E91034 		strd	r3, [r2, #64]
 169:main.c        ****     robot.Kp = 0.75;
 963              		.loc 1 169 0
 964 0108 7E4A     		ldr	r2, .L50+68
ARM GAS  C:\Users\jmspi\AppData\Local\Temp\ccpe3dht.s 			page 21


 965 010a 4FF00003 		mov	r3, #0
 966 010e 7E4C     		ldr	r4, .L50+72
 967 0110 C2E91234 		strd	r3, [r2, #72]
 170:main.c        ****     robot.desired_V = 0;
 968              		.loc 1 170 0
 969 0114 7B4A     		ldr	r2, .L50+68
 970 0116 4FF00003 		mov	r3, #0
 971 011a 4FF00004 		mov	r4, #0
 972 011e C2E90C34 		strd	r3, [r2, #48]
 171:main.c        ****     robot.desired_theta = 0;
 973              		.loc 1 171 0
 974 0122 784A     		ldr	r2, .L50+68
 975 0124 4FF00003 		mov	r3, #0
 976 0128 4FF00004 		mov	r4, #0
 977 012c C2E90E34 		strd	r3, [r2, #56]
 172:main.c        ****     
 173:main.c        ****     robot.goal_min_dist = 1;
 978              		.loc 1 173 0
 979 0130 744A     		ldr	r2, .L50+68
 980 0132 4FF00003 		mov	r3, #0
 981 0136 754C     		ldr	r4, .L50+76
 982 0138 C2E91A34 		strd	r3, [r2, #104]
 174:main.c        ****     robot.goal_x = 100;
 983              		.loc 1 174 0
 984 013c 714A     		ldr	r2, .L50+68
 985 013e 4FF00003 		mov	r3, #0
 986 0142 734C     		ldr	r4, .L50+80
 987 0144 C2E91634 		strd	r3, [r2, #88]
 175:main.c        ****     robot.goal_y = -100;
 988              		.loc 1 175 0
 989 0148 6E4A     		ldr	r2, .L50+68
 990 014a 4FF00003 		mov	r3, #0
 991 014e 714C     		ldr	r4, .L50+84
 992 0150 C2E91834 		strd	r3, [r2, #96]
 176:main.c        ****     
 177:main.c        ****     CyGlobalIntEnable;
 993              		.loc 1 177 0
 994              		.syntax unified
 995              	@ 177 "main.c" 1
 996 0154 62B6     		CPSIE   i
 997              	@ 0 "" 2
 178:main.c        ****     
 179:main.c        ****     // Registration of Timer ISR
 180:main.c        ****     //Timer_Echo_Int_StartEx( Timer_Int_Handler );
 181:main.c        ****     //Pose_Update_Int_StartEx( Pose_Update_Int_Handler );
 182:main.c        ****     //Motor_PI_Int_StartEx( Motor_PI_Int_Handler );
 183:main.c        ****     //Testing_Int_StartEx( Navigation_Test_Int_Handler );
 184:main.c        ****     
 185:main.c        ****     // Start up code - enable UART, PWM and Timer used for ultrasonic module
 186:main.c        ****     UART_Start();
 998              		.loc 1 186 0
 999              		.thumb
 1000              		.syntax unified
 1001 0156 FFF7FEFF 		bl	UART_Start
 187:main.c        ****     Timer_Echo_Start();
 1002              		.loc 1 187 0
 1003 015a FFF7FEFF 		bl	Timer_Echo_Start
ARM GAS  C:\Users\jmspi\AppData\Local\Temp\ccpe3dht.s 			page 22


 188:main.c        ****     PWM_Trigger_Start();
 1004              		.loc 1 188 0
 1005 015e FFF7FEFF 		bl	PWM_Trigger_Start
 189:main.c        ****     QuadDec_L_Start();
 1006              		.loc 1 189 0
 1007 0162 FFF7FEFF 		bl	QuadDec_L_Start
 190:main.c        ****     PWM_Motor_L_Start();
 1008              		.loc 1 190 0
 1009 0166 FFF7FEFF 		bl	PWM_Motor_L_Start
 191:main.c        ****     QuadDec_R_Start();
 1010              		.loc 1 191 0
 1011 016a FFF7FEFF 		bl	QuadDec_R_Start
 192:main.c        ****     PWM_Motor_R_Start();
 1012              		.loc 1 192 0
 1013 016e FFF7FEFF 		bl	PWM_Motor_R_Start
 193:main.c        ****     Timer_Avoidance_Start();
 1014              		.loc 1 193 0
 1015 0172 FFF7FEFF 		bl	Timer_Avoidance_Start
 194:main.c        ****     Timer_Avoidance_WriteCounter(60000); // Cause robot to start moving immediately
 1016              		.loc 1 194 0
 1017 0176 4EF66020 		movw	r0, #60000
 1018 017a FFF7FEFF 		bl	Timer_Avoidance_WriteCounter
 195:main.c        ****     
 196:main.c        ****     /* Declaration of the needed data structures. */
 197:main.c        **** 	grid * certainty_grid;
 198:main.c        **** 	sensor_data sensors;
 199:main.c        **** 	histogram * polar_histogram;
 200:main.c        **** 	control_signal_t control_signal;
 201:main.c        ****         
 202:main.c        ****     certainty_grid = initial_grid(65, 65, 2);
 1019              		.loc 1 202 0
 1020 017e 0222     		movs	r2, #2
 1021 0180 4121     		movs	r1, #65
 1022 0182 4120     		movs	r0, #65
 1023 0184 FFF7FEFF 		bl	initial_grid
 1024 0188 F865     		str	r0, [r7, #92]
 203:main.c        ****     polar_histogram = initial_histogram(5, 20, 10, 5);
 1025              		.loc 1 203 0
 1026 018a 4FF00003 		mov	r3, #0
 1027 018e 624C     		ldr	r4, .L50+88
 1028 0190 CDE90234 		strd	r3, [sp, #8]
 1029 0194 4FF00003 		mov	r3, #0
 1030 0198 604C     		ldr	r4, .L50+92
 1031 019a CDE90034 		strd	r3, [sp]
 1032 019e 4FF00002 		mov	r2, #0
 1033 01a2 5F4B     		ldr	r3, .L50+96
 1034 01a4 0520     		movs	r0, #5
 1035 01a6 FFF7FEFF 		bl	initial_histogram
 1036 01aa B865     		str	r0, [r7, #88]
 204:main.c        ****         
 205:main.c        ****     /* Are the initializations ok? */
 206:main.c        **** 	if (certainty_grid == NULL) return -1;
 1037              		.loc 1 206 0
 1038 01ac FB6D     		ldr	r3, [r7, #92]
 1039 01ae 002B     		cmp	r3, #0
 1040 01b0 02D1     		bne	.L26
 1041              		.loc 1 206 0 is_stmt 0 discriminator 1
ARM GAS  C:\Users\jmspi\AppData\Local\Temp\ccpe3dht.s 			page 23


 1042 01b2 4FF0FF33 		mov	r3, #-1
 1043 01b6 D9E1     		b	.L49
 1044              	.L26:
 207:main.c        **** 	if (certainty_grid->cells == NULL) return -1;
 1045              		.loc 1 207 0 is_stmt 1
 1046 01b8 FB6D     		ldr	r3, [r7, #92]
 1047 01ba DB68     		ldr	r3, [r3, #12]
 1048 01bc 002B     		cmp	r3, #0
 1049 01be 02D1     		bne	.L28
 1050              		.loc 1 207 0 is_stmt 0 discriminator 1
 1051 01c0 4FF0FF33 		mov	r3, #-1
 1052 01c4 D2E1     		b	.L49
 1053              	.L28:
 208:main.c        **** 	if (polar_histogram == NULL) return -1;
 1054              		.loc 1 208 0 is_stmt 1
 1055 01c6 BB6D     		ldr	r3, [r7, #88]
 1056 01c8 002B     		cmp	r3, #0
 1057 01ca 02D1     		bne	.L29
 1058              		.loc 1 208 0 is_stmt 0 discriminator 1
 1059 01cc 4FF0FF33 		mov	r3, #-1
 1060 01d0 CCE1     		b	.L49
 1061              	.L29:
 209:main.c        **** 	if (polar_histogram->densities == NULL) return -1;
 1062              		.loc 1 209 0 is_stmt 1
 1063 01d2 BB6D     		ldr	r3, [r7, #88]
 1064 01d4 9B6A     		ldr	r3, [r3, #40]
 1065 01d6 002B     		cmp	r3, #0
 1066 01d8 02D1     		bne	.L30
 1067              		.loc 1 209 0 is_stmt 0 discriminator 1
 1068 01da 4FF0FF33 		mov	r3, #-1
 1069 01de C5E1     		b	.L49
 1070              	.L30:
 1071              	.LBB2:
 210:main.c        ****     
 211:main.c        ****     /*
 212:main.c        **** 	** Fake measures.
 213:main.c        **** 	*/
 214:main.c        ****     for (int i = 0; i < 1000; ++i) {
 1072              		.loc 1 214 0 is_stmt 1
 1073 01e0 0023     		movs	r3, #0
 1074 01e2 C7F88430 		str	r3, [r7, #132]
 1075 01e6 0FE1     		b	.L31
 1076              	.L36:
 1077              	.LBB3:
 215:main.c        ****         for( int j = 0; j<4; j++) {
 1078              		.loc 1 215 0
 1079 01e8 0023     		movs	r3, #0
 1080 01ea C7F88030 		str	r3, [r7, #128]
 1081 01ee 5DE0     		b	.L32
 1082              	.L33:
 216:main.c        ****             sensors.direction[j] = (int) ((40.0 * rand()) / RAND_MAX + 90.0); /* [degrees] */
 1083              		.loc 1 216 0 discriminator 3
 1084 01f0 FFF7FEFF 		bl	rand
 1085 01f4 0346     		mov	r3, r0
 1086 01f6 1846     		mov	r0, r3
 1087 01f8 FFF7FEFF 		bl	__aeabi_i2d
 1088 01fc 4FF00002 		mov	r2, #0
ARM GAS  C:\Users\jmspi\AppData\Local\Temp\ccpe3dht.s 			page 24


 1089 0200 484B     		ldr	r3, .L50+100
 1090 0202 FFF7FEFF 		bl	__aeabi_dmul
 1091 0206 0346     		mov	r3, r0
 1092 0208 0C46     		mov	r4, r1
 1093 020a 1846     		mov	r0, r3
 1094 020c 2146     		mov	r1, r4
 1095 020e 38A3     		adr	r3, .L50+48
 1096 0210 D3E90023 		ldrd	r2, [r3]
 1097 0214 FFF7FEFF 		bl	__aeabi_ddiv
 1098 0218 0346     		mov	r3, r0
 1099 021a 0C46     		mov	r4, r1
 1100 021c 1846     		mov	r0, r3
 1101 021e 2146     		mov	r1, r4
 1102 0220 4FF00002 		mov	r2, #0
 1103 0224 404B     		ldr	r3, .L50+104
 1104 0226 FFF7FEFF 		bl	__aeabi_dadd
 1105 022a 0346     		mov	r3, r0
 1106 022c 0C46     		mov	r4, r1
 1107 022e 1846     		mov	r0, r3
 1108 0230 2146     		mov	r1, r4
 1109 0232 FFF7FEFF 		bl	__aeabi_d2iz
 1110 0236 0246     		mov	r2, r0
 1111 0238 D7F88030 		ldr	r3, [r7, #128]
 1112 023c 9B00     		lsls	r3, r3, #2
 1113 023e 07F18801 		add	r1, r7, #136
 1114 0242 0B44     		add	r3, r3, r1
 1115 0244 43F8802C 		str	r2, [r3, #-128]
 217:main.c        ****         	sensors.distance[j] = (u_long) (((65.0 * rand()) / RAND_MAX)+5.0); /* [cm] */
 1116              		.loc 1 217 0 discriminator 3
 1117 0248 FFF7FEFF 		bl	rand
 1118 024c 0346     		mov	r3, r0
 1119 024e 1846     		mov	r0, r3
 1120 0250 FFF7FEFF 		bl	__aeabi_i2d
 1121 0254 4FF00002 		mov	r2, #0
 1122 0258 344B     		ldr	r3, .L50+108
 1123 025a FFF7FEFF 		bl	__aeabi_dmul
 1124 025e 0346     		mov	r3, r0
 1125 0260 0C46     		mov	r4, r1
 1126 0262 1846     		mov	r0, r3
 1127 0264 2146     		mov	r1, r4
 1128 0266 22A3     		adr	r3, .L50+48
 1129 0268 D3E90023 		ldrd	r2, [r3]
 1130 026c FFF7FEFF 		bl	__aeabi_ddiv
 1131 0270 0346     		mov	r3, r0
 1132 0272 0C46     		mov	r4, r1
 1133 0274 1846     		mov	r0, r3
 1134 0276 2146     		mov	r1, r4
 1135 0278 4FF00002 		mov	r2, #0
 1136 027c 264B     		ldr	r3, .L50+88
 1137 027e FFF7FEFF 		bl	__aeabi_dadd
 1138 0282 0346     		mov	r3, r0
 1139 0284 0C46     		mov	r4, r1
 1140 0286 1846     		mov	r0, r3
 1141 0288 2146     		mov	r1, r4
 1142 028a FFF7FEFF 		bl	__aeabi_d2uiz
 1143 028e 0246     		mov	r2, r0
 1144 0290 D7F88030 		ldr	r3, [r7, #128]
ARM GAS  C:\Users\jmspi\AppData\Local\Temp\ccpe3dht.s 			page 25


 1145 0294 0833     		adds	r3, r3, #8
 1146 0296 9B00     		lsls	r3, r3, #2
 1147 0298 07F18801 		add	r1, r7, #136
 1148 029c 0B44     		add	r3, r3, r1
 1149 029e 43F8802C 		str	r2, [r3, #-128]
 215:main.c        ****         for( int j = 0; j<4; j++) {
 1150              		.loc 1 215 0 discriminator 3
 1151 02a2 D7F88030 		ldr	r3, [r7, #128]
 1152 02a6 0133     		adds	r3, r3, #1
 1153 02a8 C7F88030 		str	r3, [r7, #128]
 1154              	.L32:
 215:main.c        ****         for( int j = 0; j<4; j++) {
 1155              		.loc 1 215 0 is_stmt 0 discriminator 1
 1156 02ac D7F88030 		ldr	r3, [r7, #128]
 1157 02b0 032B     		cmp	r3, #3
 1158 02b2 9DDD     		ble	.L33
 1159              	.LBE3:
 1160              	.LBB4:
 218:main.c        ****         }
 219:main.c        ****         for( int j = 4; j<8; j++) {
 1161              		.loc 1 219 0 is_stmt 1
 1162 02b4 0423     		movs	r3, #4
 1163 02b6 FB67     		str	r3, [r7, #124]
 1164 02b8 8BE0     		b	.L34
 1165              	.L51:
 1166 02ba 00BFAFF3 		.align	3
 1166      0080
 1167              	.L50:
 1168 02c0 4A7B832F 		.word	797145930
 1169 02c4 4CA6EE3F 		.word	1072604748
 1170 02c8 54E41071 		.word	1896932436
 1171 02cc 732AC93E 		.word	1053370995
 1172 02d0 7B14AE47 		.word	1202590843
 1173 02d4 E17A643F 		.word	1063549665
 1174 02d8 6ABC7493 		.word	-1821066134
 1175 02dc 1804F03F 		.word	1072694296
 1176 02e0 52B81E85 		.word	-2061584302
 1177 02e4 EBC13540 		.word	1077264875
 1178 02e8 691D554D 		.word	1297423721
 1179 02ec 1075FF3E 		.word	1056929040
 1180 02f0 0000C0FF 		.word	-4194304
 1181 02f4 FFFFDF41 		.word	1105199103
 1182 02f8 00000000 		.word	left_motor
 1183 02fc 00000640 		.word	1074135040
 1184 0300 00000000 		.word	right_motor
 1185 0304 00000000 		.word	robot
 1186 0308 0000E83F 		.word	1072168960
 1187 030c 0000F03F 		.word	1072693248
 1188 0310 00005940 		.word	1079574528
 1189 0314 000059C0 		.word	-1067909120
 1190 0318 00001440 		.word	1075052544
 1191 031c 00002440 		.word	1076101120
 1192 0320 00003440 		.word	1077149696
 1193 0324 00004440 		.word	1078198272
 1194 0328 00805640 		.word	1079410688
 1195 032c 00405040 		.word	1079001088
 1196              	.L35:
ARM GAS  C:\Users\jmspi\AppData\Local\Temp\ccpe3dht.s 			page 26


 220:main.c        ****         	sensors.direction[j] = (int) ((40.0 * rand()) / RAND_MAX); /* [degrees] */
 1197              		.loc 1 220 0 discriminator 3
 1198 0330 FFF7FEFF 		bl	rand
 1199 0334 0346     		mov	r3, r0
 1200 0336 1846     		mov	r0, r3
 1201 0338 FFF7FEFF 		bl	__aeabi_i2d
 1202 033c 4FF00002 		mov	r2, #0
 1203 0340 8F4B     		ldr	r3, .L52+8
 1204 0342 FFF7FEFF 		bl	__aeabi_dmul
 1205 0346 0346     		mov	r3, r0
 1206 0348 0C46     		mov	r4, r1
 1207 034a 1846     		mov	r0, r3
 1208 034c 2146     		mov	r1, r4
 1209 034e 8AA3     		adr	r3, .L52
 1210 0350 D3E90023 		ldrd	r2, [r3]
 1211 0354 FFF7FEFF 		bl	__aeabi_ddiv
 1212 0358 0346     		mov	r3, r0
 1213 035a 0C46     		mov	r4, r1
 1214 035c 1846     		mov	r0, r3
 1215 035e 2146     		mov	r1, r4
 1216 0360 FFF7FEFF 		bl	__aeabi_d2iz
 1217 0364 0246     		mov	r2, r0
 1218 0366 FB6F     		ldr	r3, [r7, #124]
 1219 0368 9B00     		lsls	r3, r3, #2
 1220 036a 07F18801 		add	r1, r7, #136
 1221 036e 0B44     		add	r3, r3, r1
 1222 0370 43F8802C 		str	r2, [r3, #-128]
 221:main.c        ****         	sensors.distance[j] = (u_long) (((65.0 * rand()) / RAND_MAX)+5.0); /* [cm] */
 1223              		.loc 1 221 0 discriminator 3
 1224 0374 FFF7FEFF 		bl	rand
 1225 0378 0346     		mov	r3, r0
 1226 037a 1846     		mov	r0, r3
 1227 037c FFF7FEFF 		bl	__aeabi_i2d
 1228 0380 4FF00002 		mov	r2, #0
 1229 0384 7F4B     		ldr	r3, .L52+12
 1230 0386 FFF7FEFF 		bl	__aeabi_dmul
 1231 038a 0346     		mov	r3, r0
 1232 038c 0C46     		mov	r4, r1
 1233 038e 1846     		mov	r0, r3
 1234 0390 2146     		mov	r1, r4
 1235 0392 79A3     		adr	r3, .L52
 1236 0394 D3E90023 		ldrd	r2, [r3]
 1237 0398 FFF7FEFF 		bl	__aeabi_ddiv
 1238 039c 0346     		mov	r3, r0
 1239 039e 0C46     		mov	r4, r1
 1240 03a0 1846     		mov	r0, r3
 1241 03a2 2146     		mov	r1, r4
 1242 03a4 4FF00002 		mov	r2, #0
 1243 03a8 774B     		ldr	r3, .L52+16
 1244 03aa FFF7FEFF 		bl	__aeabi_dadd
 1245 03ae 0346     		mov	r3, r0
 1246 03b0 0C46     		mov	r4, r1
 1247 03b2 1846     		mov	r0, r3
 1248 03b4 2146     		mov	r1, r4
 1249 03b6 FFF7FEFF 		bl	__aeabi_d2uiz
 1250 03ba 0246     		mov	r2, r0
 1251 03bc FB6F     		ldr	r3, [r7, #124]
ARM GAS  C:\Users\jmspi\AppData\Local\Temp\ccpe3dht.s 			page 27


 1252 03be 0833     		adds	r3, r3, #8
 1253 03c0 9B00     		lsls	r3, r3, #2
 1254 03c2 07F18801 		add	r1, r7, #136
 1255 03c6 0B44     		add	r3, r3, r1
 1256 03c8 43F8802C 		str	r2, [r3, #-128]
 219:main.c        ****         	sensors.direction[j] = (int) ((40.0 * rand()) / RAND_MAX); /* [degrees] */
 1257              		.loc 1 219 0 discriminator 3
 1258 03cc FB6F     		ldr	r3, [r7, #124]
 1259 03ce 0133     		adds	r3, r3, #1
 1260 03d0 FB67     		str	r3, [r7, #124]
 1261              	.L34:
 219:main.c        ****         	sensors.direction[j] = (int) ((40.0 * rand()) / RAND_MAX); /* [degrees] */
 1262              		.loc 1 219 0 is_stmt 0 discriminator 1
 1263 03d2 FB6F     		ldr	r3, [r7, #124]
 1264 03d4 072B     		cmp	r3, #7
 1265 03d6 ABDD     		ble	.L35
 1266              	.LBE4:
 222:main.c        ****         }
 223:main.c        ****         update_grid(certainty_grid, 65, 65, 0, sensors);
 1267              		.loc 1 223 0 is_stmt 1 discriminator 2
 1268 03d8 6D46     		mov	r5, sp
 1269 03da 07F10804 		add	r4, r7, #8
 1270 03de 0FCC     		ldmia	r4!, {r0, r1, r2, r3}
 1271 03e0 0FC5     		stmia	r5!, {r0, r1, r2, r3}
 1272 03e2 0FCC     		ldmia	r4!, {r0, r1, r2, r3}
 1273 03e4 0FC5     		stmia	r5!, {r0, r1, r2, r3}
 1274 03e6 0FCC     		ldmia	r4!, {r0, r1, r2, r3}
 1275 03e8 0FC5     		stmia	r5!, {r0, r1, r2, r3}
 1276 03ea 94E80F00 		ldmia	r4, {r0, r1, r2, r3}
 1277 03ee 85E80F00 		stmia	r5, {r0, r1, r2, r3}
 1278 03f2 0023     		movs	r3, #0
 1279 03f4 4122     		movs	r2, #65
 1280 03f6 4121     		movs	r1, #65
 1281 03f8 F86D     		ldr	r0, [r7, #92]
 1282 03fa FFF7FEFF 		bl	update_grid
 214:main.c        ****         for( int j = 0; j<4; j++) {
 1283              		.loc 1 214 0 discriminator 2
 1284 03fe D7F88430 		ldr	r3, [r7, #132]
 1285 0402 0133     		adds	r3, r3, #1
 1286 0404 C7F88430 		str	r3, [r7, #132]
 1287              	.L31:
 214:main.c        ****         for( int j = 0; j<4; j++) {
 1288              		.loc 1 214 0 is_stmt 0 discriminator 1
 1289 0408 D7F88430 		ldr	r3, [r7, #132]
 1290 040c B3F57A7F 		cmp	r3, #1000
 1291 0410 FFF6EAAE 		blt	.L36
 1292              	.L48:
 1293              	.LBE2:
 1294              	.LBB5:
 1295              	.LBB6:
 224:main.c        ****     }    
 225:main.c        ****     
 226:main.c        ****     for(;;) {
 227:main.c        ****         
 228:main.c        ****         for( int y=certainty_grid->height-1; y >= 0; --y ) {
 1296              		.loc 1 228 0 is_stmt 1
 1297 0414 FB6D     		ldr	r3, [r7, #92]
ARM GAS  C:\Users\jmspi\AppData\Local\Temp\ccpe3dht.s 			page 28


 1298 0416 5B68     		ldr	r3, [r3, #4]
 1299 0418 013B     		subs	r3, r3, #1
 1300 041a BB67     		str	r3, [r7, #120]
 1301 041c 24E0     		b	.L37
 1302              	.L40:
 1303              	.LBB7:
 229:main.c        ****             for( int x=0; x < certainty_grid->width; ++x ) {
 1304              		.loc 1 229 0
 1305 041e 0023     		movs	r3, #0
 1306 0420 7B67     		str	r3, [r7, #116]
 1307 0422 16E0     		b	.L38
 1308              	.L39:
 230:main.c        ****                 sprintf(serial_output, "%lu ", certainty_grid->cells[x*certainty_grid->width+y] );
 1309              		.loc 1 230 0 discriminator 3
 1310 0424 FB6D     		ldr	r3, [r7, #92]
 1311 0426 DA68     		ldr	r2, [r3, #12]
 1312 0428 FB6D     		ldr	r3, [r7, #92]
 1313 042a 1B68     		ldr	r3, [r3]
 1314 042c 796F     		ldr	r1, [r7, #116]
 1315 042e 01FB03F1 		mul	r1, r1, r3
 1316 0432 BB6F     		ldr	r3, [r7, #120]
 1317 0434 0B44     		add	r3, r3, r1
 1318 0436 9B00     		lsls	r3, r3, #2
 1319 0438 1344     		add	r3, r3, r2
 1320 043a 1B68     		ldr	r3, [r3]
 1321 043c 1A46     		mov	r2, r3
 1322 043e 5349     		ldr	r1, .L52+20
 1323 0440 5348     		ldr	r0, .L52+24
 1324 0442 FFF7FEFF 		bl	sprintf
 231:main.c        ****                 UART_PutString(serial_output);
 1325              		.loc 1 231 0 discriminator 3
 1326 0446 5248     		ldr	r0, .L52+24
 1327 0448 FFF7FEFF 		bl	UART_PutString
 229:main.c        ****             for( int x=0; x < certainty_grid->width; ++x ) {
 1328              		.loc 1 229 0 discriminator 3
 1329 044c 7B6F     		ldr	r3, [r7, #116]
 1330 044e 0133     		adds	r3, r3, #1
 1331 0450 7B67     		str	r3, [r7, #116]
 1332              	.L38:
 229:main.c        ****             for( int x=0; x < certainty_grid->width; ++x ) {
 1333              		.loc 1 229 0 is_stmt 0 discriminator 1
 1334 0452 FB6D     		ldr	r3, [r7, #92]
 1335 0454 1A68     		ldr	r2, [r3]
 1336 0456 7B6F     		ldr	r3, [r7, #116]
 1337 0458 9A42     		cmp	r2, r3
 1338 045a E3DC     		bgt	.L39
 1339              	.LBE7:
 232:main.c        ****             }
 233:main.c        ****             UART_PutString("\n");
 1340              		.loc 1 233 0 is_stmt 1 discriminator 2
 1341 045c 4D48     		ldr	r0, .L52+28
 1342 045e FFF7FEFF 		bl	UART_PutString
 228:main.c        ****             for( int x=0; x < certainty_grid->width; ++x ) {
 1343              		.loc 1 228 0 discriminator 2
 1344 0462 BB6F     		ldr	r3, [r7, #120]
 1345 0464 013B     		subs	r3, r3, #1
 1346 0466 BB67     		str	r3, [r7, #120]
ARM GAS  C:\Users\jmspi\AppData\Local\Temp\ccpe3dht.s 			page 29


 1347              	.L37:
 228:main.c        ****             for( int x=0; x < certainty_grid->width; ++x ) {
 1348              		.loc 1 228 0 is_stmt 0 discriminator 1
 1349 0468 BB6F     		ldr	r3, [r7, #120]
 1350 046a 002B     		cmp	r3, #0
 1351 046c D7DA     		bge	.L40
 1352              	.LBE6:
 234:main.c        ****         }
 235:main.c        ****         UART_PutString("\n\n\n\n\n");
 1353              		.loc 1 235 0 is_stmt 1
 1354 046e 4A48     		ldr	r0, .L52+32
 1355 0470 FFF7FEFF 		bl	UART_PutString
 236:main.c        ****         
 237:main.c        ****         
 238:main.c        ****         grid * active = active_window(certainty_grid,0,0,5);
 1356              		.loc 1 238 0
 1357 0474 0523     		movs	r3, #5
 1358 0476 0022     		movs	r2, #0
 1359 0478 0021     		movs	r1, #0
 1360 047a F86D     		ldr	r0, [r7, #92]
 1361 047c FFF7FEFF 		bl	active_window
 1362 0480 7865     		str	r0, [r7, #84]
 1363              	.LBB8:
 239:main.c        ****         
 240:main.c        ****         
 241:main.c        ****         for( int y=active->height-1; y >= 0; --y ) {
 1364              		.loc 1 241 0
 1365 0482 7B6D     		ldr	r3, [r7, #84]
 1366 0484 5B68     		ldr	r3, [r3, #4]
 1367 0486 013B     		subs	r3, r3, #1
 1368 0488 3B67     		str	r3, [r7, #112]
 1369 048a 24E0     		b	.L41
 1370              	.L44:
 1371              	.LBB9:
 242:main.c        ****             for( int x=0; x < active->width; ++x ) {
 1372              		.loc 1 242 0
 1373 048c 0023     		movs	r3, #0
 1374 048e FB66     		str	r3, [r7, #108]
 1375 0490 16E0     		b	.L42
 1376              	.L43:
 243:main.c        ****                 sprintf(serial_output, "%lu ", active->cells[x*active->width+y] );
 1377              		.loc 1 243 0 discriminator 3
 1378 0492 7B6D     		ldr	r3, [r7, #84]
 1379 0494 DA68     		ldr	r2, [r3, #12]
 1380 0496 7B6D     		ldr	r3, [r7, #84]
 1381 0498 1B68     		ldr	r3, [r3]
 1382 049a F96E     		ldr	r1, [r7, #108]
 1383 049c 01FB03F1 		mul	r1, r1, r3
 1384 04a0 3B6F     		ldr	r3, [r7, #112]
 1385 04a2 0B44     		add	r3, r3, r1
 1386 04a4 9B00     		lsls	r3, r3, #2
 1387 04a6 1344     		add	r3, r3, r2
 1388 04a8 1B68     		ldr	r3, [r3]
 1389 04aa 1A46     		mov	r2, r3
 1390 04ac 3749     		ldr	r1, .L52+20
 1391 04ae 3848     		ldr	r0, .L52+24
 1392 04b0 FFF7FEFF 		bl	sprintf
ARM GAS  C:\Users\jmspi\AppData\Local\Temp\ccpe3dht.s 			page 30


 244:main.c        ****                 UART_PutString(serial_output);
 1393              		.loc 1 244 0 discriminator 3
 1394 04b4 3648     		ldr	r0, .L52+24
 1395 04b6 FFF7FEFF 		bl	UART_PutString
 242:main.c        ****             for( int x=0; x < active->width; ++x ) {
 1396              		.loc 1 242 0 discriminator 3
 1397 04ba FB6E     		ldr	r3, [r7, #108]
 1398 04bc 0133     		adds	r3, r3, #1
 1399 04be FB66     		str	r3, [r7, #108]
 1400              	.L42:
 242:main.c        ****             for( int x=0; x < active->width; ++x ) {
 1401              		.loc 1 242 0 is_stmt 0 discriminator 1
 1402 04c0 7B6D     		ldr	r3, [r7, #84]
 1403 04c2 1A68     		ldr	r2, [r3]
 1404 04c4 FB6E     		ldr	r3, [r7, #108]
 1405 04c6 9A42     		cmp	r2, r3
 1406 04c8 E3DC     		bgt	.L43
 1407              	.LBE9:
 245:main.c        ****             }
 246:main.c        ****             UART_PutString("\n");
 1408              		.loc 1 246 0 is_stmt 1 discriminator 2
 1409 04ca 3248     		ldr	r0, .L52+28
 1410 04cc FFF7FEFF 		bl	UART_PutString
 241:main.c        ****             for( int x=0; x < active->width; ++x ) {
 1411              		.loc 1 241 0 discriminator 2
 1412 04d0 3B6F     		ldr	r3, [r7, #112]
 1413 04d2 013B     		subs	r3, r3, #1
 1414 04d4 3B67     		str	r3, [r7, #112]
 1415              	.L41:
 241:main.c        ****             for( int x=0; x < active->width; ++x ) {
 1416              		.loc 1 241 0 is_stmt 0 discriminator 1
 1417 04d6 3B6F     		ldr	r3, [r7, #112]
 1418 04d8 002B     		cmp	r3, #0
 1419 04da D7DA     		bge	.L44
 1420              	.LBE8:
 247:main.c        ****         }
 248:main.c        ****         UART_PutString("\n\n\n\n\n");
 1421              		.loc 1 248 0 is_stmt 1
 1422 04dc 2E48     		ldr	r0, .L52+32
 1423 04de FFF7FEFF 		bl	UART_PutString
 249:main.c        ****         
 250:main.c        ****         
 251:main.c        ****         hist_update(polar_histogram, certainty_grid);
 1424              		.loc 1 251 0
 1425 04e2 F96D     		ldr	r1, [r7, #92]
 1426 04e4 B86D     		ldr	r0, [r7, #88]
 1427 04e6 FFF7FEFF 		bl	hist_update
 1428              	.LBB10:
 252:main.c        ****         
 253:main.c        ****         
 254:main.c        ****         for( int i=0; i<polar_histogram->sectors; i++ ) {
 1429              		.loc 1 254 0
 1430 04ea 0023     		movs	r3, #0
 1431 04ec BB66     		str	r3, [r7, #104]
 1432 04ee 11E0     		b	.L45
 1433              	.L46:
 255:main.c        ****             sprintf(serial_output, "%lf\n", polar_histogram->densities[i]);
ARM GAS  C:\Users\jmspi\AppData\Local\Temp\ccpe3dht.s 			page 31


 1434              		.loc 1 255 0 discriminator 3
 1435 04f0 BB6D     		ldr	r3, [r7, #88]
 1436 04f2 9A6A     		ldr	r2, [r3, #40]
 1437 04f4 BB6E     		ldr	r3, [r7, #104]
 1438 04f6 DB00     		lsls	r3, r3, #3
 1439 04f8 1344     		add	r3, r3, r2
 1440 04fa 18CB     		ldmia	r3, {r3-r4}
 1441 04fc 1A46     		mov	r2, r3
 1442 04fe 2346     		mov	r3, r4
 1443 0500 2649     		ldr	r1, .L52+36
 1444 0502 2348     		ldr	r0, .L52+24
 1445 0504 FFF7FEFF 		bl	sprintf
 256:main.c        ****             UART_PutString(serial_output);
 1446              		.loc 1 256 0 discriminator 3
 1447 0508 2148     		ldr	r0, .L52+24
 1448 050a FFF7FEFF 		bl	UART_PutString
 254:main.c        ****             sprintf(serial_output, "%lf\n", polar_histogram->densities[i]);
 1449              		.loc 1 254 0 discriminator 3
 1450 050e BB6E     		ldr	r3, [r7, #104]
 1451 0510 0133     		adds	r3, r3, #1
 1452 0512 BB66     		str	r3, [r7, #104]
 1453              	.L45:
 254:main.c        ****             sprintf(serial_output, "%lf\n", polar_histogram->densities[i]);
 1454              		.loc 1 254 0 is_stmt 0 discriminator 1
 1455 0514 BB6D     		ldr	r3, [r7, #88]
 1456 0516 5A68     		ldr	r2, [r3, #4]
 1457 0518 BB6E     		ldr	r3, [r7, #104]
 1458 051a 9A42     		cmp	r2, r3
 1459 051c E8DC     		bgt	.L46
 1460              	.LBE10:
 257:main.c        ****         }
 258:main.c        ****         UART_PutString("\n\n\n\n\n");
 1461              		.loc 1 258 0 is_stmt 1
 1462 051e 1E48     		ldr	r0, .L52+32
 1463 0520 FFF7FEFF 		bl	UART_PutString
 259:main.c        ****         
 260:main.c        ****         
 261:main.c        ****         double dir = calculate_direction2(polar_histogram, 45);
 1464              		.loc 1 261 0
 1465 0524 2D21     		movs	r1, #45
 1466 0526 B86D     		ldr	r0, [r7, #88]
 1467 0528 FFF7FEFF 		bl	calculate_direction2
 1468 052c C7E91201 		strd	r0, [r7, #72]
 262:main.c        ****         
 263:main.c        ****         sprintf(serial_output, "best_dir: %lf\n", dir);
 1469              		.loc 1 263 0
 1470 0530 D7E91223 		ldrd	r2, [r7, #72]
 1471 0534 1A49     		ldr	r1, .L52+40
 1472 0536 1648     		ldr	r0, .L52+24
 1473 0538 FFF7FEFF 		bl	sprintf
 264:main.c        ****         UART_PutString(serial_output);
 1474              		.loc 1 264 0
 1475 053c 1448     		ldr	r0, .L52+24
 1476 053e FFF7FEFF 		bl	UART_PutString
 265:main.c        ****         
 266:main.c        ****         
 267:main.c        ****         /*
ARM GAS  C:\Users\jmspi\AppData\Local\Temp\ccpe3dht.s 			page 32


 268:main.c        ****         long double dy = robot.goal_y - robot.y;
 269:main.c        ****         long double dx = robot.goal_x - robot.x;
 270:main.c        ****         long double dist_to_goal = sqrtl( dy*dy + dx*dx );
 271:main.c        ****         long double theta_to_goal = atan2l( dy, dx );
 272:main.c        ****         
 273:main.c        ****         if( dist_to_goal <= robot.goal_min_dist ) {
 274:main.c        ****             robot.desired_V = 0;
 275:main.c        ****         } else if( echo_flag && echo_distance < 40 && echo_distance <= dist_to_goal) {
 276:main.c        ****             robot.desired_theta = angle_modulo( robot.theta - M_PI/5 );
 277:main.c        ****             Timer_Avoidance_WriteCounter(65535);
 278:main.c        ****         } else if( Timer_Avoidance_ReadCounter() < 65532 ){
 279:main.c        ****             robot.desired_theta = theta_to_goal;
 280:main.c        ****             if( dist_to_goal < 10 ) {
 281:main.c        ****                 robot.desired_V = 2;
 282:main.c        ****             } else {
 283:main.c        ****                 robot.desired_V = 10;
 284:main.c        ****             }
 285:main.c        ****         }
 286:main.c        ****         */
 287:main.c        ****         
 288:main.c        ****         // if a distance was measured, print the distance and clear the flag
 289:main.c        ****         if ( echo_flag == 1 ) {
 1477              		.loc 1 289 0
 1478 0542 184B     		ldr	r3, .L52+44
 1479 0544 1B78     		ldrb	r3, [r3]	@ zero_extendqisi2
 1480 0546 012B     		cmp	r3, #1
 1481 0548 7FF464AF 		bne	.L48
 290:main.c        ****             echo_distance = 65535 - Timer_Echo_ReadCapture();  // in cm
 1482              		.loc 1 290 0
 1483 054c FFF7FEFF 		bl	Timer_Echo_ReadCapture
 1484 0550 0346     		mov	r3, r0
 1485 0552 DB43     		mvns	r3, r3
 1486 0554 9AB2     		uxth	r2, r3
 1487 0556 144B     		ldr	r3, .L52+48
 1488 0558 1A80     		strh	r2, [r3]	@ movhi
 291:main.c        ****             
 292:main.c        ****             /*
 293:main.c        ****             Timer_Echo_Stop();
 294:main.c        ****             //CyDelayUs(1); // TODO: Should be able to make this shorter, one or two bus clock cycl
 295:main.c        ****             if (mux_select == 0) {
 296:main.c        ****                 mux_select = 1;
 297:main.c        ****             } else {
 298:main.c        ****                 mux_select = 0;
 299:main.c        ****             }
 300:main.c        ****             mux_select = 0;
 301:main.c        ****             Control_Reg_US_Write(mux_select);
 302:main.c        ****             Timer_Echo_Enable();
 303:main.c        ****             */
 304:main.c        ****             PWM_Trigger_WriteCounter(255);    
 1489              		.loc 1 304 0
 1490 055a FF20     		movs	r0, #255
 1491 055c FFF7FEFF 		bl	PWM_Trigger_WriteCounter
 305:main.c        **** 
 306:main.c        ****             CyGlobalIntDisable; // Disable global interrupts, so the flag gets cleared. 
 1492              		.loc 1 306 0
 1493              		.syntax unified
 1494              	@ 306 "main.c" 1
ARM GAS  C:\Users\jmspi\AppData\Local\Temp\ccpe3dht.s 			page 33


 1495 0560 72B6     		CPSID   i
 1496              	@ 0 "" 2
 307:main.c        ****             echo_flag = 0;
 1497              		.loc 1 307 0
 1498              		.thumb
 1499              		.syntax unified
 1500 0562 104B     		ldr	r3, .L52+44
 1501 0564 0022     		movs	r2, #0
 1502 0566 1A70     		strb	r2, [r3]
 308:main.c        ****             CyGlobalIntEnable; // Enable global interrupts after the flag is cleared. 
 1503              		.loc 1 308 0
 1504              		.syntax unified
 1505              	@ 308 "main.c" 1
 1506 0568 62B6     		CPSIE   i
 1507              	@ 0 "" 2
 1508              		.thumb
 1509              		.syntax unified
 1510              	.LBE5:
 309:main.c        ****         }
 310:main.c        ****         
 311:main.c        ****         //sprintf(serial_output, "dx: %Lf, dy: %Lf, dtg: %Lf, ttg: %Lf, dist: %i, tmr: %i\n", dx, d
 312:main.c        ****         //sprintf(serial_output, "desired: %lf, actual: %lf, dc:%lf, enc: %li\n", right_motor.desir
 313:main.c        ****         //sprintf(serial_output, "x: %lf, y: %lf, theta: %lf\n", robot.x, robot.y, robot.theta);
 314:main.c        ****         //UART_PutString(serial_output);
 315:main.c        ****     }
 1511              		.loc 1 315 0
 1512 056a 53E7     		b	.L48
 1513              	.L49:
 316:main.c        ****   
 317:main.c        **** }
 1514              		.loc 1 317 0 discriminator 1
 1515 056c 1846     		mov	r0, r3
 1516 056e 8837     		adds	r7, r7, #136
 1517              		.cfi_def_cfa_offset 16
 1518 0570 BD46     		mov	sp, r7
 1519              		.cfi_def_cfa_register 13
 1520              		@ sp needed
 1521 0572 B0BD     		pop	{r4, r5, r7, pc}
 1522              	.L53:
 1523 0574 AFF30080 		.align	3
 1524              	.L52:
 1525 0578 0000C0FF 		.word	-4194304
 1526 057c FFFFDF41 		.word	1105199103
 1527 0580 00004440 		.word	1078198272
 1528 0584 00405040 		.word	1079001088
 1529 0588 00001440 		.word	1075052544
 1530 058c 10000000 		.word	.LC0
 1531 0590 00000000 		.word	serial_output
 1532 0594 18000000 		.word	.LC1
 1533 0598 1C000000 		.word	.LC2
 1534 059c 24000000 		.word	.LC3
 1535 05a0 2C000000 		.word	.LC4
 1536 05a4 00000000 		.word	echo_flag
 1537 05a8 00000000 		.word	echo_distance
 1538              		.cfi_endproc
 1539              	.LFE68:
 1540              		.size	main, .-main
ARM GAS  C:\Users\jmspi\AppData\Local\Temp\ccpe3dht.s 			page 34


 1541              		.section	.text.Drive_Left_Motor,"ax",%progbits
 1542              		.align	2
 1543              		.global	Drive_Left_Motor
 1544              		.thumb
 1545              		.thumb_func
 1546              		.type	Drive_Left_Motor, %function
 1547              	Drive_Left_Motor:
 1548              	.LFB69:
 318:main.c        **** 
 319:main.c        **** void Drive_Left_Motor(long double duty_cycle) {
 1549              		.loc 1 319 0
 1550              		.cfi_startproc
 1551              		@ args = 0, pretend = 0, frame = 8
 1552              		@ frame_needed = 1, uses_anonymous_args = 0
 1553 0000 90B5     		push	{r4, r7, lr}
 1554              		.cfi_def_cfa_offset 12
 1555              		.cfi_offset 4, -12
 1556              		.cfi_offset 7, -8
 1557              		.cfi_offset 14, -4
 1558 0002 83B0     		sub	sp, sp, #12
 1559              		.cfi_def_cfa_offset 24
 1560 0004 00AF     		add	r7, sp, #0
 1561              		.cfi_def_cfa_register 7
 1562 0006 C7E90001 		strd	r0, [r7]
 320:main.c        ****     if (duty_cycle < -1) {
 1563              		.loc 1 320 0
 1564 000a 4FF00002 		mov	r2, #0
 1565 000e 304B     		ldr	r3, .L68+8
 1566 0010 D7E90001 		ldrd	r0, [r7]
 1567 0014 FFF7FEFF 		bl	__aeabi_dcmplt
 1568 0018 0346     		mov	r3, r0
 1569 001a 002B     		cmp	r3, #0
 1570 001c 05D0     		beq	.L65
 321:main.c        ****         duty_cycle = -1;
 1571              		.loc 1 321 0
 1572 001e 4FF00003 		mov	r3, #0
 1573 0022 2B4C     		ldr	r4, .L68+8
 1574 0024 C7E90034 		strd	r3, [r7]
 1575 0028 0EE0     		b	.L57
 1576              	.L65:
 322:main.c        ****     } else if (duty_cycle > 1) {
 1577              		.loc 1 322 0
 1578 002a 4FF00002 		mov	r2, #0
 1579 002e 294B     		ldr	r3, .L68+12
 1580 0030 D7E90001 		ldrd	r0, [r7]
 1581 0034 FFF7FEFF 		bl	__aeabi_dcmpgt
 1582 0038 0346     		mov	r3, r0
 1583 003a 002B     		cmp	r3, #0
 1584 003c 04D0     		beq	.L57
 323:main.c        ****         duty_cycle = 1;
 1585              		.loc 1 323 0
 1586 003e 4FF00003 		mov	r3, #0
 1587 0042 244C     		ldr	r4, .L68+12
 1588 0044 C7E90034 		strd	r3, [r7]
 1589              	.L57:
 324:main.c        ****     }
 325:main.c        ****     
ARM GAS  C:\Users\jmspi\AppData\Local\Temp\ccpe3dht.s 			page 35


 326:main.c        ****     if (duty_cycle < 0) {
 1590              		.loc 1 326 0
 1591 0048 4FF00002 		mov	r2, #0
 1592 004c 4FF00003 		mov	r3, #0
 1593 0050 D7E90001 		ldrd	r0, [r7]
 1594 0054 FFF7FEFF 		bl	__aeabi_dcmplt
 1595 0058 0346     		mov	r3, r0
 1596 005a 002B     		cmp	r3, #0
 1597 005c 1BD0     		beq	.L66
 327:main.c        ****         duty_cycle = -duty_cycle;
 1598              		.loc 1 327 0
 1599 005e 3B68     		ldr	r3, [r7]
 1600 0060 3B60     		str	r3, [r7]
 1601 0062 7B68     		ldr	r3, [r7, #4]
 1602 0064 83F00043 		eor	r3, r3, #-2147483648
 1603 0068 7B60     		str	r3, [r7, #4]
 328:main.c        ****         PWM_Motor_L_WriteCompare1(0);
 1604              		.loc 1 328 0
 1605 006a 0020     		movs	r0, #0
 1606 006c FFF7FEFF 		bl	PWM_Motor_L_WriteCompare1
 329:main.c        ****         PWM_Motor_L_WriteCompare2(duty_cycle*10000);
 1607              		.loc 1 329 0
 1608 0070 15A3     		adr	r3, .L68
 1609 0072 D3E90023 		ldrd	r2, [r3]
 1610 0076 D7E90001 		ldrd	r0, [r7]
 1611 007a FFF7FEFF 		bl	__aeabi_dmul
 1612 007e 0346     		mov	r3, r0
 1613 0080 0C46     		mov	r4, r1
 1614 0082 1846     		mov	r0, r3
 1615 0084 2146     		mov	r1, r4
 1616 0086 FFF7FEFF 		bl	__aeabi_d2uiz
 1617 008a 0346     		mov	r3, r0
 1618 008c 9BB2     		uxth	r3, r3
 1619 008e 1846     		mov	r0, r3
 1620 0090 FFF7FEFF 		bl	PWM_Motor_L_WriteCompare2
 330:main.c        ****     } else {
 331:main.c        ****         PWM_Motor_L_WriteCompare1(duty_cycle*10000);
 332:main.c        ****         PWM_Motor_L_WriteCompare2(0);
 333:main.c        ****     }
 334:main.c        **** }
 1621              		.loc 1 334 0
 1622 0094 14E0     		b	.L67
 1623              	.L66:
 331:main.c        ****         PWM_Motor_L_WriteCompare2(0);
 1624              		.loc 1 331 0
 1625 0096 0CA3     		adr	r3, .L68
 1626 0098 D3E90023 		ldrd	r2, [r3]
 1627 009c D7E90001 		ldrd	r0, [r7]
 1628 00a0 FFF7FEFF 		bl	__aeabi_dmul
 1629 00a4 0346     		mov	r3, r0
 1630 00a6 0C46     		mov	r4, r1
 1631 00a8 1846     		mov	r0, r3
 1632 00aa 2146     		mov	r1, r4
 1633 00ac FFF7FEFF 		bl	__aeabi_d2uiz
 1634 00b0 0346     		mov	r3, r0
 1635 00b2 9BB2     		uxth	r3, r3
 1636 00b4 1846     		mov	r0, r3
ARM GAS  C:\Users\jmspi\AppData\Local\Temp\ccpe3dht.s 			page 36


 1637 00b6 FFF7FEFF 		bl	PWM_Motor_L_WriteCompare1
 332:main.c        ****     }
 1638              		.loc 1 332 0
 1639 00ba 0020     		movs	r0, #0
 1640 00bc FFF7FEFF 		bl	PWM_Motor_L_WriteCompare2
 1641              	.L67:
 1642              		.loc 1 334 0
 1643 00c0 00BF     		nop
 1644 00c2 0C37     		adds	r7, r7, #12
 1645              		.cfi_def_cfa_offset 12
 1646 00c4 BD46     		mov	sp, r7
 1647              		.cfi_def_cfa_register 13
 1648              		@ sp needed
 1649 00c6 90BD     		pop	{r4, r7, pc}
 1650              	.L69:
 1651              		.align	3
 1652              	.L68:
 1653 00c8 00000000 		.word	0
 1654 00cc 0088C340 		.word	1086556160
 1655 00d0 0000F0BF 		.word	-1074790400
 1656 00d4 0000F03F 		.word	1072693248
 1657              		.cfi_endproc
 1658              	.LFE69:
 1659              		.size	Drive_Left_Motor, .-Drive_Left_Motor
 1660              		.section	.text.Drive_Right_Motor,"ax",%progbits
 1661              		.align	2
 1662              		.global	Drive_Right_Motor
 1663              		.thumb
 1664              		.thumb_func
 1665              		.type	Drive_Right_Motor, %function
 1666              	Drive_Right_Motor:
 1667              	.LFB70:
 335:main.c        **** 
 336:main.c        **** void Drive_Right_Motor(long double duty_cycle) {
 1668              		.loc 1 336 0
 1669              		.cfi_startproc
 1670              		@ args = 0, pretend = 0, frame = 8
 1671              		@ frame_needed = 1, uses_anonymous_args = 0
 1672 0000 90B5     		push	{r4, r7, lr}
 1673              		.cfi_def_cfa_offset 12
 1674              		.cfi_offset 4, -12
 1675              		.cfi_offset 7, -8
 1676              		.cfi_offset 14, -4
 1677 0002 83B0     		sub	sp, sp, #12
 1678              		.cfi_def_cfa_offset 24
 1679 0004 00AF     		add	r7, sp, #0
 1680              		.cfi_def_cfa_register 7
 1681 0006 C7E90001 		strd	r0, [r7]
 337:main.c        ****     if (duty_cycle < -1) {
 1682              		.loc 1 337 0
 1683 000a 4FF00002 		mov	r2, #0
 1684 000e 304B     		ldr	r3, .L84+8
 1685 0010 D7E90001 		ldrd	r0, [r7]
 1686 0014 FFF7FEFF 		bl	__aeabi_dcmplt
 1687 0018 0346     		mov	r3, r0
 1688 001a 002B     		cmp	r3, #0
 1689 001c 05D0     		beq	.L81
ARM GAS  C:\Users\jmspi\AppData\Local\Temp\ccpe3dht.s 			page 37


 338:main.c        ****         duty_cycle = -1;
 1690              		.loc 1 338 0
 1691 001e 4FF00003 		mov	r3, #0
 1692 0022 2B4C     		ldr	r4, .L84+8
 1693 0024 C7E90034 		strd	r3, [r7]
 1694 0028 0EE0     		b	.L73
 1695              	.L81:
 339:main.c        ****     } else if (duty_cycle > 1) {
 1696              		.loc 1 339 0
 1697 002a 4FF00002 		mov	r2, #0
 1698 002e 294B     		ldr	r3, .L84+12
 1699 0030 D7E90001 		ldrd	r0, [r7]
 1700 0034 FFF7FEFF 		bl	__aeabi_dcmpgt
 1701 0038 0346     		mov	r3, r0
 1702 003a 002B     		cmp	r3, #0
 1703 003c 04D0     		beq	.L73
 340:main.c        ****         duty_cycle = 1;
 1704              		.loc 1 340 0
 1705 003e 4FF00003 		mov	r3, #0
 1706 0042 244C     		ldr	r4, .L84+12
 1707 0044 C7E90034 		strd	r3, [r7]
 1708              	.L73:
 341:main.c        ****     }
 342:main.c        ****     
 343:main.c        ****     if (duty_cycle < 0) {
 1709              		.loc 1 343 0
 1710 0048 4FF00002 		mov	r2, #0
 1711 004c 4FF00003 		mov	r3, #0
 1712 0050 D7E90001 		ldrd	r0, [r7]
 1713 0054 FFF7FEFF 		bl	__aeabi_dcmplt
 1714 0058 0346     		mov	r3, r0
 1715 005a 002B     		cmp	r3, #0
 1716 005c 1BD0     		beq	.L82
 344:main.c        ****         duty_cycle = -duty_cycle;
 1717              		.loc 1 344 0
 1718 005e 3B68     		ldr	r3, [r7]
 1719 0060 3B60     		str	r3, [r7]
 1720 0062 7B68     		ldr	r3, [r7, #4]
 1721 0064 83F00043 		eor	r3, r3, #-2147483648
 1722 0068 7B60     		str	r3, [r7, #4]
 345:main.c        ****         PWM_Motor_R_WriteCompare1(0);
 1723              		.loc 1 345 0
 1724 006a 0020     		movs	r0, #0
 1725 006c FFF7FEFF 		bl	PWM_Motor_R_WriteCompare1
 346:main.c        ****         PWM_Motor_R_WriteCompare2(duty_cycle*5000);
 1726              		.loc 1 346 0
 1727 0070 15A3     		adr	r3, .L84
 1728 0072 D3E90023 		ldrd	r2, [r3]
 1729 0076 D7E90001 		ldrd	r0, [r7]
 1730 007a FFF7FEFF 		bl	__aeabi_dmul
 1731 007e 0346     		mov	r3, r0
 1732 0080 0C46     		mov	r4, r1
 1733 0082 1846     		mov	r0, r3
 1734 0084 2146     		mov	r1, r4
 1735 0086 FFF7FEFF 		bl	__aeabi_d2uiz
 1736 008a 0346     		mov	r3, r0
 1737 008c 9BB2     		uxth	r3, r3
ARM GAS  C:\Users\jmspi\AppData\Local\Temp\ccpe3dht.s 			page 38


 1738 008e 1846     		mov	r0, r3
 1739 0090 FFF7FEFF 		bl	PWM_Motor_R_WriteCompare2
 347:main.c        ****     } else {
 348:main.c        ****         PWM_Motor_R_WriteCompare1(duty_cycle*5000);
 349:main.c        ****         PWM_Motor_R_WriteCompare2(0);
 350:main.c        ****     }
 351:main.c        **** }
 1740              		.loc 1 351 0
 1741 0094 14E0     		b	.L83
 1742              	.L82:
 348:main.c        ****         PWM_Motor_R_WriteCompare2(0);
 1743              		.loc 1 348 0
 1744 0096 0CA3     		adr	r3, .L84
 1745 0098 D3E90023 		ldrd	r2, [r3]
 1746 009c D7E90001 		ldrd	r0, [r7]
 1747 00a0 FFF7FEFF 		bl	__aeabi_dmul
 1748 00a4 0346     		mov	r3, r0
 1749 00a6 0C46     		mov	r4, r1
 1750 00a8 1846     		mov	r0, r3
 1751 00aa 2146     		mov	r1, r4
 1752 00ac FFF7FEFF 		bl	__aeabi_d2uiz
 1753 00b0 0346     		mov	r3, r0
 1754 00b2 9BB2     		uxth	r3, r3
 1755 00b4 1846     		mov	r0, r3
 1756 00b6 FFF7FEFF 		bl	PWM_Motor_R_WriteCompare1
 349:main.c        ****     }
 1757              		.loc 1 349 0
 1758 00ba 0020     		movs	r0, #0
 1759 00bc FFF7FEFF 		bl	PWM_Motor_R_WriteCompare2
 1760              	.L83:
 1761              		.loc 1 351 0
 1762 00c0 00BF     		nop
 1763 00c2 0C37     		adds	r7, r7, #12
 1764              		.cfi_def_cfa_offset 12
 1765 00c4 BD46     		mov	sp, r7
 1766              		.cfi_def_cfa_register 13
 1767              		@ sp needed
 1768 00c6 90BD     		pop	{r4, r7, pc}
 1769              	.L85:
 1770              		.align	3
 1771              	.L84:
 1772 00c8 00000000 		.word	0
 1773 00cc 0088B340 		.word	1085507584
 1774 00d0 0000F0BF 		.word	-1074790400
 1775 00d4 0000F03F 		.word	1072693248
 1776              		.cfi_endproc
 1777              	.LFE70:
 1778              		.size	Drive_Right_Motor, .-Drive_Right_Motor
 1779              		.section	.text.angle_modulo,"ax",%progbits
 1780              		.align	2
 1781              		.global	angle_modulo
 1782              		.thumb
 1783              		.thumb_func
 1784              		.type	angle_modulo, %function
 1785              	angle_modulo:
 1786              	.LFB71:
 352:main.c        **** 
ARM GAS  C:\Users\jmspi\AppData\Local\Temp\ccpe3dht.s 			page 39


 353:main.c        **** long double angle_modulo(long double angle) {
 1787              		.loc 1 353 0
 1788              		.cfi_startproc
 1789              		@ args = 0, pretend = 0, frame = 8
 1790              		@ frame_needed = 1, uses_anonymous_args = 0
 1791 0000 90B5     		push	{r4, r7, lr}
 1792              		.cfi_def_cfa_offset 12
 1793              		.cfi_offset 4, -12
 1794              		.cfi_offset 7, -8
 1795              		.cfi_offset 14, -4
 1796 0002 83B0     		sub	sp, sp, #12
 1797              		.cfi_def_cfa_offset 24
 1798 0004 00AF     		add	r7, sp, #0
 1799              		.cfi_def_cfa_register 7
 1800 0006 C7E90001 		strd	r0, [r7]
 354:main.c        ****     return angle - M_TWOPI * floor(angle / M_TWOPI);  
 1801              		.loc 1 354 0
 1802 000a 11A3     		adr	r3, .L88
 1803 000c D3E90023 		ldrd	r2, [r3]
 1804 0010 D7E90001 		ldrd	r0, [r7]
 1805 0014 FFF7FEFF 		bl	__aeabi_ddiv
 1806 0018 0346     		mov	r3, r0
 1807 001a 0C46     		mov	r4, r1
 1808 001c 1846     		mov	r0, r3
 1809 001e 2146     		mov	r1, r4
 1810 0020 FFF7FEFF 		bl	floor
 1811 0024 0AA3     		adr	r3, .L88
 1812 0026 D3E90023 		ldrd	r2, [r3]
 1813 002a FFF7FEFF 		bl	__aeabi_dmul
 1814 002e 0346     		mov	r3, r0
 1815 0030 0C46     		mov	r4, r1
 1816 0032 1A46     		mov	r2, r3
 1817 0034 2346     		mov	r3, r4
 1818 0036 D7E90001 		ldrd	r0, [r7]
 1819 003a FFF7FEFF 		bl	__aeabi_dsub
 1820 003e 0346     		mov	r3, r0
 1821 0040 0C46     		mov	r4, r1
 355:main.c        **** }
 1822              		.loc 1 355 0
 1823 0042 1846     		mov	r0, r3
 1824 0044 2146     		mov	r1, r4
 1825 0046 0C37     		adds	r7, r7, #12
 1826              		.cfi_def_cfa_offset 12
 1827 0048 BD46     		mov	sp, r7
 1828              		.cfi_def_cfa_register 13
 1829              		@ sp needed
 1830 004a 90BD     		pop	{r4, r7, pc}
 1831              	.L89:
 1832 004c AFF30080 		.align	3
 1833              	.L88:
 1834 0050 182D4454 		.word	1413754136
 1835 0054 FB211940 		.word	1075388923
 1836              		.cfi_endproc
 1837              	.LFE71:
 1838              		.size	angle_modulo, .-angle_modulo
 1839              		.text
 1840              	.Letext0:
ARM GAS  C:\Users\jmspi\AppData\Local\Temp\ccpe3dht.s 			page 40


 1841              		.file 2 "c:\\program files (x86)\\cypress\\psoc creator\\4.4\\psoc creator\\import\\gnu\\arm\\5.4.
 1842              		.file 3 "c:\\program files (x86)\\cypress\\psoc creator\\4.4\\psoc creator\\import\\gnu\\arm\\5.4.
 1843              		.file 4 "Generated_Source\\PSoC5/cytypes.h"
 1844              		.file 5 "c:\\program files (x86)\\cypress\\psoc creator\\4.4\\psoc creator\\import\\gnu\\arm\\5.4.
 1845              		.file 6 ".\\VFH\\include/histogram_grid.h"
 1846              		.file 7 ".\\VFH\\include/polar_histogram.h"
 1847              		.file 8 ".\\VFH\\include/vfh.h"
 1848              		.file 9 "Generated_Source\\PSoC5/core_cm3.h"
 1849              		.section	.debug_info,"",%progbits
 1850              	.Ldebug_info0:
 1851 0000 8E060000 		.4byte	0x68e
 1852 0004 0400     		.2byte	0x4
 1853 0006 00000000 		.4byte	.Ldebug_abbrev0
 1854 000a 04       		.byte	0x4
 1855 000b 01       		.uleb128 0x1
 1856 000c 9C000000 		.4byte	.LASF84
 1857 0010 0C       		.byte	0xc
 1858 0011 C4030000 		.4byte	.LASF85
 1859 0015 F7010000 		.4byte	.LASF86
 1860 0019 00000000 		.4byte	.Ldebug_ranges0+0
 1861 001d 00000000 		.4byte	0
 1862 0021 00000000 		.4byte	.Ldebug_line0
 1863 0025 02       		.uleb128 0x2
 1864 0026 01       		.byte	0x1
 1865 0027 06       		.byte	0x6
 1866 0028 B6020000 		.4byte	.LASF0
 1867 002c 03       		.uleb128 0x3
 1868 002d 71020000 		.4byte	.LASF3
 1869 0031 02       		.byte	0x2
 1870 0032 1D       		.byte	0x1d
 1871 0033 37000000 		.4byte	0x37
 1872 0037 02       		.uleb128 0x2
 1873 0038 01       		.byte	0x1
 1874 0039 08       		.byte	0x8
 1875 003a 8D020000 		.4byte	.LASF1
 1876 003e 02       		.uleb128 0x2
 1877 003f 02       		.byte	0x2
 1878 0040 05       		.byte	0x5
 1879 0041 58000000 		.4byte	.LASF2
 1880 0045 03       		.uleb128 0x3
 1881 0046 34010000 		.4byte	.LASF4
 1882 004a 02       		.byte	0x2
 1883 004b 2B       		.byte	0x2b
 1884 004c 50000000 		.4byte	0x50
 1885 0050 02       		.uleb128 0x2
 1886 0051 02       		.byte	0x2
 1887 0052 07       		.byte	0x7
 1888 0053 47030000 		.4byte	.LASF5
 1889 0057 03       		.uleb128 0x3
 1890 0058 22040000 		.4byte	.LASF6
 1891 005c 02       		.byte	0x2
 1892 005d 3F       		.byte	0x3f
 1893 005e 62000000 		.4byte	0x62
 1894 0062 02       		.uleb128 0x2
 1895 0063 04       		.byte	0x4
 1896 0064 05       		.byte	0x5
 1897 0065 3C020000 		.4byte	.LASF7
ARM GAS  C:\Users\jmspi\AppData\Local\Temp\ccpe3dht.s 			page 41


 1898 0069 02       		.uleb128 0x2
 1899 006a 04       		.byte	0x4
 1900 006b 07       		.byte	0x7
 1901 006c 05030000 		.4byte	.LASF8
 1902 0070 02       		.uleb128 0x2
 1903 0071 08       		.byte	0x8
 1904 0072 05       		.byte	0x5
 1905 0073 BE010000 		.4byte	.LASF9
 1906 0077 02       		.uleb128 0x2
 1907 0078 08       		.byte	0x8
 1908 0079 07       		.byte	0x7
 1909 007a C8020000 		.4byte	.LASF10
 1910 007e 04       		.uleb128 0x4
 1911 007f 04       		.byte	0x4
 1912 0080 05       		.byte	0x5
 1913 0081 696E7400 		.ascii	"int\000"
 1914 0085 02       		.uleb128 0x2
 1915 0086 04       		.byte	0x4
 1916 0087 07       		.byte	0x7
 1917 0088 EE020000 		.4byte	.LASF11
 1918 008c 03       		.uleb128 0x3
 1919 008d 89010000 		.4byte	.LASF12
 1920 0091 03       		.byte	0x3
 1921 0092 18       		.byte	0x18
 1922 0093 2C000000 		.4byte	0x2c
 1923 0097 03       		.uleb128 0x3
 1924 0098 AC030000 		.4byte	.LASF13
 1925 009c 03       		.byte	0x3
 1926 009d 24       		.byte	0x24
 1927 009e 45000000 		.4byte	0x45
 1928 00a2 03       		.uleb128 0x3
 1929 00a3 69020000 		.4byte	.LASF14
 1930 00a7 03       		.byte	0x3
 1931 00a8 2C       		.byte	0x2c
 1932 00a9 57000000 		.4byte	0x57
 1933 00ad 05       		.uleb128 0x5
 1934 00ae EE030000 		.4byte	.LASF15
 1935 00b2 04       		.byte	0x4
 1936 00b3 ED01     		.2byte	0x1ed
 1937 00b5 62000000 		.4byte	0x62
 1938 00b9 02       		.uleb128 0x2
 1939 00ba 04       		.byte	0x4
 1940 00bb 04       		.byte	0x4
 1941 00bc AD010000 		.4byte	.LASF16
 1942 00c0 02       		.uleb128 0x2
 1943 00c1 08       		.byte	0x8
 1944 00c2 04       		.byte	0x4
 1945 00c3 F4030000 		.4byte	.LASF17
 1946 00c7 02       		.uleb128 0x2
 1947 00c8 01       		.byte	0x1
 1948 00c9 08       		.byte	0x8
 1949 00ca 63030000 		.4byte	.LASF18
 1950 00ce 02       		.uleb128 0x2
 1951 00cf 08       		.byte	0x8
 1952 00d0 04       		.byte	0x4
 1953 00d1 7B020000 		.4byte	.LASF19
 1954 00d5 02       		.uleb128 0x2
ARM GAS  C:\Users\jmspi\AppData\Local\Temp\ccpe3dht.s 			page 42


 1955 00d6 04       		.byte	0x4
 1956 00d7 07       		.byte	0x7
 1957 00d8 75000000 		.4byte	.LASF20
 1958 00dc 03       		.uleb128 0x3
 1959 00dd 9B020000 		.4byte	.LASF21
 1960 00e1 05       		.byte	0x5
 1961 00e2 63       		.byte	0x63
 1962 00e3 69000000 		.4byte	0x69
 1963 00e7 06       		.uleb128 0x6
 1964 00e8 10       		.byte	0x10
 1965 00e9 06       		.byte	0x6
 1966 00ea 18       		.byte	0x18
 1967 00eb 20010000 		.4byte	0x120
 1968 00ef 07       		.uleb128 0x7
 1969 00f0 A7010000 		.4byte	.LASF22
 1970 00f4 06       		.byte	0x6
 1971 00f5 19       		.byte	0x19
 1972 00f6 7E000000 		.4byte	0x7e
 1973 00fa 00       		.byte	0
 1974 00fb 07       		.uleb128 0x7
 1975 00fc E7020000 		.4byte	.LASF23
 1976 0100 06       		.byte	0x6
 1977 0101 1A       		.byte	0x1a
 1978 0102 7E000000 		.4byte	0x7e
 1979 0106 04       		.byte	0x4
 1980 0107 07       		.uleb128 0x7
 1981 0108 7B030000 		.4byte	.LASF24
 1982 010c 06       		.byte	0x6
 1983 010d 1B       		.byte	0x1b
 1984 010e 7E000000 		.4byte	0x7e
 1985 0112 08       		.byte	0x8
 1986 0113 07       		.uleb128 0x7
 1987 0114 CC010000 		.4byte	.LASF25
 1988 0118 06       		.byte	0x6
 1989 0119 1C       		.byte	0x1c
 1990 011a 20010000 		.4byte	0x120
 1991 011e 0C       		.byte	0xc
 1992 011f 00       		.byte	0
 1993 0120 08       		.uleb128 0x8
 1994 0121 04       		.byte	0x4
 1995 0122 69000000 		.4byte	0x69
 1996 0126 03       		.uleb128 0x3
 1997 0127 33030000 		.4byte	.LASF26
 1998 012b 06       		.byte	0x6
 1999 012c 1D       		.byte	0x1d
 2000 012d E7000000 		.4byte	0xe7
 2001 0131 06       		.uleb128 0x6
 2002 0132 40       		.byte	0x40
 2003 0133 06       		.byte	0x6
 2004 0134 24       		.byte	0x24
 2005 0135 52010000 		.4byte	0x152
 2006 0139 07       		.uleb128 0x7
 2007 013a 2A010000 		.4byte	.LASF27
 2008 013e 06       		.byte	0x6
 2009 013f 25       		.byte	0x25
 2010 0140 52010000 		.4byte	0x152
 2011 0144 00       		.byte	0
ARM GAS  C:\Users\jmspi\AppData\Local\Temp\ccpe3dht.s 			page 43


 2012 0145 07       		.uleb128 0x7
 2013 0146 5A030000 		.4byte	.LASF28
 2014 014a 06       		.byte	0x6
 2015 014b 26       		.byte	0x26
 2016 014c 62010000 		.4byte	0x162
 2017 0150 20       		.byte	0x20
 2018 0151 00       		.byte	0
 2019 0152 09       		.uleb128 0x9
 2020 0153 7E000000 		.4byte	0x7e
 2021 0157 62010000 		.4byte	0x162
 2022 015b 0A       		.uleb128 0xa
 2023 015c D5000000 		.4byte	0xd5
 2024 0160 07       		.byte	0x7
 2025 0161 00       		.byte	0
 2026 0162 09       		.uleb128 0x9
 2027 0163 69000000 		.4byte	0x69
 2028 0167 72010000 		.4byte	0x172
 2029 016b 0A       		.uleb128 0xa
 2030 016c D5000000 		.4byte	0xd5
 2031 0170 07       		.byte	0x7
 2032 0171 00       		.byte	0
 2033 0172 03       		.uleb128 0x3
 2034 0173 45020000 		.4byte	.LASF29
 2035 0177 06       		.byte	0x6
 2036 0178 27       		.byte	0x27
 2037 0179 31010000 		.4byte	0x131
 2038 017d 06       		.uleb128 0x6
 2039 017e 30       		.byte	0x30
 2040 017f 07       		.byte	0x7
 2041 0180 0C       		.byte	0xc
 2042 0181 DA010000 		.4byte	0x1da
 2043 0185 07       		.uleb128 0x7
 2044 0186 60040000 		.4byte	.LASF30
 2045 018a 07       		.byte	0x7
 2046 018b 0D       		.byte	0xd
 2047 018c 7E000000 		.4byte	0x7e
 2048 0190 00       		.byte	0
 2049 0191 07       		.uleb128 0x7
 2050 0192 DF020000 		.4byte	.LASF31
 2051 0196 07       		.byte	0x7
 2052 0197 0E       		.byte	0xe
 2053 0198 7E000000 		.4byte	0x7e
 2054 019c 04       		.byte	0x4
 2055 019d 07       		.uleb128 0x7
 2056 019e 4E000000 		.4byte	.LASF32
 2057 01a2 07       		.byte	0x7
 2058 01a3 0F       		.byte	0xf
 2059 01a4 C0000000 		.4byte	0xc0
 2060 01a8 08       		.byte	0x8
 2061 01a9 07       		.uleb128 0x7
 2062 01aa 3D000000 		.4byte	.LASF33
 2063 01ae 07       		.byte	0x7
 2064 01af 10       		.byte	0x10
 2065 01b0 C0000000 		.4byte	0xc0
 2066 01b4 10       		.byte	0x10
 2067 01b5 07       		.uleb128 0x7
 2068 01b6 7D040000 		.4byte	.LASF34
ARM GAS  C:\Users\jmspi\AppData\Local\Temp\ccpe3dht.s 			page 44


 2069 01ba 07       		.byte	0x7
 2070 01bb 11       		.byte	0x11
 2071 01bc C0000000 		.4byte	0xc0
 2072 01c0 18       		.byte	0x18
 2073 01c1 07       		.uleb128 0x7
 2074 01c2 87040000 		.4byte	.LASF35
 2075 01c6 07       		.byte	0x7
 2076 01c7 12       		.byte	0x12
 2077 01c8 C0000000 		.4byte	0xc0
 2078 01cc 20       		.byte	0x20
 2079 01cd 07       		.uleb128 0x7
 2080 01ce A2030000 		.4byte	.LASF36
 2081 01d2 07       		.byte	0x7
 2082 01d3 13       		.byte	0x13
 2083 01d4 DA010000 		.4byte	0x1da
 2084 01d8 28       		.byte	0x28
 2085 01d9 00       		.byte	0
 2086 01da 08       		.uleb128 0x8
 2087 01db 04       		.byte	0x4
 2088 01dc C0000000 		.4byte	0xc0
 2089 01e0 03       		.uleb128 0x3
 2090 01e1 0D040000 		.4byte	.LASF37
 2091 01e5 07       		.byte	0x7
 2092 01e6 14       		.byte	0x14
 2093 01e7 7D010000 		.4byte	0x17d
 2094 01eb 06       		.uleb128 0x6
 2095 01ec 04       		.byte	0x4
 2096 01ed 08       		.byte	0x8
 2097 01ee 1B       		.byte	0x1b
 2098 01ef 00020000 		.4byte	0x200
 2099 01f3 07       		.uleb128 0x7
 2100 01f4 2A010000 		.4byte	.LASF27
 2101 01f8 08       		.byte	0x8
 2102 01f9 1C       		.byte	0x1c
 2103 01fa 7E000000 		.4byte	0x7e
 2104 01fe 00       		.byte	0
 2105 01ff 00       		.byte	0
 2106 0200 03       		.uleb128 0x3
 2107 0201 12000000 		.4byte	.LASF38
 2108 0205 08       		.byte	0x8
 2109 0206 1D       		.byte	0x1d
 2110 0207 EB010000 		.4byte	0x1eb
 2111 020b 0B       		.uleb128 0xb
 2112 020c 87020000 		.4byte	.LASF45
 2113 0210 48       		.byte	0x48
 2114 0211 01       		.byte	0x1
 2115 0212 15       		.byte	0x15
 2116 0213 80020000 		.4byte	0x280
 2117 0217 07       		.uleb128 0x7
 2118 0218 17040000 		.4byte	.LASF39
 2119 021c 01       		.byte	0x1
 2120 021d 16       		.byte	0x16
 2121 021e CE000000 		.4byte	0xce
 2122 0222 00       		.byte	0
 2123 0223 07       		.uleb128 0x7
 2124 0224 2C040000 		.4byte	.LASF40
 2125 0228 01       		.byte	0x1
ARM GAS  C:\Users\jmspi\AppData\Local\Temp\ccpe3dht.s 			page 45


 2126 0229 17       		.byte	0x17
 2127 022a CE000000 		.4byte	0xce
 2128 022e 08       		.byte	0x8
 2129 022f 0C       		.uleb128 0xc
 2130 0230 7700     		.ascii	"w\000"
 2131 0232 01       		.byte	0x1
 2132 0233 18       		.byte	0x18
 2133 0234 CE000000 		.4byte	0xce
 2134 0238 10       		.byte	0x10
 2135 0239 07       		.uleb128 0x7
 2136 023a 66040000 		.4byte	.LASF41
 2137 023e 01       		.byte	0x1
 2138 023f 19       		.byte	0x19
 2139 0240 CE000000 		.4byte	0xce
 2140 0244 18       		.byte	0x18
 2141 0245 07       		.uleb128 0x7
 2142 0246 AC020000 		.4byte	.LASF42
 2143 024a 01       		.byte	0x1
 2144 024b 1A       		.byte	0x1a
 2145 024c CE000000 		.4byte	0xce
 2146 0250 20       		.byte	0x20
 2147 0251 0C       		.uleb128 0xc
 2148 0252 4B6900   		.ascii	"Ki\000"
 2149 0255 01       		.byte	0x1
 2150 0256 1B       		.byte	0x1b
 2151 0257 CE000000 		.4byte	0xce
 2152 025b 28       		.byte	0x28
 2153 025c 0C       		.uleb128 0xc
 2154 025d 4B7000   		.ascii	"Kp\000"
 2155 0260 01       		.byte	0x1
 2156 0261 1C       		.byte	0x1c
 2157 0262 CE000000 		.4byte	0xce
 2158 0266 30       		.byte	0x30
 2159 0267 07       		.uleb128 0x7
 2160 0268 EA010000 		.4byte	.LASF43
 2161 026c 01       		.byte	0x1
 2162 026d 1D       		.byte	0x1d
 2163 026e CE000000 		.4byte	0xce
 2164 0272 38       		.byte	0x38
 2165 0273 07       		.uleb128 0x7
 2166 0274 50040000 		.4byte	.LASF44
 2167 0278 01       		.byte	0x1
 2168 0279 1E       		.byte	0x1e
 2169 027a AD000000 		.4byte	0xad
 2170 027e 40       		.byte	0x40
 2171 027f 00       		.byte	0
 2172 0280 0B       		.uleb128 0xb
 2173 0281 96000000 		.4byte	.LASF46
 2174 0285 70       		.byte	0x70
 2175 0286 01       		.byte	0x1
 2176 0287 21       		.byte	0x21
 2177 0288 2B030000 		.4byte	0x32b
 2178 028c 07       		.uleb128 0x7
 2179 028d 36040000 		.4byte	.LASF47
 2180 0291 01       		.byte	0x1
 2181 0292 22       		.byte	0x22
 2182 0293 CE000000 		.4byte	0xce
ARM GAS  C:\Users\jmspi\AppData\Local\Temp\ccpe3dht.s 			page 46


 2183 0297 00       		.byte	0
 2184 0298 0C       		.uleb128 0xc
 2185 0299 7800     		.ascii	"x\000"
 2186 029b 01       		.byte	0x1
 2187 029c 23       		.byte	0x23
 2188 029d CE000000 		.4byte	0xce
 2189 02a1 08       		.byte	0x8
 2190 02a2 0C       		.uleb128 0xc
 2191 02a3 7900     		.ascii	"y\000"
 2192 02a5 01       		.byte	0x1
 2193 02a6 24       		.byte	0x24
 2194 02a7 CE000000 		.4byte	0xce
 2195 02ab 10       		.byte	0x10
 2196 02ac 07       		.uleb128 0x7
 2197 02ad 00000000 		.4byte	.LASF48
 2198 02b1 01       		.byte	0x1
 2199 02b2 25       		.byte	0x25
 2200 02b3 CE000000 		.4byte	0xce
 2201 02b7 18       		.byte	0x18
 2202 02b8 0C       		.uleb128 0xc
 2203 02b9 5600     		.ascii	"V\000"
 2204 02bb 01       		.byte	0x1
 2205 02bc 27       		.byte	0x27
 2206 02bd CE000000 		.4byte	0xce
 2207 02c1 20       		.byte	0x20
 2208 02c2 0C       		.uleb128 0xc
 2209 02c3 7700     		.ascii	"w\000"
 2210 02c5 01       		.byte	0x1
 2211 02c6 28       		.byte	0x28
 2212 02c7 CE000000 		.4byte	0xce
 2213 02cb 28       		.byte	0x28
 2214 02cc 07       		.uleb128 0x7
 2215 02cd 51020000 		.4byte	.LASF49
 2216 02d1 01       		.byte	0x1
 2217 02d2 2A       		.byte	0x2a
 2218 02d3 CE000000 		.4byte	0xce
 2219 02d7 30       		.byte	0x30
 2220 02d8 07       		.uleb128 0x7
 2221 02d9 2A000000 		.4byte	.LASF50
 2222 02dd 01       		.byte	0x1
 2223 02de 2B       		.byte	0x2b
 2224 02df CE000000 		.4byte	0xce
 2225 02e3 38       		.byte	0x38
 2226 02e4 0C       		.uleb128 0xc
 2227 02e5 4B6900   		.ascii	"Ki\000"
 2228 02e8 01       		.byte	0x1
 2229 02e9 2D       		.byte	0x2d
 2230 02ea CE000000 		.4byte	0xce
 2231 02ee 40       		.byte	0x40
 2232 02ef 0C       		.uleb128 0xc
 2233 02f0 4B7000   		.ascii	"Kp\000"
 2234 02f3 01       		.byte	0x1
 2235 02f4 2E       		.byte	0x2e
 2236 02f5 CE000000 		.4byte	0xce
 2237 02f9 48       		.byte	0x48
 2238 02fa 07       		.uleb128 0x7
 2239 02fb 2C040000 		.4byte	.LASF40
ARM GAS  C:\Users\jmspi\AppData\Local\Temp\ccpe3dht.s 			page 47


 2240 02ff 01       		.byte	0x1
 2241 0300 2F       		.byte	0x2f
 2242 0301 CE000000 		.4byte	0xce
 2243 0305 50       		.byte	0x50
 2244 0306 07       		.uleb128 0x7
 2245 0307 A0010000 		.4byte	.LASF51
 2246 030b 01       		.byte	0x1
 2247 030c 31       		.byte	0x31
 2248 030d CE000000 		.4byte	0xce
 2249 0311 58       		.byte	0x58
 2250 0312 07       		.uleb128 0x7
 2251 0313 0B000000 		.4byte	.LASF52
 2252 0317 01       		.byte	0x1
 2253 0318 32       		.byte	0x32
 2254 0319 CE000000 		.4byte	0xce
 2255 031d 60       		.byte	0x60
 2256 031e 07       		.uleb128 0x7
 2257 031f 3C040000 		.4byte	.LASF53
 2258 0323 01       		.byte	0x1
 2259 0324 33       		.byte	0x33
 2260 0325 CE000000 		.4byte	0xce
 2261 0329 68       		.byte	0x68
 2262 032a 00       		.byte	0
 2263 032b 0D       		.uleb128 0xd
 2264 032c FB030000 		.4byte	.LASF87
 2265 0330 01       		.byte	0x1
 2266 0331 4A       		.byte	0x4a
 2267 0332 00000000 		.4byte	.LFB64
 2268 0336 18000000 		.4byte	.LFE64-.LFB64
 2269 033a 01       		.uleb128 0x1
 2270 033b 9C       		.byte	0x9c
 2271 033c 0E       		.uleb128 0xe
 2272 033d D2010000 		.4byte	.LASF57
 2273 0341 01       		.byte	0x1
 2274 0342 4E       		.byte	0x4e
 2275 0343 00000000 		.4byte	.LFB65
 2276 0347 60040000 		.4byte	.LFE65-.LFB65
 2277 034b 01       		.uleb128 0x1
 2278 034c 9C       		.byte	0x9c
 2279 034d 8A030000 		.4byte	0x38a
 2280 0351 0F       		.uleb128 0xf
 2281 0352 6E657700 		.ascii	"new\000"
 2282 0356 01       		.byte	0x1
 2283 0357 4F       		.byte	0x4f
 2284 0358 AD000000 		.4byte	0xad
 2285 035c 02       		.uleb128 0x2
 2286 035d 91       		.byte	0x91
 2287 035e 4C       		.sleb128 -52
 2288 035f 10       		.uleb128 0x10
 2289 0360 38000000 		.4byte	.LASF54
 2290 0364 01       		.byte	0x1
 2291 0365 50       		.byte	0x50
 2292 0366 AD000000 		.4byte	0xad
 2293 036a 02       		.uleb128 0x2
 2294 036b 91       		.byte	0x91
 2295 036c 48       		.sleb128 -56
 2296 036d 10       		.uleb128 0x10
ARM GAS  C:\Users\jmspi\AppData\Local\Temp\ccpe3dht.s 			page 48


 2297 036e 5A040000 		.4byte	.LASF55
 2298 0372 01       		.byte	0x1
 2299 0373 6A       		.byte	0x6a
 2300 0374 CE000000 		.4byte	0xce
 2301 0378 02       		.uleb128 0x2
 2302 0379 91       		.byte	0x91
 2303 037a 50       		.sleb128 -48
 2304 037b 10       		.uleb128 0x10
 2305 037c FB020000 		.4byte	.LASF56
 2306 0380 01       		.byte	0x1
 2307 0381 75       		.byte	0x75
 2308 0382 CE000000 		.4byte	0xce
 2309 0386 02       		.uleb128 0x2
 2310 0387 91       		.byte	0x91
 2311 0388 40       		.sleb128 -64
 2312 0389 00       		.byte	0
 2313 038a 0E       		.uleb128 0xe
 2314 038b 3F010000 		.4byte	.LASF58
 2315 038f 01       		.byte	0x1
 2316 0390 7B       		.byte	0x7b
 2317 0391 00000000 		.4byte	.LFB66
 2318 0395 54010000 		.4byte	.LFE66-.LFB66
 2319 0399 01       		.uleb128 0x1
 2320 039a 9C       		.byte	0x9c
 2321 039b AE030000 		.4byte	0x3ae
 2322 039f 10       		.uleb128 0x10
 2323 03a0 5A040000 		.4byte	.LASF55
 2324 03a4 01       		.byte	0x1
 2325 03a5 7C       		.byte	0x7c
 2326 03a6 CE000000 		.4byte	0xce
 2327 03aa 02       		.uleb128 0x2
 2328 03ab 91       		.byte	0x91
 2329 03ac 60       		.sleb128 -32
 2330 03ad 00       		.byte	0
 2331 03ae 0E       		.uleb128 0xe
 2332 03af 86030000 		.4byte	.LASF59
 2333 03b3 01       		.byte	0x1
 2334 03b4 87       		.byte	0x87
 2335 03b5 00000000 		.4byte	.LFB67
 2336 03b9 74000000 		.4byte	.LFE67-.LFB67
 2337 03bd 01       		.uleb128 0x1
 2338 03be 9C       		.byte	0x9c
 2339 03bf D2030000 		.4byte	0x3d2
 2340 03c3 10       		.uleb128 0x10
 2341 03c4 4A040000 		.4byte	.LASF60
 2342 03c8 01       		.byte	0x1
 2343 03c9 88       		.byte	0x88
 2344 03ca CE000000 		.4byte	0xce
 2345 03ce 02       		.uleb128 0x2
 2346 03cf 91       		.byte	0x91
 2347 03d0 68       		.sleb128 -24
 2348 03d1 00       		.byte	0
 2349 03d2 11       		.uleb128 0x11
 2350 03d3 76030000 		.4byte	.LASF69
 2351 03d7 01       		.byte	0x1
 2352 03d8 93       		.byte	0x93
 2353 03d9 7E000000 		.4byte	0x7e
ARM GAS  C:\Users\jmspi\AppData\Local\Temp\ccpe3dht.s 			page 49


 2354 03dd 00000000 		.4byte	.LFB68
 2355 03e1 AC050000 		.4byte	.LFE68-.LFB68
 2356 03e5 01       		.uleb128 0x1
 2357 03e6 9C       		.byte	0x9c
 2358 03e7 1D050000 		.4byte	0x51d
 2359 03eb 10       		.uleb128 0x10
 2360 03ec 91040000 		.4byte	.LASF61
 2361 03f0 01       		.byte	0x1
 2362 03f1 95       		.byte	0x95
 2363 03f2 CE000000 		.4byte	0xce
 2364 03f6 02       		.uleb128 0x2
 2365 03f7 91       		.byte	0x91
 2366 03f8 48       		.sleb128 -56
 2367 03f9 10       		.uleb128 0x10
 2368 03fa B5030000 		.4byte	.LASF62
 2369 03fe 01       		.byte	0x1
 2370 03ff C5       		.byte	0xc5
 2371 0400 1D050000 		.4byte	0x51d
 2372 0404 02       		.uleb128 0x2
 2373 0405 91       		.byte	0x91
 2374 0406 44       		.sleb128 -60
 2375 0407 10       		.uleb128 0x10
 2376 0408 8E000000 		.4byte	.LASF63
 2377 040c 01       		.byte	0x1
 2378 040d C6       		.byte	0xc6
 2379 040e 72010000 		.4byte	0x172
 2380 0412 03       		.uleb128 0x3
 2381 0413 91       		.byte	0x91
 2382 0414 F07E     		.sleb128 -144
 2383 0416 10       		.uleb128 0x10
 2384 0417 7E000000 		.4byte	.LASF64
 2385 041b 01       		.byte	0x1
 2386 041c C7       		.byte	0xc7
 2387 041d 23050000 		.4byte	0x523
 2388 0421 02       		.uleb128 0x2
 2389 0422 91       		.byte	0x91
 2390 0423 40       		.sleb128 -64
 2391 0424 10       		.uleb128 0x10
 2392 0425 38030000 		.4byte	.LASF65
 2393 0429 01       		.byte	0x1
 2394 042a C8       		.byte	0xc8
 2395 042b 00020000 		.4byte	0x200
 2396 042f 03       		.uleb128 0x3
 2397 0430 91       		.byte	0x91
 2398 0431 EC7E     		.sleb128 -148
 2399 0433 12       		.uleb128 0x12
 2400 0434 E0010000 		.4byte	.LBB2
 2401 0438 34020000 		.4byte	.LBE2-.LBB2
 2402 043c 7D040000 		.4byte	0x47d
 2403 0440 0F       		.uleb128 0xf
 2404 0441 6900     		.ascii	"i\000"
 2405 0443 01       		.byte	0x1
 2406 0444 D6       		.byte	0xd6
 2407 0445 7E000000 		.4byte	0x7e
 2408 0449 02       		.uleb128 0x2
 2409 044a 91       		.byte	0x91
 2410 044b 6C       		.sleb128 -20
ARM GAS  C:\Users\jmspi\AppData\Local\Temp\ccpe3dht.s 			page 50


 2411 044c 12       		.uleb128 0x12
 2412 044d E8010000 		.4byte	.LBB3
 2413 0451 CC000000 		.4byte	.LBE3-.LBB3
 2414 0455 66040000 		.4byte	0x466
 2415 0459 0F       		.uleb128 0xf
 2416 045a 6A00     		.ascii	"j\000"
 2417 045c 01       		.byte	0x1
 2418 045d D7       		.byte	0xd7
 2419 045e 7E000000 		.4byte	0x7e
 2420 0462 02       		.uleb128 0x2
 2421 0463 91       		.byte	0x91
 2422 0464 68       		.sleb128 -24
 2423 0465 00       		.byte	0
 2424 0466 13       		.uleb128 0x13
 2425 0467 B4020000 		.4byte	.LBB4
 2426 046b 24010000 		.4byte	.LBE4-.LBB4
 2427 046f 0F       		.uleb128 0xf
 2428 0470 6A00     		.ascii	"j\000"
 2429 0472 01       		.byte	0x1
 2430 0473 DB       		.byte	0xdb
 2431 0474 7E000000 		.4byte	0x7e
 2432 0478 02       		.uleb128 0x2
 2433 0479 91       		.byte	0x91
 2434 047a 64       		.sleb128 -28
 2435 047b 00       		.byte	0
 2436 047c 00       		.byte	0
 2437 047d 13       		.uleb128 0x13
 2438 047e 14040000 		.4byte	.LBB5
 2439 0482 56010000 		.4byte	.LBE5-.LBB5
 2440 0486 10       		.uleb128 0x10
 2441 0487 23000000 		.4byte	.LASF66
 2442 048b 01       		.byte	0x1
 2443 048c EE       		.byte	0xee
 2444 048d 1D050000 		.4byte	0x51d
 2445 0491 03       		.uleb128 0x3
 2446 0492 91       		.byte	0x91
 2447 0493 BC7F     		.sleb128 -68
 2448 0495 14       		.uleb128 0x14
 2449 0496 64697200 		.ascii	"dir\000"
 2450 049a 01       		.byte	0x1
 2451 049b 0501     		.2byte	0x105
 2452 049d C0000000 		.4byte	0xc0
 2453 04a1 03       		.uleb128 0x3
 2454 04a2 91       		.byte	0x91
 2455 04a3 B07F     		.sleb128 -80
 2456 04a5 12       		.uleb128 0x12
 2457 04a6 14040000 		.4byte	.LBB6
 2458 04aa 5A000000 		.4byte	.LBE6-.LBB6
 2459 04ae D5040000 		.4byte	0x4d5
 2460 04b2 0F       		.uleb128 0xf
 2461 04b3 7900     		.ascii	"y\000"
 2462 04b5 01       		.byte	0x1
 2463 04b6 E4       		.byte	0xe4
 2464 04b7 7E000000 		.4byte	0x7e
 2465 04bb 02       		.uleb128 0x2
 2466 04bc 91       		.byte	0x91
 2467 04bd 60       		.sleb128 -32
ARM GAS  C:\Users\jmspi\AppData\Local\Temp\ccpe3dht.s 			page 51


 2468 04be 13       		.uleb128 0x13
 2469 04bf 1E040000 		.4byte	.LBB7
 2470 04c3 3E000000 		.4byte	.LBE7-.LBB7
 2471 04c7 0F       		.uleb128 0xf
 2472 04c8 7800     		.ascii	"x\000"
 2473 04ca 01       		.byte	0x1
 2474 04cb E5       		.byte	0xe5
 2475 04cc 7E000000 		.4byte	0x7e
 2476 04d0 02       		.uleb128 0x2
 2477 04d1 91       		.byte	0x91
 2478 04d2 5C       		.sleb128 -36
 2479 04d3 00       		.byte	0
 2480 04d4 00       		.byte	0
 2481 04d5 12       		.uleb128 0x12
 2482 04d6 82040000 		.4byte	.LBB8
 2483 04da 5A000000 		.4byte	.LBE8-.LBB8
 2484 04de 05050000 		.4byte	0x505
 2485 04e2 0F       		.uleb128 0xf
 2486 04e3 7900     		.ascii	"y\000"
 2487 04e5 01       		.byte	0x1
 2488 04e6 F1       		.byte	0xf1
 2489 04e7 7E000000 		.4byte	0x7e
 2490 04eb 02       		.uleb128 0x2
 2491 04ec 91       		.byte	0x91
 2492 04ed 58       		.sleb128 -40
 2493 04ee 13       		.uleb128 0x13
 2494 04ef 8C040000 		.4byte	.LBB9
 2495 04f3 3E000000 		.4byte	.LBE9-.LBB9
 2496 04f7 0F       		.uleb128 0xf
 2497 04f8 7800     		.ascii	"x\000"
 2498 04fa 01       		.byte	0x1
 2499 04fb F2       		.byte	0xf2
 2500 04fc 7E000000 		.4byte	0x7e
 2501 0500 02       		.uleb128 0x2
 2502 0501 91       		.byte	0x91
 2503 0502 54       		.sleb128 -44
 2504 0503 00       		.byte	0
 2505 0504 00       		.byte	0
 2506 0505 13       		.uleb128 0x13
 2507 0506 EA040000 		.4byte	.LBB10
 2508 050a 34000000 		.4byte	.LBE10-.LBB10
 2509 050e 0F       		.uleb128 0xf
 2510 050f 6900     		.ascii	"i\000"
 2511 0511 01       		.byte	0x1
 2512 0512 FE       		.byte	0xfe
 2513 0513 7E000000 		.4byte	0x7e
 2514 0517 02       		.uleb128 0x2
 2515 0518 91       		.byte	0x91
 2516 0519 50       		.sleb128 -48
 2517 051a 00       		.byte	0
 2518 051b 00       		.byte	0
 2519 051c 00       		.byte	0
 2520 051d 08       		.uleb128 0x8
 2521 051e 04       		.byte	0x4
 2522 051f 26010000 		.4byte	0x126
 2523 0523 08       		.uleb128 0x8
 2524 0524 04       		.byte	0x4
ARM GAS  C:\Users\jmspi\AppData\Local\Temp\ccpe3dht.s 			page 52


 2525 0525 E0010000 		.4byte	0x1e0
 2526 0529 15       		.uleb128 0x15
 2527 052a 54010000 		.4byte	.LASF67
 2528 052e 01       		.byte	0x1
 2529 052f 3F01     		.2byte	0x13f
 2530 0531 00000000 		.4byte	.LFB69
 2531 0535 D8000000 		.4byte	.LFE69-.LFB69
 2532 0539 01       		.uleb128 0x1
 2533 053a 9C       		.byte	0x9c
 2534 053b 4F050000 		.4byte	0x54f
 2535 053f 16       		.uleb128 0x16
 2536 0540 17040000 		.4byte	.LASF39
 2537 0544 01       		.byte	0x1
 2538 0545 3F01     		.2byte	0x13f
 2539 0547 CE000000 		.4byte	0xce
 2540 054b 02       		.uleb128 0x2
 2541 054c 91       		.byte	0x91
 2542 054d 68       		.sleb128 -24
 2543 054e 00       		.byte	0
 2544 054f 15       		.uleb128 0x15
 2545 0550 21030000 		.4byte	.LASF68
 2546 0554 01       		.byte	0x1
 2547 0555 5001     		.2byte	0x150
 2548 0557 00000000 		.4byte	.LFB70
 2549 055b D8000000 		.4byte	.LFE70-.LFB70
 2550 055f 01       		.uleb128 0x1
 2551 0560 9C       		.byte	0x9c
 2552 0561 75050000 		.4byte	0x575
 2553 0565 16       		.uleb128 0x16
 2554 0566 17040000 		.4byte	.LASF39
 2555 056a 01       		.byte	0x1
 2556 056b 5001     		.2byte	0x150
 2557 056d CE000000 		.4byte	0xce
 2558 0571 02       		.uleb128 0x2
 2559 0572 91       		.byte	0x91
 2560 0573 68       		.sleb128 -24
 2561 0574 00       		.byte	0
 2562 0575 17       		.uleb128 0x17
 2563 0576 71010000 		.4byte	.LASF70
 2564 057a 01       		.byte	0x1
 2565 057b 6101     		.2byte	0x161
 2566 057d CE000000 		.4byte	0xce
 2567 0581 00000000 		.4byte	.LFB71
 2568 0585 58000000 		.4byte	.LFE71-.LFB71
 2569 0589 01       		.uleb128 0x1
 2570 058a 9C       		.byte	0x9c
 2571 058b 9F050000 		.4byte	0x59f
 2572 058f 16       		.uleb128 0x16
 2573 0590 4A040000 		.4byte	.LASF60
 2574 0594 01       		.byte	0x1
 2575 0595 6101     		.2byte	0x161
 2576 0597 CE000000 		.4byte	0xce
 2577 059b 02       		.uleb128 0x2
 2578 059c 91       		.byte	0x91
 2579 059d 68       		.sleb128 -24
 2580 059e 00       		.byte	0
 2581 059f 18       		.uleb128 0x18
ARM GAS  C:\Users\jmspi\AppData\Local\Temp\ccpe3dht.s 			page 53


 2582 05a0 70040000 		.4byte	.LASF71
 2583 05a4 09       		.byte	0x9
 2584 05a5 1207     		.2byte	0x712
 2585 05a7 AB050000 		.4byte	0x5ab
 2586 05ab 19       		.uleb128 0x19
 2587 05ac A2000000 		.4byte	0xa2
 2588 05b0 1A       		.uleb128 0x1a
 2589 05b1 91010000 		.4byte	.LASF72
 2590 05b5 01       		.byte	0x1
 2591 05b6 36       		.byte	0x36
 2592 05b7 C1050000 		.4byte	0x5c1
 2593 05bb 05       		.uleb128 0x5
 2594 05bc 03       		.byte	0x3
 2595 05bd 00000000 		.4byte	PULSES_PER_REV
 2596 05c1 1B       		.uleb128 0x1b
 2597 05c2 CE000000 		.4byte	0xce
 2598 05c6 1A       		.uleb128 0x1a
 2599 05c7 62000000 		.4byte	.LASF73
 2600 05cb 01       		.byte	0x1
 2601 05cc 37       		.byte	0x37
 2602 05cd C1050000 		.4byte	0x5c1
 2603 05d1 05       		.uleb128 0x5
 2604 05d2 03       		.byte	0x3
 2605 05d3 00000000 		.4byte	POSE_UPDATE_PERIOD
 2606 05d7 1A       		.uleb128 0x1a
 2607 05d8 A2020000 		.4byte	.LASF74
 2608 05dc 01       		.byte	0x1
 2609 05dd 3D       		.byte	0x3d
 2610 05de 8C000000 		.4byte	0x8c
 2611 05e2 05       		.uleb128 0x5
 2612 05e3 03       		.byte	0x3
 2613 05e4 00000000 		.4byte	echo_flag
 2614 05e8 1A       		.uleb128 0x1a
 2615 05e9 17030000 		.4byte	.LASF75
 2616 05ed 01       		.byte	0x1
 2617 05ee 3E       		.byte	0x3e
 2618 05ef 97000000 		.4byte	0x97
 2619 05f3 05       		.uleb128 0x5
 2620 05f4 03       		.byte	0x3
 2621 05f5 00000000 		.4byte	max_count
 2622 05f9 1A       		.uleb128 0x1a
 2623 05fa 5B020000 		.4byte	.LASF76
 2624 05fe 01       		.byte	0x1
 2625 05ff 3F       		.byte	0x3f
 2626 0600 97000000 		.4byte	0x97
 2627 0604 05       		.uleb128 0x5
 2628 0605 03       		.byte	0x3
 2629 0606 00000000 		.4byte	echo_distance
 2630 060a 1A       		.uleb128 0x1a
 2631 060b B3010000 		.4byte	.LASF77
 2632 060f 01       		.byte	0x1
 2633 0610 40       		.byte	0x40
 2634 0611 8C000000 		.4byte	0x8c
 2635 0615 05       		.uleb128 0x5
 2636 0616 03       		.byte	0x3
 2637 0617 00000000 		.4byte	mux_select
 2638 061b 1A       		.uleb128 0x1a
ARM GAS  C:\Users\jmspi\AppData\Local\Temp\ccpe3dht.s 			page 54


 2639 061c DD030000 		.4byte	.LASF78
 2640 0620 01       		.byte	0x1
 2641 0621 41       		.byte	0x41
 2642 0622 AD000000 		.4byte	0xad
 2643 0626 05       		.uleb128 0x5
 2644 0627 03       		.byte	0x3
 2645 0628 00000000 		.4byte	left_wheel_count
 2646 062c 1A       		.uleb128 0x1a
 2647 062d CB030000 		.4byte	.LASF79
 2648 0631 01       		.byte	0x1
 2649 0632 42       		.byte	0x42
 2650 0633 AD000000 		.4byte	0xad
 2651 0637 05       		.uleb128 0x5
 2652 0638 03       		.byte	0x3
 2653 0639 00000000 		.4byte	right_wheel_count
 2654 063d 09       		.uleb128 0x9
 2655 063e C7000000 		.4byte	0xc7
 2656 0642 4D060000 		.4byte	0x64d
 2657 0646 0A       		.uleb128 0xa
 2658 0647 D5000000 		.4byte	0xd5
 2659 064b 95       		.byte	0x95
 2660 064c 00       		.byte	0
 2661 064d 1A       		.uleb128 0x1a
 2662 064e 68030000 		.4byte	.LASF80
 2663 0652 01       		.byte	0x1
 2664 0653 43       		.byte	0x43
 2665 0654 3D060000 		.4byte	0x63d
 2666 0658 05       		.uleb128 0x5
 2667 0659 03       		.byte	0x3
 2668 065a 00000000 		.4byte	serial_output
 2669 065e 1A       		.uleb128 0x1a
 2670 065f 7E010000 		.4byte	.LASF81
 2671 0663 01       		.byte	0x1
 2672 0664 45       		.byte	0x45
 2673 0665 0B020000 		.4byte	0x20b
 2674 0669 05       		.uleb128 0x5
 2675 066a 03       		.byte	0x3
 2676 066b 00000000 		.4byte	left_motor
 2677 066f 1A       		.uleb128 0x1a
 2678 0670 65010000 		.4byte	.LASF82
 2679 0674 01       		.byte	0x1
 2680 0675 46       		.byte	0x46
 2681 0676 0B020000 		.4byte	0x20b
 2682 067a 05       		.uleb128 0x5
 2683 067b 03       		.byte	0x3
 2684 067c 00000000 		.4byte	right_motor
 2685 0680 1A       		.uleb128 0x1a
 2686 0681 C2020000 		.4byte	.LASF83
 2687 0685 01       		.byte	0x1
 2688 0686 47       		.byte	0x47
 2689 0687 80020000 		.4byte	0x280
 2690 068b 05       		.uleb128 0x5
 2691 068c 03       		.byte	0x3
 2692 068d 00000000 		.4byte	robot
 2693 0691 00       		.byte	0
 2694              		.section	.debug_abbrev,"",%progbits
 2695              	.Ldebug_abbrev0:
ARM GAS  C:\Users\jmspi\AppData\Local\Temp\ccpe3dht.s 			page 55


 2696 0000 01       		.uleb128 0x1
 2697 0001 11       		.uleb128 0x11
 2698 0002 01       		.byte	0x1
 2699 0003 25       		.uleb128 0x25
 2700 0004 0E       		.uleb128 0xe
 2701 0005 13       		.uleb128 0x13
 2702 0006 0B       		.uleb128 0xb
 2703 0007 03       		.uleb128 0x3
 2704 0008 0E       		.uleb128 0xe
 2705 0009 1B       		.uleb128 0x1b
 2706 000a 0E       		.uleb128 0xe
 2707 000b 55       		.uleb128 0x55
 2708 000c 17       		.uleb128 0x17
 2709 000d 11       		.uleb128 0x11
 2710 000e 01       		.uleb128 0x1
 2711 000f 10       		.uleb128 0x10
 2712 0010 17       		.uleb128 0x17
 2713 0011 00       		.byte	0
 2714 0012 00       		.byte	0
 2715 0013 02       		.uleb128 0x2
 2716 0014 24       		.uleb128 0x24
 2717 0015 00       		.byte	0
 2718 0016 0B       		.uleb128 0xb
 2719 0017 0B       		.uleb128 0xb
 2720 0018 3E       		.uleb128 0x3e
 2721 0019 0B       		.uleb128 0xb
 2722 001a 03       		.uleb128 0x3
 2723 001b 0E       		.uleb128 0xe
 2724 001c 00       		.byte	0
 2725 001d 00       		.byte	0
 2726 001e 03       		.uleb128 0x3
 2727 001f 16       		.uleb128 0x16
 2728 0020 00       		.byte	0
 2729 0021 03       		.uleb128 0x3
 2730 0022 0E       		.uleb128 0xe
 2731 0023 3A       		.uleb128 0x3a
 2732 0024 0B       		.uleb128 0xb
 2733 0025 3B       		.uleb128 0x3b
 2734 0026 0B       		.uleb128 0xb
 2735 0027 49       		.uleb128 0x49
 2736 0028 13       		.uleb128 0x13
 2737 0029 00       		.byte	0
 2738 002a 00       		.byte	0
 2739 002b 04       		.uleb128 0x4
 2740 002c 24       		.uleb128 0x24
 2741 002d 00       		.byte	0
 2742 002e 0B       		.uleb128 0xb
 2743 002f 0B       		.uleb128 0xb
 2744 0030 3E       		.uleb128 0x3e
 2745 0031 0B       		.uleb128 0xb
 2746 0032 03       		.uleb128 0x3
 2747 0033 08       		.uleb128 0x8
 2748 0034 00       		.byte	0
 2749 0035 00       		.byte	0
 2750 0036 05       		.uleb128 0x5
 2751 0037 16       		.uleb128 0x16
 2752 0038 00       		.byte	0
ARM GAS  C:\Users\jmspi\AppData\Local\Temp\ccpe3dht.s 			page 56


 2753 0039 03       		.uleb128 0x3
 2754 003a 0E       		.uleb128 0xe
 2755 003b 3A       		.uleb128 0x3a
 2756 003c 0B       		.uleb128 0xb
 2757 003d 3B       		.uleb128 0x3b
 2758 003e 05       		.uleb128 0x5
 2759 003f 49       		.uleb128 0x49
 2760 0040 13       		.uleb128 0x13
 2761 0041 00       		.byte	0
 2762 0042 00       		.byte	0
 2763 0043 06       		.uleb128 0x6
 2764 0044 13       		.uleb128 0x13
 2765 0045 01       		.byte	0x1
 2766 0046 0B       		.uleb128 0xb
 2767 0047 0B       		.uleb128 0xb
 2768 0048 3A       		.uleb128 0x3a
 2769 0049 0B       		.uleb128 0xb
 2770 004a 3B       		.uleb128 0x3b
 2771 004b 0B       		.uleb128 0xb
 2772 004c 01       		.uleb128 0x1
 2773 004d 13       		.uleb128 0x13
 2774 004e 00       		.byte	0
 2775 004f 00       		.byte	0
 2776 0050 07       		.uleb128 0x7
 2777 0051 0D       		.uleb128 0xd
 2778 0052 00       		.byte	0
 2779 0053 03       		.uleb128 0x3
 2780 0054 0E       		.uleb128 0xe
 2781 0055 3A       		.uleb128 0x3a
 2782 0056 0B       		.uleb128 0xb
 2783 0057 3B       		.uleb128 0x3b
 2784 0058 0B       		.uleb128 0xb
 2785 0059 49       		.uleb128 0x49
 2786 005a 13       		.uleb128 0x13
 2787 005b 38       		.uleb128 0x38
 2788 005c 0B       		.uleb128 0xb
 2789 005d 00       		.byte	0
 2790 005e 00       		.byte	0
 2791 005f 08       		.uleb128 0x8
 2792 0060 0F       		.uleb128 0xf
 2793 0061 00       		.byte	0
 2794 0062 0B       		.uleb128 0xb
 2795 0063 0B       		.uleb128 0xb
 2796 0064 49       		.uleb128 0x49
 2797 0065 13       		.uleb128 0x13
 2798 0066 00       		.byte	0
 2799 0067 00       		.byte	0
 2800 0068 09       		.uleb128 0x9
 2801 0069 01       		.uleb128 0x1
 2802 006a 01       		.byte	0x1
 2803 006b 49       		.uleb128 0x49
 2804 006c 13       		.uleb128 0x13
 2805 006d 01       		.uleb128 0x1
 2806 006e 13       		.uleb128 0x13
 2807 006f 00       		.byte	0
 2808 0070 00       		.byte	0
 2809 0071 0A       		.uleb128 0xa
ARM GAS  C:\Users\jmspi\AppData\Local\Temp\ccpe3dht.s 			page 57


 2810 0072 21       		.uleb128 0x21
 2811 0073 00       		.byte	0
 2812 0074 49       		.uleb128 0x49
 2813 0075 13       		.uleb128 0x13
 2814 0076 2F       		.uleb128 0x2f
 2815 0077 0B       		.uleb128 0xb
 2816 0078 00       		.byte	0
 2817 0079 00       		.byte	0
 2818 007a 0B       		.uleb128 0xb
 2819 007b 13       		.uleb128 0x13
 2820 007c 01       		.byte	0x1
 2821 007d 03       		.uleb128 0x3
 2822 007e 0E       		.uleb128 0xe
 2823 007f 0B       		.uleb128 0xb
 2824 0080 0B       		.uleb128 0xb
 2825 0081 3A       		.uleb128 0x3a
 2826 0082 0B       		.uleb128 0xb
 2827 0083 3B       		.uleb128 0x3b
 2828 0084 0B       		.uleb128 0xb
 2829 0085 01       		.uleb128 0x1
 2830 0086 13       		.uleb128 0x13
 2831 0087 00       		.byte	0
 2832 0088 00       		.byte	0
 2833 0089 0C       		.uleb128 0xc
 2834 008a 0D       		.uleb128 0xd
 2835 008b 00       		.byte	0
 2836 008c 03       		.uleb128 0x3
 2837 008d 08       		.uleb128 0x8
 2838 008e 3A       		.uleb128 0x3a
 2839 008f 0B       		.uleb128 0xb
 2840 0090 3B       		.uleb128 0x3b
 2841 0091 0B       		.uleb128 0xb
 2842 0092 49       		.uleb128 0x49
 2843 0093 13       		.uleb128 0x13
 2844 0094 38       		.uleb128 0x38
 2845 0095 0B       		.uleb128 0xb
 2846 0096 00       		.byte	0
 2847 0097 00       		.byte	0
 2848 0098 0D       		.uleb128 0xd
 2849 0099 2E       		.uleb128 0x2e
 2850 009a 00       		.byte	0
 2851 009b 3F       		.uleb128 0x3f
 2852 009c 19       		.uleb128 0x19
 2853 009d 03       		.uleb128 0x3
 2854 009e 0E       		.uleb128 0xe
 2855 009f 3A       		.uleb128 0x3a
 2856 00a0 0B       		.uleb128 0xb
 2857 00a1 3B       		.uleb128 0x3b
 2858 00a2 0B       		.uleb128 0xb
 2859 00a3 27       		.uleb128 0x27
 2860 00a4 19       		.uleb128 0x19
 2861 00a5 11       		.uleb128 0x11
 2862 00a6 01       		.uleb128 0x1
 2863 00a7 12       		.uleb128 0x12
 2864 00a8 06       		.uleb128 0x6
 2865 00a9 40       		.uleb128 0x40
 2866 00aa 18       		.uleb128 0x18
ARM GAS  C:\Users\jmspi\AppData\Local\Temp\ccpe3dht.s 			page 58


 2867 00ab 9742     		.uleb128 0x2117
 2868 00ad 19       		.uleb128 0x19
 2869 00ae 00       		.byte	0
 2870 00af 00       		.byte	0
 2871 00b0 0E       		.uleb128 0xe
 2872 00b1 2E       		.uleb128 0x2e
 2873 00b2 01       		.byte	0x1
 2874 00b3 3F       		.uleb128 0x3f
 2875 00b4 19       		.uleb128 0x19
 2876 00b5 03       		.uleb128 0x3
 2877 00b6 0E       		.uleb128 0xe
 2878 00b7 3A       		.uleb128 0x3a
 2879 00b8 0B       		.uleb128 0xb
 2880 00b9 3B       		.uleb128 0x3b
 2881 00ba 0B       		.uleb128 0xb
 2882 00bb 27       		.uleb128 0x27
 2883 00bc 19       		.uleb128 0x19
 2884 00bd 11       		.uleb128 0x11
 2885 00be 01       		.uleb128 0x1
 2886 00bf 12       		.uleb128 0x12
 2887 00c0 06       		.uleb128 0x6
 2888 00c1 40       		.uleb128 0x40
 2889 00c2 18       		.uleb128 0x18
 2890 00c3 9642     		.uleb128 0x2116
 2891 00c5 19       		.uleb128 0x19
 2892 00c6 01       		.uleb128 0x1
 2893 00c7 13       		.uleb128 0x13
 2894 00c8 00       		.byte	0
 2895 00c9 00       		.byte	0
 2896 00ca 0F       		.uleb128 0xf
 2897 00cb 34       		.uleb128 0x34
 2898 00cc 00       		.byte	0
 2899 00cd 03       		.uleb128 0x3
 2900 00ce 08       		.uleb128 0x8
 2901 00cf 3A       		.uleb128 0x3a
 2902 00d0 0B       		.uleb128 0xb
 2903 00d1 3B       		.uleb128 0x3b
 2904 00d2 0B       		.uleb128 0xb
 2905 00d3 49       		.uleb128 0x49
 2906 00d4 13       		.uleb128 0x13
 2907 00d5 02       		.uleb128 0x2
 2908 00d6 18       		.uleb128 0x18
 2909 00d7 00       		.byte	0
 2910 00d8 00       		.byte	0
 2911 00d9 10       		.uleb128 0x10
 2912 00da 34       		.uleb128 0x34
 2913 00db 00       		.byte	0
 2914 00dc 03       		.uleb128 0x3
 2915 00dd 0E       		.uleb128 0xe
 2916 00de 3A       		.uleb128 0x3a
 2917 00df 0B       		.uleb128 0xb
 2918 00e0 3B       		.uleb128 0x3b
 2919 00e1 0B       		.uleb128 0xb
 2920 00e2 49       		.uleb128 0x49
 2921 00e3 13       		.uleb128 0x13
 2922 00e4 02       		.uleb128 0x2
 2923 00e5 18       		.uleb128 0x18
ARM GAS  C:\Users\jmspi\AppData\Local\Temp\ccpe3dht.s 			page 59


 2924 00e6 00       		.byte	0
 2925 00e7 00       		.byte	0
 2926 00e8 11       		.uleb128 0x11
 2927 00e9 2E       		.uleb128 0x2e
 2928 00ea 01       		.byte	0x1
 2929 00eb 3F       		.uleb128 0x3f
 2930 00ec 19       		.uleb128 0x19
 2931 00ed 03       		.uleb128 0x3
 2932 00ee 0E       		.uleb128 0xe
 2933 00ef 3A       		.uleb128 0x3a
 2934 00f0 0B       		.uleb128 0xb
 2935 00f1 3B       		.uleb128 0x3b
 2936 00f2 0B       		.uleb128 0xb
 2937 00f3 27       		.uleb128 0x27
 2938 00f4 19       		.uleb128 0x19
 2939 00f5 49       		.uleb128 0x49
 2940 00f6 13       		.uleb128 0x13
 2941 00f7 11       		.uleb128 0x11
 2942 00f8 01       		.uleb128 0x1
 2943 00f9 12       		.uleb128 0x12
 2944 00fa 06       		.uleb128 0x6
 2945 00fb 40       		.uleb128 0x40
 2946 00fc 18       		.uleb128 0x18
 2947 00fd 9642     		.uleb128 0x2116
 2948 00ff 19       		.uleb128 0x19
 2949 0100 01       		.uleb128 0x1
 2950 0101 13       		.uleb128 0x13
 2951 0102 00       		.byte	0
 2952 0103 00       		.byte	0
 2953 0104 12       		.uleb128 0x12
 2954 0105 0B       		.uleb128 0xb
 2955 0106 01       		.byte	0x1
 2956 0107 11       		.uleb128 0x11
 2957 0108 01       		.uleb128 0x1
 2958 0109 12       		.uleb128 0x12
 2959 010a 06       		.uleb128 0x6
 2960 010b 01       		.uleb128 0x1
 2961 010c 13       		.uleb128 0x13
 2962 010d 00       		.byte	0
 2963 010e 00       		.byte	0
 2964 010f 13       		.uleb128 0x13
 2965 0110 0B       		.uleb128 0xb
 2966 0111 01       		.byte	0x1
 2967 0112 11       		.uleb128 0x11
 2968 0113 01       		.uleb128 0x1
 2969 0114 12       		.uleb128 0x12
 2970 0115 06       		.uleb128 0x6
 2971 0116 00       		.byte	0
 2972 0117 00       		.byte	0
 2973 0118 14       		.uleb128 0x14
 2974 0119 34       		.uleb128 0x34
 2975 011a 00       		.byte	0
 2976 011b 03       		.uleb128 0x3
 2977 011c 08       		.uleb128 0x8
 2978 011d 3A       		.uleb128 0x3a
 2979 011e 0B       		.uleb128 0xb
 2980 011f 3B       		.uleb128 0x3b
ARM GAS  C:\Users\jmspi\AppData\Local\Temp\ccpe3dht.s 			page 60


 2981 0120 05       		.uleb128 0x5
 2982 0121 49       		.uleb128 0x49
 2983 0122 13       		.uleb128 0x13
 2984 0123 02       		.uleb128 0x2
 2985 0124 18       		.uleb128 0x18
 2986 0125 00       		.byte	0
 2987 0126 00       		.byte	0
 2988 0127 15       		.uleb128 0x15
 2989 0128 2E       		.uleb128 0x2e
 2990 0129 01       		.byte	0x1
 2991 012a 3F       		.uleb128 0x3f
 2992 012b 19       		.uleb128 0x19
 2993 012c 03       		.uleb128 0x3
 2994 012d 0E       		.uleb128 0xe
 2995 012e 3A       		.uleb128 0x3a
 2996 012f 0B       		.uleb128 0xb
 2997 0130 3B       		.uleb128 0x3b
 2998 0131 05       		.uleb128 0x5
 2999 0132 27       		.uleb128 0x27
 3000 0133 19       		.uleb128 0x19
 3001 0134 11       		.uleb128 0x11
 3002 0135 01       		.uleb128 0x1
 3003 0136 12       		.uleb128 0x12
 3004 0137 06       		.uleb128 0x6
 3005 0138 40       		.uleb128 0x40
 3006 0139 18       		.uleb128 0x18
 3007 013a 9642     		.uleb128 0x2116
 3008 013c 19       		.uleb128 0x19
 3009 013d 01       		.uleb128 0x1
 3010 013e 13       		.uleb128 0x13
 3011 013f 00       		.byte	0
 3012 0140 00       		.byte	0
 3013 0141 16       		.uleb128 0x16
 3014 0142 05       		.uleb128 0x5
 3015 0143 00       		.byte	0
 3016 0144 03       		.uleb128 0x3
 3017 0145 0E       		.uleb128 0xe
 3018 0146 3A       		.uleb128 0x3a
 3019 0147 0B       		.uleb128 0xb
 3020 0148 3B       		.uleb128 0x3b
 3021 0149 05       		.uleb128 0x5
 3022 014a 49       		.uleb128 0x49
 3023 014b 13       		.uleb128 0x13
 3024 014c 02       		.uleb128 0x2
 3025 014d 18       		.uleb128 0x18
 3026 014e 00       		.byte	0
 3027 014f 00       		.byte	0
 3028 0150 17       		.uleb128 0x17
 3029 0151 2E       		.uleb128 0x2e
 3030 0152 01       		.byte	0x1
 3031 0153 3F       		.uleb128 0x3f
 3032 0154 19       		.uleb128 0x19
 3033 0155 03       		.uleb128 0x3
 3034 0156 0E       		.uleb128 0xe
 3035 0157 3A       		.uleb128 0x3a
 3036 0158 0B       		.uleb128 0xb
 3037 0159 3B       		.uleb128 0x3b
ARM GAS  C:\Users\jmspi\AppData\Local\Temp\ccpe3dht.s 			page 61


 3038 015a 05       		.uleb128 0x5
 3039 015b 27       		.uleb128 0x27
 3040 015c 19       		.uleb128 0x19
 3041 015d 49       		.uleb128 0x49
 3042 015e 13       		.uleb128 0x13
 3043 015f 11       		.uleb128 0x11
 3044 0160 01       		.uleb128 0x1
 3045 0161 12       		.uleb128 0x12
 3046 0162 06       		.uleb128 0x6
 3047 0163 40       		.uleb128 0x40
 3048 0164 18       		.uleb128 0x18
 3049 0165 9642     		.uleb128 0x2116
 3050 0167 19       		.uleb128 0x19
 3051 0168 01       		.uleb128 0x1
 3052 0169 13       		.uleb128 0x13
 3053 016a 00       		.byte	0
 3054 016b 00       		.byte	0
 3055 016c 18       		.uleb128 0x18
 3056 016d 34       		.uleb128 0x34
 3057 016e 00       		.byte	0
 3058 016f 03       		.uleb128 0x3
 3059 0170 0E       		.uleb128 0xe
 3060 0171 3A       		.uleb128 0x3a
 3061 0172 0B       		.uleb128 0xb
 3062 0173 3B       		.uleb128 0x3b
 3063 0174 05       		.uleb128 0x5
 3064 0175 49       		.uleb128 0x49
 3065 0176 13       		.uleb128 0x13
 3066 0177 3F       		.uleb128 0x3f
 3067 0178 19       		.uleb128 0x19
 3068 0179 3C       		.uleb128 0x3c
 3069 017a 19       		.uleb128 0x19
 3070 017b 00       		.byte	0
 3071 017c 00       		.byte	0
 3072 017d 19       		.uleb128 0x19
 3073 017e 35       		.uleb128 0x35
 3074 017f 00       		.byte	0
 3075 0180 49       		.uleb128 0x49
 3076 0181 13       		.uleb128 0x13
 3077 0182 00       		.byte	0
 3078 0183 00       		.byte	0
 3079 0184 1A       		.uleb128 0x1a
 3080 0185 34       		.uleb128 0x34
 3081 0186 00       		.byte	0
 3082 0187 03       		.uleb128 0x3
 3083 0188 0E       		.uleb128 0xe
 3084 0189 3A       		.uleb128 0x3a
 3085 018a 0B       		.uleb128 0xb
 3086 018b 3B       		.uleb128 0x3b
 3087 018c 0B       		.uleb128 0xb
 3088 018d 49       		.uleb128 0x49
 3089 018e 13       		.uleb128 0x13
 3090 018f 3F       		.uleb128 0x3f
 3091 0190 19       		.uleb128 0x19
 3092 0191 02       		.uleb128 0x2
 3093 0192 18       		.uleb128 0x18
 3094 0193 00       		.byte	0
ARM GAS  C:\Users\jmspi\AppData\Local\Temp\ccpe3dht.s 			page 62


 3095 0194 00       		.byte	0
 3096 0195 1B       		.uleb128 0x1b
 3097 0196 26       		.uleb128 0x26
 3098 0197 00       		.byte	0
 3099 0198 49       		.uleb128 0x49
 3100 0199 13       		.uleb128 0x13
 3101 019a 00       		.byte	0
 3102 019b 00       		.byte	0
 3103 019c 00       		.byte	0
 3104              		.section	.debug_aranges,"",%progbits
 3105 0000 54000000 		.4byte	0x54
 3106 0004 0200     		.2byte	0x2
 3107 0006 00000000 		.4byte	.Ldebug_info0
 3108 000a 04       		.byte	0x4
 3109 000b 00       		.byte	0
 3110 000c 0000     		.2byte	0
 3111 000e 0000     		.2byte	0
 3112 0010 00000000 		.4byte	.LFB64
 3113 0014 18000000 		.4byte	.LFE64-.LFB64
 3114 0018 00000000 		.4byte	.LFB65
 3115 001c 60040000 		.4byte	.LFE65-.LFB65
 3116 0020 00000000 		.4byte	.LFB66
 3117 0024 54010000 		.4byte	.LFE66-.LFB66
 3118 0028 00000000 		.4byte	.LFB67
 3119 002c 74000000 		.4byte	.LFE67-.LFB67
 3120 0030 00000000 		.4byte	.LFB68
 3121 0034 AC050000 		.4byte	.LFE68-.LFB68
 3122 0038 00000000 		.4byte	.LFB69
 3123 003c D8000000 		.4byte	.LFE69-.LFB69
 3124 0040 00000000 		.4byte	.LFB70
 3125 0044 D8000000 		.4byte	.LFE70-.LFB70
 3126 0048 00000000 		.4byte	.LFB71
 3127 004c 58000000 		.4byte	.LFE71-.LFB71
 3128 0050 00000000 		.4byte	0
 3129 0054 00000000 		.4byte	0
 3130              		.section	.debug_ranges,"",%progbits
 3131              	.Ldebug_ranges0:
 3132 0000 00000000 		.4byte	.LFB64
 3133 0004 18000000 		.4byte	.LFE64
 3134 0008 00000000 		.4byte	.LFB65
 3135 000c 60040000 		.4byte	.LFE65
 3136 0010 00000000 		.4byte	.LFB66
 3137 0014 54010000 		.4byte	.LFE66
 3138 0018 00000000 		.4byte	.LFB67
 3139 001c 74000000 		.4byte	.LFE67
 3140 0020 00000000 		.4byte	.LFB68
 3141 0024 AC050000 		.4byte	.LFE68
 3142 0028 00000000 		.4byte	.LFB69
 3143 002c D8000000 		.4byte	.LFE69
 3144 0030 00000000 		.4byte	.LFB70
 3145 0034 D8000000 		.4byte	.LFE70
 3146 0038 00000000 		.4byte	.LFB71
 3147 003c 58000000 		.4byte	.LFE71
 3148 0040 00000000 		.4byte	0
 3149 0044 00000000 		.4byte	0
 3150              		.section	.debug_line,"",%progbits
 3151              	.Ldebug_line0:
ARM GAS  C:\Users\jmspi\AppData\Local\Temp\ccpe3dht.s 			page 63


 3152 0000 94030000 		.section	.debug_str,"MS",%progbits,1
 3152      02009701 
 3152      00000201 
 3152      FB0E0D00 
 3152      01010101 
 3153              	.LASF48:
 3154 0000 61786C65 		.ascii	"axle_width\000"
 3154      5F776964 
 3154      746800
 3155              	.LASF52:
 3156 000b 676F616C 		.ascii	"goal_y\000"
 3156      5F7900
 3157              	.LASF38:
 3158 0012 636F6E74 		.ascii	"control_signal_t\000"
 3158      726F6C5F 
 3158      7369676E 
 3158      616C5F74 
 3158      00
 3159              	.LASF66:
 3160 0023 61637469 		.ascii	"active\000"
 3160      766500
 3161              	.LASF50:
 3162 002a 64657369 		.ascii	"desired_theta\000"
 3162      7265645F 
 3162      74686574 
 3162      6100
 3163              	.LASF54:
 3164 0038 64696666 		.ascii	"diff\000"
 3164      00
 3165              	.LASF33:
 3166 003d 64616D70 		.ascii	"damping_constant\000"
 3166      696E675F 
 3166      636F6E73 
 3166      74616E74 
 3166      00
 3167              	.LASF32:
 3168 004e 74687265 		.ascii	"threshold\000"
 3168      73686F6C 
 3168      6400
 3169              	.LASF2:
 3170 0058 73686F72 		.ascii	"short int\000"
 3170      7420696E 
 3170      7400
 3171              	.LASF73:
 3172 0062 504F5345 		.ascii	"POSE_UPDATE_PERIOD\000"
 3172      5F555044 
 3172      4154455F 
 3172      50455249 
 3172      4F4400
 3173              	.LASF20:
 3174 0075 73697A65 		.ascii	"sizetype\000"
 3174      74797065 
 3174      00
 3175              	.LASF64:
 3176 007e 706F6C61 		.ascii	"polar_histogram\000"
 3176      725F6869 
 3176      73746F67 
ARM GAS  C:\Users\jmspi\AppData\Local\Temp\ccpe3dht.s 			page 64


 3176      72616D00 
 3177              	.LASF63:
 3178 008e 73656E73 		.ascii	"sensors\000"
 3178      6F727300 
 3179              	.LASF46:
 3180 0096 526F626F 		.ascii	"Robot\000"
 3180      7400
 3181              	.LASF84:
 3182 009c 474E5520 		.ascii	"GNU C11 5.4.1 20160609 (release) [ARM/embedded-5-br"
 3182      43313120 
 3182      352E342E 
 3182      31203230 
 3182      31363036 
 3183 00cf 616E6368 		.ascii	"anch revision 237715] -mcpu=cortex-m3 -mthumb -g -O"
 3183      20726576 
 3183      6973696F 
 3183      6E203233 
 3183      37373135 
 3184 0102 30202D66 		.ascii	"0 -ffunction-sections -ffat-lto-objects\000"
 3184      66756E63 
 3184      74696F6E 
 3184      2D736563 
 3184      74696F6E 
 3185              	.LASF27:
 3186 012a 64697265 		.ascii	"direction\000"
 3186      6374696F 
 3186      6E00
 3187              	.LASF4:
 3188 0134 5F5F7569 		.ascii	"__uint16_t\000"
 3188      6E743136 
 3188      5F7400
 3189              	.LASF58:
 3190 013f 4D6F746F 		.ascii	"Motor_PI_Int_Handler\000"
 3190      725F5049 
 3190      5F496E74 
 3190      5F48616E 
 3190      646C6572 
 3191              	.LASF67:
 3192 0154 44726976 		.ascii	"Drive_Left_Motor\000"
 3192      655F4C65 
 3192      66745F4D 
 3192      6F746F72 
 3192      00
 3193              	.LASF82:
 3194 0165 72696768 		.ascii	"right_motor\000"
 3194      745F6D6F 
 3194      746F7200 
 3195              	.LASF70:
 3196 0171 616E676C 		.ascii	"angle_modulo\000"
 3196      655F6D6F 
 3196      64756C6F 
 3196      00
 3197              	.LASF81:
 3198 017e 6C656674 		.ascii	"left_motor\000"
 3198      5F6D6F74 
 3198      6F7200
 3199              	.LASF12:
ARM GAS  C:\Users\jmspi\AppData\Local\Temp\ccpe3dht.s 			page 65


 3200 0189 75696E74 		.ascii	"uint8_t\000"
 3200      385F7400 
 3201              	.LASF72:
 3202 0191 50554C53 		.ascii	"PULSES_PER_REV\000"
 3202      45535F50 
 3202      45525F52 
 3202      455600
 3203              	.LASF51:
 3204 01a0 676F616C 		.ascii	"goal_x\000"
 3204      5F7800
 3205              	.LASF22:
 3206 01a7 77696474 		.ascii	"width\000"
 3206      6800
 3207              	.LASF16:
 3208 01ad 666C6F61 		.ascii	"float\000"
 3208      7400
 3209              	.LASF77:
 3210 01b3 6D75785F 		.ascii	"mux_select\000"
 3210      73656C65 
 3210      637400
 3211              	.LASF9:
 3212 01be 6C6F6E67 		.ascii	"long long int\000"
 3212      206C6F6E 
 3212      6720696E 
 3212      7400
 3213              	.LASF25:
 3214 01cc 63656C6C 		.ascii	"cells\000"
 3214      7300
 3215              	.LASF57:
 3216 01d2 506F7365 		.ascii	"Pose_Update_Int_Handler\000"
 3216      5F557064 
 3216      6174655F 
 3216      496E745F 
 3216      48616E64 
 3217              	.LASF43:
 3218 01ea 77686565 		.ascii	"wheel_radius\000"
 3218      6C5F7261 
 3218      64697573 
 3218      00
 3219              	.LASF86:
 3220 01f7 433A5C55 		.ascii	"C:\\Users\\jmspi\\OneDrive\\Documents\\GitHub\\ECE4"
 3220      73657273 
 3220      5C6A6D73 
 3220      70695C4F 
 3220      6E654472 
 3221 0224 3139315C 		.ascii	"191\\DeliveryRobot.cydsn\000"
 3221      44656C69 
 3221      76657279 
 3221      526F626F 
 3221      742E6379 
 3222              	.LASF7:
 3223 023c 6C6F6E67 		.ascii	"long int\000"
 3223      20696E74 
 3223      00
 3224              	.LASF29:
 3225 0245 73656E73 		.ascii	"sensor_data\000"
 3225      6F725F64 
ARM GAS  C:\Users\jmspi\AppData\Local\Temp\ccpe3dht.s 			page 66


 3225      61746100 
 3226              	.LASF49:
 3227 0251 64657369 		.ascii	"desired_V\000"
 3227      7265645F 
 3227      5600
 3228              	.LASF76:
 3229 025b 6563686F 		.ascii	"echo_distance\000"
 3229      5F646973 
 3229      74616E63 
 3229      6500
 3230              	.LASF14:
 3231 0269 696E7433 		.ascii	"int32_t\000"
 3231      325F7400 
 3232              	.LASF3:
 3233 0271 5F5F7569 		.ascii	"__uint8_t\000"
 3233      6E74385F 
 3233      7400
 3234              	.LASF19:
 3235 027b 6C6F6E67 		.ascii	"long double\000"
 3235      20646F75 
 3235      626C6500 
 3236              	.LASF45:
 3237 0287 4D6F746F 		.ascii	"Motor\000"
 3237      7200
 3238              	.LASF1:
 3239 028d 756E7369 		.ascii	"unsigned char\000"
 3239      676E6564 
 3239      20636861 
 3239      7200
 3240              	.LASF21:
 3241 029b 755F6C6F 		.ascii	"u_long\000"
 3241      6E6700
 3242              	.LASF74:
 3243 02a2 6563686F 		.ascii	"echo_flag\000"
 3243      5F666C61 
 3243      6700
 3244              	.LASF42:
 3245 02ac 64657369 		.ascii	"desired_w\000"
 3245      7265645F 
 3245      7700
 3246              	.LASF0:
 3247 02b6 7369676E 		.ascii	"signed char\000"
 3247      65642063 
 3247      68617200 
 3248              	.LASF83:
 3249 02c2 726F626F 		.ascii	"robot\000"
 3249      7400
 3250              	.LASF10:
 3251 02c8 6C6F6E67 		.ascii	"long long unsigned int\000"
 3251      206C6F6E 
 3251      6720756E 
 3251      7369676E 
 3251      65642069 
 3252              	.LASF31:
 3253 02df 73656374 		.ascii	"sectors\000"
 3253      6F727300 
 3254              	.LASF23:
ARM GAS  C:\Users\jmspi\AppData\Local\Temp\ccpe3dht.s 			page 67


 3255 02e7 68656967 		.ascii	"height\000"
 3255      687400
 3256              	.LASF11:
 3257 02ee 756E7369 		.ascii	"unsigned int\000"
 3257      676E6564 
 3257      20696E74 
 3257      00
 3258              	.LASF56:
 3259 02fb 6E65775F 		.ascii	"new_omega\000"
 3259      6F6D6567 
 3259      6100
 3260              	.LASF8:
 3261 0305 6C6F6E67 		.ascii	"long unsigned int\000"
 3261      20756E73 
 3261      69676E65 
 3261      6420696E 
 3261      7400
 3262              	.LASF75:
 3263 0317 6D61785F 		.ascii	"max_count\000"
 3263      636F756E 
 3263      7400
 3264              	.LASF68:
 3265 0321 44726976 		.ascii	"Drive_Right_Motor\000"
 3265      655F5269 
 3265      6768745F 
 3265      4D6F746F 
 3265      7200
 3266              	.LASF26:
 3267 0333 67726964 		.ascii	"grid\000"
 3267      00
 3268              	.LASF65:
 3269 0338 636F6E74 		.ascii	"control_signal\000"
 3269      726F6C5F 
 3269      7369676E 
 3269      616C00
 3270              	.LASF5:
 3271 0347 73686F72 		.ascii	"short unsigned int\000"
 3271      7420756E 
 3271      7369676E 
 3271      65642069 
 3271      6E7400
 3272              	.LASF28:
 3273 035a 64697374 		.ascii	"distance\000"
 3273      616E6365 
 3273      00
 3274              	.LASF18:
 3275 0363 63686172 		.ascii	"char\000"
 3275      00
 3276              	.LASF80:
 3277 0368 73657269 		.ascii	"serial_output\000"
 3277      616C5F6F 
 3277      75747075 
 3277      7400
 3278              	.LASF69:
 3279 0376 6D61696E 		.ascii	"main\000"
 3279      00
 3280              	.LASF24:
ARM GAS  C:\Users\jmspi\AppData\Local\Temp\ccpe3dht.s 			page 68


 3281 037b 7265736F 		.ascii	"resolution\000"
 3281      6C757469 
 3281      6F6E00
 3282              	.LASF59:
 3283 0386 4E617669 		.ascii	"Navigation_Test_Int_Handler\000"
 3283      67617469 
 3283      6F6E5F54 
 3283      6573745F 
 3283      496E745F 
 3284              	.LASF36:
 3285 03a2 64656E73 		.ascii	"densities\000"
 3285      69746965 
 3285      7300
 3286              	.LASF13:
 3287 03ac 75696E74 		.ascii	"uint16_t\000"
 3287      31365F74 
 3287      00
 3288              	.LASF62:
 3289 03b5 63657274 		.ascii	"certainty_grid\000"
 3289      61696E74 
 3289      795F6772 
 3289      696400
 3290              	.LASF85:
 3291 03c4 6D61696E 		.ascii	"main.c\000"
 3291      2E6300
 3292              	.LASF79:
 3293 03cb 72696768 		.ascii	"right_wheel_count\000"
 3293      745F7768 
 3293      65656C5F 
 3293      636F756E 
 3293      7400
 3294              	.LASF78:
 3295 03dd 6C656674 		.ascii	"left_wheel_count\000"
 3295      5F776865 
 3295      656C5F63 
 3295      6F756E74 
 3295      00
 3296              	.LASF15:
 3297 03ee 696E7433 		.ascii	"int32\000"
 3297      3200
 3298              	.LASF17:
 3299 03f4 646F7562 		.ascii	"double\000"
 3299      6C6500
 3300              	.LASF87:
 3301 03fb 54696D65 		.ascii	"Timer_Int_Handler\000"
 3301      725F496E 
 3301      745F4861 
 3301      6E646C65 
 3301      7200
 3302              	.LASF37:
 3303 040d 68697374 		.ascii	"histogram\000"
 3303      6F677261 
 3303      6D00
 3304              	.LASF39:
 3305 0417 64757479 		.ascii	"duty_cycle\000"
 3305      5F637963 
 3305      6C6500
ARM GAS  C:\Users\jmspi\AppData\Local\Temp\ccpe3dht.s 			page 69


 3306              	.LASF6:
 3307 0422 5F5F696E 		.ascii	"__int32_t\000"
 3307      7433325F 
 3307      7400
 3308              	.LASF40:
 3309 042c 696E745F 		.ascii	"int_error\000"
 3309      6572726F 
 3309      7200
 3310              	.LASF47:
 3311 0436 74686574 		.ascii	"theta\000"
 3311      6100
 3312              	.LASF53:
 3313 043c 676F616C 		.ascii	"goal_min_dist\000"
 3313      5F6D696E 
 3313      5F646973 
 3313      7400
 3314              	.LASF60:
 3315 044a 616E676C 		.ascii	"angle\000"
 3315      6500
 3316              	.LASF44:
 3317 0450 656E635F 		.ascii	"enc_count\000"
 3317      636F756E 
 3317      7400
 3318              	.LASF55:
 3319 045a 6572726F 		.ascii	"error\000"
 3319      7200
 3320              	.LASF30:
 3321 0460 616C7068 		.ascii	"alpha\000"
 3321      6100
 3322              	.LASF41:
 3323 0466 74616E67 		.ascii	"tangent_v\000"
 3323      656E745F 
 3323      7600
 3324              	.LASF71:
 3325 0470 49544D5F 		.ascii	"ITM_RxBuffer\000"
 3325      52784275 
 3325      66666572 
 3325      00
 3326              	.LASF34:
 3327 047d 64656E73 		.ascii	"density_a\000"
 3327      6974795F 
 3327      6100
 3328              	.LASF35:
 3329 0487 64656E73 		.ascii	"density_b\000"
 3329      6974795F 
 3329      6200
 3330              	.LASF61:
 3331 0491 77686565 		.ascii	"wheel_r_scale\000"
 3331      6C5F725F 
 3331      7363616C 
 3331      6500
 3332              		.ident	"GCC: (GNU Tools for ARM Embedded Processors) 5.4.1 20160609 (release) [ARM/embedded-5-bran
