ARM GAS  C:\Users\cyu13\AppData\Local\Temp\cc2BTquH.s 			page 1


   1              		.syntax unified
   2              		.cpu cortex-m3
   3              		.fpu softvfp
   4              		.eabi_attribute 20, 1
   5              		.eabi_attribute 21, 1
   6              		.eabi_attribute 23, 3
   7              		.eabi_attribute 24, 1
   8              		.eabi_attribute 25, 1
   9              		.eabi_attribute 26, 1
  10              		.eabi_attribute 30, 6
  11              		.eabi_attribute 34, 1
  12              		.eabi_attribute 18, 4
  13              		.thumb
  14              		.syntax unified
  15              		.file	"main.c"
  16              		.text
  17              	.Ltext0:
  18              		.cfi_sections	.debug_frame
  19              		.global	PULSES_PER_REV
  20              		.section	.rodata
  21              		.align	3
  22              		.type	PULSES_PER_REV, %object
  23              		.size	PULSES_PER_REV, 8
  24              	PULSES_PER_REV:
  25 0000 A4703D0A 		.word	171798692
  26 0004 D70FAC40 		.word	1085018071
  27              		.global	POSE_UPDATE_PERIOD
  28              		.align	3
  29              		.type	POSE_UPDATE_PERIOD, %object
  30              		.size	POSE_UPDATE_PERIOD, 8
  31              	POSE_UPDATE_PERIOD:
  32 0008 7B14AE47 		.word	1202590843
  33 000c E17A943F 		.word	1066695393
  34              		.global	echo_flag
  35              		.bss
  36              		.type	echo_flag, %object
  37              		.size	echo_flag, 1
  38              	echo_flag:
  39 0000 00       		.space	1
  40              		.global	max_count
  41              		.data
  42              		.align	1
  43              		.type	max_count, %object
  44              		.size	max_count, 2
  45              	max_count:
  46 0000 FFFF     		.short	-1
  47              		.comm	echo_distance,2,2
  48              		.global	mux_select
  49              		.bss
  50              		.type	mux_select, %object
  51              		.size	mux_select, 1
  52              	mux_select:
  53 0001 00       		.space	1
  54              		.global	left_wheel_count
  55 0002 0000     		.align	2
  56              		.type	left_wheel_count, %object
  57              		.size	left_wheel_count, 4
ARM GAS  C:\Users\cyu13\AppData\Local\Temp\cc2BTquH.s 			page 2


  58              	left_wheel_count:
  59 0004 00000000 		.space	4
  60              		.global	right_wheel_count
  61              		.align	2
  62              		.type	right_wheel_count, %object
  63              		.size	right_wheel_count, 4
  64              	right_wheel_count:
  65 0008 00000000 		.space	4
  66              		.comm	serial_output,150,4
  67              		.comm	left_motor,72,8
  68              		.comm	right_motor,72,8
  69              		.comm	robot,112,8
  70              		.comm	certainty_grid,4,4
  71              		.comm	sensors,40,4
  72              		.comm	polar_histogram,4,4
  73              		.comm	control_signal,4,4
  74              		.global	__aeabi_d2iz
  75              		.global	__aeabi_dmul
  76              		.global	__aeabi_ddiv
  77              		.section	.text.Timer_Int_Handler,"ax",%progbits
  78              		.align	2
  79              		.global	Timer_Int_Handler
  80              		.thumb
  81              		.thumb_func
  82              		.type	Timer_Int_Handler, %function
  83              	Timer_Int_Handler:
  84              	.LFB64:
  85              		.file 1 "main.c"
   1:main.c        **** /* ========================================
   2:main.c        ****  *
   3:main.c        ****  * Copyright YOUR COMPANY, THE YEAR
   4:main.c        ****  * All Rights Reserved
   5:main.c        ****  * UNPUBLISHED, LICENSED SOFTWARE.
   6:main.c        ****  *
   7:main.c        ****  * CONFIDENTIAL AND PROPRIETARY INFORMATION
   8:main.c        ****  * WHICH IS THE PROPERTY OF your company.
   9:main.c        ****  *
  10:main.c        ****  * ========================================
  11:main.c        **** */
  12:main.c        **** #include "project.h"
  13:main.c        **** #include <stdio.h>
  14:main.c        **** #include <stdlib.h>
  15:main.c        **** #include <math.h>
  16:main.c        **** 
  17:main.c        **** #include "..\VFH\include\vfh.h"
  18:main.c        **** 
  19:main.c        **** 
  20:main.c        **** struct Motor {
  21:main.c        ****     long double duty_cycle;
  22:main.c        ****     long double int_error;  // integrated error
  23:main.c        ****     long double w; // omega, [rad per sec]
  24:main.c        ****     long double tangent_v; //tangential velocity, [cm per sec]
  25:main.c        ****     long double desired_w;
  26:main.c        ****     long double Ki;
  27:main.c        ****     long double Kp;
  28:main.c        ****     long double wheel_radius; // wheel radius in cm
  29:main.c        ****     int32 enc_count;
ARM GAS  C:\Users\cyu13\AppData\Local\Temp\cc2BTquH.s 			page 3


  30:main.c        **** };
  31:main.c        **** 
  32:main.c        **** struct Robot {
  33:main.c        ****     long double theta;  // in RADIANS
  34:main.c        ****     long double x;   // in cm
  35:main.c        ****     long double y;   // in cm
  36:main.c        ****     long double axle_width; // in cm
  37:main.c        ****     
  38:main.c        ****     long double V;   // in cm/s
  39:main.c        ****     long double w;   // in rad/s
  40:main.c        ****     
  41:main.c        ****     long double desired_V;
  42:main.c        ****     long double desired_theta;
  43:main.c        ****     
  44:main.c        ****     long double Ki;
  45:main.c        ****     long double Kp;
  46:main.c        ****     long double int_error; // integrated error for PI control
  47:main.c        ****     
  48:main.c        ****     long double goal_x;
  49:main.c        ****     long double goal_y;
  50:main.c        ****     long double goal_min_dist; // specifies a threshold of minimum distance to goal at which robot 
  51:main.c        **** };
  52:main.c        **** 
  53:main.c        **** const long double PULSES_PER_REV = 3591.92;
  54:main.c        **** const long double POSE_UPDATE_PERIOD = 1.0/50.0; // seconds
  55:main.c        **** 
  56:main.c        **** void Drive_Left_Motor(long double duty_cycle);
  57:main.c        **** void Drive_Right_Motor(long double duty_cycle);
  58:main.c        **** long double angle_modulo(long double angle);
  59:main.c        **** 
  60:main.c        **** uint8_t echo_flag = 0;
  61:main.c        **** uint16_t max_count = 65535;
  62:main.c        **** uint16_t echo_distance;
  63:main.c        **** uint8_t mux_select = 0;
  64:main.c        **** int32 left_wheel_count = 0;
  65:main.c        **** int32 right_wheel_count = 0;
  66:main.c        **** char serial_output[150];
  67:main.c        **** 
  68:main.c        **** struct Motor left_motor;
  69:main.c        **** struct Motor right_motor;
  70:main.c        **** struct Robot robot;
  71:main.c        **** 
  72:main.c        **** /* Declaration of the needed data structures. */
  73:main.c        **** grid * certainty_grid;
  74:main.c        **** sensor_data sensors;
  75:main.c        **** histogram * polar_histogram;
  76:main.c        **** control_signal_t control_signal;
  77:main.c        **** 
  78:main.c        **** void print_grid(grid * map);
  79:main.c        **** void print_polar_histogram(histogram * polar_histogram);
  80:main.c        **** 
  81:main.c        ****   
  82:main.c        **** CY_ISR( Timer_Int_Handler ) {
  86              		.loc 1 82 0
  87              		.cfi_startproc
  88              		@ args = 0, pretend = 0, frame = 0
  89              		@ frame_needed = 1, uses_anonymous_args = 0
ARM GAS  C:\Users\cyu13\AppData\Local\Temp\cc2BTquH.s 			page 4


  90 0000 2DE9F043 		push	{r4, r5, r6, r7, r8, r9, lr}
  91              		.cfi_def_cfa_offset 28
  92              		.cfi_offset 4, -28
  93              		.cfi_offset 5, -24
  94              		.cfi_offset 6, -20
  95              		.cfi_offset 7, -16
  96              		.cfi_offset 8, -12
  97              		.cfi_offset 9, -8
  98              		.cfi_offset 14, -4
  99 0004 8BB0     		sub	sp, sp, #44
 100              		.cfi_def_cfa_offset 72
 101 0006 0AAF     		add	r7, sp, #40
 102              		.cfi_def_cfa 7, 32
  83:main.c        ****     echo_distance = 65535 - Timer_Echo_ReadCapture();  // in cm
 103              		.loc 1 83 0
 104 0008 FFF7FEFF 		bl	Timer_Echo_ReadCapture
 105 000c 0346     		mov	r3, r0
 106 000e DB43     		mvns	r3, r3
 107 0010 9AB2     		uxth	r2, r3
 108 0012 354B     		ldr	r3, .L3+8
 109 0014 1A80     		strh	r2, [r3]	@ movhi
  84:main.c        ****     sensors.distance[mux_select] = echo_distance;
 110              		.loc 1 84 0
 111 0016 354B     		ldr	r3, .L3+12
 112 0018 1B78     		ldrb	r3, [r3]	@ zero_extendqisi2
 113 001a 1846     		mov	r0, r3
 114 001c 324B     		ldr	r3, .L3+8
 115 001e 1B88     		ldrh	r3, [r3]
 116 0020 1946     		mov	r1, r3
 117 0022 334A     		ldr	r2, .L3+16
 118 0024 031D     		adds	r3, r0, #4
 119 0026 9B00     		lsls	r3, r3, #2
 120 0028 1344     		add	r3, r3, r2
 121 002a 5960     		str	r1, [r3, #4]
  85:main.c        ****     
  86:main.c        ****     
  87:main.c        ****     //Timer_Echo_Stop();
  88:main.c        ****     //CyDelayUs(1); // TODO: Should be able to make this shorter, one or two bus clock cycles
  89:main.c        ****     mux_select++;
 122              		.loc 1 89 0
 123 002c 2F4B     		ldr	r3, .L3+12
 124 002e 1B78     		ldrb	r3, [r3]	@ zero_extendqisi2
 125 0030 0133     		adds	r3, r3, #1
 126 0032 DAB2     		uxtb	r2, r3
 127 0034 2D4B     		ldr	r3, .L3+12
 128 0036 1A70     		strb	r2, [r3]
  90:main.c        ****     if ( mux_select == N_SENSORS) {
 129              		.loc 1 90 0
 130 0038 2C4B     		ldr	r3, .L3+12
 131 003a 1B78     		ldrb	r3, [r3]	@ zero_extendqisi2
 132 003c 052B     		cmp	r3, #5
 133 003e 41D1     		bne	.L2
  91:main.c        ****         grid_update(certainty_grid, robot.x, robot.y, 180*robot.theta/M_PI, sensors);
 134              		.loc 1 91 0
 135 0040 2C4B     		ldr	r3, .L3+20
 136 0042 1E68     		ldr	r6, [r3]
 137 0044 2C4B     		ldr	r3, .L3+24
ARM GAS  C:\Users\cyu13\AppData\Local\Temp\cc2BTquH.s 			page 5


 138 0046 03F10804 		add	r4, r3, #8
 139 004a D4E90034 		ldrd	r3, [r4]
 140 004e 1846     		mov	r0, r3
 141 0050 2146     		mov	r1, r4
 142 0052 FFF7FEFF 		bl	__aeabi_d2iz
 143 0056 8046     		mov	r8, r0
 144 0058 274B     		ldr	r3, .L3+24
 145 005a 03F11004 		add	r4, r3, #16
 146 005e D4E90034 		ldrd	r3, [r4]
 147 0062 1846     		mov	r0, r3
 148 0064 2146     		mov	r1, r4
 149 0066 FFF7FEFF 		bl	__aeabi_d2iz
 150 006a 8146     		mov	r9, r0
 151 006c 224B     		ldr	r3, .L3+24
 152 006e D3E90001 		ldrd	r0, [r3]
 153 0072 4FF00002 		mov	r2, #0
 154 0076 214B     		ldr	r3, .L3+28
 155 0078 FFF7FEFF 		bl	__aeabi_dmul
 156 007c 0346     		mov	r3, r0
 157 007e 0C46     		mov	r4, r1
 158 0080 1846     		mov	r0, r3
 159 0082 2146     		mov	r1, r4
 160 0084 16A3     		adr	r3, .L3
 161 0086 D3E90023 		ldrd	r2, [r3]
 162 008a FFF7FEFF 		bl	__aeabi_ddiv
 163 008e 0346     		mov	r3, r0
 164 0090 0C46     		mov	r4, r1
 165 0092 1846     		mov	r0, r3
 166 0094 2146     		mov	r1, r4
 167 0096 FFF7FEFF 		bl	__aeabi_d2iz
 168 009a 8646     		mov	lr, r0
 169 009c 144B     		ldr	r3, .L3+16
 170 009e 6C46     		mov	r4, sp
 171 00a0 1D46     		mov	r5, r3
 172 00a2 0FCD     		ldmia	r5!, {r0, r1, r2, r3}
 173 00a4 0FC4     		stmia	r4!, {r0, r1, r2, r3}
 174 00a6 0FCD     		ldmia	r5!, {r0, r1, r2, r3}
 175 00a8 0FC4     		stmia	r4!, {r0, r1, r2, r3}
 176 00aa 95E80300 		ldmia	r5, {r0, r1}
 177 00ae 84E80300 		stmia	r4, {r0, r1}
 178 00b2 7346     		mov	r3, lr
 179 00b4 4A46     		mov	r2, r9
 180 00b6 4146     		mov	r1, r8
 181 00b8 3046     		mov	r0, r6
 182 00ba FFF7FEFF 		bl	grid_update
  92:main.c        ****         mux_select = 0;
 183              		.loc 1 92 0
 184 00be 0B4B     		ldr	r3, .L3+12
 185 00c0 0022     		movs	r2, #0
 186 00c2 1A70     		strb	r2, [r3]
 187              	.L2:
  93:main.c        ****     }
  94:main.c        ****     Control_Reg_US_Write(mux_select);    
 188              		.loc 1 94 0
 189 00c4 094B     		ldr	r3, .L3+12
 190 00c6 1B78     		ldrb	r3, [r3]	@ zero_extendqisi2
 191 00c8 1846     		mov	r0, r3
ARM GAS  C:\Users\cyu13\AppData\Local\Temp\cc2BTquH.s 			page 6


 192 00ca FFF7FEFF 		bl	Control_Reg_US_Write
  95:main.c        ****     //Timer_Echo_Enable();
  96:main.c        ****     
  97:main.c        ****     PWM_Trigger_WriteCounter(255);    
 193              		.loc 1 97 0
 194 00ce FF20     		movs	r0, #255
 195 00d0 FFF7FEFF 		bl	PWM_Trigger_WriteCounter
  98:main.c        **** }
 196              		.loc 1 98 0
 197 00d4 00BF     		nop
 198 00d6 0437     		adds	r7, r7, #4
 199              		.cfi_def_cfa_offset 28
 200 00d8 BD46     		mov	sp, r7
 201              		.cfi_def_cfa_register 13
 202              		@ sp needed
 203 00da BDE8F083 		pop	{r4, r5, r6, r7, r8, r9, pc}
 204              	.L4:
 205 00de 00BF     		.align	3
 206              	.L3:
 207 00e0 182D4454 		.word	1413754136
 208 00e4 FB210940 		.word	1074340347
 209 00e8 00000000 		.word	echo_distance
 210 00ec 00000000 		.word	mux_select
 211 00f0 00000000 		.word	sensors
 212 00f4 00000000 		.word	certainty_grid
 213 00f8 00000000 		.word	robot
 214 00fc 00806640 		.word	1080459264
 215              		.cfi_endproc
 216              	.LFE64:
 217              		.size	Timer_Int_Handler, .-Timer_Int_Handler
 218              		.global	__aeabi_i2d
 219              		.global	__aeabi_dsub
 220              		.global	__aeabi_dadd
 221              		.global	__aeabi_dcmpgt
 222              		.global	__aeabi_dcmplt
 223              		.section	.text.Pose_Update_Int_Handler,"ax",%progbits
 224              		.align	2
 225              		.global	Pose_Update_Int_Handler
 226              		.thumb
 227              		.thumb_func
 228              		.type	Pose_Update_Int_Handler, %function
 229              	Pose_Update_Int_Handler:
 230              	.LFB65:
  99:main.c        **** 
 100:main.c        **** CY_ISR( Pose_Update_Int_Handler ) {
 231              		.loc 1 100 0
 232              		.cfi_startproc
 233              		@ args = 0, pretend = 0, frame = 32
 234              		@ frame_needed = 1, uses_anonymous_args = 0
 235 0000 2DE9F04F 		push	{r4, r5, r6, r7, r8, r9, r10, fp, lr}
 236              		.cfi_def_cfa_offset 36
 237              		.cfi_offset 4, -36
 238              		.cfi_offset 5, -32
 239              		.cfi_offset 6, -28
 240              		.cfi_offset 7, -24
 241              		.cfi_offset 8, -20
 242              		.cfi_offset 9, -16
ARM GAS  C:\Users\cyu13\AppData\Local\Temp\cc2BTquH.s 			page 7


 243              		.cfi_offset 10, -12
 244              		.cfi_offset 11, -8
 245              		.cfi_offset 14, -4
 246 0004 89B0     		sub	sp, sp, #36
 247              		.cfi_def_cfa_offset 72
 248 0006 00AF     		add	r7, sp, #0
 249              		.cfi_def_cfa_register 7
 101:main.c        ****     int32 new = QuadDec_R_GetCounter();
 250              		.loc 1 101 0
 251 0008 FFF7FEFF 		bl	QuadDec_R_GetCounter
 252 000c 7861     		str	r0, [r7, #20]
 102:main.c        ****     int32 diff = new - right_motor.enc_count;
 253              		.loc 1 102 0
 254 000e B84B     		ldr	r3, .L12+48
 255 0010 1B6C     		ldr	r3, [r3, #64]
 256 0012 7A69     		ldr	r2, [r7, #20]
 257 0014 D31A     		subs	r3, r2, r3
 258 0016 3B61     		str	r3, [r7, #16]
 103:main.c        ****     right_motor.enc_count = new;
 259              		.loc 1 103 0
 260 0018 B54A     		ldr	r2, .L12+48
 261 001a 7B69     		ldr	r3, [r7, #20]
 262 001c 1364     		str	r3, [r2, #64]
 104:main.c        ****     right_motor.w = M_TWOPI*diff/POSE_UPDATE_PERIOD/PULSES_PER_REV;
 263              		.loc 1 104 0
 264 001e 3869     		ldr	r0, [r7, #16]
 265 0020 FFF7FEFF 		bl	__aeabi_i2d
 266 0024 A6A3     		adr	r3, .L12
 267 0026 D3E90023 		ldrd	r2, [r3]
 268 002a FFF7FEFF 		bl	__aeabi_dmul
 269 002e 0246     		mov	r2, r0
 270 0030 0B46     		mov	r3, r1
 271 0032 1046     		mov	r0, r2
 272 0034 1946     		mov	r1, r3
 273 0036 A4A3     		adr	r3, .L12+8
 274 0038 D3E90023 		ldrd	r2, [r3]
 275 003c FFF7FEFF 		bl	__aeabi_ddiv
 276 0040 0246     		mov	r2, r0
 277 0042 0B46     		mov	r3, r1
 278 0044 1046     		mov	r0, r2
 279 0046 1946     		mov	r1, r3
 280 0048 A1A3     		adr	r3, .L12+16
 281 004a D3E90023 		ldrd	r2, [r3]
 282 004e FFF7FEFF 		bl	__aeabi_ddiv
 283 0052 0246     		mov	r2, r0
 284 0054 0B46     		mov	r3, r1
 285 0056 A649     		ldr	r1, .L12+48
 286 0058 C1E90423 		strd	r2, [r1, #16]
 105:main.c        ****     
 106:main.c        ****     new = QuadDec_L_GetCounter();
 287              		.loc 1 106 0
 288 005c FFF7FEFF 		bl	QuadDec_L_GetCounter
 289 0060 7861     		str	r0, [r7, #20]
 107:main.c        ****     diff = new - left_motor.enc_count;
 290              		.loc 1 107 0
 291 0062 A44B     		ldr	r3, .L12+52
 292 0064 1B6C     		ldr	r3, [r3, #64]
ARM GAS  C:\Users\cyu13\AppData\Local\Temp\cc2BTquH.s 			page 8


 293 0066 7A69     		ldr	r2, [r7, #20]
 294 0068 D31A     		subs	r3, r2, r3
 295 006a 3B61     		str	r3, [r7, #16]
 108:main.c        ****     left_motor.enc_count = new;
 296              		.loc 1 108 0
 297 006c A14A     		ldr	r2, .L12+52
 298 006e 7B69     		ldr	r3, [r7, #20]
 299 0070 1364     		str	r3, [r2, #64]
 109:main.c        ****     left_motor.w = M_TWOPI*diff/POSE_UPDATE_PERIOD/PULSES_PER_REV;
 300              		.loc 1 109 0
 301 0072 3869     		ldr	r0, [r7, #16]
 302 0074 FFF7FEFF 		bl	__aeabi_i2d
 303 0078 91A3     		adr	r3, .L12
 304 007a D3E90023 		ldrd	r2, [r3]
 305 007e FFF7FEFF 		bl	__aeabi_dmul
 306 0082 0246     		mov	r2, r0
 307 0084 0B46     		mov	r3, r1
 308 0086 1046     		mov	r0, r2
 309 0088 1946     		mov	r1, r3
 310 008a 8FA3     		adr	r3, .L12+8
 311 008c D3E90023 		ldrd	r2, [r3]
 312 0090 FFF7FEFF 		bl	__aeabi_ddiv
 313 0094 0246     		mov	r2, r0
 314 0096 0B46     		mov	r3, r1
 315 0098 1046     		mov	r0, r2
 316 009a 1946     		mov	r1, r3
 317 009c 8CA3     		adr	r3, .L12+16
 318 009e D3E90023 		ldrd	r2, [r3]
 319 00a2 FFF7FEFF 		bl	__aeabi_ddiv
 320 00a6 0246     		mov	r2, r0
 321 00a8 0B46     		mov	r3, r1
 322 00aa 9249     		ldr	r1, .L12+52
 323 00ac C1E90423 		strd	r2, [r1, #16]
 110:main.c        ****     
 111:main.c        ****     
 112:main.c        ****     
 113:main.c        ****     //Calculate and update tangential velocity of wheels
 114:main.c        ****     left_motor.tangent_v = left_motor.w*left_motor.wheel_radius;
 324              		.loc 1 114 0
 325 00b0 904B     		ldr	r3, .L12+52
 326 00b2 D3E90401 		ldrd	r0, [r3, #16]
 327 00b6 8F4B     		ldr	r3, .L12+52
 328 00b8 D3E90E23 		ldrd	r2, [r3, #56]
 329 00bc FFF7FEFF 		bl	__aeabi_dmul
 330 00c0 0246     		mov	r2, r0
 331 00c2 0B46     		mov	r3, r1
 332 00c4 8B49     		ldr	r1, .L12+52
 333 00c6 C1E90623 		strd	r2, [r1, #24]
 115:main.c        ****     right_motor.tangent_v = right_motor.w*right_motor.wheel_radius;
 334              		.loc 1 115 0
 335 00ca 894B     		ldr	r3, .L12+48
 336 00cc D3E90401 		ldrd	r0, [r3, #16]
 337 00d0 874B     		ldr	r3, .L12+48
 338 00d2 D3E90E23 		ldrd	r2, [r3, #56]
 339 00d6 FFF7FEFF 		bl	__aeabi_dmul
 340 00da 0246     		mov	r2, r0
 341 00dc 0B46     		mov	r3, r1
ARM GAS  C:\Users\cyu13\AppData\Local\Temp\cc2BTquH.s 			page 9


 342 00de 8449     		ldr	r1, .L12+48
 343 00e0 C1E90623 		strd	r2, [r1, #24]
 116:main.c        **** 
 117:main.c        ****     //temporary values
 118:main.c        ****     robot.w = (right_motor.tangent_v - left_motor.tangent_v)/robot.axle_width; //instantaneous turn
 344              		.loc 1 118 0
 345 00e4 824B     		ldr	r3, .L12+48
 346 00e6 D3E90601 		ldrd	r0, [r3, #24]
 347 00ea 824B     		ldr	r3, .L12+52
 348 00ec D3E90623 		ldrd	r2, [r3, #24]
 349 00f0 FFF7FEFF 		bl	__aeabi_dsub
 350 00f4 0246     		mov	r2, r0
 351 00f6 0B46     		mov	r3, r1
 352 00f8 1046     		mov	r0, r2
 353 00fa 1946     		mov	r1, r3
 354 00fc 7E4B     		ldr	r3, .L12+56
 355 00fe D3E90623 		ldrd	r2, [r3, #24]
 356 0102 FFF7FEFF 		bl	__aeabi_ddiv
 357 0106 0246     		mov	r2, r0
 358 0108 0B46     		mov	r3, r1
 359 010a 7B49     		ldr	r1, .L12+56
 360 010c C1E90A23 		strd	r2, [r1, #40]
 119:main.c        ****     robot.V =  (right_motor.tangent_v + left_motor.tangent_v)/2; //instantaneous tangential velocit
 361              		.loc 1 119 0
 362 0110 774B     		ldr	r3, .L12+48
 363 0112 D3E90601 		ldrd	r0, [r3, #24]
 364 0116 774B     		ldr	r3, .L12+52
 365 0118 D3E90623 		ldrd	r2, [r3, #24]
 366 011c FFF7FEFF 		bl	__aeabi_dadd
 367 0120 0246     		mov	r2, r0
 368 0122 0B46     		mov	r3, r1
 369 0124 1046     		mov	r0, r2
 370 0126 1946     		mov	r1, r3
 371 0128 4FF00002 		mov	r2, #0
 372 012c 4FF08043 		mov	r3, #1073741824
 373 0130 FFF7FEFF 		bl	__aeabi_ddiv
 374 0134 0246     		mov	r2, r0
 375 0136 0B46     		mov	r3, r1
 376 0138 6F49     		ldr	r1, .L12+56
 377 013a C1E90823 		strd	r2, [r1, #32]
 120:main.c        **** 
 121:main.c        ****     // update pose variables
 122:main.c        ****     robot.theta = angle_modulo( robot.theta + robot.w * POSE_UPDATE_PERIOD );
 378              		.loc 1 122 0
 379 013e 6E4B     		ldr	r3, .L12+56
 380 0140 D3E90089 		ldrd	r8, [r3]
 381 0144 6C4B     		ldr	r3, .L12+56
 382 0146 D3E90A01 		ldrd	r0, [r3, #40]
 383 014a 5FA3     		adr	r3, .L12+8
 384 014c D3E90023 		ldrd	r2, [r3]
 385 0150 FFF7FEFF 		bl	__aeabi_dmul
 386 0154 0246     		mov	r2, r0
 387 0156 0B46     		mov	r3, r1
 388 0158 4046     		mov	r0, r8
 389 015a 4946     		mov	r1, r9
 390 015c FFF7FEFF 		bl	__aeabi_dadd
 391 0160 0246     		mov	r2, r0
ARM GAS  C:\Users\cyu13\AppData\Local\Temp\cc2BTquH.s 			page 10


 392 0162 0B46     		mov	r3, r1
 393 0164 1046     		mov	r0, r2
 394 0166 1946     		mov	r1, r3
 395 0168 FFF7FEFF 		bl	angle_modulo
 396 016c 0246     		mov	r2, r0
 397 016e 0B46     		mov	r3, r1
 398 0170 6149     		ldr	r1, .L12+56
 399 0172 C1E90023 		strd	r2, [r1]
 123:main.c        ****     robot.x = robot.x + POSE_UPDATE_PERIOD * robot.V * cos(robot.theta);
 400              		.loc 1 123 0
 401 0176 604B     		ldr	r3, .L12+56
 402 0178 D3E90289 		ldrd	r8, [r3, #8]
 403 017c 5E4B     		ldr	r3, .L12+56
 404 017e D3E90801 		ldrd	r0, [r3, #32]
 405 0182 51A3     		adr	r3, .L12+8
 406 0184 D3E90023 		ldrd	r2, [r3]
 407 0188 FFF7FEFF 		bl	__aeabi_dmul
 408 018c 0246     		mov	r2, r0
 409 018e 0B46     		mov	r3, r1
 410 0190 9246     		mov	r10, r2
 411 0192 9B46     		mov	fp, r3
 412 0194 584B     		ldr	r3, .L12+56
 413 0196 D3E90023 		ldrd	r2, [r3]
 414 019a 1046     		mov	r0, r2
 415 019c 1946     		mov	r1, r3
 416 019e FFF7FEFF 		bl	cos
 417 01a2 0246     		mov	r2, r0
 418 01a4 0B46     		mov	r3, r1
 419 01a6 5046     		mov	r0, r10
 420 01a8 5946     		mov	r1, fp
 421 01aa FFF7FEFF 		bl	__aeabi_dmul
 422 01ae 0246     		mov	r2, r0
 423 01b0 0B46     		mov	r3, r1
 424 01b2 4046     		mov	r0, r8
 425 01b4 4946     		mov	r1, r9
 426 01b6 FFF7FEFF 		bl	__aeabi_dadd
 427 01ba 0246     		mov	r2, r0
 428 01bc 0B46     		mov	r3, r1
 429 01be 4E49     		ldr	r1, .L12+56
 430 01c0 C1E90223 		strd	r2, [r1, #8]
 124:main.c        ****     robot.y = robot.y + POSE_UPDATE_PERIOD * robot.V * sin(robot.theta);
 431              		.loc 1 124 0
 432 01c4 4C4B     		ldr	r3, .L12+56
 433 01c6 D3E90489 		ldrd	r8, [r3, #16]
 434 01ca 4B4B     		ldr	r3, .L12+56
 435 01cc D3E90801 		ldrd	r0, [r3, #32]
 436 01d0 3DA3     		adr	r3, .L12+8
 437 01d2 D3E90023 		ldrd	r2, [r3]
 438 01d6 FFF7FEFF 		bl	__aeabi_dmul
 439 01da 0246     		mov	r2, r0
 440 01dc 0B46     		mov	r3, r1
 441 01de 9246     		mov	r10, r2
 442 01e0 9B46     		mov	fp, r3
 443 01e2 454B     		ldr	r3, .L12+56
 444 01e4 D3E90023 		ldrd	r2, [r3]
 445 01e8 1046     		mov	r0, r2
 446 01ea 1946     		mov	r1, r3
ARM GAS  C:\Users\cyu13\AppData\Local\Temp\cc2BTquH.s 			page 11


 447 01ec FFF7FEFF 		bl	sin
 448 01f0 0246     		mov	r2, r0
 449 01f2 0B46     		mov	r3, r1
 450 01f4 5046     		mov	r0, r10
 451 01f6 5946     		mov	r1, fp
 452 01f8 FFF7FEFF 		bl	__aeabi_dmul
 453 01fc 0246     		mov	r2, r0
 454 01fe 0B46     		mov	r3, r1
 455 0200 4046     		mov	r0, r8
 456 0202 4946     		mov	r1, r9
 457 0204 FFF7FEFF 		bl	__aeabi_dadd
 458 0208 0246     		mov	r2, r0
 459 020a 0B46     		mov	r3, r1
 460 020c 3A49     		ldr	r1, .L12+56
 461 020e C1E90423 		strd	r2, [r1, #16]
 125:main.c        ****     
 126:main.c        ****     
 127:main.c        ****     // do robot PI control
 128:main.c        ****     long double error = robot.desired_theta - robot.theta;   
 462              		.loc 1 128 0
 463 0212 394B     		ldr	r3, .L12+56
 464 0214 D3E90E01 		ldrd	r0, [r3, #56]
 465 0218 374B     		ldr	r3, .L12+56
 466 021a D3E90023 		ldrd	r2, [r3]
 467 021e FFF7FEFF 		bl	__aeabi_dsub
 468 0222 0246     		mov	r2, r0
 469 0224 0B46     		mov	r3, r1
 470 0226 C7E90623 		strd	r2, [r7, #24]
 129:main.c        ****     if( error > M_PI ) {     // TODO: give this more thought. Want the robot to choose direction of
 471              		.loc 1 129 0
 472 022a 2BA3     		adr	r3, .L12+24
 473 022c D3E90023 		ldrd	r2, [r3]
 474 0230 D7E90601 		ldrd	r0, [r7, #24]
 475 0234 FFF7FEFF 		bl	__aeabi_dcmpgt
 476 0238 0346     		mov	r3, r0
 477 023a 002B     		cmp	r3, #0
 478 023c 0AD0     		beq	.L6
 130:main.c        ****         error = error - M_TWOPI;
 479              		.loc 1 130 0
 480 023e 20A3     		adr	r3, .L12
 481 0240 D3E90023 		ldrd	r2, [r3]
 482 0244 D7E90601 		ldrd	r0, [r7, #24]
 483 0248 FFF7FEFF 		bl	__aeabi_dsub
 484 024c 0246     		mov	r2, r0
 485 024e 0B46     		mov	r3, r1
 486 0250 C7E90623 		strd	r2, [r7, #24]
 487              	.L6:
 131:main.c        ****     }
 132:main.c        ****     if( error < -M_PI) {
 488              		.loc 1 132 0
 489 0254 22A3     		adr	r3, .L12+32
 490 0256 D3E90023 		ldrd	r2, [r3]
 491 025a D7E90601 		ldrd	r0, [r7, #24]
 492 025e FFF7FEFF 		bl	__aeabi_dcmplt
 493 0262 0346     		mov	r3, r0
 494 0264 002B     		cmp	r3, #0
 495 0266 0AD0     		beq	.L8
ARM GAS  C:\Users\cyu13\AppData\Local\Temp\cc2BTquH.s 			page 12


 133:main.c        ****         error = error + M_TWOPI;
 496              		.loc 1 133 0
 497 0268 15A3     		adr	r3, .L12
 498 026a D3E90023 		ldrd	r2, [r3]
 499 026e D7E90601 		ldrd	r0, [r7, #24]
 500 0272 FFF7FEFF 		bl	__aeabi_dadd
 501 0276 0246     		mov	r2, r0
 502 0278 0B46     		mov	r3, r1
 503 027a C7E90623 		strd	r2, [r7, #24]
 504              	.L8:
 134:main.c        ****     }
 135:main.c        ****     
 136:main.c        ****     double scaled_V = robot.desired_V *( 1 - logl( (M_E-1) * fabsl(error) / M_PI + 1 )); // scales 
 505              		.loc 1 136 0
 506 027e 1E4B     		ldr	r3, .L12+56
 507 0280 D3E90C89 		ldrd	r8, [r3, #48]
 508 0284 BC69     		ldr	r4, [r7, #24]
 509 0286 FB69     		ldr	r3, [r7, #28]
 510 0288 23F00045 		bic	r5, r3, #-2147483648
 511 028c 16A3     		adr	r3, .L12+40
 512 028e D3E90023 		ldrd	r2, [r3]
 513 0292 2046     		mov	r0, r4
 514 0294 2946     		mov	r1, r5
 515 0296 FFF7FEFF 		bl	__aeabi_dmul
 516 029a 0346     		mov	r3, r0
 517 029c 0C46     		mov	r4, r1
 518 029e 1846     		mov	r0, r3
 519 02a0 2146     		mov	r1, r4
 520 02a2 0DA3     		adr	r3, .L12+24
 521 02a4 D3E90023 		ldrd	r2, [r3]
 522 02a8 FFF7FEFF 		bl	__aeabi_ddiv
 523 02ac 0346     		mov	r3, r0
 524 02ae 0C46     		mov	r4, r1
 525 02b0 1846     		mov	r0, r3
 526 02b2 2146     		mov	r1, r4
 527 02b4 4FF00002 		mov	r2, #0
 528 02b8 104B     		ldr	r3, .L12+60
 529 02ba FFF7FEFF 		bl	__aeabi_dadd
 530 02be 1FE0     		b	.L13
 531              	.L14:
 532              		.align	3
 533              	.L12:
 534 02c0 182D4454 		.word	1413754136
 535 02c4 FB211940 		.word	1075388923
 536 02c8 7B14AE47 		.word	1202590843
 537 02cc E17A943F 		.word	1066695393
 538 02d0 A4703D0A 		.word	171798692
 539 02d4 D70FAC40 		.word	1085018071
 540 02d8 182D4454 		.word	1413754136
 541 02dc FB210940 		.word	1074340347
 542 02e0 182D4454 		.word	1413754136
 543 02e4 FB2109C0 		.word	-1073143301
 544 02e8 D2AE2816 		.word	371764946
 545 02ec 157EFB3F 		.word	1073446421
 546 02f0 00000000 		.word	right_motor
 547 02f4 00000000 		.word	left_motor
 548 02f8 00000000 		.word	robot
ARM GAS  C:\Users\cyu13\AppData\Local\Temp\cc2BTquH.s 			page 13


 549 02fc 0000F03F 		.word	1072693248
 550              	.L13:
 551 0300 0346     		mov	r3, r0
 552 0302 0C46     		mov	r4, r1
 553 0304 1846     		mov	r0, r3
 554 0306 2146     		mov	r1, r4
 555 0308 FFF7FEFF 		bl	logl
 556 030c 0346     		mov	r3, r0
 557 030e 0C46     		mov	r4, r1
 558 0310 1A46     		mov	r2, r3
 559 0312 2346     		mov	r3, r4
 560 0314 4FF00000 		mov	r0, #0
 561 0318 4C49     		ldr	r1, .L15
 562 031a FFF7FEFF 		bl	__aeabi_dsub
 563 031e 0346     		mov	r3, r0
 564 0320 0C46     		mov	r4, r1
 565 0322 1A46     		mov	r2, r3
 566 0324 2346     		mov	r3, r4
 567 0326 4046     		mov	r0, r8
 568 0328 4946     		mov	r1, r9
 569 032a FFF7FEFF 		bl	__aeabi_dmul
 570 032e 0346     		mov	r3, r0
 571 0330 0C46     		mov	r4, r1
 572 0332 C7E90234 		strd	r3, [r7, #8]
 137:main.c        ****     
 138:main.c        ****     robot.int_error = robot.int_error + error;
 573              		.loc 1 138 0
 574 0336 464B     		ldr	r3, .L15+4
 575 0338 D3E91401 		ldrd	r0, [r3, #80]
 576 033c D7E90623 		ldrd	r2, [r7, #24]
 577 0340 FFF7FEFF 		bl	__aeabi_dadd
 578 0344 0346     		mov	r3, r0
 579 0346 0C46     		mov	r4, r1
 580 0348 414A     		ldr	r2, .L15+4
 581 034a C2E91434 		strd	r3, [r2, #80]
 139:main.c        ****     long double new_omega = robot.Kp * error + robot.Ki * robot.int_error;
 582              		.loc 1 139 0
 583 034e 404B     		ldr	r3, .L15+4
 584 0350 D3E91201 		ldrd	r0, [r3, #72]
 585 0354 D7E90623 		ldrd	r2, [r7, #24]
 586 0358 FFF7FEFF 		bl	__aeabi_dmul
 587 035c 0346     		mov	r3, r0
 588 035e 0C46     		mov	r4, r1
 589 0360 1D46     		mov	r5, r3
 590 0362 2646     		mov	r6, r4
 591 0364 3A4B     		ldr	r3, .L15+4
 592 0366 D3E91001 		ldrd	r0, [r3, #64]
 593 036a 394B     		ldr	r3, .L15+4
 594 036c 03F15004 		add	r4, r3, #80
 595 0370 D4E90034 		ldrd	r3, [r4]
 596 0374 1A46     		mov	r2, r3
 597 0376 2346     		mov	r3, r4
 598 0378 FFF7FEFF 		bl	__aeabi_dmul
 599 037c 0346     		mov	r3, r0
 600 037e 0C46     		mov	r4, r1
 601 0380 1A46     		mov	r2, r3
 602 0382 2346     		mov	r3, r4
ARM GAS  C:\Users\cyu13\AppData\Local\Temp\cc2BTquH.s 			page 14


 603 0384 2846     		mov	r0, r5
 604 0386 3146     		mov	r1, r6
 605 0388 FFF7FEFF 		bl	__aeabi_dadd
 606 038c 0346     		mov	r3, r0
 607 038e 0C46     		mov	r4, r1
 608 0390 C7E90034 		strd	r3, [r7]
 140:main.c        ****     right_motor.desired_w = (scaled_V + new_omega * robot.axle_width / 2) / right_motor.wheel_radiu
 609              		.loc 1 140 0
 610 0394 2E4B     		ldr	r3, .L15+4
 611 0396 D3E90601 		ldrd	r0, [r3, #24]
 612 039a D7E90023 		ldrd	r2, [r7]
 613 039e FFF7FEFF 		bl	__aeabi_dmul
 614 03a2 0346     		mov	r3, r0
 615 03a4 0C46     		mov	r4, r1
 616 03a6 1846     		mov	r0, r3
 617 03a8 2146     		mov	r1, r4
 618 03aa 4FF00002 		mov	r2, #0
 619 03ae 4FF08043 		mov	r3, #1073741824
 620 03b2 FFF7FEFF 		bl	__aeabi_ddiv
 621 03b6 0346     		mov	r3, r0
 622 03b8 0C46     		mov	r4, r1
 623 03ba 1846     		mov	r0, r3
 624 03bc 2146     		mov	r1, r4
 625 03be D7E90223 		ldrd	r2, [r7, #8]
 626 03c2 FFF7FEFF 		bl	__aeabi_dadd
 627 03c6 0346     		mov	r3, r0
 628 03c8 0C46     		mov	r4, r1
 629 03ca 1846     		mov	r0, r3
 630 03cc 2146     		mov	r1, r4
 631 03ce 214B     		ldr	r3, .L15+8
 632 03d0 03F13804 		add	r4, r3, #56
 633 03d4 D4E90034 		ldrd	r3, [r4]
 634 03d8 1A46     		mov	r2, r3
 635 03da 2346     		mov	r3, r4
 636 03dc FFF7FEFF 		bl	__aeabi_ddiv
 637 03e0 0346     		mov	r3, r0
 638 03e2 0C46     		mov	r4, r1
 639 03e4 1B4A     		ldr	r2, .L15+8
 640 03e6 C2E90834 		strd	r3, [r2, #32]
 141:main.c        ****     left_motor.desired_w = (scaled_V - new_omega * robot.axle_width / 2) / left_motor.wheel_radius;
 641              		.loc 1 141 0
 642 03ea 194B     		ldr	r3, .L15+4
 643 03ec D3E90601 		ldrd	r0, [r3, #24]
 644 03f0 D7E90023 		ldrd	r2, [r7]
 645 03f4 FFF7FEFF 		bl	__aeabi_dmul
 646 03f8 0346     		mov	r3, r0
 647 03fa 0C46     		mov	r4, r1
 648 03fc 1846     		mov	r0, r3
 649 03fe 2146     		mov	r1, r4
 650 0400 4FF00002 		mov	r2, #0
 651 0404 4FF08043 		mov	r3, #1073741824
 652 0408 FFF7FEFF 		bl	__aeabi_ddiv
 653 040c 0346     		mov	r3, r0
 654 040e 0C46     		mov	r4, r1
 655 0410 1A46     		mov	r2, r3
 656 0412 2346     		mov	r3, r4
 657 0414 D7E90201 		ldrd	r0, [r7, #8]
ARM GAS  C:\Users\cyu13\AppData\Local\Temp\cc2BTquH.s 			page 15


 658 0418 FFF7FEFF 		bl	__aeabi_dsub
 659 041c 0346     		mov	r3, r0
 660 041e 0C46     		mov	r4, r1
 661 0420 1846     		mov	r0, r3
 662 0422 2146     		mov	r1, r4
 663 0424 0C4B     		ldr	r3, .L15+12
 664 0426 03F13804 		add	r4, r3, #56
 665 042a D4E90034 		ldrd	r3, [r4]
 666 042e 1A46     		mov	r2, r3
 667 0430 2346     		mov	r3, r4
 668 0432 FFF7FEFF 		bl	__aeabi_ddiv
 669 0436 0346     		mov	r3, r0
 670 0438 0C46     		mov	r4, r1
 671 043a 074A     		ldr	r2, .L15+12
 672 043c C2E90834 		strd	r3, [r2, #32]
 142:main.c        ****     
 143:main.c        **** }
 673              		.loc 1 143 0
 674 0440 00BF     		nop
 675 0442 2437     		adds	r7, r7, #36
 676              		.cfi_def_cfa_offset 36
 677 0444 BD46     		mov	sp, r7
 678              		.cfi_def_cfa_register 13
 679              		@ sp needed
 680 0446 BDE8F08F 		pop	{r4, r5, r6, r7, r8, r9, r10, fp, pc}
 681              	.L16:
 682 044a 00BF     		.align	2
 683              	.L15:
 684 044c 0000F03F 		.word	1072693248
 685 0450 00000000 		.word	robot
 686 0454 00000000 		.word	right_motor
 687 0458 00000000 		.word	left_motor
 688              		.cfi_endproc
 689              	.LFE65:
 690              		.size	Pose_Update_Int_Handler, .-Pose_Update_Int_Handler
 691              		.section	.text.Motor_PI_Int_Handler,"ax",%progbits
 692              		.align	2
 693              		.global	Motor_PI_Int_Handler
 694              		.thumb
 695              		.thumb_func
 696              		.type	Motor_PI_Int_Handler, %function
 697              	Motor_PI_Int_Handler:
 698              	.LFB66:
 144:main.c        **** 
 145:main.c        **** CY_ISR( Motor_PI_Int_Handler ) {
 699              		.loc 1 145 0
 700              		.cfi_startproc
 701              		@ args = 0, pretend = 0, frame = 8
 702              		@ frame_needed = 1, uses_anonymous_args = 0
 703 0000 F0B5     		push	{r4, r5, r6, r7, lr}
 704              		.cfi_def_cfa_offset 20
 705              		.cfi_offset 4, -20
 706              		.cfi_offset 5, -16
 707              		.cfi_offset 6, -12
 708              		.cfi_offset 7, -8
 709              		.cfi_offset 14, -4
 710 0002 83B0     		sub	sp, sp, #12
ARM GAS  C:\Users\cyu13\AppData\Local\Temp\cc2BTquH.s 			page 16


 711              		.cfi_def_cfa_offset 32
 712 0004 00AF     		add	r7, sp, #0
 713              		.cfi_def_cfa_register 7
 146:main.c        ****     long double error = left_motor.desired_w - left_motor.w;
 714              		.loc 1 146 0
 715 0006 514B     		ldr	r3, .L18
 716 0008 D3E90801 		ldrd	r0, [r3, #32]
 717 000c 4F4B     		ldr	r3, .L18
 718 000e 03F11004 		add	r4, r3, #16
 719 0012 D4E90034 		ldrd	r3, [r4]
 720 0016 1A46     		mov	r2, r3
 721 0018 2346     		mov	r3, r4
 722 001a FFF7FEFF 		bl	__aeabi_dsub
 723 001e 0346     		mov	r3, r0
 724 0020 0C46     		mov	r4, r1
 725 0022 C7E90034 		strd	r3, [r7]
 147:main.c        ****     left_motor.int_error  = left_motor.int_error + error;
 726              		.loc 1 147 0
 727 0026 494B     		ldr	r3, .L18
 728 0028 D3E90201 		ldrd	r0, [r3, #8]
 729 002c D7E90023 		ldrd	r2, [r7]
 730 0030 FFF7FEFF 		bl	__aeabi_dadd
 731 0034 0346     		mov	r3, r0
 732 0036 0C46     		mov	r4, r1
 733 0038 444A     		ldr	r2, .L18
 734 003a C2E90234 		strd	r3, [r2, #8]
 148:main.c        ****     left_motor.duty_cycle = left_motor.duty_cycle + left_motor.Kp*error + left_motor.Ki*left_motor.
 735              		.loc 1 148 0
 736 003e 434B     		ldr	r3, .L18
 737 0040 D3E90045 		ldrd	r4, [r3]
 738 0044 414B     		ldr	r3, .L18
 739 0046 D3E90C01 		ldrd	r0, [r3, #48]
 740 004a D7E90023 		ldrd	r2, [r7]
 741 004e FFF7FEFF 		bl	__aeabi_dmul
 742 0052 0246     		mov	r2, r0
 743 0054 0B46     		mov	r3, r1
 744 0056 2046     		mov	r0, r4
 745 0058 2946     		mov	r1, r5
 746 005a FFF7FEFF 		bl	__aeabi_dadd
 747 005e 0346     		mov	r3, r0
 748 0060 0C46     		mov	r4, r1
 749 0062 1D46     		mov	r5, r3
 750 0064 2646     		mov	r6, r4
 751 0066 394B     		ldr	r3, .L18
 752 0068 D3E90A01 		ldrd	r0, [r3, #40]
 753 006c 374B     		ldr	r3, .L18
 754 006e 03F10804 		add	r4, r3, #8
 755 0072 D4E90034 		ldrd	r3, [r4]
 756 0076 1A46     		mov	r2, r3
 757 0078 2346     		mov	r3, r4
 758 007a FFF7FEFF 		bl	__aeabi_dmul
 759 007e 0346     		mov	r3, r0
 760 0080 0C46     		mov	r4, r1
 761 0082 1A46     		mov	r2, r3
 762 0084 2346     		mov	r3, r4
 763 0086 2846     		mov	r0, r5
 764 0088 3146     		mov	r1, r6
ARM GAS  C:\Users\cyu13\AppData\Local\Temp\cc2BTquH.s 			page 17


 765 008a FFF7FEFF 		bl	__aeabi_dadd
 766 008e 0346     		mov	r3, r0
 767 0090 0C46     		mov	r4, r1
 768 0092 2E4A     		ldr	r2, .L18
 769 0094 C2E90034 		strd	r3, [r2]
 149:main.c        ****     Drive_Left_Motor(left_motor.duty_cycle);
 770              		.loc 1 149 0
 771 0098 2C4B     		ldr	r3, .L18
 772 009a 18CB     		ldmia	r3, {r3-r4}
 773 009c 1846     		mov	r0, r3
 774 009e 2146     		mov	r1, r4
 775 00a0 FFF7FEFF 		bl	Drive_Left_Motor
 150:main.c        ****     
 151:main.c        ****     error = right_motor.desired_w - right_motor.w;
 776              		.loc 1 151 0
 777 00a4 2A4B     		ldr	r3, .L18+4
 778 00a6 D3E90801 		ldrd	r0, [r3, #32]
 779 00aa 294B     		ldr	r3, .L18+4
 780 00ac 03F11004 		add	r4, r3, #16
 781 00b0 D4E90034 		ldrd	r3, [r4]
 782 00b4 1A46     		mov	r2, r3
 783 00b6 2346     		mov	r3, r4
 784 00b8 FFF7FEFF 		bl	__aeabi_dsub
 785 00bc 0346     		mov	r3, r0
 786 00be 0C46     		mov	r4, r1
 787 00c0 C7E90034 		strd	r3, [r7]
 152:main.c        ****     right_motor.int_error  = right_motor.int_error + error;
 788              		.loc 1 152 0
 789 00c4 224B     		ldr	r3, .L18+4
 790 00c6 D3E90201 		ldrd	r0, [r3, #8]
 791 00ca D7E90023 		ldrd	r2, [r7]
 792 00ce FFF7FEFF 		bl	__aeabi_dadd
 793 00d2 0346     		mov	r3, r0
 794 00d4 0C46     		mov	r4, r1
 795 00d6 1E4A     		ldr	r2, .L18+4
 796 00d8 C2E90234 		strd	r3, [r2, #8]
 153:main.c        ****     right_motor.duty_cycle = right_motor.duty_cycle + right_motor.Kp*error + right_motor.Ki*right_m
 797              		.loc 1 153 0
 798 00dc 1C4B     		ldr	r3, .L18+4
 799 00de D3E90045 		ldrd	r4, [r3]
 800 00e2 1B4B     		ldr	r3, .L18+4
 801 00e4 D3E90C01 		ldrd	r0, [r3, #48]
 802 00e8 D7E90023 		ldrd	r2, [r7]
 803 00ec FFF7FEFF 		bl	__aeabi_dmul
 804 00f0 0246     		mov	r2, r0
 805 00f2 0B46     		mov	r3, r1
 806 00f4 2046     		mov	r0, r4
 807 00f6 2946     		mov	r1, r5
 808 00f8 FFF7FEFF 		bl	__aeabi_dadd
 809 00fc 0346     		mov	r3, r0
 810 00fe 0C46     		mov	r4, r1
 811 0100 1D46     		mov	r5, r3
 812 0102 2646     		mov	r6, r4
 813 0104 124B     		ldr	r3, .L18+4
 814 0106 D3E90A01 		ldrd	r0, [r3, #40]
 815 010a 114B     		ldr	r3, .L18+4
 816 010c 03F10804 		add	r4, r3, #8
ARM GAS  C:\Users\cyu13\AppData\Local\Temp\cc2BTquH.s 			page 18


 817 0110 D4E90034 		ldrd	r3, [r4]
 818 0114 1A46     		mov	r2, r3
 819 0116 2346     		mov	r3, r4
 820 0118 FFF7FEFF 		bl	__aeabi_dmul
 821 011c 0346     		mov	r3, r0
 822 011e 0C46     		mov	r4, r1
 823 0120 1A46     		mov	r2, r3
 824 0122 2346     		mov	r3, r4
 825 0124 2846     		mov	r0, r5
 826 0126 3146     		mov	r1, r6
 827 0128 FFF7FEFF 		bl	__aeabi_dadd
 828 012c 0346     		mov	r3, r0
 829 012e 0C46     		mov	r4, r1
 830 0130 074A     		ldr	r2, .L18+4
 831 0132 C2E90034 		strd	r3, [r2]
 154:main.c        ****     Drive_Right_Motor(right_motor.duty_cycle);
 832              		.loc 1 154 0
 833 0136 064B     		ldr	r3, .L18+4
 834 0138 18CB     		ldmia	r3, {r3-r4}
 835 013a 1846     		mov	r0, r3
 836 013c 2146     		mov	r1, r4
 837 013e FFF7FEFF 		bl	Drive_Right_Motor
 155:main.c        **** }
 838              		.loc 1 155 0
 839 0142 00BF     		nop
 840 0144 0C37     		adds	r7, r7, #12
 841              		.cfi_def_cfa_offset 20
 842 0146 BD46     		mov	sp, r7
 843              		.cfi_def_cfa_register 13
 844              		@ sp needed
 845 0148 F0BD     		pop	{r4, r5, r6, r7, pc}
 846              	.L19:
 847 014a 00BF     		.align	2
 848              	.L18:
 849 014c 00000000 		.word	left_motor
 850 0150 00000000 		.word	right_motor
 851              		.cfi_endproc
 852              	.LFE66:
 853              		.size	Motor_PI_Int_Handler, .-Motor_PI_Int_Handler
 854              		.global	__aeabi_dcmpge
 855              		.section	.text.Navigation_Test_Int_Handler,"ax",%progbits
 856              		.align	2
 857              		.global	Navigation_Test_Int_Handler
 858              		.thumb
 859              		.thumb_func
 860              		.type	Navigation_Test_Int_Handler, %function
 861              	Navigation_Test_Int_Handler:
 862              	.LFB67:
 156:main.c        **** 
 157:main.c        **** CY_ISR( Navigation_Test_Int_Handler ) {
 863              		.loc 1 157 0
 864              		.cfi_startproc
 865              		@ args = 0, pretend = 0, frame = 8
 866              		@ frame_needed = 1, uses_anonymous_args = 0
 867 0000 90B5     		push	{r4, r7, lr}
 868              		.cfi_def_cfa_offset 12
 869              		.cfi_offset 4, -12
ARM GAS  C:\Users\cyu13\AppData\Local\Temp\cc2BTquH.s 			page 19


 870              		.cfi_offset 7, -8
 871              		.cfi_offset 14, -4
 872 0002 83B0     		sub	sp, sp, #12
 873              		.cfi_def_cfa_offset 24
 874 0004 00AF     		add	r7, sp, #0
 875              		.cfi_def_cfa_register 7
 158:main.c        ****     long double angle;
 159:main.c        ****     angle = robot.desired_theta + M_PI/8;
 876              		.loc 1 159 0
 877 0006 1A4B     		ldr	r3, .L24+16
 878 0008 D3E90E01 		ldrd	r0, [r3, #56]
 879 000c 14A3     		adr	r3, .L24
 880 000e D3E90023 		ldrd	r2, [r3]
 881 0012 FFF7FEFF 		bl	__aeabi_dadd
 882 0016 0346     		mov	r3, r0
 883 0018 0C46     		mov	r4, r1
 884 001a C7E90034 		strd	r3, [r7]
 160:main.c        ****     if( angle >= M_TWOPI ) {
 885              		.loc 1 160 0
 886 001e 12A3     		adr	r3, .L24+8
 887 0020 D3E90023 		ldrd	r2, [r3]
 888 0024 D7E90001 		ldrd	r0, [r7]
 889 0028 FFF7FEFF 		bl	__aeabi_dcmpge
 890 002c 0346     		mov	r3, r0
 891 002e 002B     		cmp	r3, #0
 892 0030 0AD0     		beq	.L21
 161:main.c        ****         angle = angle - M_TWOPI;
 893              		.loc 1 161 0
 894 0032 0DA3     		adr	r3, .L24+8
 895 0034 D3E90023 		ldrd	r2, [r3]
 896 0038 D7E90001 		ldrd	r0, [r7]
 897 003c FFF7FEFF 		bl	__aeabi_dsub
 898 0040 0346     		mov	r3, r0
 899 0042 0C46     		mov	r4, r1
 900 0044 C7E90034 		strd	r3, [r7]
 901              	.L21:
 162:main.c        ****     }
 163:main.c        ****     robot.desired_theta = angle;
 902              		.loc 1 163 0
 903 0048 094A     		ldr	r2, .L24+16
 904 004a D7E90034 		ldrd	r3, [r7]
 905 004e C2E90E34 		strd	r3, [r2, #56]
 164:main.c        **** }
 906              		.loc 1 164 0
 907 0052 00BF     		nop
 908 0054 0C37     		adds	r7, r7, #12
 909              		.cfi_def_cfa_offset 12
 910 0056 BD46     		mov	sp, r7
 911              		.cfi_def_cfa_register 13
 912              		@ sp needed
 913 0058 90BD     		pop	{r4, r7, pc}
 914              	.L25:
 915 005a 00BFAFF3 		.align	3
 915      0080
 916              	.L24:
 917 0060 182D4454 		.word	1413754136
 918 0064 FB21D93F 		.word	1071194619
ARM GAS  C:\Users\cyu13\AppData\Local\Temp\cc2BTquH.s 			page 20


 919 0068 182D4454 		.word	1413754136
 920 006c FB211940 		.word	1075388923
 921 0070 00000000 		.word	robot
 922              		.cfi_endproc
 923              	.LFE67:
 924              		.size	Navigation_Test_Int_Handler, .-Navigation_Test_Int_Handler
 925              		.section	.rodata
 926              		.align	2
 927              	.LC1:
 928 0010 44697374 		.ascii	"Distance to goal: %d\012\000"
 928      616E6365 
 928      20746F20 
 928      676F616C 
 928      3A202564 
 929              		.global	__aeabi_dcmple
 930 0026 0000     		.align	2
 931              	.LC2:
 932 0028 254C660A 		.ascii	"%Lf\012\000"
 932      00
 933 002d 000000   		.align	2
 934              	.LC0:
 935 0030 5A000000 		.word	90
 936 0034 5A000000 		.word	90
 937 0038 1E000000 		.word	30
 938 003c 5A000000 		.word	90
 939              		.section	.text.main,"ax",%progbits
 940              		.align	2
 941              		.global	main
 942              		.thumb
 943              		.thumb_func
 944              		.type	main, %function
 945              	main:
 946              	.LFB68:
 165:main.c        **** 
 166:main.c        **** 
 167:main.c        **** 
 168:main.c        **** 
 169:main.c        **** int main(void)
 170:main.c        **** {
 947              		.loc 1 170 0
 948              		.cfi_startproc
 949              		@ args = 0, pretend = 0, frame = 72
 950              		@ frame_needed = 1, uses_anonymous_args = 0
 951 0000 2DE9F04F 		push	{r4, r5, r6, r7, r8, r9, r10, fp, lr}
 952              		.cfi_def_cfa_offset 36
 953              		.cfi_offset 4, -36
 954              		.cfi_offset 5, -32
 955              		.cfi_offset 6, -28
 956              		.cfi_offset 7, -24
 957              		.cfi_offset 8, -20
 958              		.cfi_offset 9, -16
 959              		.cfi_offset 10, -12
 960              		.cfi_offset 11, -8
 961              		.cfi_offset 14, -4
 962 0004 9DB0     		sub	sp, sp, #116
 963              		.cfi_def_cfa_offset 152
 964 0006 0AAF     		add	r7, sp, #40
ARM GAS  C:\Users\cyu13\AppData\Local\Temp\cc2BTquH.s 			page 21


 965              		.cfi_def_cfa 7, 112
 171:main.c        ****     long double wheel_r_scale = 0.9578;   
 966              		.loc 1 171 0
 967 0008 95A4     		adr	r4, .L41
 968 000a D4E90034 		ldrd	r3, [r4]
 969 000e C7E90E34 		strd	r3, [r7, #56]
 172:main.c        ****     left_motor.duty_cycle = 0;
 970              		.loc 1 172 0
 971 0012 9F4A     		ldr	r2, .L41+48
 972 0014 4FF00003 		mov	r3, #0
 973 0018 4FF00004 		mov	r4, #0
 974 001c C2E90034 		strd	r3, [r2]
 173:main.c        ****     left_motor.int_error = 0;
 975              		.loc 1 173 0
 976 0020 9B4A     		ldr	r2, .L41+48
 977 0022 4FF00003 		mov	r3, #0
 978 0026 4FF00004 		mov	r4, #0
 979 002a C2E90234 		strd	r3, [r2, #8]
 174:main.c        ****     left_motor.desired_w = 0;
 980              		.loc 1 174 0
 981 002e 984A     		ldr	r2, .L41+48
 982 0030 4FF00003 		mov	r3, #0
 983 0034 4FF00004 		mov	r4, #0
 984 0038 C2E90834 		strd	r3, [r2, #32]
 175:main.c        ****     left_motor.wheel_radius = wheel_r_scale * 2.75;
 985              		.loc 1 175 0
 986 003c 4FF00002 		mov	r2, #0
 987 0040 944B     		ldr	r3, .L41+52
 988 0042 D7E90E01 		ldrd	r0, [r7, #56]
 989 0046 FFF7FEFF 		bl	__aeabi_dmul
 990 004a 0346     		mov	r3, r0
 991 004c 0C46     		mov	r4, r1
 992 004e 904A     		ldr	r2, .L41+48
 993 0050 C2E90E34 		strd	r3, [r2, #56]
 176:main.c        ****     left_motor.enc_count = 0;
 994              		.loc 1 176 0
 995 0054 8E4B     		ldr	r3, .L41+48
 996 0056 0022     		movs	r2, #0
 997 0058 1A64     		str	r2, [r3, #64]
 177:main.c        ****     left_motor.Ki = 3e-6;  // TODO: determine good PI params
 998              		.loc 1 177 0
 999 005a 8D4A     		ldr	r2, .L41+48
 1000 005c 82A4     		adr	r4, .L41+8
 1001 005e D4E90034 		ldrd	r3, [r4]
 1002 0062 C2E90A34 		strd	r3, [r2, #40]
 178:main.c        ****     left_motor.Kp = 0.0025;
 1003              		.loc 1 178 0
 1004 0066 8A4A     		ldr	r2, .L41+48
 1005 0068 81A4     		adr	r4, .L41+16
 1006 006a D4E90034 		ldrd	r3, [r4]
 1007 006e C2E90C34 		strd	r3, [r2, #48]
 179:main.c        ****     
 180:main.c        ****     right_motor.duty_cycle = 0;
 1008              		.loc 1 180 0
 1009 0072 894A     		ldr	r2, .L41+56
 1010 0074 4FF00003 		mov	r3, #0
 1011 0078 4FF00004 		mov	r4, #0
ARM GAS  C:\Users\cyu13\AppData\Local\Temp\cc2BTquH.s 			page 22


 1012 007c C2E90034 		strd	r3, [r2]
 181:main.c        ****     right_motor.int_error = 0;
 1013              		.loc 1 181 0
 1014 0080 854A     		ldr	r2, .L41+56
 1015 0082 4FF00003 		mov	r3, #0
 1016 0086 4FF00004 		mov	r4, #0
 1017 008a C2E90234 		strd	r3, [r2, #8]
 182:main.c        ****     right_motor.desired_w = 0;
 1018              		.loc 1 182 0
 1019 008e 824A     		ldr	r2, .L41+56
 1020 0090 4FF00003 		mov	r3, #0
 1021 0094 4FF00004 		mov	r4, #0
 1022 0098 C2E90834 		strd	r3, [r2, #32]
 183:main.c        ****     right_motor.wheel_radius = wheel_r_scale * 1.001*2.75;
 1023              		.loc 1 183 0
 1024 009c 76A3     		adr	r3, .L41+24
 1025 009e D3E90023 		ldrd	r2, [r3]
 1026 00a2 D7E90E01 		ldrd	r0, [r7, #56]
 1027 00a6 FFF7FEFF 		bl	__aeabi_dmul
 1028 00aa 0346     		mov	r3, r0
 1029 00ac 0C46     		mov	r4, r1
 1030 00ae 1846     		mov	r0, r3
 1031 00b0 2146     		mov	r1, r4
 1032 00b2 4FF00002 		mov	r2, #0
 1033 00b6 774B     		ldr	r3, .L41+52
 1034 00b8 FFF7FEFF 		bl	__aeabi_dmul
 1035 00bc 0346     		mov	r3, r0
 1036 00be 0C46     		mov	r4, r1
 1037 00c0 754A     		ldr	r2, .L41+56
 1038 00c2 C2E90E34 		strd	r3, [r2, #56]
 184:main.c        ****     right_motor.enc_count = 0;
 1039              		.loc 1 184 0
 1040 00c6 744B     		ldr	r3, .L41+56
 1041 00c8 0022     		movs	r2, #0
 1042 00ca 1A64     		str	r2, [r3, #64]
 185:main.c        ****     right_motor.Ki = 3e-6;  // TODO: determine good PI params
 1043              		.loc 1 185 0
 1044 00cc 724A     		ldr	r2, .L41+56
 1045 00ce 66A4     		adr	r4, .L41+8
 1046 00d0 D4E90034 		ldrd	r3, [r4]
 1047 00d4 C2E90A34 		strd	r3, [r2, #40]
 186:main.c        ****     right_motor.Kp = 0.0025;
 1048              		.loc 1 186 0
 1049 00d8 6F4A     		ldr	r2, .L41+56
 1050 00da 65A4     		adr	r4, .L41+16
 1051 00dc D4E90034 		ldrd	r3, [r4]
 1052 00e0 C2E90C34 		strd	r3, [r2, #48]
 187:main.c        ****     
 188:main.c        ****     robot.axle_width = 0.967*22.5; // TODO: get accurate measurement
 1053              		.loc 1 188 0
 1054 00e4 6D4A     		ldr	r2, .L41+60
 1055 00e6 66A4     		adr	r4, .L41+32
 1056 00e8 D4E90034 		ldrd	r3, [r4]
 1057 00ec C2E90634 		strd	r3, [r2, #24]
 189:main.c        ****     robot.int_error = 0;
 1058              		.loc 1 189 0
 1059 00f0 6A4A     		ldr	r2, .L41+60
ARM GAS  C:\Users\cyu13\AppData\Local\Temp\cc2BTquH.s 			page 23


 1060 00f2 4FF00003 		mov	r3, #0
 1061 00f6 4FF00004 		mov	r4, #0
 1062 00fa C2E91434 		strd	r3, [r2, #80]
 190:main.c        ****     robot.Ki = 3e-5;    // TODO: determine good PI values
 1063              		.loc 1 190 0
 1064 00fe 674A     		ldr	r2, .L41+60
 1065 0100 61A4     		adr	r4, .L41+40
 1066 0102 D4E90034 		ldrd	r3, [r4]
 1067 0106 C2E91034 		strd	r3, [r2, #64]
 191:main.c        ****     robot.Kp = 0.75;
 1068              		.loc 1 191 0
 1069 010a 644A     		ldr	r2, .L41+60
 1070 010c 4FF00003 		mov	r3, #0
 1071 0110 634C     		ldr	r4, .L41+64
 1072 0112 C2E91234 		strd	r3, [r2, #72]
 192:main.c        ****     robot.desired_V = 0;
 1073              		.loc 1 192 0
 1074 0116 614A     		ldr	r2, .L41+60
 1075 0118 4FF00003 		mov	r3, #0
 1076 011c 4FF00004 		mov	r4, #0
 1077 0120 C2E90C34 		strd	r3, [r2, #48]
 193:main.c        ****     robot.desired_theta = 0;
 1078              		.loc 1 193 0
 1079 0124 5D4A     		ldr	r2, .L41+60
 1080 0126 4FF00003 		mov	r3, #0
 1081 012a 4FF00004 		mov	r4, #0
 1082 012e C2E90E34 		strd	r3, [r2, #56]
 194:main.c        ****     robot.theta = 0;
 1083              		.loc 1 194 0
 1084 0132 5A4A     		ldr	r2, .L41+60
 1085 0134 4FF00003 		mov	r3, #0
 1086 0138 4FF00004 		mov	r4, #0
 1087 013c C2E90034 		strd	r3, [r2]
 195:main.c        ****     robot.x = 30;
 1088              		.loc 1 195 0
 1089 0140 564A     		ldr	r2, .L41+60
 1090 0142 4FF00003 		mov	r3, #0
 1091 0146 574C     		ldr	r4, .L41+68
 1092 0148 C2E90234 		strd	r3, [r2, #8]
 196:main.c        ****     robot.y = 30;
 1093              		.loc 1 196 0
 1094 014c 534A     		ldr	r2, .L41+60
 1095 014e 4FF00003 		mov	r3, #0
 1096 0152 544C     		ldr	r4, .L41+68
 1097 0154 C2E90434 		strd	r3, [r2, #16]
 197:main.c        ****     robot.goal_min_dist = 1;
 1098              		.loc 1 197 0
 1099 0158 504A     		ldr	r2, .L41+60
 1100 015a 4FF00003 		mov	r3, #0
 1101 015e 524C     		ldr	r4, .L41+72
 1102 0160 C2E91A34 		strd	r3, [r2, #104]
 198:main.c        ****     
 199:main.c        ****     
 200:main.c        ****     sensors.direction[0] = 0;
 1103              		.loc 1 200 0
 1104 0164 514B     		ldr	r3, .L41+76
 1105 0166 0022     		movs	r2, #0
ARM GAS  C:\Users\cyu13\AppData\Local\Temp\cc2BTquH.s 			page 24


 1106 0168 1A60     		str	r2, [r3]
 201:main.c        ****     sensors.direction[1] = 45;
 1107              		.loc 1 201 0
 1108 016a 504B     		ldr	r3, .L41+76
 1109 016c 2D22     		movs	r2, #45
 1110 016e 5A60     		str	r2, [r3, #4]
 202:main.c        ****     sensors.direction[2] = 90;
 1111              		.loc 1 202 0
 1112 0170 4E4B     		ldr	r3, .L41+76
 1113 0172 5A22     		movs	r2, #90
 1114 0174 9A60     		str	r2, [r3, #8]
 203:main.c        ****     sensors.direction[3] = 270;
 1115              		.loc 1 203 0
 1116 0176 4D4B     		ldr	r3, .L41+76
 1117 0178 4FF48772 		mov	r2, #270
 1118 017c DA60     		str	r2, [r3, #12]
 204:main.c        ****     sensors.direction[4] = 315;
 1119              		.loc 1 204 0
 1120 017e 4B4B     		ldr	r3, .L41+76
 1121 0180 40F23B12 		movw	r2, #315
 1122 0184 1A61     		str	r2, [r3, #16]
 205:main.c        ****     
 206:main.c        ****     CyGlobalIntEnable;
 1123              		.loc 1 206 0
 1124              		.syntax unified
 1125              	@ 206 "main.c" 1
 1126 0186 62B6     		CPSIE   i
 1127              	@ 0 "" 2
 207:main.c        ****     
 208:main.c        ****     // Registration of Timer ISR
 209:main.c        ****     Timer_Echo_Int_StartEx( Timer_Int_Handler );
 1128              		.loc 1 209 0
 1129              		.thumb
 1130              		.syntax unified
 1131 0188 4948     		ldr	r0, .L41+80
 1132 018a FFF7FEFF 		bl	Timer_Echo_Int_StartEx
 210:main.c        ****     Pose_Update_Int_StartEx( Pose_Update_Int_Handler );
 1133              		.loc 1 210 0
 1134 018e 4948     		ldr	r0, .L41+84
 1135 0190 FFF7FEFF 		bl	Pose_Update_Int_StartEx
 211:main.c        ****     Motor_PI_Int_StartEx( Motor_PI_Int_Handler );
 1136              		.loc 1 211 0
 1137 0194 4848     		ldr	r0, .L41+88
 1138 0196 FFF7FEFF 		bl	Motor_PI_Int_StartEx
 212:main.c        ****     Testing_Int_StartEx( Navigation_Test_Int_Handler );
 1139              		.loc 1 212 0
 1140 019a 4848     		ldr	r0, .L41+92
 1141 019c FFF7FEFF 		bl	Testing_Int_StartEx
 213:main.c        ****     
 214:main.c        ****     // Start up code - enable UART, PWM and Timer used for ultrasonic module
 215:main.c        ****     UART_Start();
 1142              		.loc 1 215 0
 1143 01a0 FFF7FEFF 		bl	UART_Start
 216:main.c        ****     Timer_Echo_Start();
 1144              		.loc 1 216 0
 1145 01a4 FFF7FEFF 		bl	Timer_Echo_Start
 217:main.c        ****     PWM_Trigger_Start();
ARM GAS  C:\Users\cyu13\AppData\Local\Temp\cc2BTquH.s 			page 25


 1146              		.loc 1 217 0
 1147 01a8 FFF7FEFF 		bl	PWM_Trigger_Start
 218:main.c        ****     QuadDec_L_Start();
 1148              		.loc 1 218 0
 1149 01ac FFF7FEFF 		bl	QuadDec_L_Start
 219:main.c        ****     PWM_Motor_L_Start();
 1150              		.loc 1 219 0
 1151 01b0 FFF7FEFF 		bl	PWM_Motor_L_Start
 220:main.c        ****     QuadDec_R_Start();
 1152              		.loc 1 220 0
 1153 01b4 FFF7FEFF 		bl	QuadDec_R_Start
 221:main.c        ****     PWM_Motor_R_Start();
 1154              		.loc 1 221 0
 1155 01b8 FFF7FEFF 		bl	PWM_Motor_R_Start
 222:main.c        ****     Timer_Avoidance_Start();
 1156              		.loc 1 222 0
 1157 01bc FFF7FEFF 		bl	Timer_Avoidance_Start
 223:main.c        ****     Timer_Avoidance_WriteCounter(1000); // Cause robot to start moving immediately
 1158              		.loc 1 223 0
 1159 01c0 4FF47A70 		mov	r0, #1000
 1160 01c4 FFF7FEFF 		bl	Timer_Avoidance_WriteCounter
 224:main.c        ****         
 225:main.c        ****     // Creation of VFH grid environment
 226:main.c        ****     sensors.direction[0] = 0;
 1161              		.loc 1 226 0
 1162 01c8 384B     		ldr	r3, .L41+76
 1163 01ca 0022     		movs	r2, #0
 1164 01cc 1A60     		str	r2, [r3]
 227:main.c        ****     sensors.direction[1] = 30;
 1165              		.loc 1 227 0
 1166 01ce 374B     		ldr	r3, .L41+76
 1167 01d0 1E22     		movs	r2, #30
 1168 01d2 5A60     		str	r2, [r3, #4]
 228:main.c        ****     sensors.direction[2] = 90;
 1169              		.loc 1 228 0
 1170 01d4 354B     		ldr	r3, .L41+76
 1171 01d6 5A22     		movs	r2, #90
 1172 01d8 9A60     		str	r2, [r3, #8]
 229:main.c        ****     sensors.direction[3] = 270;
 1173              		.loc 1 229 0
 1174 01da 344B     		ldr	r3, .L41+76
 1175 01dc 4FF48772 		mov	r2, #270
 1176 01e0 DA60     		str	r2, [r3, #12]
 230:main.c        ****     sensors.direction[4] = 300;
 1177              		.loc 1 230 0
 1178 01e2 324B     		ldr	r3, .L41+76
 1179 01e4 4FF49672 		mov	r2, #300
 1180 01e8 1A61     		str	r2, [r3, #16]
 231:main.c        ****     certainty_grid = grid_create(65, 65, 2);
 1181              		.loc 1 231 0
 1182 01ea 0222     		movs	r2, #2
 1183 01ec 4121     		movs	r1, #65
 1184 01ee 4120     		movs	r0, #65
 1185 01f0 FFF7FEFF 		bl	grid_create
 1186 01f4 0246     		mov	r2, r0
 1187 01f6 324B     		ldr	r3, .L41+96
 1188 01f8 1A60     		str	r2, [r3]
ARM GAS  C:\Users\cyu13\AppData\Local\Temp\cc2BTquH.s 			page 26


 232:main.c        ****     polar_histogram = polar_histogram_create(5, 20, 10, 5);
 1189              		.loc 1 232 0
 1190 01fa 4FF00003 		mov	r3, #0
 1191 01fe 314C     		ldr	r4, .L41+100
 1192 0200 CDE90234 		strd	r3, [sp, #8]
 1193 0204 4FF00003 		mov	r3, #0
 1194 0208 2F4C     		ldr	r4, .L41+104
 1195 020a CDE90034 		strd	r3, [sp]
 1196 020e 4FF00002 		mov	r2, #0
 1197 0212 2E4B     		ldr	r3, .L41+108
 1198 0214 0520     		movs	r0, #5
 1199 0216 FFF7FEFF 		bl	polar_histogram_create
 1200 021a 0246     		mov	r2, r0
 1201 021c 2C4B     		ldr	r3, .L41+112
 1202 021e 1A60     		str	r2, [r3]
 233:main.c        **** 
 234:main.c        ****     // Check initialisation
 235:main.c        ****     if (certainty_grid == NULL) return -1;
 1203              		.loc 1 235 0
 1204 0220 274B     		ldr	r3, .L41+96
 1205 0222 1B68     		ldr	r3, [r3]
 1206 0224 002B     		cmp	r3, #0
 1207 0226 02D1     		bne	.L27
 1208              		.loc 1 235 0 is_stmt 0 discriminator 1
 1209 0228 4FF0FF33 		mov	r3, #-1
 1210 022c 89E1     		b	.L38
 1211              	.L27:
 236:main.c        ****     if (certainty_grid->cells == NULL) return -1;
 1212              		.loc 1 236 0 is_stmt 1
 1213 022e 244B     		ldr	r3, .L41+96
 1214 0230 1B68     		ldr	r3, [r3]
 1215 0232 DB68     		ldr	r3, [r3, #12]
 1216 0234 002B     		cmp	r3, #0
 1217 0236 02D1     		bne	.L29
 1218              		.loc 1 236 0 is_stmt 0 discriminator 1
 1219 0238 4FF0FF33 		mov	r3, #-1
 1220 023c 81E1     		b	.L38
 1221              	.L29:
 237:main.c        ****     if (polar_histogram == NULL) return -1;
 1222              		.loc 1 237 0 is_stmt 1
 1223 023e 244B     		ldr	r3, .L41+112
 1224 0240 1B68     		ldr	r3, [r3]
 1225 0242 002B     		cmp	r3, #0
 1226 0244 02D1     		bne	.L30
 1227              		.loc 1 237 0 is_stmt 0 discriminator 1
 1228 0246 4FF0FF33 		mov	r3, #-1
 1229 024a 7AE1     		b	.L38
 1230              	.L30:
 238:main.c        ****     if (polar_histogram->densities == NULL) return -1;
 1231              		.loc 1 238 0 is_stmt 1
 1232 024c 204B     		ldr	r3, .L41+112
 1233 024e 1B68     		ldr	r3, [r3]
 1234 0250 9B6A     		ldr	r3, [r3, #40]
 1235 0252 002B     		cmp	r3, #0
 1236 0254 3ED1     		bne	.L31
 1237              		.loc 1 238 0 is_stmt 0 discriminator 1
 1238 0256 4FF0FF33 		mov	r3, #-1
ARM GAS  C:\Users\cyu13\AppData\Local\Temp\cc2BTquH.s 			page 27


 1239 025a 72E1     		b	.L38
 1240              	.L42:
 1241 025c AFF30080 		.align	3
 1242              	.L41:
 1243 0260 4A7B832F 		.word	797145930
 1244 0264 4CA6EE3F 		.word	1072604748
 1245 0268 54E41071 		.word	1896932436
 1246 026c 732AC93E 		.word	1053370995
 1247 0270 7B14AE47 		.word	1202590843
 1248 0274 E17A643F 		.word	1063549665
 1249 0278 6ABC7493 		.word	-1821066134
 1250 027c 1804F03F 		.word	1072694296
 1251 0280 52B81E85 		.word	-2061584302
 1252 0284 EBC13540 		.word	1077264875
 1253 0288 691D554D 		.word	1297423721
 1254 028c 1075FF3E 		.word	1056929040
 1255 0290 00000000 		.word	left_motor
 1256 0294 00000640 		.word	1074135040
 1257 0298 00000000 		.word	right_motor
 1258 029c 00000000 		.word	robot
 1259 02a0 0000E83F 		.word	1072168960
 1260 02a4 00003E40 		.word	1077805056
 1261 02a8 0000F03F 		.word	1072693248
 1262 02ac 00000000 		.word	sensors
 1263 02b0 00000000 		.word	Timer_Int_Handler
 1264 02b4 00000000 		.word	Pose_Update_Int_Handler
 1265 02b8 00000000 		.word	Motor_PI_Int_Handler
 1266 02bc 00000000 		.word	Navigation_Test_Int_Handler
 1267 02c0 00000000 		.word	certainty_grid
 1268 02c4 00001440 		.word	1075052544
 1269 02c8 00002440 		.word	1076101120
 1270 02cc 00003440 		.word	1077149696
 1271 02d0 00000000 		.word	polar_histogram
 1272              	.L31:
 239:main.c        **** 
 240:main.c        ****     // Take in initial sensor measurements
 241:main.c        **** 
 242:main.c        ****     // Update Grid
 243:main.c        ****     int UPDATE_FLAG = grid_update(certainty_grid, robot.x, robot.y, robot.theta, sensors);
 1273              		.loc 1 243 0 is_stmt 1
 1274 02d4 9D4B     		ldr	r3, .L43
 1275 02d6 1E68     		ldr	r6, [r3]
 1276 02d8 9D4B     		ldr	r3, .L43+4
 1277 02da 03F10804 		add	r4, r3, #8
 1278 02de D4E90034 		ldrd	r3, [r4]
 1279 02e2 1846     		mov	r0, r3
 1280 02e4 2146     		mov	r1, r4
 1281 02e6 FFF7FEFF 		bl	__aeabi_d2iz
 1282 02ea 8046     		mov	r8, r0
 1283 02ec 984B     		ldr	r3, .L43+4
 1284 02ee 03F11004 		add	r4, r3, #16
 1285 02f2 D4E90034 		ldrd	r3, [r4]
 1286 02f6 1846     		mov	r0, r3
 1287 02f8 2146     		mov	r1, r4
 1288 02fa FFF7FEFF 		bl	__aeabi_d2iz
 1289 02fe 8146     		mov	r9, r0
 1290 0300 934B     		ldr	r3, .L43+4
ARM GAS  C:\Users\cyu13\AppData\Local\Temp\cc2BTquH.s 			page 28


 1291 0302 18CB     		ldmia	r3, {r3-r4}
 1292 0304 1846     		mov	r0, r3
 1293 0306 2146     		mov	r1, r4
 1294 0308 FFF7FEFF 		bl	__aeabi_d2iz
 1295 030c 8646     		mov	lr, r0
 1296 030e 914B     		ldr	r3, .L43+8
 1297 0310 6C46     		mov	r4, sp
 1298 0312 1D46     		mov	r5, r3
 1299 0314 0FCD     		ldmia	r5!, {r0, r1, r2, r3}
 1300 0316 0FC4     		stmia	r4!, {r0, r1, r2, r3}
 1301 0318 0FCD     		ldmia	r5!, {r0, r1, r2, r3}
 1302 031a 0FC4     		stmia	r4!, {r0, r1, r2, r3}
 1303 031c 95E80300 		ldmia	r5, {r0, r1}
 1304 0320 84E80300 		stmia	r4, {r0, r1}
 1305 0324 7346     		mov	r3, lr
 1306 0326 4A46     		mov	r2, r9
 1307 0328 4146     		mov	r1, r8
 1308 032a 3046     		mov	r0, r6
 1309 032c FFF7FEFF 		bl	grid_update
 1310 0330 7863     		str	r0, [r7, #52]
 244:main.c        ****     if (UPDATE_FLAG != 1) return -1;
 1311              		.loc 1 244 0
 1312 0332 7B6B     		ldr	r3, [r7, #52]
 1313 0334 012B     		cmp	r3, #1
 1314 0336 02D0     		beq	.L32
 1315              		.loc 1 244 0 is_stmt 0 discriminator 1
 1316 0338 4FF0FF33 		mov	r3, #-1
 1317 033c 01E1     		b	.L38
 1318              	.L32:
 245:main.c        **** 
 246:main.c        ****     // Print the current grid
 247:main.c        ****     print_grid(certainty_grid);
 1319              		.loc 1 247 0 is_stmt 1
 1320 033e 834B     		ldr	r3, .L43
 1321 0340 1B68     		ldr	r3, [r3]
 1322 0342 1846     		mov	r0, r3
 1323 0344 FFF7FEFF 		bl	print_grid
 248:main.c        **** 
 249:main.c        ****     // Define Goal Coordinates
 250:main.c        ****     int N_GOALS = 2;
 1324              		.loc 1 250 0
 1325 0348 0223     		movs	r3, #2
 1326 034a 3B63     		str	r3, [r7, #48]
 251:main.c        ****     int goals[4] = {90, 90, 30, 90};
 1327              		.loc 1 251 0
 1328 034c 824B     		ldr	r3, .L43+12
 1329 034e 07F10804 		add	r4, r7, #8
 1330 0352 0FCB     		ldmia	r3, {r0, r1, r2, r3}
 1331 0354 84E80F00 		stmia	r4, {r0, r1, r2, r3}
 252:main.c        ****     robot.goal_x = goals[0];
 1332              		.loc 1 252 0
 1333 0358 BB68     		ldr	r3, [r7, #8]
 1334 035a 1846     		mov	r0, r3
 1335 035c FFF7FEFF 		bl	__aeabi_i2d
 1336 0360 0346     		mov	r3, r0
 1337 0362 0C46     		mov	r4, r1
 1338 0364 7A4A     		ldr	r2, .L43+4
ARM GAS  C:\Users\cyu13\AppData\Local\Temp\cc2BTquH.s 			page 29


 1339 0366 C2E91634 		strd	r3, [r2, #88]
 253:main.c        ****     robot.goal_y = goals[1]; 
 1340              		.loc 1 253 0
 1341 036a FB68     		ldr	r3, [r7, #12]
 1342 036c 1846     		mov	r0, r3
 1343 036e FFF7FEFF 		bl	__aeabi_i2d
 1344 0372 0346     		mov	r3, r0
 1345 0374 0C46     		mov	r4, r1
 1346 0376 764A     		ldr	r2, .L43+4
 1347 0378 C2E91834 		strd	r3, [r2, #96]
 254:main.c        ****     int goal_counter = 0;
 1348              		.loc 1 254 0
 1349 037c 0023     		movs	r3, #0
 1350 037e 7B64     		str	r3, [r7, #68]
 1351              	.L37:
 1352              	.LBB2:
 255:main.c        ****     
 256:main.c        ****     for(;;) {
 257:main.c        ****       
 258:main.c        ****         int dist_to_goal = calculate_distance_from_goal(robot.x, robot.y, robot.goal_x, robot.goal_
 1353              		.loc 1 258 0
 1354 0380 734B     		ldr	r3, .L43+4
 1355 0382 D3E90256 		ldrd	r5, [r3, #8]
 1356 0386 724B     		ldr	r3, .L43+4
 1357 0388 D3E90489 		ldrd	r8, [r3, #16]
 1358 038c 704B     		ldr	r3, .L43+4
 1359 038e 03F15804 		add	r4, r3, #88
 1360 0392 D4E90034 		ldrd	r3, [r4]
 1361 0396 6E4A     		ldr	r2, .L43+4
 1362 0398 D2E91812 		ldrd	r1, [r2, #96]
 1363 039c CDE90212 		strd	r1, [sp, #8]
 1364 03a0 CDE90034 		strd	r3, [sp]
 1365 03a4 4246     		mov	r2, r8
 1366 03a6 4B46     		mov	r3, r9
 1367 03a8 2846     		mov	r0, r5
 1368 03aa 3146     		mov	r1, r6
 1369 03ac FFF7FEFF 		bl	calculate_distance_from_goal
 1370 03b0 0346     		mov	r3, r0
 1371 03b2 0C46     		mov	r4, r1
 1372 03b4 1846     		mov	r0, r3
 1373 03b6 2146     		mov	r1, r4
 1374 03b8 FFF7FEFF 		bl	__aeabi_d2iz
 1375 03bc 0346     		mov	r3, r0
 1376 03be FB62     		str	r3, [r7, #44]
 259:main.c        ****         sprintf(serial_output, "Distance to goal: %d\n", dist_to_goal);
 1377              		.loc 1 259 0
 1378 03c0 FA6A     		ldr	r2, [r7, #44]
 1379 03c2 6649     		ldr	r1, .L43+16
 1380 03c4 6648     		ldr	r0, .L43+20
 1381 03c6 FFF7FEFF 		bl	sprintf
 260:main.c        ****         UART_PutString(serial_output);
 1382              		.loc 1 260 0
 1383 03ca 6548     		ldr	r0, .L43+20
 1384 03cc FFF7FEFF 		bl	UART_PutString
 261:main.c        ****         if( dist_to_goal <= robot.goal_min_dist ) { 
 1385              		.loc 1 261 0
 1386 03d0 F86A     		ldr	r0, [r7, #44]
ARM GAS  C:\Users\cyu13\AppData\Local\Temp\cc2BTquH.s 			page 30


 1387 03d2 FFF7FEFF 		bl	__aeabi_i2d
 1388 03d6 5E4B     		ldr	r3, .L43+4
 1389 03d8 03F16804 		add	r4, r3, #104
 1390 03dc D4E90034 		ldrd	r3, [r4]
 1391 03e0 1A46     		mov	r2, r3
 1392 03e2 2346     		mov	r3, r4
 1393 03e4 FFF7FEFF 		bl	__aeabi_dcmple
 1394 03e8 0346     		mov	r3, r0
 1395 03ea 002B     		cmp	r3, #0
 1396 03ec 2ED0     		beq	.L40
 262:main.c        ****             robot.desired_V = 0;
 1397              		.loc 1 262 0
 1398 03ee 584A     		ldr	r2, .L43+4
 1399 03f0 4FF00003 		mov	r3, #0
 1400 03f4 4FF00004 		mov	r4, #0
 1401 03f8 C2E90C34 		strd	r3, [r2, #48]
 263:main.c        ****             if (goal_counter < N_GOALS) {
 1402              		.loc 1 263 0
 1403 03fc 7A6C     		ldr	r2, [r7, #68]
 1404 03fe 3B6B     		ldr	r3, [r7, #48]
 1405 0400 9A42     		cmp	r2, r3
 1406 0402 BDDA     		bge	.L37
 264:main.c        ****                 robot.goal_x = goals[goal_counter + 2];
 1407              		.loc 1 264 0
 1408 0404 7B6C     		ldr	r3, [r7, #68]
 1409 0406 0233     		adds	r3, r3, #2
 1410 0408 9B00     		lsls	r3, r3, #2
 1411 040a 07F14802 		add	r2, r7, #72
 1412 040e 1344     		add	r3, r3, r2
 1413 0410 53F8403C 		ldr	r3, [r3, #-64]
 1414 0414 1846     		mov	r0, r3
 1415 0416 FFF7FEFF 		bl	__aeabi_i2d
 1416 041a 0346     		mov	r3, r0
 1417 041c 0C46     		mov	r4, r1
 1418 041e 4C4A     		ldr	r2, .L43+4
 1419 0420 C2E91634 		strd	r3, [r2, #88]
 265:main.c        ****                 robot.goal_y = goals[goal_counter + 2];
 1420              		.loc 1 265 0
 1421 0424 7B6C     		ldr	r3, [r7, #68]
 1422 0426 0233     		adds	r3, r3, #2
 1423 0428 9B00     		lsls	r3, r3, #2
 1424 042a 07F14802 		add	r2, r7, #72
 1425 042e 1344     		add	r3, r3, r2
 1426 0430 53F8403C 		ldr	r3, [r3, #-64]
 1427 0434 1846     		mov	r0, r3
 1428 0436 FFF7FEFF 		bl	__aeabi_i2d
 1429 043a 0346     		mov	r3, r0
 1430 043c 0C46     		mov	r4, r1
 1431 043e 444A     		ldr	r2, .L43+4
 1432 0440 C2E91834 		strd	r3, [r2, #96]
 266:main.c        ****                 goal_counter += 2;
 1433              		.loc 1 266 0
 1434 0444 7B6C     		ldr	r3, [r7, #68]
 1435 0446 0233     		adds	r3, r3, #2
 1436 0448 7B64     		str	r3, [r7, #68]
 1437 044a 99E7     		b	.L37
 1438              	.L40:
ARM GAS  C:\Users\cyu13\AppData\Local\Temp\cc2BTquH.s 			page 31


 1439              	.LBB3:
 267:main.c        ****                 
 268:main.c        ****                 // Adjust robot angle to face new goal
 269:main.c        ****                 //robot.desired_theta = calculate_goal_angle(robot.x, robot.y, robot.theta, robot.g
 270:main.c        ****             }
 271:main.c        ****         } else {
 272:main.c        ****             CyDelay(5000);
 1440              		.loc 1 272 0
 1441 044c 41F28830 		movw	r0, #5000
 1442 0450 FFF7FEFF 		bl	CyDelay
 273:main.c        ****             //robot.desired_V = 7;
 274:main.c        **** 
 275:main.c        ****             // Testing VFH Algorithm
 276:main.c        ****             grid * active = active_window(certainty_grid, robot.x, robot.y, 20);
 1443              		.loc 1 276 0
 1444 0454 3D4B     		ldr	r3, .L43
 1445 0456 1D68     		ldr	r5, [r3]
 1446 0458 3D4B     		ldr	r3, .L43+4
 1447 045a 03F10804 		add	r4, r3, #8
 1448 045e D4E90034 		ldrd	r3, [r4]
 1449 0462 1846     		mov	r0, r3
 1450 0464 2146     		mov	r1, r4
 1451 0466 FFF7FEFF 		bl	__aeabi_d2iz
 1452 046a 0646     		mov	r6, r0
 1453 046c 384B     		ldr	r3, .L43+4
 1454 046e 03F11004 		add	r4, r3, #16
 1455 0472 D4E90034 		ldrd	r3, [r4]
 1456 0476 1846     		mov	r0, r3
 1457 0478 2146     		mov	r1, r4
 1458 047a FFF7FEFF 		bl	__aeabi_d2iz
 1459 047e 0246     		mov	r2, r0
 1460 0480 1423     		movs	r3, #20
 1461 0482 3146     		mov	r1, r6
 1462 0484 2846     		mov	r0, r5
 1463 0486 FFF7FEFF 		bl	active_window
 1464 048a B862     		str	r0, [r7, #40]
 277:main.c        **** 
 278:main.c        ****             // Print the current active window
 279:main.c        ****             print_grid(active);
 1465              		.loc 1 279 0
 1466 048c B86A     		ldr	r0, [r7, #40]
 1467 048e FFF7FEFF 		bl	print_grid
 280:main.c        **** 
 281:main.c        ****             polar_histogram_update(polar_histogram, active);
 1468              		.loc 1 281 0
 1469 0492 344B     		ldr	r3, .L43+24
 1470 0494 1B68     		ldr	r3, [r3]
 1471 0496 B96A     		ldr	r1, [r7, #40]
 1472 0498 1846     		mov	r0, r3
 1473 049a FFF7FEFF 		bl	polar_histogram_update
 282:main.c        ****                         
 283:main.c        ****             // print_polar_histogram(polar_histogram);
 284:main.c        **** 
 285:main.c        ****             // Identify candidate valleys
 286:main.c        ****             int * candidates = candidate_valley(polar_histogram);
 1474              		.loc 1 286 0
 1475 049e 314B     		ldr	r3, .L43+24
ARM GAS  C:\Users\cyu13\AppData\Local\Temp\cc2BTquH.s 			page 32


 1476 04a0 1B68     		ldr	r3, [r3]
 1477 04a2 1846     		mov	r0, r3
 1478 04a4 FFF7FEFF 		bl	candidate_valley
 1479 04a8 7862     		str	r0, [r7, #36]
 287:main.c        **** 
 288:main.c        ****             // Find angle of drive
 289:main.c        ****             double new_theta = calculate_avoidance_angle(polar_histogram, certainty_grid, candidate
 1480              		.loc 1 289 0
 1481 04aa 2E4B     		ldr	r3, .L43+24
 1482 04ac 1B68     		ldr	r3, [r3]
 1483 04ae 7B60     		str	r3, [r7, #4]
 1484 04b0 264B     		ldr	r3, .L43
 1485 04b2 1A68     		ldr	r2, [r3]
 1486 04b4 3A60     		str	r2, [r7]
 1487 04b6 264B     		ldr	r3, .L43+4
 1488 04b8 03F10804 		add	r4, r3, #8
 1489 04bc D4E90034 		ldrd	r3, [r4]
 1490 04c0 234A     		ldr	r2, .L43+4
 1491 04c2 D2E90412 		ldrd	r1, [r2, #16]
 1492 04c6 2248     		ldr	r0, .L43+4
 1493 04c8 D0E90056 		ldrd	r5, [r0]
 1494 04cc 2048     		ldr	r0, .L43+4
 1495 04ce D0E91689 		ldrd	r8, [r0, #88]
 1496 04d2 1F48     		ldr	r0, .L43+4
 1497 04d4 D0E918AB 		ldrd	r10, [r0, #96]
 1498 04d8 CDE908AB 		strd	r10, [sp, #32]
 1499 04dc CDE90689 		strd	r8, [sp, #24]
 1500 04e0 CDE90456 		strd	r5, [sp, #16]
 1501 04e4 CDE90212 		strd	r1, [sp, #8]
 1502 04e8 CDE90034 		strd	r3, [sp]
 1503 04ec 7A6A     		ldr	r2, [r7, #36]
 1504 04ee 3968     		ldr	r1, [r7]
 1505 04f0 7868     		ldr	r0, [r7, #4]
 1506 04f2 FFF7FEFF 		bl	calculate_avoidance_angle
 1507 04f6 C7E90601 		strd	r0, [r7, #24]
 290:main.c        ****             if (abs(new_theta - robot.desired_theta) > 10) {
 1508              		.loc 1 290 0
 1509 04fa 154B     		ldr	r3, .L43+4
 1510 04fc 03F13804 		add	r4, r3, #56
 1511 0500 D4E90034 		ldrd	r3, [r4]
 1512 0504 1A46     		mov	r2, r3
 1513 0506 2346     		mov	r3, r4
 1514 0508 D7E90601 		ldrd	r0, [r7, #24]
 1515 050c FFF7FEFF 		bl	__aeabi_dsub
 1516 0510 0346     		mov	r3, r0
 1517 0512 0C46     		mov	r4, r1
 1518 0514 1846     		mov	r0, r3
 1519 0516 2146     		mov	r1, r4
 1520 0518 FFF7FEFF 		bl	__aeabi_d2iz
 291:main.c        ****                 //robot.desired_theta = new_theta;
 292:main.c        ****             }
 293:main.c        ****                 
 294:main.c        ****             sprintf(serial_output, "%Lf\n", robot.desired_theta);
 1521              		.loc 1 294 0
 1522 051c 0C4B     		ldr	r3, .L43+4
 1523 051e 03F13804 		add	r4, r3, #56
 1524 0522 D4E90034 		ldrd	r3, [r4]
ARM GAS  C:\Users\cyu13\AppData\Local\Temp\cc2BTquH.s 			page 33


 1525 0526 1A46     		mov	r2, r3
 1526 0528 2346     		mov	r3, r4
 1527 052a 0F49     		ldr	r1, .L43+28
 1528 052c 0C48     		ldr	r0, .L43+20
 1529 052e FFF7FEFF 		bl	sprintf
 295:main.c        ****             UART_PutString(serial_output);
 1530              		.loc 1 295 0
 1531 0532 0B48     		ldr	r0, .L43+20
 1532 0534 FFF7FEFF 		bl	UART_PutString
 296:main.c        **** 
 297:main.c        ****             // Adjust velocity
 298:main.c        ****             //double adjusted_V = velocity_control(polar_histogram, robot.desired_theta);
 299:main.c        **** 
 300:main.c        ****             //robot.desired_V = adjusted_V;
 301:main.c        **** 
 302:main.c        ****             CyDelay(5000);
 1533              		.loc 1 302 0
 1534 0538 41F28830 		movw	r0, #5000
 1535 053c FFF7FEFF 		bl	CyDelay
 1536              	.LBE3:
 1537              	.LBE2:
 303:main.c        ****         }    
 304:main.c        ****     }
 1538              		.loc 1 304 0
 1539 0540 1EE7     		b	.L37
 1540              	.L38:
 305:main.c        **** }
 1541              		.loc 1 305 0 discriminator 2
 1542 0542 1846     		mov	r0, r3
 1543 0544 4C37     		adds	r7, r7, #76
 1544              		.cfi_def_cfa_offset 36
 1545 0546 BD46     		mov	sp, r7
 1546              		.cfi_def_cfa_register 13
 1547              		@ sp needed
 1548 0548 BDE8F08F 		pop	{r4, r5, r6, r7, r8, r9, r10, fp, pc}
 1549              	.L44:
 1550              		.align	2
 1551              	.L43:
 1552 054c 00000000 		.word	certainty_grid
 1553 0550 00000000 		.word	robot
 1554 0554 00000000 		.word	sensors
 1555 0558 30000000 		.word	.LC0
 1556 055c 10000000 		.word	.LC1
 1557 0560 00000000 		.word	serial_output
 1558 0564 00000000 		.word	polar_histogram
 1559 0568 28000000 		.word	.LC2
 1560              		.cfi_endproc
 1561              	.LFE68:
 1562              		.size	main, .-main
 1563              		.global	__aeabi_d2uiz
 1564              		.section	.text.Drive_Left_Motor,"ax",%progbits
 1565              		.align	2
 1566              		.global	Drive_Left_Motor
 1567              		.thumb
 1568              		.thumb_func
 1569              		.type	Drive_Left_Motor, %function
 1570              	Drive_Left_Motor:
ARM GAS  C:\Users\cyu13\AppData\Local\Temp\cc2BTquH.s 			page 34


 1571              	.LFB69:
 306:main.c        ****   
 307:main.c        **** 
 308:main.c        **** 
 309:main.c        **** void Drive_Left_Motor(long double duty_cycle) {
 1572              		.loc 1 309 0
 1573              		.cfi_startproc
 1574              		@ args = 0, pretend = 0, frame = 8
 1575              		@ frame_needed = 1, uses_anonymous_args = 0
 1576 0000 90B5     		push	{r4, r7, lr}
 1577              		.cfi_def_cfa_offset 12
 1578              		.cfi_offset 4, -12
 1579              		.cfi_offset 7, -8
 1580              		.cfi_offset 14, -4
 1581 0002 83B0     		sub	sp, sp, #12
 1582              		.cfi_def_cfa_offset 24
 1583 0004 00AF     		add	r7, sp, #0
 1584              		.cfi_def_cfa_register 7
 1585 0006 C7E90001 		strd	r0, [r7]
 310:main.c        ****     if (duty_cycle < -1) {
 1586              		.loc 1 310 0
 1587 000a 4FF00002 		mov	r2, #0
 1588 000e 304B     		ldr	r3, .L59+8
 1589 0010 D7E90001 		ldrd	r0, [r7]
 1590 0014 FFF7FEFF 		bl	__aeabi_dcmplt
 1591 0018 0346     		mov	r3, r0
 1592 001a 002B     		cmp	r3, #0
 1593 001c 05D0     		beq	.L56
 311:main.c        ****         duty_cycle = -1;
 1594              		.loc 1 311 0
 1595 001e 4FF00003 		mov	r3, #0
 1596 0022 2B4C     		ldr	r4, .L59+8
 1597 0024 C7E90034 		strd	r3, [r7]
 1598 0028 0EE0     		b	.L48
 1599              	.L56:
 312:main.c        ****     } else if (duty_cycle > 1) {
 1600              		.loc 1 312 0
 1601 002a 4FF00002 		mov	r2, #0
 1602 002e 294B     		ldr	r3, .L59+12
 1603 0030 D7E90001 		ldrd	r0, [r7]
 1604 0034 FFF7FEFF 		bl	__aeabi_dcmpgt
 1605 0038 0346     		mov	r3, r0
 1606 003a 002B     		cmp	r3, #0
 1607 003c 04D0     		beq	.L48
 313:main.c        ****         duty_cycle = 1;
 1608              		.loc 1 313 0
 1609 003e 4FF00003 		mov	r3, #0
 1610 0042 244C     		ldr	r4, .L59+12
 1611 0044 C7E90034 		strd	r3, [r7]
 1612              	.L48:
 314:main.c        ****     }
 315:main.c        ****     
 316:main.c        ****     if (duty_cycle < 0) {
 1613              		.loc 1 316 0
 1614 0048 4FF00002 		mov	r2, #0
 1615 004c 4FF00003 		mov	r3, #0
 1616 0050 D7E90001 		ldrd	r0, [r7]
ARM GAS  C:\Users\cyu13\AppData\Local\Temp\cc2BTquH.s 			page 35


 1617 0054 FFF7FEFF 		bl	__aeabi_dcmplt
 1618 0058 0346     		mov	r3, r0
 1619 005a 002B     		cmp	r3, #0
 1620 005c 1BD0     		beq	.L57
 317:main.c        ****         duty_cycle = -duty_cycle;
 1621              		.loc 1 317 0
 1622 005e 3B68     		ldr	r3, [r7]
 1623 0060 3B60     		str	r3, [r7]
 1624 0062 7B68     		ldr	r3, [r7, #4]
 1625 0064 83F00043 		eor	r3, r3, #-2147483648
 1626 0068 7B60     		str	r3, [r7, #4]
 318:main.c        ****         PWM_Motor_L_WriteCompare1(0);
 1627              		.loc 1 318 0
 1628 006a 0020     		movs	r0, #0
 1629 006c FFF7FEFF 		bl	PWM_Motor_L_WriteCompare1
 319:main.c        ****         PWM_Motor_L_WriteCompare2(duty_cycle*10000);
 1630              		.loc 1 319 0
 1631 0070 15A3     		adr	r3, .L59
 1632 0072 D3E90023 		ldrd	r2, [r3]
 1633 0076 D7E90001 		ldrd	r0, [r7]
 1634 007a FFF7FEFF 		bl	__aeabi_dmul
 1635 007e 0346     		mov	r3, r0
 1636 0080 0C46     		mov	r4, r1
 1637 0082 1846     		mov	r0, r3
 1638 0084 2146     		mov	r1, r4
 1639 0086 FFF7FEFF 		bl	__aeabi_d2uiz
 1640 008a 0346     		mov	r3, r0
 1641 008c 9BB2     		uxth	r3, r3
 1642 008e 1846     		mov	r0, r3
 1643 0090 FFF7FEFF 		bl	PWM_Motor_L_WriteCompare2
 320:main.c        ****     } else {
 321:main.c        ****         PWM_Motor_L_WriteCompare1(duty_cycle*10000);
 322:main.c        ****         PWM_Motor_L_WriteCompare2(0);
 323:main.c        ****     }
 324:main.c        **** }
 1644              		.loc 1 324 0
 1645 0094 14E0     		b	.L58
 1646              	.L57:
 321:main.c        ****         PWM_Motor_L_WriteCompare2(0);
 1647              		.loc 1 321 0
 1648 0096 0CA3     		adr	r3, .L59
 1649 0098 D3E90023 		ldrd	r2, [r3]
 1650 009c D7E90001 		ldrd	r0, [r7]
 1651 00a0 FFF7FEFF 		bl	__aeabi_dmul
 1652 00a4 0346     		mov	r3, r0
 1653 00a6 0C46     		mov	r4, r1
 1654 00a8 1846     		mov	r0, r3
 1655 00aa 2146     		mov	r1, r4
 1656 00ac FFF7FEFF 		bl	__aeabi_d2uiz
 1657 00b0 0346     		mov	r3, r0
 1658 00b2 9BB2     		uxth	r3, r3
 1659 00b4 1846     		mov	r0, r3
 1660 00b6 FFF7FEFF 		bl	PWM_Motor_L_WriteCompare1
 322:main.c        ****     }
 1661              		.loc 1 322 0
 1662 00ba 0020     		movs	r0, #0
 1663 00bc FFF7FEFF 		bl	PWM_Motor_L_WriteCompare2
ARM GAS  C:\Users\cyu13\AppData\Local\Temp\cc2BTquH.s 			page 36


 1664              	.L58:
 1665              		.loc 1 324 0
 1666 00c0 00BF     		nop
 1667 00c2 0C37     		adds	r7, r7, #12
 1668              		.cfi_def_cfa_offset 12
 1669 00c4 BD46     		mov	sp, r7
 1670              		.cfi_def_cfa_register 13
 1671              		@ sp needed
 1672 00c6 90BD     		pop	{r4, r7, pc}
 1673              	.L60:
 1674              		.align	3
 1675              	.L59:
 1676 00c8 00000000 		.word	0
 1677 00cc 0088C340 		.word	1086556160
 1678 00d0 0000F0BF 		.word	-1074790400
 1679 00d4 0000F03F 		.word	1072693248
 1680              		.cfi_endproc
 1681              	.LFE69:
 1682              		.size	Drive_Left_Motor, .-Drive_Left_Motor
 1683              		.section	.text.Drive_Right_Motor,"ax",%progbits
 1684              		.align	2
 1685              		.global	Drive_Right_Motor
 1686              		.thumb
 1687              		.thumb_func
 1688              		.type	Drive_Right_Motor, %function
 1689              	Drive_Right_Motor:
 1690              	.LFB70:
 325:main.c        **** 
 326:main.c        **** void Drive_Right_Motor(long double duty_cycle) {
 1691              		.loc 1 326 0
 1692              		.cfi_startproc
 1693              		@ args = 0, pretend = 0, frame = 8
 1694              		@ frame_needed = 1, uses_anonymous_args = 0
 1695 0000 90B5     		push	{r4, r7, lr}
 1696              		.cfi_def_cfa_offset 12
 1697              		.cfi_offset 4, -12
 1698              		.cfi_offset 7, -8
 1699              		.cfi_offset 14, -4
 1700 0002 83B0     		sub	sp, sp, #12
 1701              		.cfi_def_cfa_offset 24
 1702 0004 00AF     		add	r7, sp, #0
 1703              		.cfi_def_cfa_register 7
 1704 0006 C7E90001 		strd	r0, [r7]
 327:main.c        ****     if (duty_cycle < -1) {
 1705              		.loc 1 327 0
 1706 000a 4FF00002 		mov	r2, #0
 1707 000e 304B     		ldr	r3, .L75+8
 1708 0010 D7E90001 		ldrd	r0, [r7]
 1709 0014 FFF7FEFF 		bl	__aeabi_dcmplt
 1710 0018 0346     		mov	r3, r0
 1711 001a 002B     		cmp	r3, #0
 1712 001c 05D0     		beq	.L72
 328:main.c        ****         duty_cycle = -1;
 1713              		.loc 1 328 0
 1714 001e 4FF00003 		mov	r3, #0
 1715 0022 2B4C     		ldr	r4, .L75+8
 1716 0024 C7E90034 		strd	r3, [r7]
ARM GAS  C:\Users\cyu13\AppData\Local\Temp\cc2BTquH.s 			page 37


 1717 0028 0EE0     		b	.L64
 1718              	.L72:
 329:main.c        ****     } else if (duty_cycle > 1) {
 1719              		.loc 1 329 0
 1720 002a 4FF00002 		mov	r2, #0
 1721 002e 294B     		ldr	r3, .L75+12
 1722 0030 D7E90001 		ldrd	r0, [r7]
 1723 0034 FFF7FEFF 		bl	__aeabi_dcmpgt
 1724 0038 0346     		mov	r3, r0
 1725 003a 002B     		cmp	r3, #0
 1726 003c 04D0     		beq	.L64
 330:main.c        ****         duty_cycle = 1;
 1727              		.loc 1 330 0
 1728 003e 4FF00003 		mov	r3, #0
 1729 0042 244C     		ldr	r4, .L75+12
 1730 0044 C7E90034 		strd	r3, [r7]
 1731              	.L64:
 331:main.c        ****     }
 332:main.c        ****     
 333:main.c        ****     if (duty_cycle < 0) {
 1732              		.loc 1 333 0
 1733 0048 4FF00002 		mov	r2, #0
 1734 004c 4FF00003 		mov	r3, #0
 1735 0050 D7E90001 		ldrd	r0, [r7]
 1736 0054 FFF7FEFF 		bl	__aeabi_dcmplt
 1737 0058 0346     		mov	r3, r0
 1738 005a 002B     		cmp	r3, #0
 1739 005c 1BD0     		beq	.L73
 334:main.c        ****         duty_cycle = -duty_cycle;
 1740              		.loc 1 334 0
 1741 005e 3B68     		ldr	r3, [r7]
 1742 0060 3B60     		str	r3, [r7]
 1743 0062 7B68     		ldr	r3, [r7, #4]
 1744 0064 83F00043 		eor	r3, r3, #-2147483648
 1745 0068 7B60     		str	r3, [r7, #4]
 335:main.c        ****         PWM_Motor_R_WriteCompare1(0);
 1746              		.loc 1 335 0
 1747 006a 0020     		movs	r0, #0
 1748 006c FFF7FEFF 		bl	PWM_Motor_R_WriteCompare1
 336:main.c        ****         PWM_Motor_R_WriteCompare2(duty_cycle*5000);
 1749              		.loc 1 336 0
 1750 0070 15A3     		adr	r3, .L75
 1751 0072 D3E90023 		ldrd	r2, [r3]
 1752 0076 D7E90001 		ldrd	r0, [r7]
 1753 007a FFF7FEFF 		bl	__aeabi_dmul
 1754 007e 0346     		mov	r3, r0
 1755 0080 0C46     		mov	r4, r1
 1756 0082 1846     		mov	r0, r3
 1757 0084 2146     		mov	r1, r4
 1758 0086 FFF7FEFF 		bl	__aeabi_d2uiz
 1759 008a 0346     		mov	r3, r0
 1760 008c 9BB2     		uxth	r3, r3
 1761 008e 1846     		mov	r0, r3
 1762 0090 FFF7FEFF 		bl	PWM_Motor_R_WriteCompare2
 337:main.c        ****     } else {
 338:main.c        ****         PWM_Motor_R_WriteCompare1(duty_cycle*5000);
 339:main.c        ****         PWM_Motor_R_WriteCompare2(0);
ARM GAS  C:\Users\cyu13\AppData\Local\Temp\cc2BTquH.s 			page 38


 340:main.c        ****     }
 341:main.c        **** }
 1763              		.loc 1 341 0
 1764 0094 14E0     		b	.L74
 1765              	.L73:
 338:main.c        ****         PWM_Motor_R_WriteCompare2(0);
 1766              		.loc 1 338 0
 1767 0096 0CA3     		adr	r3, .L75
 1768 0098 D3E90023 		ldrd	r2, [r3]
 1769 009c D7E90001 		ldrd	r0, [r7]
 1770 00a0 FFF7FEFF 		bl	__aeabi_dmul
 1771 00a4 0346     		mov	r3, r0
 1772 00a6 0C46     		mov	r4, r1
 1773 00a8 1846     		mov	r0, r3
 1774 00aa 2146     		mov	r1, r4
 1775 00ac FFF7FEFF 		bl	__aeabi_d2uiz
 1776 00b0 0346     		mov	r3, r0
 1777 00b2 9BB2     		uxth	r3, r3
 1778 00b4 1846     		mov	r0, r3
 1779 00b6 FFF7FEFF 		bl	PWM_Motor_R_WriteCompare1
 339:main.c        ****     }
 1780              		.loc 1 339 0
 1781 00ba 0020     		movs	r0, #0
 1782 00bc FFF7FEFF 		bl	PWM_Motor_R_WriteCompare2
 1783              	.L74:
 1784              		.loc 1 341 0
 1785 00c0 00BF     		nop
 1786 00c2 0C37     		adds	r7, r7, #12
 1787              		.cfi_def_cfa_offset 12
 1788 00c4 BD46     		mov	sp, r7
 1789              		.cfi_def_cfa_register 13
 1790              		@ sp needed
 1791 00c6 90BD     		pop	{r4, r7, pc}
 1792              	.L76:
 1793              		.align	3
 1794              	.L75:
 1795 00c8 00000000 		.word	0
 1796 00cc 0088B340 		.word	1085507584
 1797 00d0 0000F0BF 		.word	-1074790400
 1798 00d4 0000F03F 		.word	1072693248
 1799              		.cfi_endproc
 1800              	.LFE70:
 1801              		.size	Drive_Right_Motor, .-Drive_Right_Motor
 1802              		.section	.text.angle_modulo,"ax",%progbits
 1803              		.align	2
 1804              		.global	angle_modulo
 1805              		.thumb
 1806              		.thumb_func
 1807              		.type	angle_modulo, %function
 1808              	angle_modulo:
 1809              	.LFB71:
 342:main.c        **** 
 343:main.c        **** long double angle_modulo(long double angle) {
 1810              		.loc 1 343 0
 1811              		.cfi_startproc
 1812              		@ args = 0, pretend = 0, frame = 8
 1813              		@ frame_needed = 1, uses_anonymous_args = 0
ARM GAS  C:\Users\cyu13\AppData\Local\Temp\cc2BTquH.s 			page 39


 1814 0000 90B5     		push	{r4, r7, lr}
 1815              		.cfi_def_cfa_offset 12
 1816              		.cfi_offset 4, -12
 1817              		.cfi_offset 7, -8
 1818              		.cfi_offset 14, -4
 1819 0002 83B0     		sub	sp, sp, #12
 1820              		.cfi_def_cfa_offset 24
 1821 0004 00AF     		add	r7, sp, #0
 1822              		.cfi_def_cfa_register 7
 1823 0006 C7E90001 		strd	r0, [r7]
 344:main.c        ****     return angle - M_TWOPI * floor(angle / M_TWOPI);  
 1824              		.loc 1 344 0
 1825 000a 11A3     		adr	r3, .L79
 1826 000c D3E90023 		ldrd	r2, [r3]
 1827 0010 D7E90001 		ldrd	r0, [r7]
 1828 0014 FFF7FEFF 		bl	__aeabi_ddiv
 1829 0018 0346     		mov	r3, r0
 1830 001a 0C46     		mov	r4, r1
 1831 001c 1846     		mov	r0, r3
 1832 001e 2146     		mov	r1, r4
 1833 0020 FFF7FEFF 		bl	floor
 1834 0024 0AA3     		adr	r3, .L79
 1835 0026 D3E90023 		ldrd	r2, [r3]
 1836 002a FFF7FEFF 		bl	__aeabi_dmul
 1837 002e 0346     		mov	r3, r0
 1838 0030 0C46     		mov	r4, r1
 1839 0032 1A46     		mov	r2, r3
 1840 0034 2346     		mov	r3, r4
 1841 0036 D7E90001 		ldrd	r0, [r7]
 1842 003a FFF7FEFF 		bl	__aeabi_dsub
 1843 003e 0346     		mov	r3, r0
 1844 0040 0C46     		mov	r4, r1
 345:main.c        **** }
 1845              		.loc 1 345 0
 1846 0042 1846     		mov	r0, r3
 1847 0044 2146     		mov	r1, r4
 1848 0046 0C37     		adds	r7, r7, #12
 1849              		.cfi_def_cfa_offset 12
 1850 0048 BD46     		mov	sp, r7
 1851              		.cfi_def_cfa_register 13
 1852              		@ sp needed
 1853 004a 90BD     		pop	{r4, r7, pc}
 1854              	.L80:
 1855 004c AFF30080 		.align	3
 1856              	.L79:
 1857 0050 182D4454 		.word	1413754136
 1858 0054 FB211940 		.word	1075388923
 1859              		.cfi_endproc
 1860              	.LFE71:
 1861              		.size	angle_modulo, .-angle_modulo
 1862              		.section	.rodata
 1863              		.align	2
 1864              	.LC3:
 1865 0040 25640A00 		.ascii	"%d\012\000"
 1866              		.align	2
 1867              	.LC4:
 1868 0044 0A0A0A0A 		.ascii	"\012\012\012\012\012\000"
ARM GAS  C:\Users\cyu13\AppData\Local\Temp\cc2BTquH.s 			page 40


 1868      0A00
 1869              		.section	.text.print_polar_histogram,"ax",%progbits
 1870              		.align	2
 1871              		.global	print_polar_histogram
 1872              		.thumb
 1873              		.thumb_func
 1874              		.type	print_polar_histogram, %function
 1875              	print_polar_histogram:
 1876              	.LFB72:
 346:main.c        **** 
 347:main.c        **** void print_polar_histogram(histogram * polar_histogram) {
 1877              		.loc 1 347 0
 1878              		.cfi_startproc
 1879              		@ args = 0, pretend = 0, frame = 16
 1880              		@ frame_needed = 1, uses_anonymous_args = 0
 1881 0000 80B5     		push	{r7, lr}
 1882              		.cfi_def_cfa_offset 8
 1883              		.cfi_offset 7, -8
 1884              		.cfi_offset 14, -4
 1885 0002 84B0     		sub	sp, sp, #16
 1886              		.cfi_def_cfa_offset 24
 1887 0004 00AF     		add	r7, sp, #0
 1888              		.cfi_def_cfa_register 7
 1889 0006 7860     		str	r0, [r7, #4]
 1890              	.LBB4:
 348:main.c        ****   for (int i=0; i < polar_histogram->sectors; i++) {
 1891              		.loc 1 348 0
 1892 0008 0023     		movs	r3, #0
 1893 000a FB60     		str	r3, [r7, #12]
 1894 000c 10E0     		b	.L82
 1895              	.L83:
 349:main.c        ****     sprintf(serial_output, "%d\n", polar_histogram->densities[i]);
 1896              		.loc 1 349 0 discriminator 3
 1897 000e 7B68     		ldr	r3, [r7, #4]
 1898 0010 9A6A     		ldr	r2, [r3, #40]
 1899 0012 FB68     		ldr	r3, [r7, #12]
 1900 0014 9B00     		lsls	r3, r3, #2
 1901 0016 1344     		add	r3, r3, r2
 1902 0018 1B68     		ldr	r3, [r3]
 1903 001a 1A46     		mov	r2, r3
 1904 001c 0A49     		ldr	r1, .L84
 1905 001e 0B48     		ldr	r0, .L84+4
 1906 0020 FFF7FEFF 		bl	sprintf
 350:main.c        ****     UART_PutString(serial_output);
 1907              		.loc 1 350 0 discriminator 3
 1908 0024 0948     		ldr	r0, .L84+4
 1909 0026 FFF7FEFF 		bl	UART_PutString
 348:main.c        ****   for (int i=0; i < polar_histogram->sectors; i++) {
 1910              		.loc 1 348 0 discriminator 3
 1911 002a FB68     		ldr	r3, [r7, #12]
 1912 002c 0133     		adds	r3, r3, #1
 1913 002e FB60     		str	r3, [r7, #12]
 1914              	.L82:
 348:main.c        ****   for (int i=0; i < polar_histogram->sectors; i++) {
 1915              		.loc 1 348 0 is_stmt 0 discriminator 1
 1916 0030 7B68     		ldr	r3, [r7, #4]
 1917 0032 5A68     		ldr	r2, [r3, #4]
ARM GAS  C:\Users\cyu13\AppData\Local\Temp\cc2BTquH.s 			page 41


 1918 0034 FB68     		ldr	r3, [r7, #12]
 1919 0036 9A42     		cmp	r2, r3
 1920 0038 E9DC     		bgt	.L83
 1921              	.LBE4:
 351:main.c        ****   }
 352:main.c        ****   UART_PutString("\n\n\n\n\n");
 1922              		.loc 1 352 0 is_stmt 1
 1923 003a 0548     		ldr	r0, .L84+8
 1924 003c FFF7FEFF 		bl	UART_PutString
 353:main.c        **** }
 1925              		.loc 1 353 0
 1926 0040 00BF     		nop
 1927 0042 1037     		adds	r7, r7, #16
 1928              		.cfi_def_cfa_offset 8
 1929 0044 BD46     		mov	sp, r7
 1930              		.cfi_def_cfa_register 13
 1931              		@ sp needed
 1932 0046 80BD     		pop	{r7, pc}
 1933              	.L85:
 1934              		.align	2
 1935              	.L84:
 1936 0048 40000000 		.word	.LC3
 1937 004c 00000000 		.word	serial_output
 1938 0050 44000000 		.word	.LC4
 1939              		.cfi_endproc
 1940              	.LFE72:
 1941              		.size	print_polar_histogram, .-print_polar_histogram
 1942              		.section	.rodata
 1943 004a 0000     		.align	2
 1944              	.LC5:
 1945 004c 256400   		.ascii	"%d\000"
 1946 004f 00       		.align	2
 1947              	.LC6:
 1948 0050 0A00     		.ascii	"\012\000"
 1949              		.section	.text.print_grid,"ax",%progbits
 1950              		.align	2
 1951              		.global	print_grid
 1952              		.thumb
 1953              		.thumb_func
 1954              		.type	print_grid, %function
 1955              	print_grid:
 1956              	.LFB73:
 354:main.c        **** 
 355:main.c        **** void print_grid(grid * map) {
 1957              		.loc 1 355 0
 1958              		.cfi_startproc
 1959              		@ args = 0, pretend = 0, frame = 24
 1960              		@ frame_needed = 1, uses_anonymous_args = 0
 1961 0000 80B5     		push	{r7, lr}
 1962              		.cfi_def_cfa_offset 8
 1963              		.cfi_offset 7, -8
 1964              		.cfi_offset 14, -4
 1965 0002 86B0     		sub	sp, sp, #24
 1966              		.cfi_def_cfa_offset 32
 1967 0004 00AF     		add	r7, sp, #0
 1968              		.cfi_def_cfa_register 7
 1969 0006 7860     		str	r0, [r7, #4]
ARM GAS  C:\Users\cyu13\AppData\Local\Temp\cc2BTquH.s 			page 42


 356:main.c        ****   // Print map
 357:main.c        ****   int WIDTH = map->width;
 1970              		.loc 1 357 0
 1971 0008 7B68     		ldr	r3, [r7, #4]
 1972 000a 1B68     		ldr	r3, [r3]
 1973 000c FB60     		str	r3, [r7, #12]
 358:main.c        ****   int HEIGHT = map->height;
 1974              		.loc 1 358 0
 1975 000e 7B68     		ldr	r3, [r7, #4]
 1976 0010 5B68     		ldr	r3, [r3, #4]
 1977 0012 BB60     		str	r3, [r7, #8]
 1978              	.LBB5:
 359:main.c        **** 
 360:main.c        ****   for (int i = 0; i < WIDTH; ++i) {
 1979              		.loc 1 360 0
 1980 0014 0023     		movs	r3, #0
 1981 0016 7B61     		str	r3, [r7, #20]
 1982 0018 26E0     		b	.L87
 1983              	.L90:
 1984              	.LBB6:
 361:main.c        ****     for (int j = 0; j < HEIGHT; ++j) {
 1985              		.loc 1 361 0
 1986 001a 0023     		movs	r3, #0
 1987 001c 3B61     		str	r3, [r7, #16]
 1988 001e 15E0     		b	.L88
 1989              	.L89:
 362:main.c        ****       sprintf(serial_output, "%d", map->cells[i * WIDTH + j]);
 1990              		.loc 1 362 0 discriminator 3
 1991 0020 7B68     		ldr	r3, [r7, #4]
 1992 0022 DA68     		ldr	r2, [r3, #12]
 1993 0024 7B69     		ldr	r3, [r7, #20]
 1994 0026 F968     		ldr	r1, [r7, #12]
 1995 0028 01FB03F1 		mul	r1, r1, r3
 1996 002c 3B69     		ldr	r3, [r7, #16]
 1997 002e 0B44     		add	r3, r3, r1
 1998 0030 9B00     		lsls	r3, r3, #2
 1999 0032 1344     		add	r3, r3, r2
 2000 0034 1B68     		ldr	r3, [r3]
 2001 0036 1A46     		mov	r2, r3
 2002 0038 1149     		ldr	r1, .L91
 2003 003a 1248     		ldr	r0, .L91+4
 2004 003c FFF7FEFF 		bl	sprintf
 363:main.c        ****       UART_PutString(serial_output);
 2005              		.loc 1 363 0 discriminator 3
 2006 0040 1048     		ldr	r0, .L91+4
 2007 0042 FFF7FEFF 		bl	UART_PutString
 361:main.c        ****     for (int j = 0; j < HEIGHT; ++j) {
 2008              		.loc 1 361 0 discriminator 3
 2009 0046 3B69     		ldr	r3, [r7, #16]
 2010 0048 0133     		adds	r3, r3, #1
 2011 004a 3B61     		str	r3, [r7, #16]
 2012              	.L88:
 361:main.c        ****     for (int j = 0; j < HEIGHT; ++j) {
 2013              		.loc 1 361 0 is_stmt 0 discriminator 1
 2014 004c 3A69     		ldr	r2, [r7, #16]
 2015 004e BB68     		ldr	r3, [r7, #8]
 2016 0050 9A42     		cmp	r2, r3
ARM GAS  C:\Users\cyu13\AppData\Local\Temp\cc2BTquH.s 			page 43


 2017 0052 E5DB     		blt	.L89
 2018              	.LBE6:
 364:main.c        ****     }
 365:main.c        ****     sprintf(serial_output, "\n");
 2019              		.loc 1 365 0 is_stmt 1 discriminator 2
 2020 0054 0B4A     		ldr	r2, .L91+4
 2021 0056 0C4B     		ldr	r3, .L91+8
 2022 0058 1B88     		ldrh	r3, [r3]	@ unaligned
 2023 005a 1380     		strh	r3, [r2]	@ unaligned
 366:main.c        ****     UART_PutString(serial_output);
 2024              		.loc 1 366 0 discriminator 2
 2025 005c 0948     		ldr	r0, .L91+4
 2026 005e FFF7FEFF 		bl	UART_PutString
 360:main.c        ****     for (int j = 0; j < HEIGHT; ++j) {
 2027              		.loc 1 360 0 discriminator 2
 2028 0062 7B69     		ldr	r3, [r7, #20]
 2029 0064 0133     		adds	r3, r3, #1
 2030 0066 7B61     		str	r3, [r7, #20]
 2031              	.L87:
 360:main.c        ****     for (int j = 0; j < HEIGHT; ++j) {
 2032              		.loc 1 360 0 is_stmt 0 discriminator 1
 2033 0068 7A69     		ldr	r2, [r7, #20]
 2034 006a FB68     		ldr	r3, [r7, #12]
 2035 006c 9A42     		cmp	r2, r3
 2036 006e D4DB     		blt	.L90
 2037              	.LBE5:
 367:main.c        ****   }
 368:main.c        **** 
 369:main.c        ****   UART_PutString("\n\n\n\n\n");
 2038              		.loc 1 369 0 is_stmt 1
 2039 0070 0648     		ldr	r0, .L91+12
 2040 0072 FFF7FEFF 		bl	UART_PutString
 370:main.c        **** }
 2041              		.loc 1 370 0
 2042 0076 00BF     		nop
 2043 0078 1837     		adds	r7, r7, #24
 2044              		.cfi_def_cfa_offset 8
 2045 007a BD46     		mov	sp, r7
 2046              		.cfi_def_cfa_register 13
 2047              		@ sp needed
 2048 007c 80BD     		pop	{r7, pc}
 2049              	.L92:
 2050 007e 00BF     		.align	2
 2051              	.L91:
 2052 0080 4C000000 		.word	.LC5
 2053 0084 00000000 		.word	serial_output
 2054 0088 50000000 		.word	.LC6
 2055 008c 44000000 		.word	.LC4
 2056              		.cfi_endproc
 2057              	.LFE73:
 2058              		.size	print_grid, .-print_grid
 2059              		.text
 2060              	.Letext0:
 2061              		.file 2 "c:\\program files (x86)\\cypress\\psoc creator\\4.4\\psoc creator\\import\\gnu\\arm\\5.4.
 2062              		.file 3 "c:\\program files (x86)\\cypress\\psoc creator\\4.4\\psoc creator\\import\\gnu\\arm\\5.4.
 2063              		.file 4 "Generated_Source\\PSoC5/cytypes.h"
 2064              		.file 5 "..\\VFH\\include\\vfh.h"
ARM GAS  C:\Users\cyu13\AppData\Local\Temp\cc2BTquH.s 			page 44


 2065              		.file 6 "Generated_Source\\PSoC5/core_cm3.h"
 2066              		.section	.debug_info,"",%progbits
 2067              	.Ldebug_info0:
 2068 0000 E9060000 		.4byte	0x6e9
 2069 0004 0400     		.2byte	0x4
 2070 0006 00000000 		.4byte	.Ldebug_abbrev0
 2071 000a 04       		.byte	0x4
 2072 000b 01       		.uleb128 0x1
 2073 000c B3000000 		.4byte	.LASF95
 2074 0010 0C       		.byte	0xc
 2075 0011 D2030000 		.4byte	.LASF96
 2076 0015 4A040000 		.4byte	.LASF97
 2077 0019 00000000 		.4byte	.Ldebug_ranges0+0
 2078 001d 00000000 		.4byte	0
 2079 0021 00000000 		.4byte	.Ldebug_line0
 2080 0025 02       		.uleb128 0x2
 2081 0026 01       		.byte	0x1
 2082 0027 06       		.byte	0x6
 2083 0028 B0020000 		.4byte	.LASF0
 2084 002c 03       		.uleb128 0x3
 2085 002d 68020000 		.4byte	.LASF3
 2086 0031 02       		.byte	0x2
 2087 0032 1D       		.byte	0x1d
 2088 0033 37000000 		.4byte	0x37
 2089 0037 02       		.uleb128 0x2
 2090 0038 01       		.byte	0x1
 2091 0039 08       		.byte	0x8
 2092 003a 72020000 		.4byte	.LASF1
 2093 003e 02       		.uleb128 0x2
 2094 003f 02       		.byte	0x2
 2095 0040 05       		.byte	0x5
 2096 0041 65000000 		.4byte	.LASF2
 2097 0045 03       		.uleb128 0x3
 2098 0046 4B010000 		.4byte	.LASF4
 2099 004a 02       		.byte	0x2
 2100 004b 2B       		.byte	0x2b
 2101 004c 50000000 		.4byte	0x50
 2102 0050 02       		.uleb128 0x2
 2103 0051 02       		.byte	0x2
 2104 0052 07       		.byte	0x7
 2105 0053 41030000 		.4byte	.LASF5
 2106 0057 03       		.uleb128 0x3
 2107 0058 40040000 		.4byte	.LASF6
 2108 005c 02       		.byte	0x2
 2109 005d 3F       		.byte	0x3f
 2110 005e 62000000 		.4byte	0x62
 2111 0062 02       		.uleb128 0x2
 2112 0063 04       		.byte	0x4
 2113 0064 05       		.byte	0x5
 2114 0065 BA040000 		.4byte	.LASF7
 2115 0069 02       		.uleb128 0x2
 2116 006a 04       		.byte	0x4
 2117 006b 07       		.byte	0x7
 2118 006c FF020000 		.4byte	.LASF8
 2119 0070 02       		.uleb128 0x2
 2120 0071 08       		.byte	0x8
 2121 0072 05       		.byte	0x5
ARM GAS  C:\Users\cyu13\AppData\Local\Temp\cc2BTquH.s 			page 45


 2122 0073 E8010000 		.4byte	.LASF9
 2123 0077 02       		.uleb128 0x2
 2124 0078 08       		.byte	0x8
 2125 0079 07       		.byte	0x7
 2126 007a C2020000 		.4byte	.LASF10
 2127 007e 04       		.uleb128 0x4
 2128 007f 04       		.byte	0x4
 2129 0080 05       		.byte	0x5
 2130 0081 696E7400 		.ascii	"int\000"
 2131 0085 02       		.uleb128 0x2
 2132 0086 04       		.byte	0x4
 2133 0087 07       		.byte	0x7
 2134 0088 E8020000 		.4byte	.LASF11
 2135 008c 03       		.uleb128 0x3
 2136 008d AD010000 		.4byte	.LASF12
 2137 0091 03       		.byte	0x3
 2138 0092 18       		.byte	0x18
 2139 0093 2C000000 		.4byte	0x2c
 2140 0097 03       		.uleb128 0x3
 2141 0098 BA030000 		.4byte	.LASF13
 2142 009c 03       		.byte	0x3
 2143 009d 24       		.byte	0x24
 2144 009e 45000000 		.4byte	0x45
 2145 00a2 03       		.uleb128 0x3
 2146 00a3 60020000 		.4byte	.LASF14
 2147 00a7 03       		.byte	0x3
 2148 00a8 2C       		.byte	0x2c
 2149 00a9 57000000 		.4byte	0x57
 2150 00ad 05       		.uleb128 0x5
 2151 00ae FC030000 		.4byte	.LASF15
 2152 00b2 04       		.byte	0x4
 2153 00b3 ED01     		.2byte	0x1ed
 2154 00b5 62000000 		.4byte	0x62
 2155 00b9 02       		.uleb128 0x2
 2156 00ba 04       		.byte	0x4
 2157 00bb 04       		.byte	0x4
 2158 00bc D7010000 		.4byte	.LASF16
 2159 00c0 02       		.uleb128 0x2
 2160 00c1 08       		.byte	0x8
 2161 00c2 04       		.byte	0x4
 2162 00c3 02040000 		.4byte	.LASF17
 2163 00c7 02       		.uleb128 0x2
 2164 00c8 01       		.byte	0x1
 2165 00c9 08       		.byte	0x8
 2166 00ca 5D030000 		.4byte	.LASF18
 2167 00ce 02       		.uleb128 0x2
 2168 00cf 08       		.byte	0x8
 2169 00d0 04       		.byte	0x4
 2170 00d1 80020000 		.4byte	.LASF19
 2171 00d5 02       		.uleb128 0x2
 2172 00d6 04       		.byte	0x4
 2173 00d7 07       		.byte	0x7
 2174 00d8 8C000000 		.4byte	.LASF20
 2175 00dc 06       		.uleb128 0x6
 2176 00dd 10       		.byte	0x10
 2177 00de 05       		.byte	0x5
 2178 00df 16       		.byte	0x16
ARM GAS  C:\Users\cyu13\AppData\Local\Temp\cc2BTquH.s 			page 46


 2179 00e0 15010000 		.4byte	0x115
 2180 00e4 07       		.uleb128 0x7
 2181 00e5 D1010000 		.4byte	.LASF21
 2182 00e9 05       		.byte	0x5
 2183 00ea 17       		.byte	0x17
 2184 00eb 7E000000 		.4byte	0x7e
 2185 00ef 00       		.byte	0
 2186 00f0 07       		.uleb128 0x7
 2187 00f1 E1020000 		.4byte	.LASF22
 2188 00f5 05       		.byte	0x5
 2189 00f6 18       		.byte	0x18
 2190 00f7 7E000000 		.4byte	0x7e
 2191 00fb 04       		.byte	0x4
 2192 00fc 07       		.uleb128 0x7
 2193 00fd 89030000 		.4byte	.LASF23
 2194 0101 05       		.byte	0x5
 2195 0102 19       		.byte	0x19
 2196 0103 7E000000 		.4byte	0x7e
 2197 0107 08       		.byte	0x8
 2198 0108 07       		.uleb128 0x7
 2199 0109 F6010000 		.4byte	.LASF24
 2200 010d 05       		.byte	0x5
 2201 010e 1A       		.byte	0x1a
 2202 010f 15010000 		.4byte	0x115
 2203 0113 0C       		.byte	0xc
 2204 0114 00       		.byte	0
 2205 0115 08       		.uleb128 0x8
 2206 0116 04       		.byte	0x4
 2207 0117 7E000000 		.4byte	0x7e
 2208 011b 03       		.uleb128 0x3
 2209 011c 2D030000 		.4byte	.LASF25
 2210 0120 05       		.byte	0x5
 2211 0121 1B       		.byte	0x1b
 2212 0122 DC000000 		.4byte	0xdc
 2213 0126 06       		.uleb128 0x6
 2214 0127 28       		.byte	0x28
 2215 0128 05       		.byte	0x5
 2216 0129 22       		.byte	0x22
 2217 012a 47010000 		.4byte	0x147
 2218 012e 07       		.uleb128 0x7
 2219 012f 41010000 		.4byte	.LASF26
 2220 0133 05       		.byte	0x5
 2221 0134 23       		.byte	0x23
 2222 0135 47010000 		.4byte	0x147
 2223 0139 00       		.byte	0
 2224 013a 07       		.uleb128 0x7
 2225 013b 54030000 		.4byte	.LASF27
 2226 013f 05       		.byte	0x5
 2227 0140 24       		.byte	0x24
 2228 0141 47010000 		.4byte	0x147
 2229 0145 14       		.byte	0x14
 2230 0146 00       		.byte	0
 2231 0147 09       		.uleb128 0x9
 2232 0148 7E000000 		.4byte	0x7e
 2233 014c 57010000 		.4byte	0x157
 2234 0150 0A       		.uleb128 0xa
 2235 0151 D5000000 		.4byte	0xd5
ARM GAS  C:\Users\cyu13\AppData\Local\Temp\cc2BTquH.s 			page 47


 2236 0155 04       		.byte	0x4
 2237 0156 00       		.byte	0
 2238 0157 03       		.uleb128 0x3
 2239 0158 E4040000 		.4byte	.LASF28
 2240 015c 05       		.byte	0x5
 2241 015d 25       		.byte	0x25
 2242 015e 26010000 		.4byte	0x126
 2243 0162 06       		.uleb128 0x6
 2244 0163 30       		.byte	0x30
 2245 0164 05       		.byte	0x5
 2246 0165 3C       		.byte	0x3c
 2247 0166 BF010000 		.4byte	0x1bf
 2248 016a 07       		.uleb128 0x7
 2249 016b 21020000 		.4byte	.LASF29
 2250 016f 05       		.byte	0x5
 2251 0170 3D       		.byte	0x3d
 2252 0171 7E000000 		.4byte	0x7e
 2253 0175 00       		.byte	0
 2254 0176 07       		.uleb128 0x7
 2255 0177 D9020000 		.4byte	.LASF30
 2256 017b 05       		.byte	0x5
 2257 017c 3E       		.byte	0x3e
 2258 017d 7E000000 		.4byte	0x7e
 2259 0181 04       		.byte	0x4
 2260 0182 07       		.uleb128 0x7
 2261 0183 5B000000 		.4byte	.LASF31
 2262 0187 05       		.byte	0x5
 2263 0188 3F       		.byte	0x3f
 2264 0189 C0000000 		.4byte	0xc0
 2265 018d 08       		.byte	0x8
 2266 018e 07       		.uleb128 0x7
 2267 018f 4A000000 		.4byte	.LASF32
 2268 0193 05       		.byte	0x5
 2269 0194 40       		.byte	0x40
 2270 0195 C0000000 		.4byte	0xc0
 2271 0199 10       		.byte	0x10
 2272 019a 07       		.uleb128 0x7
 2273 019b D0040000 		.4byte	.LASF33
 2274 019f 05       		.byte	0x5
 2275 01a0 41       		.byte	0x41
 2276 01a1 C0000000 		.4byte	0xc0
 2277 01a5 18       		.byte	0x18
 2278 01a6 07       		.uleb128 0x7
 2279 01a7 DA040000 		.4byte	.LASF34
 2280 01ab 05       		.byte	0x5
 2281 01ac 42       		.byte	0x42
 2282 01ad C0000000 		.4byte	0xc0
 2283 01b1 20       		.byte	0x20
 2284 01b2 07       		.uleb128 0x7
 2285 01b3 B0030000 		.4byte	.LASF35
 2286 01b7 05       		.byte	0x5
 2287 01b8 43       		.byte	0x43
 2288 01b9 15010000 		.4byte	0x115
 2289 01bd 28       		.byte	0x28
 2290 01be 00       		.byte	0
 2291 01bf 03       		.uleb128 0x3
 2292 01c0 22040000 		.4byte	.LASF36
ARM GAS  C:\Users\cyu13\AppData\Local\Temp\cc2BTquH.s 			page 48


 2293 01c4 05       		.byte	0x5
 2294 01c5 44       		.byte	0x44
 2295 01c6 62010000 		.4byte	0x162
 2296 01ca 06       		.uleb128 0x6
 2297 01cb 04       		.byte	0x4
 2298 01cc 05       		.byte	0x5
 2299 01cd 56       		.byte	0x56
 2300 01ce DF010000 		.4byte	0x1df
 2301 01d2 07       		.uleb128 0x7
 2302 01d3 41010000 		.4byte	.LASF26
 2303 01d7 05       		.byte	0x5
 2304 01d8 57       		.byte	0x57
 2305 01d9 7E000000 		.4byte	0x7e
 2306 01dd 00       		.byte	0
 2307 01de 00       		.byte	0
 2308 01df 03       		.uleb128 0x3
 2309 01e0 12000000 		.4byte	.LASF37
 2310 01e4 05       		.byte	0x5
 2311 01e5 58       		.byte	0x58
 2312 01e6 CA010000 		.4byte	0x1ca
 2313 01ea 0B       		.uleb128 0xb
 2314 01eb 8C020000 		.4byte	.LASF44
 2315 01ef 48       		.byte	0x48
 2316 01f0 01       		.byte	0x1
 2317 01f1 14       		.byte	0x14
 2318 01f2 5F020000 		.4byte	0x25f
 2319 01f6 07       		.uleb128 0x7
 2320 01f7 35040000 		.4byte	.LASF38
 2321 01fb 01       		.byte	0x1
 2322 01fc 15       		.byte	0x15
 2323 01fd CE000000 		.4byte	0xce
 2324 0201 00       		.byte	0
 2325 0202 07       		.uleb128 0x7
 2326 0203 7B040000 		.4byte	.LASF39
 2327 0207 01       		.byte	0x1
 2328 0208 16       		.byte	0x16
 2329 0209 CE000000 		.4byte	0xce
 2330 020d 08       		.byte	0x8
 2331 020e 0C       		.uleb128 0xc
 2332 020f 7700     		.ascii	"w\000"
 2333 0211 01       		.byte	0x1
 2334 0212 17       		.byte	0x17
 2335 0213 CE000000 		.4byte	0xce
 2336 0217 10       		.byte	0x10
 2337 0218 07       		.uleb128 0x7
 2338 0219 82000000 		.4byte	.LASF40
 2339 021d 01       		.byte	0x1
 2340 021e 18       		.byte	0x18
 2341 021f CE000000 		.4byte	0xce
 2342 0223 18       		.byte	0x18
 2343 0224 07       		.uleb128 0x7
 2344 0225 A6020000 		.4byte	.LASF41
 2345 0229 01       		.byte	0x1
 2346 022a 19       		.byte	0x19
 2347 022b CE000000 		.4byte	0xce
 2348 022f 20       		.byte	0x20
 2349 0230 0C       		.uleb128 0xc
ARM GAS  C:\Users\cyu13\AppData\Local\Temp\cc2BTquH.s 			page 49


 2350 0231 4B6900   		.ascii	"Ki\000"
 2351 0234 01       		.byte	0x1
 2352 0235 1A       		.byte	0x1a
 2353 0236 CE000000 		.4byte	0xce
 2354 023a 28       		.byte	0x28
 2355 023b 0C       		.uleb128 0xc
 2356 023c 4B7000   		.ascii	"Kp\000"
 2357 023f 01       		.byte	0x1
 2358 0240 1B       		.byte	0x1b
 2359 0241 CE000000 		.4byte	0xce
 2360 0245 30       		.byte	0x30
 2361 0246 07       		.uleb128 0x7
 2362 0247 14020000 		.4byte	.LASF42
 2363 024b 01       		.byte	0x1
 2364 024c 1C       		.byte	0x1c
 2365 024d CE000000 		.4byte	0xce
 2366 0251 38       		.byte	0x38
 2367 0252 07       		.uleb128 0x7
 2368 0253 AA040000 		.4byte	.LASF43
 2369 0257 01       		.byte	0x1
 2370 0258 1D       		.byte	0x1d
 2371 0259 AD000000 		.4byte	0xad
 2372 025d 40       		.byte	0x40
 2373 025e 00       		.byte	0
 2374 025f 0B       		.uleb128 0xb
 2375 0260 AD000000 		.4byte	.LASF45
 2376 0264 70       		.byte	0x70
 2377 0265 01       		.byte	0x1
 2378 0266 20       		.byte	0x20
 2379 0267 0A030000 		.4byte	0x30a
 2380 026b 07       		.uleb128 0x7
 2381 026c 85040000 		.4byte	.LASF46
 2382 0270 01       		.byte	0x1
 2383 0271 21       		.byte	0x21
 2384 0272 CE000000 		.4byte	0xce
 2385 0276 00       		.byte	0
 2386 0277 0C       		.uleb128 0xc
 2387 0278 7800     		.ascii	"x\000"
 2388 027a 01       		.byte	0x1
 2389 027b 22       		.byte	0x22
 2390 027c CE000000 		.4byte	0xce
 2391 0280 08       		.byte	0x8
 2392 0281 0C       		.uleb128 0xc
 2393 0282 7900     		.ascii	"y\000"
 2394 0284 01       		.byte	0x1
 2395 0285 23       		.byte	0x23
 2396 0286 CE000000 		.4byte	0xce
 2397 028a 10       		.byte	0x10
 2398 028b 07       		.uleb128 0x7
 2399 028c 00000000 		.4byte	.LASF47
 2400 0290 01       		.byte	0x1
 2401 0291 24       		.byte	0x24
 2402 0292 CE000000 		.4byte	0xce
 2403 0296 18       		.byte	0x18
 2404 0297 0C       		.uleb128 0xc
 2405 0298 5600     		.ascii	"V\000"
 2406 029a 01       		.byte	0x1
ARM GAS  C:\Users\cyu13\AppData\Local\Temp\cc2BTquH.s 			page 50


 2407 029b 26       		.byte	0x26
 2408 029c CE000000 		.4byte	0xce
 2409 02a0 20       		.byte	0x20
 2410 02a1 0C       		.uleb128 0xc
 2411 02a2 7700     		.ascii	"w\000"
 2412 02a4 01       		.byte	0x1
 2413 02a5 27       		.byte	0x27
 2414 02a6 CE000000 		.4byte	0xce
 2415 02aa 28       		.byte	0x28
 2416 02ab 07       		.uleb128 0x7
 2417 02ac 48020000 		.4byte	.LASF48
 2418 02b0 01       		.byte	0x1
 2419 02b1 29       		.byte	0x29
 2420 02b2 CE000000 		.4byte	0xce
 2421 02b6 30       		.byte	0x30
 2422 02b7 07       		.uleb128 0x7
 2423 02b8 2A000000 		.4byte	.LASF49
 2424 02bc 01       		.byte	0x1
 2425 02bd 2A       		.byte	0x2a
 2426 02be CE000000 		.4byte	0xce
 2427 02c2 38       		.byte	0x38
 2428 02c3 0C       		.uleb128 0xc
 2429 02c4 4B6900   		.ascii	"Ki\000"
 2430 02c7 01       		.byte	0x1
 2431 02c8 2C       		.byte	0x2c
 2432 02c9 CE000000 		.4byte	0xce
 2433 02cd 40       		.byte	0x40
 2434 02ce 0C       		.uleb128 0xc
 2435 02cf 4B7000   		.ascii	"Kp\000"
 2436 02d2 01       		.byte	0x1
 2437 02d3 2D       		.byte	0x2d
 2438 02d4 CE000000 		.4byte	0xce
 2439 02d8 48       		.byte	0x48
 2440 02d9 07       		.uleb128 0x7
 2441 02da 7B040000 		.4byte	.LASF39
 2442 02de 01       		.byte	0x1
 2443 02df 2E       		.byte	0x2e
 2444 02e0 CE000000 		.4byte	0xce
 2445 02e4 50       		.byte	0x50
 2446 02e5 07       		.uleb128 0x7
 2447 02e6 C4010000 		.4byte	.LASF50
 2448 02ea 01       		.byte	0x1
 2449 02eb 30       		.byte	0x30
 2450 02ec CE000000 		.4byte	0xce
 2451 02f0 58       		.byte	0x58
 2452 02f1 07       		.uleb128 0x7
 2453 02f2 0B000000 		.4byte	.LASF51
 2454 02f6 01       		.byte	0x1
 2455 02f7 31       		.byte	0x31
 2456 02f8 CE000000 		.4byte	0xce
 2457 02fc 60       		.byte	0x60
 2458 02fd 07       		.uleb128 0x7
 2459 02fe 8B040000 		.4byte	.LASF52
 2460 0302 01       		.byte	0x1
 2461 0303 32       		.byte	0x32
 2462 0304 CE000000 		.4byte	0xce
 2463 0308 68       		.byte	0x68
ARM GAS  C:\Users\cyu13\AppData\Local\Temp\cc2BTquH.s 			page 51


 2464 0309 00       		.byte	0
 2465 030a 0D       		.uleb128 0xd
 2466 030b 10040000 		.4byte	.LASF98
 2467 030f 01       		.byte	0x1
 2468 0310 52       		.byte	0x52
 2469 0311 00000000 		.4byte	.LFB64
 2470 0315 00010000 		.4byte	.LFE64-.LFB64
 2471 0319 01       		.uleb128 0x1
 2472 031a 9C       		.byte	0x9c
 2473 031b 0E       		.uleb128 0xe
 2474 031c FC010000 		.4byte	.LASF57
 2475 0320 01       		.byte	0x1
 2476 0321 64       		.byte	0x64
 2477 0322 00000000 		.4byte	.LFB65
 2478 0326 5C040000 		.4byte	.LFE65-.LFB65
 2479 032a 01       		.uleb128 0x1
 2480 032b 9C       		.byte	0x9c
 2481 032c 78030000 		.4byte	0x378
 2482 0330 0F       		.uleb128 0xf
 2483 0331 6E657700 		.ascii	"new\000"
 2484 0335 01       		.byte	0x1
 2485 0336 65       		.byte	0x65
 2486 0337 AD000000 		.4byte	0xad
 2487 033b 02       		.uleb128 0x2
 2488 033c 91       		.byte	0x91
 2489 033d 4C       		.sleb128 -52
 2490 033e 10       		.uleb128 0x10
 2491 033f 45000000 		.4byte	.LASF53
 2492 0343 01       		.byte	0x1
 2493 0344 66       		.byte	0x66
 2494 0345 AD000000 		.4byte	0xad
 2495 0349 02       		.uleb128 0x2
 2496 034a 91       		.byte	0x91
 2497 034b 48       		.sleb128 -56
 2498 034c 10       		.uleb128 0x10
 2499 034d B4040000 		.4byte	.LASF54
 2500 0351 01       		.byte	0x1
 2501 0352 80       		.byte	0x80
 2502 0353 CE000000 		.4byte	0xce
 2503 0357 02       		.uleb128 0x2
 2504 0358 91       		.byte	0x91
 2505 0359 50       		.sleb128 -48
 2506 035a 10       		.uleb128 0x10
 2507 035b 2C040000 		.4byte	.LASF55
 2508 035f 01       		.byte	0x1
 2509 0360 88       		.byte	0x88
 2510 0361 C0000000 		.4byte	0xc0
 2511 0365 02       		.uleb128 0x2
 2512 0366 91       		.byte	0x91
 2513 0367 40       		.sleb128 -64
 2514 0368 10       		.uleb128 0x10
 2515 0369 F5020000 		.4byte	.LASF56
 2516 036d 01       		.byte	0x1
 2517 036e 8B       		.byte	0x8b
 2518 036f CE000000 		.4byte	0xce
 2519 0373 03       		.uleb128 0x3
 2520 0374 91       		.byte	0x91
ARM GAS  C:\Users\cyu13\AppData\Local\Temp\cc2BTquH.s 			page 52


 2521 0375 B87F     		.sleb128 -72
 2522 0377 00       		.byte	0
 2523 0378 0E       		.uleb128 0xe
 2524 0379 56010000 		.4byte	.LASF58
 2525 037d 01       		.byte	0x1
 2526 037e 91       		.byte	0x91
 2527 037f 00000000 		.4byte	.LFB66
 2528 0383 54010000 		.4byte	.LFE66-.LFB66
 2529 0387 01       		.uleb128 0x1
 2530 0388 9C       		.byte	0x9c
 2531 0389 9C030000 		.4byte	0x39c
 2532 038d 10       		.uleb128 0x10
 2533 038e B4040000 		.4byte	.LASF54
 2534 0392 01       		.byte	0x1
 2535 0393 92       		.byte	0x92
 2536 0394 CE000000 		.4byte	0xce
 2537 0398 02       		.uleb128 0x2
 2538 0399 91       		.byte	0x91
 2539 039a 60       		.sleb128 -32
 2540 039b 00       		.byte	0
 2541 039c 0E       		.uleb128 0xe
 2542 039d 94030000 		.4byte	.LASF59
 2543 03a1 01       		.byte	0x1
 2544 03a2 9D       		.byte	0x9d
 2545 03a3 00000000 		.4byte	.LFB67
 2546 03a7 74000000 		.4byte	.LFE67-.LFB67
 2547 03ab 01       		.uleb128 0x1
 2548 03ac 9C       		.byte	0x9c
 2549 03ad C0030000 		.4byte	0x3c0
 2550 03b1 10       		.uleb128 0x10
 2551 03b2 A4040000 		.4byte	.LASF60
 2552 03b6 01       		.byte	0x1
 2553 03b7 9E       		.byte	0x9e
 2554 03b8 CE000000 		.4byte	0xce
 2555 03bc 02       		.uleb128 0x2
 2556 03bd 91       		.byte	0x91
 2557 03be 68       		.sleb128 -24
 2558 03bf 00       		.byte	0
 2559 03c0 11       		.uleb128 0x11
 2560 03c1 78030000 		.4byte	.LASF72
 2561 03c5 01       		.byte	0x1
 2562 03c6 A9       		.byte	0xa9
 2563 03c7 7E000000 		.4byte	0x7e
 2564 03cb 00000000 		.4byte	.LFB68
 2565 03cf 6C050000 		.4byte	.LFE68-.LFB68
 2566 03d3 01       		.uleb128 0x1
 2567 03d4 9C       		.byte	0x9c
 2568 03d5 75040000 		.4byte	0x475
 2569 03d9 10       		.uleb128 0x10
 2570 03da F0040000 		.4byte	.LASF61
 2571 03de 01       		.byte	0x1
 2572 03df AB       		.byte	0xab
 2573 03e0 CE000000 		.4byte	0xce
 2574 03e4 02       		.uleb128 0x2
 2575 03e5 91       		.byte	0x91
 2576 03e6 48       		.sleb128 -56
 2577 03e7 10       		.uleb128 0x10
ARM GAS  C:\Users\cyu13\AppData\Local\Temp\cc2BTquH.s 			page 53


 2578 03e8 7D030000 		.4byte	.LASF62
 2579 03ec 01       		.byte	0x1
 2580 03ed F3       		.byte	0xf3
 2581 03ee 7E000000 		.4byte	0x7e
 2582 03f2 02       		.uleb128 0x2
 2583 03f3 91       		.byte	0x91
 2584 03f4 44       		.sleb128 -60
 2585 03f5 10       		.uleb128 0x10
 2586 03f6 70030000 		.4byte	.LASF63
 2587 03fa 01       		.byte	0x1
 2588 03fb FA       		.byte	0xfa
 2589 03fc 7E000000 		.4byte	0x7e
 2590 0400 02       		.uleb128 0x2
 2591 0401 91       		.byte	0x91
 2592 0402 40       		.sleb128 -64
 2593 0403 10       		.uleb128 0x10
 2594 0404 FE040000 		.4byte	.LASF64
 2595 0408 01       		.byte	0x1
 2596 0409 FB       		.byte	0xfb
 2597 040a 75040000 		.4byte	0x475
 2598 040e 03       		.uleb128 0x3
 2599 040f 91       		.byte	0x91
 2600 0410 987F     		.sleb128 -104
 2601 0412 10       		.uleb128 0x10
 2602 0413 38000000 		.4byte	.LASF65
 2603 0417 01       		.byte	0x1
 2604 0418 FE       		.byte	0xfe
 2605 0419 7E000000 		.4byte	0x7e
 2606 041d 02       		.uleb128 0x2
 2607 041e 91       		.byte	0x91
 2608 041f 54       		.sleb128 -44
 2609 0420 12       		.uleb128 0x12
 2610 0421 80030000 		.4byte	.LBB2
 2611 0425 C0010000 		.4byte	.LBE2-.LBB2
 2612 0429 13       		.uleb128 0x13
 2613 042a A0010000 		.4byte	.LASF66
 2614 042e 01       		.byte	0x1
 2615 042f 0201     		.2byte	0x102
 2616 0431 7E000000 		.4byte	0x7e
 2617 0435 03       		.uleb128 0x3
 2618 0436 91       		.byte	0x91
 2619 0437 BC7F     		.sleb128 -68
 2620 0439 12       		.uleb128 0x12
 2621 043a 4C040000 		.4byte	.LBB3
 2622 043e F4000000 		.4byte	.LBE3-.LBB3
 2623 0442 13       		.uleb128 0x13
 2624 0443 23000000 		.4byte	.LASF67
 2625 0447 01       		.byte	0x1
 2626 0448 1401     		.2byte	0x114
 2627 044a 85040000 		.4byte	0x485
 2628 044e 03       		.uleb128 0x3
 2629 044f 91       		.byte	0x91
 2630 0450 B87F     		.sleb128 -72
 2631 0452 13       		.uleb128 0x13
 2632 0453 27020000 		.4byte	.LASF68
 2633 0457 01       		.byte	0x1
 2634 0458 1E01     		.2byte	0x11e
ARM GAS  C:\Users\cyu13\AppData\Local\Temp\cc2BTquH.s 			page 54


 2635 045a 15010000 		.4byte	0x115
 2636 045e 03       		.uleb128 0x3
 2637 045f 91       		.byte	0x91
 2638 0460 B47F     		.sleb128 -76
 2639 0462 13       		.uleb128 0x13
 2640 0463 92020000 		.4byte	.LASF69
 2641 0467 01       		.byte	0x1
 2642 0468 2101     		.2byte	0x121
 2643 046a C0000000 		.4byte	0xc0
 2644 046e 03       		.uleb128 0x3
 2645 046f 91       		.byte	0x91
 2646 0470 A87F     		.sleb128 -88
 2647 0472 00       		.byte	0
 2648 0473 00       		.byte	0
 2649 0474 00       		.byte	0
 2650 0475 09       		.uleb128 0x9
 2651 0476 7E000000 		.4byte	0x7e
 2652 047a 85040000 		.4byte	0x485
 2653 047e 0A       		.uleb128 0xa
 2654 047f D5000000 		.4byte	0xd5
 2655 0483 03       		.byte	0x3
 2656 0484 00       		.byte	0
 2657 0485 08       		.uleb128 0x8
 2658 0486 04       		.byte	0x4
 2659 0487 1B010000 		.4byte	0x11b
 2660 048b 14       		.uleb128 0x14
 2661 048c 6B010000 		.4byte	.LASF70
 2662 0490 01       		.byte	0x1
 2663 0491 3501     		.2byte	0x135
 2664 0493 00000000 		.4byte	.LFB69
 2665 0497 D8000000 		.4byte	.LFE69-.LFB69
 2666 049b 01       		.uleb128 0x1
 2667 049c 9C       		.byte	0x9c
 2668 049d B1040000 		.4byte	0x4b1
 2669 04a1 15       		.uleb128 0x15
 2670 04a2 35040000 		.4byte	.LASF38
 2671 04a6 01       		.byte	0x1
 2672 04a7 3501     		.2byte	0x135
 2673 04a9 CE000000 		.4byte	0xce
 2674 04ad 02       		.uleb128 0x2
 2675 04ae 91       		.byte	0x91
 2676 04af 68       		.sleb128 -24
 2677 04b0 00       		.byte	0
 2678 04b1 14       		.uleb128 0x14
 2679 04b2 1B030000 		.4byte	.LASF71
 2680 04b6 01       		.byte	0x1
 2681 04b7 4601     		.2byte	0x146
 2682 04b9 00000000 		.4byte	.LFB70
 2683 04bd D8000000 		.4byte	.LFE70-.LFB70
 2684 04c1 01       		.uleb128 0x1
 2685 04c2 9C       		.byte	0x9c
 2686 04c3 D7040000 		.4byte	0x4d7
 2687 04c7 15       		.uleb128 0x15
 2688 04c8 35040000 		.4byte	.LASF38
 2689 04cc 01       		.byte	0x1
 2690 04cd 4601     		.2byte	0x146
 2691 04cf CE000000 		.4byte	0xce
ARM GAS  C:\Users\cyu13\AppData\Local\Temp\cc2BTquH.s 			page 55


 2692 04d3 02       		.uleb128 0x2
 2693 04d4 91       		.byte	0x91
 2694 04d5 68       		.sleb128 -24
 2695 04d6 00       		.byte	0
 2696 04d7 16       		.uleb128 0x16
 2697 04d8 88010000 		.4byte	.LASF73
 2698 04dc 01       		.byte	0x1
 2699 04dd 5701     		.2byte	0x157
 2700 04df CE000000 		.4byte	0xce
 2701 04e3 00000000 		.4byte	.LFB71
 2702 04e7 58000000 		.4byte	.LFE71-.LFB71
 2703 04eb 01       		.uleb128 0x1
 2704 04ec 9C       		.byte	0x9c
 2705 04ed 01050000 		.4byte	0x501
 2706 04f1 15       		.uleb128 0x15
 2707 04f2 A4040000 		.4byte	.LASF60
 2708 04f6 01       		.byte	0x1
 2709 04f7 5701     		.2byte	0x157
 2710 04f9 CE000000 		.4byte	0xce
 2711 04fd 02       		.uleb128 0x2
 2712 04fe 91       		.byte	0x91
 2713 04ff 68       		.sleb128 -24
 2714 0500 00       		.byte	0
 2715 0501 14       		.uleb128 0x14
 2716 0502 32020000 		.4byte	.LASF74
 2717 0506 01       		.byte	0x1
 2718 0507 5B01     		.2byte	0x15b
 2719 0509 00000000 		.4byte	.LFB72
 2720 050d 54000000 		.4byte	.LFE72-.LFB72
 2721 0511 01       		.uleb128 0x1
 2722 0512 9C       		.byte	0x9c
 2723 0513 3E050000 		.4byte	0x53e
 2724 0517 15       		.uleb128 0x15
 2725 0518 95000000 		.4byte	.LASF75
 2726 051c 01       		.byte	0x1
 2727 051d 5B01     		.2byte	0x15b
 2728 051f 3E050000 		.4byte	0x53e
 2729 0523 02       		.uleb128 0x2
 2730 0524 91       		.byte	0x91
 2731 0525 6C       		.sleb128 -20
 2732 0526 12       		.uleb128 0x12
 2733 0527 08000000 		.4byte	.LBB4
 2734 052b 32000000 		.4byte	.LBE4-.LBB4
 2735 052f 17       		.uleb128 0x17
 2736 0530 6900     		.ascii	"i\000"
 2737 0532 01       		.byte	0x1
 2738 0533 5C01     		.2byte	0x15c
 2739 0535 7E000000 		.4byte	0x7e
 2740 0539 02       		.uleb128 0x2
 2741 053a 91       		.byte	0x91
 2742 053b 74       		.sleb128 -12
 2743 053c 00       		.byte	0
 2744 053d 00       		.byte	0
 2745 053e 08       		.uleb128 0x8
 2746 053f 04       		.byte	0x4
 2747 0540 BF010000 		.4byte	0x1bf
 2748 0544 14       		.uleb128 0x14
ARM GAS  C:\Users\cyu13\AppData\Local\Temp\cc2BTquH.s 			page 56


 2749 0545 99040000 		.4byte	.LASF76
 2750 0549 01       		.byte	0x1
 2751 054a 6301     		.2byte	0x163
 2752 054c 00000000 		.4byte	.LFB73
 2753 0550 90000000 		.4byte	.LFE73-.LFB73
 2754 0554 01       		.uleb128 0x1
 2755 0555 9C       		.byte	0x9c
 2756 0556 B6050000 		.4byte	0x5b6
 2757 055a 18       		.uleb128 0x18
 2758 055b 6D617000 		.ascii	"map\000"
 2759 055f 01       		.byte	0x1
 2760 0560 6301     		.2byte	0x163
 2761 0562 85040000 		.4byte	0x485
 2762 0566 02       		.uleb128 0x2
 2763 0567 91       		.byte	0x91
 2764 0568 64       		.sleb128 -28
 2765 0569 13       		.uleb128 0x13
 2766 056a CB010000 		.4byte	.LASF77
 2767 056e 01       		.byte	0x1
 2768 056f 6501     		.2byte	0x165
 2769 0571 7E000000 		.4byte	0x7e
 2770 0575 02       		.uleb128 0x2
 2771 0576 91       		.byte	0x91
 2772 0577 6C       		.sleb128 -20
 2773 0578 13       		.uleb128 0x13
 2774 0579 09040000 		.4byte	.LASF78
 2775 057d 01       		.byte	0x1
 2776 057e 6601     		.2byte	0x166
 2777 0580 7E000000 		.4byte	0x7e
 2778 0584 02       		.uleb128 0x2
 2779 0585 91       		.byte	0x91
 2780 0586 68       		.sleb128 -24
 2781 0587 12       		.uleb128 0x12
 2782 0588 14000000 		.4byte	.LBB5
 2783 058c 5C000000 		.4byte	.LBE5-.LBB5
 2784 0590 17       		.uleb128 0x17
 2785 0591 6900     		.ascii	"i\000"
 2786 0593 01       		.byte	0x1
 2787 0594 6801     		.2byte	0x168
 2788 0596 7E000000 		.4byte	0x7e
 2789 059a 02       		.uleb128 0x2
 2790 059b 91       		.byte	0x91
 2791 059c 74       		.sleb128 -12
 2792 059d 12       		.uleb128 0x12
 2793 059e 1A000000 		.4byte	.LBB6
 2794 05a2 3A000000 		.4byte	.LBE6-.LBB6
 2795 05a6 17       		.uleb128 0x17
 2796 05a7 6A00     		.ascii	"j\000"
 2797 05a9 01       		.byte	0x1
 2798 05aa 6901     		.2byte	0x169
 2799 05ac 7E000000 		.4byte	0x7e
 2800 05b0 02       		.uleb128 0x2
 2801 05b1 91       		.byte	0x91
 2802 05b2 70       		.sleb128 -16
 2803 05b3 00       		.byte	0
 2804 05b4 00       		.byte	0
 2805 05b5 00       		.byte	0
ARM GAS  C:\Users\cyu13\AppData\Local\Temp\cc2BTquH.s 			page 57


 2806 05b6 19       		.uleb128 0x19
 2807 05b7 C3040000 		.4byte	.LASF79
 2808 05bb 06       		.byte	0x6
 2809 05bc 1207     		.2byte	0x712
 2810 05be C2050000 		.4byte	0x5c2
 2811 05c2 1A       		.uleb128 0x1a
 2812 05c3 A2000000 		.4byte	0xa2
 2813 05c7 1B       		.uleb128 0x1b
 2814 05c8 B5010000 		.4byte	.LASF80
 2815 05cc 01       		.byte	0x1
 2816 05cd 35       		.byte	0x35
 2817 05ce D8050000 		.4byte	0x5d8
 2818 05d2 05       		.uleb128 0x5
 2819 05d3 03       		.byte	0x3
 2820 05d4 00000000 		.4byte	PULSES_PER_REV
 2821 05d8 1C       		.uleb128 0x1c
 2822 05d9 CE000000 		.4byte	0xce
 2823 05dd 1B       		.uleb128 0x1b
 2824 05de 6F000000 		.4byte	.LASF81
 2825 05e2 01       		.byte	0x1
 2826 05e3 36       		.byte	0x36
 2827 05e4 D8050000 		.4byte	0x5d8
 2828 05e8 05       		.uleb128 0x5
 2829 05e9 03       		.byte	0x3
 2830 05ea 00000000 		.4byte	POSE_UPDATE_PERIOD
 2831 05ee 1B       		.uleb128 0x1b
 2832 05ef 9C020000 		.4byte	.LASF82
 2833 05f3 01       		.byte	0x1
 2834 05f4 3C       		.byte	0x3c
 2835 05f5 8C000000 		.4byte	0x8c
 2836 05f9 05       		.uleb128 0x5
 2837 05fa 03       		.byte	0x3
 2838 05fb 00000000 		.4byte	echo_flag
 2839 05ff 1B       		.uleb128 0x1b
 2840 0600 11030000 		.4byte	.LASF83
 2841 0604 01       		.byte	0x1
 2842 0605 3D       		.byte	0x3d
 2843 0606 97000000 		.4byte	0x97
 2844 060a 05       		.uleb128 0x5
 2845 060b 03       		.byte	0x3
 2846 060c 00000000 		.4byte	max_count
 2847 0610 1B       		.uleb128 0x1b
 2848 0611 52020000 		.4byte	.LASF84
 2849 0615 01       		.byte	0x1
 2850 0616 3E       		.byte	0x3e
 2851 0617 97000000 		.4byte	0x97
 2852 061b 05       		.uleb128 0x5
 2853 061c 03       		.byte	0x3
 2854 061d 00000000 		.4byte	echo_distance
 2855 0621 1B       		.uleb128 0x1b
 2856 0622 DD010000 		.4byte	.LASF85
 2857 0626 01       		.byte	0x1
 2858 0627 3F       		.byte	0x3f
 2859 0628 8C000000 		.4byte	0x8c
 2860 062c 05       		.uleb128 0x5
 2861 062d 03       		.byte	0x3
 2862 062e 00000000 		.4byte	mux_select
ARM GAS  C:\Users\cyu13\AppData\Local\Temp\cc2BTquH.s 			page 58


 2863 0632 1B       		.uleb128 0x1b
 2864 0633 EB030000 		.4byte	.LASF86
 2865 0637 01       		.byte	0x1
 2866 0638 40       		.byte	0x40
 2867 0639 AD000000 		.4byte	0xad
 2868 063d 05       		.uleb128 0x5
 2869 063e 03       		.byte	0x3
 2870 063f 00000000 		.4byte	left_wheel_count
 2871 0643 1B       		.uleb128 0x1b
 2872 0644 D9030000 		.4byte	.LASF87
 2873 0648 01       		.byte	0x1
 2874 0649 41       		.byte	0x41
 2875 064a AD000000 		.4byte	0xad
 2876 064e 05       		.uleb128 0x5
 2877 064f 03       		.byte	0x3
 2878 0650 00000000 		.4byte	right_wheel_count
 2879 0654 09       		.uleb128 0x9
 2880 0655 C7000000 		.4byte	0xc7
 2881 0659 64060000 		.4byte	0x664
 2882 065d 0A       		.uleb128 0xa
 2883 065e D5000000 		.4byte	0xd5
 2884 0662 95       		.byte	0x95
 2885 0663 00       		.byte	0
 2886 0664 1B       		.uleb128 0x1b
 2887 0665 62030000 		.4byte	.LASF88
 2888 0669 01       		.byte	0x1
 2889 066a 42       		.byte	0x42
 2890 066b 54060000 		.4byte	0x654
 2891 066f 05       		.uleb128 0x5
 2892 0670 03       		.byte	0x3
 2893 0671 00000000 		.4byte	serial_output
 2894 0675 1B       		.uleb128 0x1b
 2895 0676 95010000 		.4byte	.LASF89
 2896 067a 01       		.byte	0x1
 2897 067b 44       		.byte	0x44
 2898 067c EA010000 		.4byte	0x1ea
 2899 0680 05       		.uleb128 0x5
 2900 0681 03       		.byte	0x3
 2901 0682 00000000 		.4byte	left_motor
 2902 0686 1B       		.uleb128 0x1b
 2903 0687 7C010000 		.4byte	.LASF90
 2904 068b 01       		.byte	0x1
 2905 068c 45       		.byte	0x45
 2906 068d EA010000 		.4byte	0x1ea
 2907 0691 05       		.uleb128 0x5
 2908 0692 03       		.byte	0x3
 2909 0693 00000000 		.4byte	right_motor
 2910 0697 1B       		.uleb128 0x1b
 2911 0698 BC020000 		.4byte	.LASF91
 2912 069c 01       		.byte	0x1
 2913 069d 46       		.byte	0x46
 2914 069e 5F020000 		.4byte	0x25f
 2915 06a2 05       		.uleb128 0x5
 2916 06a3 03       		.byte	0x3
 2917 06a4 00000000 		.4byte	robot
 2918 06a8 1B       		.uleb128 0x1b
 2919 06a9 C3030000 		.4byte	.LASF92
ARM GAS  C:\Users\cyu13\AppData\Local\Temp\cc2BTquH.s 			page 59


 2920 06ad 01       		.byte	0x1
 2921 06ae 49       		.byte	0x49
 2922 06af 85040000 		.4byte	0x485
 2923 06b3 05       		.uleb128 0x5
 2924 06b4 03       		.byte	0x3
 2925 06b5 00000000 		.4byte	certainty_grid
 2926 06b9 1B       		.uleb128 0x1b
 2927 06ba A5000000 		.4byte	.LASF93
 2928 06be 01       		.byte	0x1
 2929 06bf 4A       		.byte	0x4a
 2930 06c0 57010000 		.4byte	0x157
 2931 06c4 05       		.uleb128 0x5
 2932 06c5 03       		.byte	0x3
 2933 06c6 00000000 		.4byte	sensors
 2934 06ca 1B       		.uleb128 0x1b
 2935 06cb 95000000 		.4byte	.LASF75
 2936 06cf 01       		.byte	0x1
 2937 06d0 4B       		.byte	0x4b
 2938 06d1 3E050000 		.4byte	0x53e
 2939 06d5 05       		.uleb128 0x5
 2940 06d6 03       		.byte	0x3
 2941 06d7 00000000 		.4byte	polar_histogram
 2942 06db 1B       		.uleb128 0x1b
 2943 06dc 32030000 		.4byte	.LASF94
 2944 06e0 01       		.byte	0x1
 2945 06e1 4C       		.byte	0x4c
 2946 06e2 DF010000 		.4byte	0x1df
 2947 06e6 05       		.uleb128 0x5
 2948 06e7 03       		.byte	0x3
 2949 06e8 00000000 		.4byte	control_signal
 2950 06ec 00       		.byte	0
 2951              		.section	.debug_abbrev,"",%progbits
 2952              	.Ldebug_abbrev0:
 2953 0000 01       		.uleb128 0x1
 2954 0001 11       		.uleb128 0x11
 2955 0002 01       		.byte	0x1
 2956 0003 25       		.uleb128 0x25
 2957 0004 0E       		.uleb128 0xe
 2958 0005 13       		.uleb128 0x13
 2959 0006 0B       		.uleb128 0xb
 2960 0007 03       		.uleb128 0x3
 2961 0008 0E       		.uleb128 0xe
 2962 0009 1B       		.uleb128 0x1b
 2963 000a 0E       		.uleb128 0xe
 2964 000b 55       		.uleb128 0x55
 2965 000c 17       		.uleb128 0x17
 2966 000d 11       		.uleb128 0x11
 2967 000e 01       		.uleb128 0x1
 2968 000f 10       		.uleb128 0x10
 2969 0010 17       		.uleb128 0x17
 2970 0011 00       		.byte	0
 2971 0012 00       		.byte	0
 2972 0013 02       		.uleb128 0x2
 2973 0014 24       		.uleb128 0x24
 2974 0015 00       		.byte	0
 2975 0016 0B       		.uleb128 0xb
 2976 0017 0B       		.uleb128 0xb
ARM GAS  C:\Users\cyu13\AppData\Local\Temp\cc2BTquH.s 			page 60


 2977 0018 3E       		.uleb128 0x3e
 2978 0019 0B       		.uleb128 0xb
 2979 001a 03       		.uleb128 0x3
 2980 001b 0E       		.uleb128 0xe
 2981 001c 00       		.byte	0
 2982 001d 00       		.byte	0
 2983 001e 03       		.uleb128 0x3
 2984 001f 16       		.uleb128 0x16
 2985 0020 00       		.byte	0
 2986 0021 03       		.uleb128 0x3
 2987 0022 0E       		.uleb128 0xe
 2988 0023 3A       		.uleb128 0x3a
 2989 0024 0B       		.uleb128 0xb
 2990 0025 3B       		.uleb128 0x3b
 2991 0026 0B       		.uleb128 0xb
 2992 0027 49       		.uleb128 0x49
 2993 0028 13       		.uleb128 0x13
 2994 0029 00       		.byte	0
 2995 002a 00       		.byte	0
 2996 002b 04       		.uleb128 0x4
 2997 002c 24       		.uleb128 0x24
 2998 002d 00       		.byte	0
 2999 002e 0B       		.uleb128 0xb
 3000 002f 0B       		.uleb128 0xb
 3001 0030 3E       		.uleb128 0x3e
 3002 0031 0B       		.uleb128 0xb
 3003 0032 03       		.uleb128 0x3
 3004 0033 08       		.uleb128 0x8
 3005 0034 00       		.byte	0
 3006 0035 00       		.byte	0
 3007 0036 05       		.uleb128 0x5
 3008 0037 16       		.uleb128 0x16
 3009 0038 00       		.byte	0
 3010 0039 03       		.uleb128 0x3
 3011 003a 0E       		.uleb128 0xe
 3012 003b 3A       		.uleb128 0x3a
 3013 003c 0B       		.uleb128 0xb
 3014 003d 3B       		.uleb128 0x3b
 3015 003e 05       		.uleb128 0x5
 3016 003f 49       		.uleb128 0x49
 3017 0040 13       		.uleb128 0x13
 3018 0041 00       		.byte	0
 3019 0042 00       		.byte	0
 3020 0043 06       		.uleb128 0x6
 3021 0044 13       		.uleb128 0x13
 3022 0045 01       		.byte	0x1
 3023 0046 0B       		.uleb128 0xb
 3024 0047 0B       		.uleb128 0xb
 3025 0048 3A       		.uleb128 0x3a
 3026 0049 0B       		.uleb128 0xb
 3027 004a 3B       		.uleb128 0x3b
 3028 004b 0B       		.uleb128 0xb
 3029 004c 01       		.uleb128 0x1
 3030 004d 13       		.uleb128 0x13
 3031 004e 00       		.byte	0
 3032 004f 00       		.byte	0
 3033 0050 07       		.uleb128 0x7
ARM GAS  C:\Users\cyu13\AppData\Local\Temp\cc2BTquH.s 			page 61


 3034 0051 0D       		.uleb128 0xd
 3035 0052 00       		.byte	0
 3036 0053 03       		.uleb128 0x3
 3037 0054 0E       		.uleb128 0xe
 3038 0055 3A       		.uleb128 0x3a
 3039 0056 0B       		.uleb128 0xb
 3040 0057 3B       		.uleb128 0x3b
 3041 0058 0B       		.uleb128 0xb
 3042 0059 49       		.uleb128 0x49
 3043 005a 13       		.uleb128 0x13
 3044 005b 38       		.uleb128 0x38
 3045 005c 0B       		.uleb128 0xb
 3046 005d 00       		.byte	0
 3047 005e 00       		.byte	0
 3048 005f 08       		.uleb128 0x8
 3049 0060 0F       		.uleb128 0xf
 3050 0061 00       		.byte	0
 3051 0062 0B       		.uleb128 0xb
 3052 0063 0B       		.uleb128 0xb
 3053 0064 49       		.uleb128 0x49
 3054 0065 13       		.uleb128 0x13
 3055 0066 00       		.byte	0
 3056 0067 00       		.byte	0
 3057 0068 09       		.uleb128 0x9
 3058 0069 01       		.uleb128 0x1
 3059 006a 01       		.byte	0x1
 3060 006b 49       		.uleb128 0x49
 3061 006c 13       		.uleb128 0x13
 3062 006d 01       		.uleb128 0x1
 3063 006e 13       		.uleb128 0x13
 3064 006f 00       		.byte	0
 3065 0070 00       		.byte	0
 3066 0071 0A       		.uleb128 0xa
 3067 0072 21       		.uleb128 0x21
 3068 0073 00       		.byte	0
 3069 0074 49       		.uleb128 0x49
 3070 0075 13       		.uleb128 0x13
 3071 0076 2F       		.uleb128 0x2f
 3072 0077 0B       		.uleb128 0xb
 3073 0078 00       		.byte	0
 3074 0079 00       		.byte	0
 3075 007a 0B       		.uleb128 0xb
 3076 007b 13       		.uleb128 0x13
 3077 007c 01       		.byte	0x1
 3078 007d 03       		.uleb128 0x3
 3079 007e 0E       		.uleb128 0xe
 3080 007f 0B       		.uleb128 0xb
 3081 0080 0B       		.uleb128 0xb
 3082 0081 3A       		.uleb128 0x3a
 3083 0082 0B       		.uleb128 0xb
 3084 0083 3B       		.uleb128 0x3b
 3085 0084 0B       		.uleb128 0xb
 3086 0085 01       		.uleb128 0x1
 3087 0086 13       		.uleb128 0x13
 3088 0087 00       		.byte	0
 3089 0088 00       		.byte	0
 3090 0089 0C       		.uleb128 0xc
ARM GAS  C:\Users\cyu13\AppData\Local\Temp\cc2BTquH.s 			page 62


 3091 008a 0D       		.uleb128 0xd
 3092 008b 00       		.byte	0
 3093 008c 03       		.uleb128 0x3
 3094 008d 08       		.uleb128 0x8
 3095 008e 3A       		.uleb128 0x3a
 3096 008f 0B       		.uleb128 0xb
 3097 0090 3B       		.uleb128 0x3b
 3098 0091 0B       		.uleb128 0xb
 3099 0092 49       		.uleb128 0x49
 3100 0093 13       		.uleb128 0x13
 3101 0094 38       		.uleb128 0x38
 3102 0095 0B       		.uleb128 0xb
 3103 0096 00       		.byte	0
 3104 0097 00       		.byte	0
 3105 0098 0D       		.uleb128 0xd
 3106 0099 2E       		.uleb128 0x2e
 3107 009a 00       		.byte	0
 3108 009b 3F       		.uleb128 0x3f
 3109 009c 19       		.uleb128 0x19
 3110 009d 03       		.uleb128 0x3
 3111 009e 0E       		.uleb128 0xe
 3112 009f 3A       		.uleb128 0x3a
 3113 00a0 0B       		.uleb128 0xb
 3114 00a1 3B       		.uleb128 0x3b
 3115 00a2 0B       		.uleb128 0xb
 3116 00a3 27       		.uleb128 0x27
 3117 00a4 19       		.uleb128 0x19
 3118 00a5 11       		.uleb128 0x11
 3119 00a6 01       		.uleb128 0x1
 3120 00a7 12       		.uleb128 0x12
 3121 00a8 06       		.uleb128 0x6
 3122 00a9 40       		.uleb128 0x40
 3123 00aa 18       		.uleb128 0x18
 3124 00ab 9642     		.uleb128 0x2116
 3125 00ad 19       		.uleb128 0x19
 3126 00ae 00       		.byte	0
 3127 00af 00       		.byte	0
 3128 00b0 0E       		.uleb128 0xe
 3129 00b1 2E       		.uleb128 0x2e
 3130 00b2 01       		.byte	0x1
 3131 00b3 3F       		.uleb128 0x3f
 3132 00b4 19       		.uleb128 0x19
 3133 00b5 03       		.uleb128 0x3
 3134 00b6 0E       		.uleb128 0xe
 3135 00b7 3A       		.uleb128 0x3a
 3136 00b8 0B       		.uleb128 0xb
 3137 00b9 3B       		.uleb128 0x3b
 3138 00ba 0B       		.uleb128 0xb
 3139 00bb 27       		.uleb128 0x27
 3140 00bc 19       		.uleb128 0x19
 3141 00bd 11       		.uleb128 0x11
 3142 00be 01       		.uleb128 0x1
 3143 00bf 12       		.uleb128 0x12
 3144 00c0 06       		.uleb128 0x6
 3145 00c1 40       		.uleb128 0x40
 3146 00c2 18       		.uleb128 0x18
 3147 00c3 9642     		.uleb128 0x2116
ARM GAS  C:\Users\cyu13\AppData\Local\Temp\cc2BTquH.s 			page 63


 3148 00c5 19       		.uleb128 0x19
 3149 00c6 01       		.uleb128 0x1
 3150 00c7 13       		.uleb128 0x13
 3151 00c8 00       		.byte	0
 3152 00c9 00       		.byte	0
 3153 00ca 0F       		.uleb128 0xf
 3154 00cb 34       		.uleb128 0x34
 3155 00cc 00       		.byte	0
 3156 00cd 03       		.uleb128 0x3
 3157 00ce 08       		.uleb128 0x8
 3158 00cf 3A       		.uleb128 0x3a
 3159 00d0 0B       		.uleb128 0xb
 3160 00d1 3B       		.uleb128 0x3b
 3161 00d2 0B       		.uleb128 0xb
 3162 00d3 49       		.uleb128 0x49
 3163 00d4 13       		.uleb128 0x13
 3164 00d5 02       		.uleb128 0x2
 3165 00d6 18       		.uleb128 0x18
 3166 00d7 00       		.byte	0
 3167 00d8 00       		.byte	0
 3168 00d9 10       		.uleb128 0x10
 3169 00da 34       		.uleb128 0x34
 3170 00db 00       		.byte	0
 3171 00dc 03       		.uleb128 0x3
 3172 00dd 0E       		.uleb128 0xe
 3173 00de 3A       		.uleb128 0x3a
 3174 00df 0B       		.uleb128 0xb
 3175 00e0 3B       		.uleb128 0x3b
 3176 00e1 0B       		.uleb128 0xb
 3177 00e2 49       		.uleb128 0x49
 3178 00e3 13       		.uleb128 0x13
 3179 00e4 02       		.uleb128 0x2
 3180 00e5 18       		.uleb128 0x18
 3181 00e6 00       		.byte	0
 3182 00e7 00       		.byte	0
 3183 00e8 11       		.uleb128 0x11
 3184 00e9 2E       		.uleb128 0x2e
 3185 00ea 01       		.byte	0x1
 3186 00eb 3F       		.uleb128 0x3f
 3187 00ec 19       		.uleb128 0x19
 3188 00ed 03       		.uleb128 0x3
 3189 00ee 0E       		.uleb128 0xe
 3190 00ef 3A       		.uleb128 0x3a
 3191 00f0 0B       		.uleb128 0xb
 3192 00f1 3B       		.uleb128 0x3b
 3193 00f2 0B       		.uleb128 0xb
 3194 00f3 27       		.uleb128 0x27
 3195 00f4 19       		.uleb128 0x19
 3196 00f5 49       		.uleb128 0x49
 3197 00f6 13       		.uleb128 0x13
 3198 00f7 11       		.uleb128 0x11
 3199 00f8 01       		.uleb128 0x1
 3200 00f9 12       		.uleb128 0x12
 3201 00fa 06       		.uleb128 0x6
 3202 00fb 40       		.uleb128 0x40
 3203 00fc 18       		.uleb128 0x18
 3204 00fd 9642     		.uleb128 0x2116
ARM GAS  C:\Users\cyu13\AppData\Local\Temp\cc2BTquH.s 			page 64


 3205 00ff 19       		.uleb128 0x19
 3206 0100 01       		.uleb128 0x1
 3207 0101 13       		.uleb128 0x13
 3208 0102 00       		.byte	0
 3209 0103 00       		.byte	0
 3210 0104 12       		.uleb128 0x12
 3211 0105 0B       		.uleb128 0xb
 3212 0106 01       		.byte	0x1
 3213 0107 11       		.uleb128 0x11
 3214 0108 01       		.uleb128 0x1
 3215 0109 12       		.uleb128 0x12
 3216 010a 06       		.uleb128 0x6
 3217 010b 00       		.byte	0
 3218 010c 00       		.byte	0
 3219 010d 13       		.uleb128 0x13
 3220 010e 34       		.uleb128 0x34
 3221 010f 00       		.byte	0
 3222 0110 03       		.uleb128 0x3
 3223 0111 0E       		.uleb128 0xe
 3224 0112 3A       		.uleb128 0x3a
 3225 0113 0B       		.uleb128 0xb
 3226 0114 3B       		.uleb128 0x3b
 3227 0115 05       		.uleb128 0x5
 3228 0116 49       		.uleb128 0x49
 3229 0117 13       		.uleb128 0x13
 3230 0118 02       		.uleb128 0x2
 3231 0119 18       		.uleb128 0x18
 3232 011a 00       		.byte	0
 3233 011b 00       		.byte	0
 3234 011c 14       		.uleb128 0x14
 3235 011d 2E       		.uleb128 0x2e
 3236 011e 01       		.byte	0x1
 3237 011f 3F       		.uleb128 0x3f
 3238 0120 19       		.uleb128 0x19
 3239 0121 03       		.uleb128 0x3
 3240 0122 0E       		.uleb128 0xe
 3241 0123 3A       		.uleb128 0x3a
 3242 0124 0B       		.uleb128 0xb
 3243 0125 3B       		.uleb128 0x3b
 3244 0126 05       		.uleb128 0x5
 3245 0127 27       		.uleb128 0x27
 3246 0128 19       		.uleb128 0x19
 3247 0129 11       		.uleb128 0x11
 3248 012a 01       		.uleb128 0x1
 3249 012b 12       		.uleb128 0x12
 3250 012c 06       		.uleb128 0x6
 3251 012d 40       		.uleb128 0x40
 3252 012e 18       		.uleb128 0x18
 3253 012f 9642     		.uleb128 0x2116
 3254 0131 19       		.uleb128 0x19
 3255 0132 01       		.uleb128 0x1
 3256 0133 13       		.uleb128 0x13
 3257 0134 00       		.byte	0
 3258 0135 00       		.byte	0
 3259 0136 15       		.uleb128 0x15
 3260 0137 05       		.uleb128 0x5
 3261 0138 00       		.byte	0
ARM GAS  C:\Users\cyu13\AppData\Local\Temp\cc2BTquH.s 			page 65


 3262 0139 03       		.uleb128 0x3
 3263 013a 0E       		.uleb128 0xe
 3264 013b 3A       		.uleb128 0x3a
 3265 013c 0B       		.uleb128 0xb
 3266 013d 3B       		.uleb128 0x3b
 3267 013e 05       		.uleb128 0x5
 3268 013f 49       		.uleb128 0x49
 3269 0140 13       		.uleb128 0x13
 3270 0141 02       		.uleb128 0x2
 3271 0142 18       		.uleb128 0x18
 3272 0143 00       		.byte	0
 3273 0144 00       		.byte	0
 3274 0145 16       		.uleb128 0x16
 3275 0146 2E       		.uleb128 0x2e
 3276 0147 01       		.byte	0x1
 3277 0148 3F       		.uleb128 0x3f
 3278 0149 19       		.uleb128 0x19
 3279 014a 03       		.uleb128 0x3
 3280 014b 0E       		.uleb128 0xe
 3281 014c 3A       		.uleb128 0x3a
 3282 014d 0B       		.uleb128 0xb
 3283 014e 3B       		.uleb128 0x3b
 3284 014f 05       		.uleb128 0x5
 3285 0150 27       		.uleb128 0x27
 3286 0151 19       		.uleb128 0x19
 3287 0152 49       		.uleb128 0x49
 3288 0153 13       		.uleb128 0x13
 3289 0154 11       		.uleb128 0x11
 3290 0155 01       		.uleb128 0x1
 3291 0156 12       		.uleb128 0x12
 3292 0157 06       		.uleb128 0x6
 3293 0158 40       		.uleb128 0x40
 3294 0159 18       		.uleb128 0x18
 3295 015a 9642     		.uleb128 0x2116
 3296 015c 19       		.uleb128 0x19
 3297 015d 01       		.uleb128 0x1
 3298 015e 13       		.uleb128 0x13
 3299 015f 00       		.byte	0
 3300 0160 00       		.byte	0
 3301 0161 17       		.uleb128 0x17
 3302 0162 34       		.uleb128 0x34
 3303 0163 00       		.byte	0
 3304 0164 03       		.uleb128 0x3
 3305 0165 08       		.uleb128 0x8
 3306 0166 3A       		.uleb128 0x3a
 3307 0167 0B       		.uleb128 0xb
 3308 0168 3B       		.uleb128 0x3b
 3309 0169 05       		.uleb128 0x5
 3310 016a 49       		.uleb128 0x49
 3311 016b 13       		.uleb128 0x13
 3312 016c 02       		.uleb128 0x2
 3313 016d 18       		.uleb128 0x18
 3314 016e 00       		.byte	0
 3315 016f 00       		.byte	0
 3316 0170 18       		.uleb128 0x18
 3317 0171 05       		.uleb128 0x5
 3318 0172 00       		.byte	0
ARM GAS  C:\Users\cyu13\AppData\Local\Temp\cc2BTquH.s 			page 66


 3319 0173 03       		.uleb128 0x3
 3320 0174 08       		.uleb128 0x8
 3321 0175 3A       		.uleb128 0x3a
 3322 0176 0B       		.uleb128 0xb
 3323 0177 3B       		.uleb128 0x3b
 3324 0178 05       		.uleb128 0x5
 3325 0179 49       		.uleb128 0x49
 3326 017a 13       		.uleb128 0x13
 3327 017b 02       		.uleb128 0x2
 3328 017c 18       		.uleb128 0x18
 3329 017d 00       		.byte	0
 3330 017e 00       		.byte	0
 3331 017f 19       		.uleb128 0x19
 3332 0180 34       		.uleb128 0x34
 3333 0181 00       		.byte	0
 3334 0182 03       		.uleb128 0x3
 3335 0183 0E       		.uleb128 0xe
 3336 0184 3A       		.uleb128 0x3a
 3337 0185 0B       		.uleb128 0xb
 3338 0186 3B       		.uleb128 0x3b
 3339 0187 05       		.uleb128 0x5
 3340 0188 49       		.uleb128 0x49
 3341 0189 13       		.uleb128 0x13
 3342 018a 3F       		.uleb128 0x3f
 3343 018b 19       		.uleb128 0x19
 3344 018c 3C       		.uleb128 0x3c
 3345 018d 19       		.uleb128 0x19
 3346 018e 00       		.byte	0
 3347 018f 00       		.byte	0
 3348 0190 1A       		.uleb128 0x1a
 3349 0191 35       		.uleb128 0x35
 3350 0192 00       		.byte	0
 3351 0193 49       		.uleb128 0x49
 3352 0194 13       		.uleb128 0x13
 3353 0195 00       		.byte	0
 3354 0196 00       		.byte	0
 3355 0197 1B       		.uleb128 0x1b
 3356 0198 34       		.uleb128 0x34
 3357 0199 00       		.byte	0
 3358 019a 03       		.uleb128 0x3
 3359 019b 0E       		.uleb128 0xe
 3360 019c 3A       		.uleb128 0x3a
 3361 019d 0B       		.uleb128 0xb
 3362 019e 3B       		.uleb128 0x3b
 3363 019f 0B       		.uleb128 0xb
 3364 01a0 49       		.uleb128 0x49
 3365 01a1 13       		.uleb128 0x13
 3366 01a2 3F       		.uleb128 0x3f
 3367 01a3 19       		.uleb128 0x19
 3368 01a4 02       		.uleb128 0x2
 3369 01a5 18       		.uleb128 0x18
 3370 01a6 00       		.byte	0
 3371 01a7 00       		.byte	0
 3372 01a8 1C       		.uleb128 0x1c
 3373 01a9 26       		.uleb128 0x26
 3374 01aa 00       		.byte	0
 3375 01ab 49       		.uleb128 0x49
ARM GAS  C:\Users\cyu13\AppData\Local\Temp\cc2BTquH.s 			page 67


 3376 01ac 13       		.uleb128 0x13
 3377 01ad 00       		.byte	0
 3378 01ae 00       		.byte	0
 3379 01af 00       		.byte	0
 3380              		.section	.debug_aranges,"",%progbits
 3381 0000 64000000 		.4byte	0x64
 3382 0004 0200     		.2byte	0x2
 3383 0006 00000000 		.4byte	.Ldebug_info0
 3384 000a 04       		.byte	0x4
 3385 000b 00       		.byte	0
 3386 000c 0000     		.2byte	0
 3387 000e 0000     		.2byte	0
 3388 0010 00000000 		.4byte	.LFB64
 3389 0014 00010000 		.4byte	.LFE64-.LFB64
 3390 0018 00000000 		.4byte	.LFB65
 3391 001c 5C040000 		.4byte	.LFE65-.LFB65
 3392 0020 00000000 		.4byte	.LFB66
 3393 0024 54010000 		.4byte	.LFE66-.LFB66
 3394 0028 00000000 		.4byte	.LFB67
 3395 002c 74000000 		.4byte	.LFE67-.LFB67
 3396 0030 00000000 		.4byte	.LFB68
 3397 0034 6C050000 		.4byte	.LFE68-.LFB68
 3398 0038 00000000 		.4byte	.LFB69
 3399 003c D8000000 		.4byte	.LFE69-.LFB69
 3400 0040 00000000 		.4byte	.LFB70
 3401 0044 D8000000 		.4byte	.LFE70-.LFB70
 3402 0048 00000000 		.4byte	.LFB71
 3403 004c 58000000 		.4byte	.LFE71-.LFB71
 3404 0050 00000000 		.4byte	.LFB72
 3405 0054 54000000 		.4byte	.LFE72-.LFB72
 3406 0058 00000000 		.4byte	.LFB73
 3407 005c 90000000 		.4byte	.LFE73-.LFB73
 3408 0060 00000000 		.4byte	0
 3409 0064 00000000 		.4byte	0
 3410              		.section	.debug_ranges,"",%progbits
 3411              	.Ldebug_ranges0:
 3412 0000 00000000 		.4byte	.LFB64
 3413 0004 00010000 		.4byte	.LFE64
 3414 0008 00000000 		.4byte	.LFB65
 3415 000c 5C040000 		.4byte	.LFE65
 3416 0010 00000000 		.4byte	.LFB66
 3417 0014 54010000 		.4byte	.LFE66
 3418 0018 00000000 		.4byte	.LFB67
 3419 001c 74000000 		.4byte	.LFE67
 3420 0020 00000000 		.4byte	.LFB68
 3421 0024 6C050000 		.4byte	.LFE68
 3422 0028 00000000 		.4byte	.LFB69
 3423 002c D8000000 		.4byte	.LFE69
 3424 0030 00000000 		.4byte	.LFB70
 3425 0034 D8000000 		.4byte	.LFE70
 3426 0038 00000000 		.4byte	.LFB71
 3427 003c 58000000 		.4byte	.LFE71
 3428 0040 00000000 		.4byte	.LFB72
 3429 0044 54000000 		.4byte	.LFE72
 3430 0048 00000000 		.4byte	.LFB73
 3431 004c 90000000 		.4byte	.LFE73
 3432 0050 00000000 		.4byte	0
ARM GAS  C:\Users\cyu13\AppData\Local\Temp\cc2BTquH.s 			page 68


 3433 0054 00000000 		.4byte	0
 3434              		.section	.debug_line,"",%progbits
 3435              	.Ldebug_line0:
 3436 0000 45030000 		.section	.debug_str,"MS",%progbits,1
 3436      02006401 
 3436      00000201 
 3436      FB0E0D00 
 3436      01010101 
 3437              	.LASF47:
 3438 0000 61786C65 		.ascii	"axle_width\000"
 3438      5F776964 
 3438      746800
 3439              	.LASF51:
 3440 000b 676F616C 		.ascii	"goal_y\000"
 3440      5F7900
 3441              	.LASF37:
 3442 0012 636F6E74 		.ascii	"control_signal_t\000"
 3442      726F6C5F 
 3442      7369676E 
 3442      616C5F74 
 3442      00
 3443              	.LASF67:
 3444 0023 61637469 		.ascii	"active\000"
 3444      766500
 3445              	.LASF49:
 3446 002a 64657369 		.ascii	"desired_theta\000"
 3446      7265645F 
 3446      74686574 
 3446      6100
 3447              	.LASF65:
 3448 0038 676F616C 		.ascii	"goal_counter\000"
 3448      5F636F75 
 3448      6E746572 
 3448      00
 3449              	.LASF53:
 3450 0045 64696666 		.ascii	"diff\000"
 3450      00
 3451              	.LASF32:
 3452 004a 64616D70 		.ascii	"damping_constant\000"
 3452      696E675F 
 3452      636F6E73 
 3452      74616E74 
 3452      00
 3453              	.LASF31:
 3454 005b 74687265 		.ascii	"threshold\000"
 3454      73686F6C 
 3454      6400
 3455              	.LASF2:
 3456 0065 73686F72 		.ascii	"short int\000"
 3456      7420696E 
 3456      7400
 3457              	.LASF81:
 3458 006f 504F5345 		.ascii	"POSE_UPDATE_PERIOD\000"
 3458      5F555044 
 3458      4154455F 
 3458      50455249 
 3458      4F4400
ARM GAS  C:\Users\cyu13\AppData\Local\Temp\cc2BTquH.s 			page 69


 3459              	.LASF40:
 3460 0082 74616E67 		.ascii	"tangent_v\000"
 3460      656E745F 
 3460      7600
 3461              	.LASF20:
 3462 008c 73697A65 		.ascii	"sizetype\000"
 3462      74797065 
 3462      00
 3463              	.LASF75:
 3464 0095 706F6C61 		.ascii	"polar_histogram\000"
 3464      725F6869 
 3464      73746F67 
 3464      72616D00 
 3465              	.LASF93:
 3466 00a5 73656E73 		.ascii	"sensors\000"
 3466      6F727300 
 3467              	.LASF45:
 3468 00ad 526F626F 		.ascii	"Robot\000"
 3468      7400
 3469              	.LASF95:
 3470 00b3 474E5520 		.ascii	"GNU C11 5.4.1 20160609 (release) [ARM/embedded-5-br"
 3470      43313120 
 3470      352E342E 
 3470      31203230 
 3470      31363036 
 3471 00e6 616E6368 		.ascii	"anch revision 237715] -mcpu=cortex-m3 -mthumb -g -O"
 3471      20726576 
 3471      6973696F 
 3471      6E203233 
 3471      37373135 
 3472 0119 30202D66 		.ascii	"0 -ffunction-sections -ffat-lto-objects\000"
 3472      66756E63 
 3472      74696F6E 
 3472      2D736563 
 3472      74696F6E 
 3473              	.LASF26:
 3474 0141 64697265 		.ascii	"direction\000"
 3474      6374696F 
 3474      6E00
 3475              	.LASF4:
 3476 014b 5F5F7569 		.ascii	"__uint16_t\000"
 3476      6E743136 
 3476      5F7400
 3477              	.LASF58:
 3478 0156 4D6F746F 		.ascii	"Motor_PI_Int_Handler\000"
 3478      725F5049 
 3478      5F496E74 
 3478      5F48616E 
 3478      646C6572 
 3479              	.LASF70:
 3480 016b 44726976 		.ascii	"Drive_Left_Motor\000"
 3480      655F4C65 
 3480      66745F4D 
 3480      6F746F72 
 3480      00
 3481              	.LASF90:
 3482 017c 72696768 		.ascii	"right_motor\000"
ARM GAS  C:\Users\cyu13\AppData\Local\Temp\cc2BTquH.s 			page 70


 3482      745F6D6F 
 3482      746F7200 
 3483              	.LASF73:
 3484 0188 616E676C 		.ascii	"angle_modulo\000"
 3484      655F6D6F 
 3484      64756C6F 
 3484      00
 3485              	.LASF89:
 3486 0195 6C656674 		.ascii	"left_motor\000"
 3486      5F6D6F74 
 3486      6F7200
 3487              	.LASF66:
 3488 01a0 64697374 		.ascii	"dist_to_goal\000"
 3488      5F746F5F 
 3488      676F616C 
 3488      00
 3489              	.LASF12:
 3490 01ad 75696E74 		.ascii	"uint8_t\000"
 3490      385F7400 
 3491              	.LASF80:
 3492 01b5 50554C53 		.ascii	"PULSES_PER_REV\000"
 3492      45535F50 
 3492      45525F52 
 3492      455600
 3493              	.LASF50:
 3494 01c4 676F616C 		.ascii	"goal_x\000"
 3494      5F7800
 3495              	.LASF77:
 3496 01cb 57494454 		.ascii	"WIDTH\000"
 3496      4800
 3497              	.LASF21:
 3498 01d1 77696474 		.ascii	"width\000"
 3498      6800
 3499              	.LASF16:
 3500 01d7 666C6F61 		.ascii	"float\000"
 3500      7400
 3501              	.LASF85:
 3502 01dd 6D75785F 		.ascii	"mux_select\000"
 3502      73656C65 
 3502      637400
 3503              	.LASF9:
 3504 01e8 6C6F6E67 		.ascii	"long long int\000"
 3504      206C6F6E 
 3504      6720696E 
 3504      7400
 3505              	.LASF24:
 3506 01f6 63656C6C 		.ascii	"cells\000"
 3506      7300
 3507              	.LASF57:
 3508 01fc 506F7365 		.ascii	"Pose_Update_Int_Handler\000"
 3508      5F557064 
 3508      6174655F 
 3508      496E745F 
 3508      48616E64 
 3509              	.LASF42:
 3510 0214 77686565 		.ascii	"wheel_radius\000"
 3510      6C5F7261 
ARM GAS  C:\Users\cyu13\AppData\Local\Temp\cc2BTquH.s 			page 71


 3510      64697573 
 3510      00
 3511              	.LASF29:
 3512 0221 616C7068 		.ascii	"alpha\000"
 3512      6100
 3513              	.LASF68:
 3514 0227 63616E64 		.ascii	"candidates\000"
 3514      69646174 
 3514      657300
 3515              	.LASF74:
 3516 0232 7072696E 		.ascii	"print_polar_histogram\000"
 3516      745F706F 
 3516      6C61725F 
 3516      68697374 
 3516      6F677261 
 3517              	.LASF48:
 3518 0248 64657369 		.ascii	"desired_V\000"
 3518      7265645F 
 3518      5600
 3519              	.LASF84:
 3520 0252 6563686F 		.ascii	"echo_distance\000"
 3520      5F646973 
 3520      74616E63 
 3520      6500
 3521              	.LASF14:
 3522 0260 696E7433 		.ascii	"int32_t\000"
 3522      325F7400 
 3523              	.LASF3:
 3524 0268 5F5F7569 		.ascii	"__uint8_t\000"
 3524      6E74385F 
 3524      7400
 3525              	.LASF1:
 3526 0272 756E7369 		.ascii	"unsigned char\000"
 3526      676E6564 
 3526      20636861 
 3526      7200
 3527              	.LASF19:
 3528 0280 6C6F6E67 		.ascii	"long double\000"
 3528      20646F75 
 3528      626C6500 
 3529              	.LASF44:
 3530 028c 4D6F746F 		.ascii	"Motor\000"
 3530      7200
 3531              	.LASF69:
 3532 0292 6E65775F 		.ascii	"new_theta\000"
 3532      74686574 
 3532      6100
 3533              	.LASF82:
 3534 029c 6563686F 		.ascii	"echo_flag\000"
 3534      5F666C61 
 3534      6700
 3535              	.LASF41:
 3536 02a6 64657369 		.ascii	"desired_w\000"
 3536      7265645F 
 3536      7700
 3537              	.LASF0:
 3538 02b0 7369676E 		.ascii	"signed char\000"
ARM GAS  C:\Users\cyu13\AppData\Local\Temp\cc2BTquH.s 			page 72


 3538      65642063 
 3538      68617200 
 3539              	.LASF91:
 3540 02bc 726F626F 		.ascii	"robot\000"
 3540      7400
 3541              	.LASF10:
 3542 02c2 6C6F6E67 		.ascii	"long long unsigned int\000"
 3542      206C6F6E 
 3542      6720756E 
 3542      7369676E 
 3542      65642069 
 3543              	.LASF30:
 3544 02d9 73656374 		.ascii	"sectors\000"
 3544      6F727300 
 3545              	.LASF22:
 3546 02e1 68656967 		.ascii	"height\000"
 3546      687400
 3547              	.LASF11:
 3548 02e8 756E7369 		.ascii	"unsigned int\000"
 3548      676E6564 
 3548      20696E74 
 3548      00
 3549              	.LASF56:
 3550 02f5 6E65775F 		.ascii	"new_omega\000"
 3550      6F6D6567 
 3550      6100
 3551              	.LASF8:
 3552 02ff 6C6F6E67 		.ascii	"long unsigned int\000"
 3552      20756E73 
 3552      69676E65 
 3552      6420696E 
 3552      7400
 3553              	.LASF83:
 3554 0311 6D61785F 		.ascii	"max_count\000"
 3554      636F756E 
 3554      7400
 3555              	.LASF71:
 3556 031b 44726976 		.ascii	"Drive_Right_Motor\000"
 3556      655F5269 
 3556      6768745F 
 3556      4D6F746F 
 3556      7200
 3557              	.LASF25:
 3558 032d 67726964 		.ascii	"grid\000"
 3558      00
 3559              	.LASF94:
 3560 0332 636F6E74 		.ascii	"control_signal\000"
 3560      726F6C5F 
 3560      7369676E 
 3560      616C00
 3561              	.LASF5:
 3562 0341 73686F72 		.ascii	"short unsigned int\000"
 3562      7420756E 
 3562      7369676E 
 3562      65642069 
 3562      6E7400
 3563              	.LASF27:
ARM GAS  C:\Users\cyu13\AppData\Local\Temp\cc2BTquH.s 			page 73


 3564 0354 64697374 		.ascii	"distance\000"
 3564      616E6365 
 3564      00
 3565              	.LASF18:
 3566 035d 63686172 		.ascii	"char\000"
 3566      00
 3567              	.LASF88:
 3568 0362 73657269 		.ascii	"serial_output\000"
 3568      616C5F6F 
 3568      75747075 
 3568      7400
 3569              	.LASF63:
 3570 0370 4E5F474F 		.ascii	"N_GOALS\000"
 3570      414C5300 
 3571              	.LASF72:
 3572 0378 6D61696E 		.ascii	"main\000"
 3572      00
 3573              	.LASF62:
 3574 037d 55504441 		.ascii	"UPDATE_FLAG\000"
 3574      54455F46 
 3574      4C414700 
 3575              	.LASF23:
 3576 0389 7265736F 		.ascii	"resolution\000"
 3576      6C757469 
 3576      6F6E00
 3577              	.LASF59:
 3578 0394 4E617669 		.ascii	"Navigation_Test_Int_Handler\000"
 3578      67617469 
 3578      6F6E5F54 
 3578      6573745F 
 3578      496E745F 
 3579              	.LASF35:
 3580 03b0 64656E73 		.ascii	"densities\000"
 3580      69746965 
 3580      7300
 3581              	.LASF13:
 3582 03ba 75696E74 		.ascii	"uint16_t\000"
 3582      31365F74 
 3582      00
 3583              	.LASF92:
 3584 03c3 63657274 		.ascii	"certainty_grid\000"
 3584      61696E74 
 3584      795F6772 
 3584      696400
 3585              	.LASF96:
 3586 03d2 6D61696E 		.ascii	"main.c\000"
 3586      2E6300
 3587              	.LASF87:
 3588 03d9 72696768 		.ascii	"right_wheel_count\000"
 3588      745F7768 
 3588      65656C5F 
 3588      636F756E 
 3588      7400
 3589              	.LASF86:
 3590 03eb 6C656674 		.ascii	"left_wheel_count\000"
 3590      5F776865 
 3590      656C5F63 
ARM GAS  C:\Users\cyu13\AppData\Local\Temp\cc2BTquH.s 			page 74


 3590      6F756E74 
 3590      00
 3591              	.LASF15:
 3592 03fc 696E7433 		.ascii	"int32\000"
 3592      3200
 3593              	.LASF17:
 3594 0402 646F7562 		.ascii	"double\000"
 3594      6C6500
 3595              	.LASF78:
 3596 0409 48454947 		.ascii	"HEIGHT\000"
 3596      485400
 3597              	.LASF98:
 3598 0410 54696D65 		.ascii	"Timer_Int_Handler\000"
 3598      725F496E 
 3598      745F4861 
 3598      6E646C65 
 3598      7200
 3599              	.LASF36:
 3600 0422 68697374 		.ascii	"histogram\000"
 3600      6F677261 
 3600      6D00
 3601              	.LASF55:
 3602 042c 7363616C 		.ascii	"scaled_V\000"
 3602      65645F56 
 3602      00
 3603              	.LASF38:
 3604 0435 64757479 		.ascii	"duty_cycle\000"
 3604      5F637963 
 3604      6C6500
 3605              	.LASF6:
 3606 0440 5F5F696E 		.ascii	"__int32_t\000"
 3606      7433325F 
 3606      7400
 3607              	.LASF97:
 3608 044a 433A5C74 		.ascii	"C:\\temp\\jacob_branch\\ECE4191\\DeliveryRobot.cyds"
 3608      656D705C 
 3608      6A61636F 
 3608      625F6272 
 3608      616E6368 
 3609 0479 6E00     		.ascii	"n\000"
 3610              	.LASF39:
 3611 047b 696E745F 		.ascii	"int_error\000"
 3611      6572726F 
 3611      7200
 3612              	.LASF46:
 3613 0485 74686574 		.ascii	"theta\000"
 3613      6100
 3614              	.LASF52:
 3615 048b 676F616C 		.ascii	"goal_min_dist\000"
 3615      5F6D696E 
 3615      5F646973 
 3615      7400
 3616              	.LASF76:
 3617 0499 7072696E 		.ascii	"print_grid\000"
 3617      745F6772 
 3617      696400
 3618              	.LASF60:
ARM GAS  C:\Users\cyu13\AppData\Local\Temp\cc2BTquH.s 			page 75


 3619 04a4 616E676C 		.ascii	"angle\000"
 3619      6500
 3620              	.LASF43:
 3621 04aa 656E635F 		.ascii	"enc_count\000"
 3621      636F756E 
 3621      7400
 3622              	.LASF54:
 3623 04b4 6572726F 		.ascii	"error\000"
 3623      7200
 3624              	.LASF7:
 3625 04ba 6C6F6E67 		.ascii	"long int\000"
 3625      20696E74 
 3625      00
 3626              	.LASF79:
 3627 04c3 49544D5F 		.ascii	"ITM_RxBuffer\000"
 3627      52784275 
 3627      66666572 
 3627      00
 3628              	.LASF33:
 3629 04d0 64656E73 		.ascii	"density_a\000"
 3629      6974795F 
 3629      6100
 3630              	.LASF34:
 3631 04da 64656E73 		.ascii	"density_b\000"
 3631      6974795F 
 3631      6200
 3632              	.LASF28:
 3633 04e4 73656E73 		.ascii	"sensor_data\000"
 3633      6F725F64 
 3633      61746100 
 3634              	.LASF61:
 3635 04f0 77686565 		.ascii	"wheel_r_scale\000"
 3635      6C5F725F 
 3635      7363616C 
 3635      6500
 3636              	.LASF64:
 3637 04fe 676F616C 		.ascii	"goals\000"
 3637      7300
 3638              		.ident	"GCC: (GNU Tools for ARM Embedded Processors) 5.4.1 20160609 (release) [ARM/embedded-5-bran
