ARM GAS  C:\Users\cyu13\AppData\Local\Temp\cc9UQms6.s 			page 1


   1              		.syntax unified
   2              		.cpu cortex-m3
   3              		.fpu softvfp
   4              		.eabi_attribute 20, 1
   5              		.eabi_attribute 21, 1
   6              		.eabi_attribute 23, 3
   7              		.eabi_attribute 24, 1
   8              		.eabi_attribute 25, 1
   9              		.eabi_attribute 26, 1
  10              		.eabi_attribute 30, 6
  11              		.eabi_attribute 34, 1
  12              		.eabi_attribute 18, 4
  13              		.thumb
  14              		.syntax unified
  15              		.file	"main.c"
  16              		.text
  17              	.Ltext0:
  18              		.cfi_sections	.debug_frame
  19              		.global	PULSES_PER_REV
  20              		.section	.rodata
  21              		.align	3
  22              		.type	PULSES_PER_REV, %object
  23              		.size	PULSES_PER_REV, 8
  24              	PULSES_PER_REV:
  25 0000 A4703D0A 		.word	171798692
  26 0004 D70FAC40 		.word	1085018071
  27              		.global	POSE_UPDATE_PERIOD
  28              		.align	3
  29              		.type	POSE_UPDATE_PERIOD, %object
  30              		.size	POSE_UPDATE_PERIOD, 8
  31              	POSE_UPDATE_PERIOD:
  32 0008 7B14AE47 		.word	1202590843
  33 000c E17A943F 		.word	1066695393
  34              		.global	echo_flag
  35              		.bss
  36              		.type	echo_flag, %object
  37              		.size	echo_flag, 1
  38              	echo_flag:
  39 0000 00       		.space	1
  40              		.global	max_count
  41              		.data
  42              		.align	1
  43              		.type	max_count, %object
  44              		.size	max_count, 2
  45              	max_count:
  46 0000 FFFF     		.short	-1
  47              		.comm	echo_distance,2,2
  48              		.global	mux_select
  49              		.bss
  50              		.type	mux_select, %object
  51              		.size	mux_select, 1
  52              	mux_select:
  53 0001 00       		.space	1
  54              		.global	left_wheel_count
  55 0002 0000     		.align	2
  56              		.type	left_wheel_count, %object
  57              		.size	left_wheel_count, 4
ARM GAS  C:\Users\cyu13\AppData\Local\Temp\cc9UQms6.s 			page 2


  58              	left_wheel_count:
  59 0004 00000000 		.space	4
  60              		.global	right_wheel_count
  61              		.align	2
  62              		.type	right_wheel_count, %object
  63              		.size	right_wheel_count, 4
  64              	right_wheel_count:
  65 0008 00000000 		.space	4
  66              		.comm	serial_output,150,4
  67              		.global	deviated
  68              		.align	2
  69              		.type	deviated, %object
  70              		.size	deviated, 4
  71              	deviated:
  72 000c 00000000 		.space	4
  73              		.global	goal_one_reached
  74              		.align	2
  75              		.type	goal_one_reached, %object
  76              		.size	goal_one_reached, 4
  77              	goal_one_reached:
  78 0010 00000000 		.space	4
  79              		.comm	left_motor,72,8
  80              		.comm	right_motor,72,8
  81              		.comm	robot,112,8
  82              		.comm	sensors,4,4
  83              		.comm	octopussy,4,4
  84              		.section	.text.Timer_Int_Handler,"ax",%progbits
  85              		.align	2
  86              		.global	Timer_Int_Handler
  87              		.thumb
  88              		.thumb_func
  89              		.type	Timer_Int_Handler, %function
  90              	Timer_Int_Handler:
  91              	.LFB64:
  92              		.file 1 "main.c"
   1:main.c        **** /* ========================================
   2:main.c        ****  *
   3:main.c        ****  * Copyright YOUR COMPANY, THE YEAR
   4:main.c        ****  * All Rights Reserved
   5:main.c        ****  * UNPUBLISHED, LICENSED SOFTWARE.
   6:main.c        ****  *
   7:main.c        ****  * CONFIDENTIAL AND PROPRIETARY INFORMATION
   8:main.c        ****  * WHICH IS THE PROPERTY OF your company.
   9:main.c        ****  *
  10:main.c        ****  * ========================================
  11:main.c        **** */
  12:main.c        **** #include "project.h"
  13:main.c        **** #include <stdio.h>
  14:main.c        **** #include <stdlib.h>
  15:main.c        **** #include <math.h>
  16:main.c        **** #include "..\Tentacles\tentacles.h"
  17:main.c        **** 
  18:main.c        **** #define N_SENSORS 5
  19:main.c        **** 
  20:main.c        **** typedef struct {
  21:main.c        ****   int direction[5]; /* [degrees] */
  22:main.c        ****   int distance[5]; /* [cm] */
ARM GAS  C:\Users\cyu13\AppData\Local\Temp\cc9UQms6.s 			page 3


  23:main.c        **** } sensor_data;
  24:main.c        **** double cost_function(tentacles * octopussy, sensor_data * sensors, int v, int w, int goal_x, int go
  25:main.c        **** 
  26:main.c        **** double * planner(tentacles * octopussy, sensor_data * sensors, int goal_x, int goal_y, double goal_
  27:main.c        **** 
  28:main.c        **** double calculate_distance_from_goal(double pos_x, double pos_y, double goal_x, double goal_y);
  29:main.c        **** 
  30:main.c        **** struct Motor {
  31:main.c        ****     long double duty_cycle;
  32:main.c        ****     long double int_error;  // integrated error
  33:main.c        ****     long double w; // omega, [rad per sec]
  34:main.c        ****     long double tangent_v; //tangential velocity, [cm per sec]
  35:main.c        ****     long double desired_w;
  36:main.c        ****     long double Ki;
  37:main.c        ****     long double Kp;
  38:main.c        ****     long double wheel_radius; // wheel radius in cm
  39:main.c        ****     int32 enc_count;
  40:main.c        **** };
  41:main.c        **** 
  42:main.c        **** struct Robot {
  43:main.c        ****     long double theta;  // in RADIANS
  44:main.c        ****     long double x;   // in cm
  45:main.c        ****     long double y;   // in cm
  46:main.c        ****     long double axle_width; // in cm
  47:main.c        ****     
  48:main.c        ****     long double V;   // in cm/s
  49:main.c        ****     long double w;   // in rad/s
  50:main.c        ****     
  51:main.c        ****     long double desired_V;
  52:main.c        ****     long double desired_theta;
  53:main.c        ****     
  54:main.c        ****     long double Ki;
  55:main.c        ****     long double Kp;
  56:main.c        ****     long double int_error; // integrated error for PI control
  57:main.c        ****     
  58:main.c        ****     long double goal_x;
  59:main.c        ****     long double goal_y;
  60:main.c        ****     long double goal_min_dist; // specifies a threshold of minimum distance to goal at which robot 
  61:main.c        **** };
  62:main.c        **** 
  63:main.c        **** const long double PULSES_PER_REV = 3591.92;
  64:main.c        **** const long double POSE_UPDATE_PERIOD = 1.0/50.0; // seconds
  65:main.c        **** 
  66:main.c        **** void Drive_Left_Motor(long double duty_cycle);
  67:main.c        **** void Drive_Right_Motor(long double duty_cycle);
  68:main.c        **** long double angle_modulo(long double angle);
  69:main.c        **** 
  70:main.c        **** uint8_t echo_flag = 0;
  71:main.c        **** uint16_t max_count = 65535;
  72:main.c        **** uint16_t echo_distance;
  73:main.c        **** uint8_t mux_select = 0;
  74:main.c        **** int32 left_wheel_count = 0;
  75:main.c        **** int32 right_wheel_count = 0;
  76:main.c        **** char serial_output[150];
  77:main.c        **** int deviated = 0;
  78:main.c        **** int goal_one_reached = 0;
  79:main.c        **** 
ARM GAS  C:\Users\cyu13\AppData\Local\Temp\cc9UQms6.s 			page 4


  80:main.c        **** struct Motor left_motor;
  81:main.c        **** struct Motor right_motor;
  82:main.c        **** struct Robot robot;
  83:main.c        **** 
  84:main.c        **** /* Declaration of the needed data structures. */
  85:main.c        **** sensor_data * sensors;
  86:main.c        **** tentacles * octopussy;
  87:main.c        ****   
  88:main.c        **** CY_ISR( Timer_Int_Handler ) {
  93              		.loc 1 88 0
  94              		.cfi_startproc
  95              		@ args = 0, pretend = 0, frame = 0
  96              		@ frame_needed = 1, uses_anonymous_args = 0
  97 0000 80B5     		push	{r7, lr}
  98              		.cfi_def_cfa_offset 8
  99              		.cfi_offset 7, -8
 100              		.cfi_offset 14, -4
 101 0002 00AF     		add	r7, sp, #0
 102              		.cfi_def_cfa_register 7
  89:main.c        ****     echo_distance = 65535 - Timer_Echo_ReadCapture();  // in cm
 103              		.loc 1 89 0
 104 0004 FFF7FEFF 		bl	Timer_Echo_ReadCapture
 105 0008 0346     		mov	r3, r0
 106 000a DB43     		mvns	r3, r3
 107 000c 9AB2     		uxth	r2, r3
 108 000e 124B     		ldr	r3, .L3
 109 0010 1A80     		strh	r2, [r3]	@ movhi
  90:main.c        ****     sensors->distance[mux_select] = echo_distance;
 110              		.loc 1 90 0
 111 0012 124B     		ldr	r3, .L3+4
 112 0014 1A68     		ldr	r2, [r3]
 113 0016 124B     		ldr	r3, .L3+8
 114 0018 1B78     		ldrb	r3, [r3]	@ zero_extendqisi2
 115 001a 1846     		mov	r0, r3
 116 001c 0E4B     		ldr	r3, .L3
 117 001e 1B88     		ldrh	r3, [r3]
 118 0020 1946     		mov	r1, r3
 119 0022 031D     		adds	r3, r0, #4
 120 0024 9B00     		lsls	r3, r3, #2
 121 0026 1344     		add	r3, r3, r2
 122 0028 5960     		str	r1, [r3, #4]
  91:main.c        ****     
  92:main.c        ****     mux_select++;
 123              		.loc 1 92 0
 124 002a 0D4B     		ldr	r3, .L3+8
 125 002c 1B78     		ldrb	r3, [r3]	@ zero_extendqisi2
 126 002e 0133     		adds	r3, r3, #1
 127 0030 DAB2     		uxtb	r2, r3
 128 0032 0B4B     		ldr	r3, .L3+8
 129 0034 1A70     		strb	r2, [r3]
  93:main.c        ****     if( mux_select == N_SENSORS ) { 
 130              		.loc 1 93 0
 131 0036 0A4B     		ldr	r3, .L3+8
 132 0038 1B78     		ldrb	r3, [r3]	@ zero_extendqisi2
 133 003a 052B     		cmp	r3, #5
 134 003c 02D1     		bne	.L2
  94:main.c        ****         //update_grid(certainty_grid, robot.x, robot.y, 180*robot.theta/M_PI, sensors);
ARM GAS  C:\Users\cyu13\AppData\Local\Temp\cc9UQms6.s 			page 5


  95:main.c        ****         mux_select = 0; 
 135              		.loc 1 95 0
 136 003e 084B     		ldr	r3, .L3+8
 137 0040 0022     		movs	r2, #0
 138 0042 1A70     		strb	r2, [r3]
 139              	.L2:
  96:main.c        ****     }
  97:main.c        ****     Control_Reg_US_Write(mux_select);
 140              		.loc 1 97 0
 141 0044 064B     		ldr	r3, .L3+8
 142 0046 1B78     		ldrb	r3, [r3]	@ zero_extendqisi2
 143 0048 1846     		mov	r0, r3
 144 004a FFF7FEFF 		bl	Control_Reg_US_Write
  98:main.c        ****     
  99:main.c        ****     PWM_Trigger_WriteCounter(255);    
 145              		.loc 1 99 0
 146 004e FF20     		movs	r0, #255
 147 0050 FFF7FEFF 		bl	PWM_Trigger_WriteCounter
 100:main.c        **** }
 148              		.loc 1 100 0
 149 0054 00BF     		nop
 150 0056 80BD     		pop	{r7, pc}
 151              	.L4:
 152              		.align	2
 153              	.L3:
 154 0058 00000000 		.word	echo_distance
 155 005c 00000000 		.word	sensors
 156 0060 00000000 		.word	mux_select
 157              		.cfi_endproc
 158              	.LFE64:
 159              		.size	Timer_Int_Handler, .-Timer_Int_Handler
 160              		.global	__aeabi_i2d
 161              		.global	__aeabi_dmul
 162              		.global	__aeabi_ddiv
 163              		.global	__aeabi_dsub
 164              		.global	__aeabi_dadd
 165              		.global	__aeabi_dcmpgt
 166              		.global	__aeabi_dcmplt
 167              		.section	.text.Pose_Update_Int_Handler,"ax",%progbits
 168              		.align	2
 169              		.global	Pose_Update_Int_Handler
 170              		.thumb
 171              		.thumb_func
 172              		.type	Pose_Update_Int_Handler, %function
 173              	Pose_Update_Int_Handler:
 174              	.LFB65:
 101:main.c        **** 
 102:main.c        **** CY_ISR( Pose_Update_Int_Handler ) {
 175              		.loc 1 102 0
 176              		.cfi_startproc
 177              		@ args = 0, pretend = 0, frame = 32
 178              		@ frame_needed = 1, uses_anonymous_args = 0
 179 0000 2DE9F04F 		push	{r4, r5, r6, r7, r8, r9, r10, fp, lr}
 180              		.cfi_def_cfa_offset 36
 181              		.cfi_offset 4, -36
 182              		.cfi_offset 5, -32
 183              		.cfi_offset 6, -28
ARM GAS  C:\Users\cyu13\AppData\Local\Temp\cc9UQms6.s 			page 6


 184              		.cfi_offset 7, -24
 185              		.cfi_offset 8, -20
 186              		.cfi_offset 9, -16
 187              		.cfi_offset 10, -12
 188              		.cfi_offset 11, -8
 189              		.cfi_offset 14, -4
 190 0004 89B0     		sub	sp, sp, #36
 191              		.cfi_def_cfa_offset 72
 192 0006 00AF     		add	r7, sp, #0
 193              		.cfi_def_cfa_register 7
 103:main.c        ****     int32 new = QuadDec_R_GetCounter();
 194              		.loc 1 103 0
 195 0008 FFF7FEFF 		bl	QuadDec_R_GetCounter
 196 000c 7861     		str	r0, [r7, #20]
 104:main.c        ****     int32 diff = new - right_motor.enc_count;
 197              		.loc 1 104 0
 198 000e B84B     		ldr	r3, .L12+48
 199 0010 1B6C     		ldr	r3, [r3, #64]
 200 0012 7A69     		ldr	r2, [r7, #20]
 201 0014 D31A     		subs	r3, r2, r3
 202 0016 3B61     		str	r3, [r7, #16]
 105:main.c        ****     right_motor.enc_count = new;
 203              		.loc 1 105 0
 204 0018 B54A     		ldr	r2, .L12+48
 205 001a 7B69     		ldr	r3, [r7, #20]
 206 001c 1364     		str	r3, [r2, #64]
 106:main.c        ****     right_motor.w = M_TWOPI*diff/POSE_UPDATE_PERIOD/PULSES_PER_REV;
 207              		.loc 1 106 0
 208 001e 3869     		ldr	r0, [r7, #16]
 209 0020 FFF7FEFF 		bl	__aeabi_i2d
 210 0024 A6A3     		adr	r3, .L12
 211 0026 D3E90023 		ldrd	r2, [r3]
 212 002a FFF7FEFF 		bl	__aeabi_dmul
 213 002e 0246     		mov	r2, r0
 214 0030 0B46     		mov	r3, r1
 215 0032 1046     		mov	r0, r2
 216 0034 1946     		mov	r1, r3
 217 0036 A4A3     		adr	r3, .L12+8
 218 0038 D3E90023 		ldrd	r2, [r3]
 219 003c FFF7FEFF 		bl	__aeabi_ddiv
 220 0040 0246     		mov	r2, r0
 221 0042 0B46     		mov	r3, r1
 222 0044 1046     		mov	r0, r2
 223 0046 1946     		mov	r1, r3
 224 0048 A1A3     		adr	r3, .L12+16
 225 004a D3E90023 		ldrd	r2, [r3]
 226 004e FFF7FEFF 		bl	__aeabi_ddiv
 227 0052 0246     		mov	r2, r0
 228 0054 0B46     		mov	r3, r1
 229 0056 A649     		ldr	r1, .L12+48
 230 0058 C1E90423 		strd	r2, [r1, #16]
 107:main.c        ****     
 108:main.c        ****     new = QuadDec_L_GetCounter();
 231              		.loc 1 108 0
 232 005c FFF7FEFF 		bl	QuadDec_L_GetCounter
 233 0060 7861     		str	r0, [r7, #20]
 109:main.c        ****     diff = new - left_motor.enc_count;
ARM GAS  C:\Users\cyu13\AppData\Local\Temp\cc9UQms6.s 			page 7


 234              		.loc 1 109 0
 235 0062 A44B     		ldr	r3, .L12+52
 236 0064 1B6C     		ldr	r3, [r3, #64]
 237 0066 7A69     		ldr	r2, [r7, #20]
 238 0068 D31A     		subs	r3, r2, r3
 239 006a 3B61     		str	r3, [r7, #16]
 110:main.c        ****     left_motor.enc_count = new;
 240              		.loc 1 110 0
 241 006c A14A     		ldr	r2, .L12+52
 242 006e 7B69     		ldr	r3, [r7, #20]
 243 0070 1364     		str	r3, [r2, #64]
 111:main.c        ****     left_motor.w = M_TWOPI*diff/POSE_UPDATE_PERIOD/PULSES_PER_REV;
 244              		.loc 1 111 0
 245 0072 3869     		ldr	r0, [r7, #16]
 246 0074 FFF7FEFF 		bl	__aeabi_i2d
 247 0078 91A3     		adr	r3, .L12
 248 007a D3E90023 		ldrd	r2, [r3]
 249 007e FFF7FEFF 		bl	__aeabi_dmul
 250 0082 0246     		mov	r2, r0
 251 0084 0B46     		mov	r3, r1
 252 0086 1046     		mov	r0, r2
 253 0088 1946     		mov	r1, r3
 254 008a 8FA3     		adr	r3, .L12+8
 255 008c D3E90023 		ldrd	r2, [r3]
 256 0090 FFF7FEFF 		bl	__aeabi_ddiv
 257 0094 0246     		mov	r2, r0
 258 0096 0B46     		mov	r3, r1
 259 0098 1046     		mov	r0, r2
 260 009a 1946     		mov	r1, r3
 261 009c 8CA3     		adr	r3, .L12+16
 262 009e D3E90023 		ldrd	r2, [r3]
 263 00a2 FFF7FEFF 		bl	__aeabi_ddiv
 264 00a6 0246     		mov	r2, r0
 265 00a8 0B46     		mov	r3, r1
 266 00aa 9249     		ldr	r1, .L12+52
 267 00ac C1E90423 		strd	r2, [r1, #16]
 112:main.c        ****     
 113:main.c        ****     
 114:main.c        ****     
 115:main.c        ****     //Calculate and update tangential velocity of wheels
 116:main.c        ****     left_motor.tangent_v = left_motor.w*left_motor.wheel_radius;
 268              		.loc 1 116 0
 269 00b0 904B     		ldr	r3, .L12+52
 270 00b2 D3E90401 		ldrd	r0, [r3, #16]
 271 00b6 8F4B     		ldr	r3, .L12+52
 272 00b8 D3E90E23 		ldrd	r2, [r3, #56]
 273 00bc FFF7FEFF 		bl	__aeabi_dmul
 274 00c0 0246     		mov	r2, r0
 275 00c2 0B46     		mov	r3, r1
 276 00c4 8B49     		ldr	r1, .L12+52
 277 00c6 C1E90623 		strd	r2, [r1, #24]
 117:main.c        ****     right_motor.tangent_v = right_motor.w*right_motor.wheel_radius;
 278              		.loc 1 117 0
 279 00ca 894B     		ldr	r3, .L12+48
 280 00cc D3E90401 		ldrd	r0, [r3, #16]
 281 00d0 874B     		ldr	r3, .L12+48
 282 00d2 D3E90E23 		ldrd	r2, [r3, #56]
ARM GAS  C:\Users\cyu13\AppData\Local\Temp\cc9UQms6.s 			page 8


 283 00d6 FFF7FEFF 		bl	__aeabi_dmul
 284 00da 0246     		mov	r2, r0
 285 00dc 0B46     		mov	r3, r1
 286 00de 8449     		ldr	r1, .L12+48
 287 00e0 C1E90623 		strd	r2, [r1, #24]
 118:main.c        **** 
 119:main.c        ****     //temporary values
 120:main.c        ****     robot.w = (right_motor.tangent_v - left_motor.tangent_v)/robot.axle_width; //instantaneous turn
 288              		.loc 1 120 0
 289 00e4 824B     		ldr	r3, .L12+48
 290 00e6 D3E90601 		ldrd	r0, [r3, #24]
 291 00ea 824B     		ldr	r3, .L12+52
 292 00ec D3E90623 		ldrd	r2, [r3, #24]
 293 00f0 FFF7FEFF 		bl	__aeabi_dsub
 294 00f4 0246     		mov	r2, r0
 295 00f6 0B46     		mov	r3, r1
 296 00f8 1046     		mov	r0, r2
 297 00fa 1946     		mov	r1, r3
 298 00fc 7E4B     		ldr	r3, .L12+56
 299 00fe D3E90623 		ldrd	r2, [r3, #24]
 300 0102 FFF7FEFF 		bl	__aeabi_ddiv
 301 0106 0246     		mov	r2, r0
 302 0108 0B46     		mov	r3, r1
 303 010a 7B49     		ldr	r1, .L12+56
 304 010c C1E90A23 		strd	r2, [r1, #40]
 121:main.c        ****     robot.V =  (right_motor.tangent_v + left_motor.tangent_v)/2; //instantaneous tangential velocit
 305              		.loc 1 121 0
 306 0110 774B     		ldr	r3, .L12+48
 307 0112 D3E90601 		ldrd	r0, [r3, #24]
 308 0116 774B     		ldr	r3, .L12+52
 309 0118 D3E90623 		ldrd	r2, [r3, #24]
 310 011c FFF7FEFF 		bl	__aeabi_dadd
 311 0120 0246     		mov	r2, r0
 312 0122 0B46     		mov	r3, r1
 313 0124 1046     		mov	r0, r2
 314 0126 1946     		mov	r1, r3
 315 0128 4FF00002 		mov	r2, #0
 316 012c 4FF08043 		mov	r3, #1073741824
 317 0130 FFF7FEFF 		bl	__aeabi_ddiv
 318 0134 0246     		mov	r2, r0
 319 0136 0B46     		mov	r3, r1
 320 0138 6F49     		ldr	r1, .L12+56
 321 013a C1E90823 		strd	r2, [r1, #32]
 122:main.c        **** 
 123:main.c        ****     // update pose variables
 124:main.c        ****     robot.theta = angle_modulo( robot.theta + robot.w * POSE_UPDATE_PERIOD );
 322              		.loc 1 124 0
 323 013e 6E4B     		ldr	r3, .L12+56
 324 0140 D3E90089 		ldrd	r8, [r3]
 325 0144 6C4B     		ldr	r3, .L12+56
 326 0146 D3E90A01 		ldrd	r0, [r3, #40]
 327 014a 5FA3     		adr	r3, .L12+8
 328 014c D3E90023 		ldrd	r2, [r3]
 329 0150 FFF7FEFF 		bl	__aeabi_dmul
 330 0154 0246     		mov	r2, r0
 331 0156 0B46     		mov	r3, r1
 332 0158 4046     		mov	r0, r8
ARM GAS  C:\Users\cyu13\AppData\Local\Temp\cc9UQms6.s 			page 9


 333 015a 4946     		mov	r1, r9
 334 015c FFF7FEFF 		bl	__aeabi_dadd
 335 0160 0246     		mov	r2, r0
 336 0162 0B46     		mov	r3, r1
 337 0164 1046     		mov	r0, r2
 338 0166 1946     		mov	r1, r3
 339 0168 FFF7FEFF 		bl	angle_modulo
 340 016c 0246     		mov	r2, r0
 341 016e 0B46     		mov	r3, r1
 342 0170 6149     		ldr	r1, .L12+56
 343 0172 C1E90023 		strd	r2, [r1]
 125:main.c        ****     robot.x = robot.x + POSE_UPDATE_PERIOD * robot.V * cos(robot.theta);
 344              		.loc 1 125 0
 345 0176 604B     		ldr	r3, .L12+56
 346 0178 D3E90289 		ldrd	r8, [r3, #8]
 347 017c 5E4B     		ldr	r3, .L12+56
 348 017e D3E90801 		ldrd	r0, [r3, #32]
 349 0182 51A3     		adr	r3, .L12+8
 350 0184 D3E90023 		ldrd	r2, [r3]
 351 0188 FFF7FEFF 		bl	__aeabi_dmul
 352 018c 0246     		mov	r2, r0
 353 018e 0B46     		mov	r3, r1
 354 0190 9246     		mov	r10, r2
 355 0192 9B46     		mov	fp, r3
 356 0194 584B     		ldr	r3, .L12+56
 357 0196 D3E90023 		ldrd	r2, [r3]
 358 019a 1046     		mov	r0, r2
 359 019c 1946     		mov	r1, r3
 360 019e FFF7FEFF 		bl	cos
 361 01a2 0246     		mov	r2, r0
 362 01a4 0B46     		mov	r3, r1
 363 01a6 5046     		mov	r0, r10
 364 01a8 5946     		mov	r1, fp
 365 01aa FFF7FEFF 		bl	__aeabi_dmul
 366 01ae 0246     		mov	r2, r0
 367 01b0 0B46     		mov	r3, r1
 368 01b2 4046     		mov	r0, r8
 369 01b4 4946     		mov	r1, r9
 370 01b6 FFF7FEFF 		bl	__aeabi_dadd
 371 01ba 0246     		mov	r2, r0
 372 01bc 0B46     		mov	r3, r1
 373 01be 4E49     		ldr	r1, .L12+56
 374 01c0 C1E90223 		strd	r2, [r1, #8]
 126:main.c        ****     robot.y = robot.y + POSE_UPDATE_PERIOD * robot.V * sin(robot.theta);
 375              		.loc 1 126 0
 376 01c4 4C4B     		ldr	r3, .L12+56
 377 01c6 D3E90489 		ldrd	r8, [r3, #16]
 378 01ca 4B4B     		ldr	r3, .L12+56
 379 01cc D3E90801 		ldrd	r0, [r3, #32]
 380 01d0 3DA3     		adr	r3, .L12+8
 381 01d2 D3E90023 		ldrd	r2, [r3]
 382 01d6 FFF7FEFF 		bl	__aeabi_dmul
 383 01da 0246     		mov	r2, r0
 384 01dc 0B46     		mov	r3, r1
 385 01de 9246     		mov	r10, r2
 386 01e0 9B46     		mov	fp, r3
 387 01e2 454B     		ldr	r3, .L12+56
ARM GAS  C:\Users\cyu13\AppData\Local\Temp\cc9UQms6.s 			page 10


 388 01e4 D3E90023 		ldrd	r2, [r3]
 389 01e8 1046     		mov	r0, r2
 390 01ea 1946     		mov	r1, r3
 391 01ec FFF7FEFF 		bl	sin
 392 01f0 0246     		mov	r2, r0
 393 01f2 0B46     		mov	r3, r1
 394 01f4 5046     		mov	r0, r10
 395 01f6 5946     		mov	r1, fp
 396 01f8 FFF7FEFF 		bl	__aeabi_dmul
 397 01fc 0246     		mov	r2, r0
 398 01fe 0B46     		mov	r3, r1
 399 0200 4046     		mov	r0, r8
 400 0202 4946     		mov	r1, r9
 401 0204 FFF7FEFF 		bl	__aeabi_dadd
 402 0208 0246     		mov	r2, r0
 403 020a 0B46     		mov	r3, r1
 404 020c 3A49     		ldr	r1, .L12+56
 405 020e C1E90423 		strd	r2, [r1, #16]
 127:main.c        ****     
 128:main.c        ****     
 129:main.c        ****     // do robot PI control
 130:main.c        ****     long double error = robot.desired_theta - robot.theta;   
 406              		.loc 1 130 0
 407 0212 394B     		ldr	r3, .L12+56
 408 0214 D3E90E01 		ldrd	r0, [r3, #56]
 409 0218 374B     		ldr	r3, .L12+56
 410 021a D3E90023 		ldrd	r2, [r3]
 411 021e FFF7FEFF 		bl	__aeabi_dsub
 412 0222 0246     		mov	r2, r0
 413 0224 0B46     		mov	r3, r1
 414 0226 C7E90623 		strd	r2, [r7, #24]
 131:main.c        ****     if( error > M_PI ) {     // TODO: give this more thought. Want the robot to choose direction of
 415              		.loc 1 131 0
 416 022a 2BA3     		adr	r3, .L12+24
 417 022c D3E90023 		ldrd	r2, [r3]
 418 0230 D7E90601 		ldrd	r0, [r7, #24]
 419 0234 FFF7FEFF 		bl	__aeabi_dcmpgt
 420 0238 0346     		mov	r3, r0
 421 023a 002B     		cmp	r3, #0
 422 023c 0AD0     		beq	.L6
 132:main.c        ****         error = error - M_TWOPI;
 423              		.loc 1 132 0
 424 023e 20A3     		adr	r3, .L12
 425 0240 D3E90023 		ldrd	r2, [r3]
 426 0244 D7E90601 		ldrd	r0, [r7, #24]
 427 0248 FFF7FEFF 		bl	__aeabi_dsub
 428 024c 0246     		mov	r2, r0
 429 024e 0B46     		mov	r3, r1
 430 0250 C7E90623 		strd	r2, [r7, #24]
 431              	.L6:
 133:main.c        ****     }
 134:main.c        ****     if( error < -M_PI) {
 432              		.loc 1 134 0
 433 0254 22A3     		adr	r3, .L12+32
 434 0256 D3E90023 		ldrd	r2, [r3]
 435 025a D7E90601 		ldrd	r0, [r7, #24]
 436 025e FFF7FEFF 		bl	__aeabi_dcmplt
ARM GAS  C:\Users\cyu13\AppData\Local\Temp\cc9UQms6.s 			page 11


 437 0262 0346     		mov	r3, r0
 438 0264 002B     		cmp	r3, #0
 439 0266 0AD0     		beq	.L8
 135:main.c        ****         error = error + M_TWOPI;
 440              		.loc 1 135 0
 441 0268 15A3     		adr	r3, .L12
 442 026a D3E90023 		ldrd	r2, [r3]
 443 026e D7E90601 		ldrd	r0, [r7, #24]
 444 0272 FFF7FEFF 		bl	__aeabi_dadd
 445 0276 0246     		mov	r2, r0
 446 0278 0B46     		mov	r3, r1
 447 027a C7E90623 		strd	r2, [r7, #24]
 448              	.L8:
 136:main.c        ****     }
 137:main.c        ****     
 138:main.c        ****     double scaled_V = robot.desired_V *( 1 - logl( (M_E-1) * fabsl(error) / M_PI + 1 )); // scales 
 449              		.loc 1 138 0
 450 027e 1E4B     		ldr	r3, .L12+56
 451 0280 D3E90C89 		ldrd	r8, [r3, #48]
 452 0284 BC69     		ldr	r4, [r7, #24]
 453 0286 FB69     		ldr	r3, [r7, #28]
 454 0288 23F00045 		bic	r5, r3, #-2147483648
 455 028c 16A3     		adr	r3, .L12+40
 456 028e D3E90023 		ldrd	r2, [r3]
 457 0292 2046     		mov	r0, r4
 458 0294 2946     		mov	r1, r5
 459 0296 FFF7FEFF 		bl	__aeabi_dmul
 460 029a 0346     		mov	r3, r0
 461 029c 0C46     		mov	r4, r1
 462 029e 1846     		mov	r0, r3
 463 02a0 2146     		mov	r1, r4
 464 02a2 0DA3     		adr	r3, .L12+24
 465 02a4 D3E90023 		ldrd	r2, [r3]
 466 02a8 FFF7FEFF 		bl	__aeabi_ddiv
 467 02ac 0346     		mov	r3, r0
 468 02ae 0C46     		mov	r4, r1
 469 02b0 1846     		mov	r0, r3
 470 02b2 2146     		mov	r1, r4
 471 02b4 4FF00002 		mov	r2, #0
 472 02b8 104B     		ldr	r3, .L12+60
 473 02ba FFF7FEFF 		bl	__aeabi_dadd
 474 02be 1FE0     		b	.L13
 475              	.L14:
 476              		.align	3
 477              	.L12:
 478 02c0 182D4454 		.word	1413754136
 479 02c4 FB211940 		.word	1075388923
 480 02c8 7B14AE47 		.word	1202590843
 481 02cc E17A943F 		.word	1066695393
 482 02d0 A4703D0A 		.word	171798692
 483 02d4 D70FAC40 		.word	1085018071
 484 02d8 182D4454 		.word	1413754136
 485 02dc FB210940 		.word	1074340347
 486 02e0 182D4454 		.word	1413754136
 487 02e4 FB2109C0 		.word	-1073143301
 488 02e8 D2AE2816 		.word	371764946
 489 02ec 157EFB3F 		.word	1073446421
ARM GAS  C:\Users\cyu13\AppData\Local\Temp\cc9UQms6.s 			page 12


 490 02f0 00000000 		.word	right_motor
 491 02f4 00000000 		.word	left_motor
 492 02f8 00000000 		.word	robot
 493 02fc 0000F03F 		.word	1072693248
 494              	.L13:
 495 0300 0346     		mov	r3, r0
 496 0302 0C46     		mov	r4, r1
 497 0304 1846     		mov	r0, r3
 498 0306 2146     		mov	r1, r4
 499 0308 FFF7FEFF 		bl	logl
 500 030c 0346     		mov	r3, r0
 501 030e 0C46     		mov	r4, r1
 502 0310 1A46     		mov	r2, r3
 503 0312 2346     		mov	r3, r4
 504 0314 4FF00000 		mov	r0, #0
 505 0318 4C49     		ldr	r1, .L15
 506 031a FFF7FEFF 		bl	__aeabi_dsub
 507 031e 0346     		mov	r3, r0
 508 0320 0C46     		mov	r4, r1
 509 0322 1A46     		mov	r2, r3
 510 0324 2346     		mov	r3, r4
 511 0326 4046     		mov	r0, r8
 512 0328 4946     		mov	r1, r9
 513 032a FFF7FEFF 		bl	__aeabi_dmul
 514 032e 0346     		mov	r3, r0
 515 0330 0C46     		mov	r4, r1
 516 0332 C7E90234 		strd	r3, [r7, #8]
 139:main.c        ****     
 140:main.c        ****     robot.int_error = robot.int_error + error;
 517              		.loc 1 140 0
 518 0336 464B     		ldr	r3, .L15+4
 519 0338 D3E91401 		ldrd	r0, [r3, #80]
 520 033c D7E90623 		ldrd	r2, [r7, #24]
 521 0340 FFF7FEFF 		bl	__aeabi_dadd
 522 0344 0346     		mov	r3, r0
 523 0346 0C46     		mov	r4, r1
 524 0348 414A     		ldr	r2, .L15+4
 525 034a C2E91434 		strd	r3, [r2, #80]
 141:main.c        ****     long double new_omega = robot.Kp * error + robot.Ki * robot.int_error;
 526              		.loc 1 141 0
 527 034e 404B     		ldr	r3, .L15+4
 528 0350 D3E91201 		ldrd	r0, [r3, #72]
 529 0354 D7E90623 		ldrd	r2, [r7, #24]
 530 0358 FFF7FEFF 		bl	__aeabi_dmul
 531 035c 0346     		mov	r3, r0
 532 035e 0C46     		mov	r4, r1
 533 0360 1D46     		mov	r5, r3
 534 0362 2646     		mov	r6, r4
 535 0364 3A4B     		ldr	r3, .L15+4
 536 0366 D3E91001 		ldrd	r0, [r3, #64]
 537 036a 394B     		ldr	r3, .L15+4
 538 036c 03F15004 		add	r4, r3, #80
 539 0370 D4E90034 		ldrd	r3, [r4]
 540 0374 1A46     		mov	r2, r3
 541 0376 2346     		mov	r3, r4
 542 0378 FFF7FEFF 		bl	__aeabi_dmul
 543 037c 0346     		mov	r3, r0
ARM GAS  C:\Users\cyu13\AppData\Local\Temp\cc9UQms6.s 			page 13


 544 037e 0C46     		mov	r4, r1
 545 0380 1A46     		mov	r2, r3
 546 0382 2346     		mov	r3, r4
 547 0384 2846     		mov	r0, r5
 548 0386 3146     		mov	r1, r6
 549 0388 FFF7FEFF 		bl	__aeabi_dadd
 550 038c 0346     		mov	r3, r0
 551 038e 0C46     		mov	r4, r1
 552 0390 C7E90034 		strd	r3, [r7]
 142:main.c        ****     right_motor.desired_w = (scaled_V + new_omega * robot.axle_width / 2) / right_motor.wheel_radiu
 553              		.loc 1 142 0
 554 0394 2E4B     		ldr	r3, .L15+4
 555 0396 D3E90601 		ldrd	r0, [r3, #24]
 556 039a D7E90023 		ldrd	r2, [r7]
 557 039e FFF7FEFF 		bl	__aeabi_dmul
 558 03a2 0346     		mov	r3, r0
 559 03a4 0C46     		mov	r4, r1
 560 03a6 1846     		mov	r0, r3
 561 03a8 2146     		mov	r1, r4
 562 03aa 4FF00002 		mov	r2, #0
 563 03ae 4FF08043 		mov	r3, #1073741824
 564 03b2 FFF7FEFF 		bl	__aeabi_ddiv
 565 03b6 0346     		mov	r3, r0
 566 03b8 0C46     		mov	r4, r1
 567 03ba 1846     		mov	r0, r3
 568 03bc 2146     		mov	r1, r4
 569 03be D7E90223 		ldrd	r2, [r7, #8]
 570 03c2 FFF7FEFF 		bl	__aeabi_dadd
 571 03c6 0346     		mov	r3, r0
 572 03c8 0C46     		mov	r4, r1
 573 03ca 1846     		mov	r0, r3
 574 03cc 2146     		mov	r1, r4
 575 03ce 214B     		ldr	r3, .L15+8
 576 03d0 03F13804 		add	r4, r3, #56
 577 03d4 D4E90034 		ldrd	r3, [r4]
 578 03d8 1A46     		mov	r2, r3
 579 03da 2346     		mov	r3, r4
 580 03dc FFF7FEFF 		bl	__aeabi_ddiv
 581 03e0 0346     		mov	r3, r0
 582 03e2 0C46     		mov	r4, r1
 583 03e4 1B4A     		ldr	r2, .L15+8
 584 03e6 C2E90834 		strd	r3, [r2, #32]
 143:main.c        ****     left_motor.desired_w = (scaled_V - new_omega * robot.axle_width / 2) / left_motor.wheel_radius;
 585              		.loc 1 143 0
 586 03ea 194B     		ldr	r3, .L15+4
 587 03ec D3E90601 		ldrd	r0, [r3, #24]
 588 03f0 D7E90023 		ldrd	r2, [r7]
 589 03f4 FFF7FEFF 		bl	__aeabi_dmul
 590 03f8 0346     		mov	r3, r0
 591 03fa 0C46     		mov	r4, r1
 592 03fc 1846     		mov	r0, r3
 593 03fe 2146     		mov	r1, r4
 594 0400 4FF00002 		mov	r2, #0
 595 0404 4FF08043 		mov	r3, #1073741824
 596 0408 FFF7FEFF 		bl	__aeabi_ddiv
 597 040c 0346     		mov	r3, r0
 598 040e 0C46     		mov	r4, r1
ARM GAS  C:\Users\cyu13\AppData\Local\Temp\cc9UQms6.s 			page 14


 599 0410 1A46     		mov	r2, r3
 600 0412 2346     		mov	r3, r4
 601 0414 D7E90201 		ldrd	r0, [r7, #8]
 602 0418 FFF7FEFF 		bl	__aeabi_dsub
 603 041c 0346     		mov	r3, r0
 604 041e 0C46     		mov	r4, r1
 605 0420 1846     		mov	r0, r3
 606 0422 2146     		mov	r1, r4
 607 0424 0C4B     		ldr	r3, .L15+12
 608 0426 03F13804 		add	r4, r3, #56
 609 042a D4E90034 		ldrd	r3, [r4]
 610 042e 1A46     		mov	r2, r3
 611 0430 2346     		mov	r3, r4
 612 0432 FFF7FEFF 		bl	__aeabi_ddiv
 613 0436 0346     		mov	r3, r0
 614 0438 0C46     		mov	r4, r1
 615 043a 074A     		ldr	r2, .L15+12
 616 043c C2E90834 		strd	r3, [r2, #32]
 144:main.c        ****     
 145:main.c        **** }
 617              		.loc 1 145 0
 618 0440 00BF     		nop
 619 0442 2437     		adds	r7, r7, #36
 620              		.cfi_def_cfa_offset 36
 621 0444 BD46     		mov	sp, r7
 622              		.cfi_def_cfa_register 13
 623              		@ sp needed
 624 0446 BDE8F08F 		pop	{r4, r5, r6, r7, r8, r9, r10, fp, pc}
 625              	.L16:
 626 044a 00BF     		.align	2
 627              	.L15:
 628 044c 0000F03F 		.word	1072693248
 629 0450 00000000 		.word	robot
 630 0454 00000000 		.word	right_motor
 631 0458 00000000 		.word	left_motor
 632              		.cfi_endproc
 633              	.LFE65:
 634              		.size	Pose_Update_Int_Handler, .-Pose_Update_Int_Handler
 635              		.section	.text.Motor_PI_Int_Handler,"ax",%progbits
 636              		.align	2
 637              		.global	Motor_PI_Int_Handler
 638              		.thumb
 639              		.thumb_func
 640              		.type	Motor_PI_Int_Handler, %function
 641              	Motor_PI_Int_Handler:
 642              	.LFB66:
 146:main.c        **** 
 147:main.c        **** CY_ISR( Motor_PI_Int_Handler ) {
 643              		.loc 1 147 0
 644              		.cfi_startproc
 645              		@ args = 0, pretend = 0, frame = 8
 646              		@ frame_needed = 1, uses_anonymous_args = 0
 647 0000 F0B5     		push	{r4, r5, r6, r7, lr}
 648              		.cfi_def_cfa_offset 20
 649              		.cfi_offset 4, -20
 650              		.cfi_offset 5, -16
 651              		.cfi_offset 6, -12
ARM GAS  C:\Users\cyu13\AppData\Local\Temp\cc9UQms6.s 			page 15


 652              		.cfi_offset 7, -8
 653              		.cfi_offset 14, -4
 654 0002 83B0     		sub	sp, sp, #12
 655              		.cfi_def_cfa_offset 32
 656 0004 00AF     		add	r7, sp, #0
 657              		.cfi_def_cfa_register 7
 148:main.c        ****     long double error = left_motor.desired_w - left_motor.w;
 658              		.loc 1 148 0
 659 0006 514B     		ldr	r3, .L18
 660 0008 D3E90801 		ldrd	r0, [r3, #32]
 661 000c 4F4B     		ldr	r3, .L18
 662 000e 03F11004 		add	r4, r3, #16
 663 0012 D4E90034 		ldrd	r3, [r4]
 664 0016 1A46     		mov	r2, r3
 665 0018 2346     		mov	r3, r4
 666 001a FFF7FEFF 		bl	__aeabi_dsub
 667 001e 0346     		mov	r3, r0
 668 0020 0C46     		mov	r4, r1
 669 0022 C7E90034 		strd	r3, [r7]
 149:main.c        ****     left_motor.int_error  = left_motor.int_error + error;
 670              		.loc 1 149 0
 671 0026 494B     		ldr	r3, .L18
 672 0028 D3E90201 		ldrd	r0, [r3, #8]
 673 002c D7E90023 		ldrd	r2, [r7]
 674 0030 FFF7FEFF 		bl	__aeabi_dadd
 675 0034 0346     		mov	r3, r0
 676 0036 0C46     		mov	r4, r1
 677 0038 444A     		ldr	r2, .L18
 678 003a C2E90234 		strd	r3, [r2, #8]
 150:main.c        ****     left_motor.duty_cycle = left_motor.duty_cycle + left_motor.Kp*error + left_motor.Ki*left_motor.
 679              		.loc 1 150 0
 680 003e 434B     		ldr	r3, .L18
 681 0040 D3E90045 		ldrd	r4, [r3]
 682 0044 414B     		ldr	r3, .L18
 683 0046 D3E90C01 		ldrd	r0, [r3, #48]
 684 004a D7E90023 		ldrd	r2, [r7]
 685 004e FFF7FEFF 		bl	__aeabi_dmul
 686 0052 0246     		mov	r2, r0
 687 0054 0B46     		mov	r3, r1
 688 0056 2046     		mov	r0, r4
 689 0058 2946     		mov	r1, r5
 690 005a FFF7FEFF 		bl	__aeabi_dadd
 691 005e 0346     		mov	r3, r0
 692 0060 0C46     		mov	r4, r1
 693 0062 1D46     		mov	r5, r3
 694 0064 2646     		mov	r6, r4
 695 0066 394B     		ldr	r3, .L18
 696 0068 D3E90A01 		ldrd	r0, [r3, #40]
 697 006c 374B     		ldr	r3, .L18
 698 006e 03F10804 		add	r4, r3, #8
 699 0072 D4E90034 		ldrd	r3, [r4]
 700 0076 1A46     		mov	r2, r3
 701 0078 2346     		mov	r3, r4
 702 007a FFF7FEFF 		bl	__aeabi_dmul
 703 007e 0346     		mov	r3, r0
 704 0080 0C46     		mov	r4, r1
 705 0082 1A46     		mov	r2, r3
ARM GAS  C:\Users\cyu13\AppData\Local\Temp\cc9UQms6.s 			page 16


 706 0084 2346     		mov	r3, r4
 707 0086 2846     		mov	r0, r5
 708 0088 3146     		mov	r1, r6
 709 008a FFF7FEFF 		bl	__aeabi_dadd
 710 008e 0346     		mov	r3, r0
 711 0090 0C46     		mov	r4, r1
 712 0092 2E4A     		ldr	r2, .L18
 713 0094 C2E90034 		strd	r3, [r2]
 151:main.c        ****     Drive_Left_Motor(left_motor.duty_cycle);
 714              		.loc 1 151 0
 715 0098 2C4B     		ldr	r3, .L18
 716 009a 18CB     		ldmia	r3, {r3-r4}
 717 009c 1846     		mov	r0, r3
 718 009e 2146     		mov	r1, r4
 719 00a0 FFF7FEFF 		bl	Drive_Left_Motor
 152:main.c        ****     
 153:main.c        ****     error = right_motor.desired_w - right_motor.w;
 720              		.loc 1 153 0
 721 00a4 2A4B     		ldr	r3, .L18+4
 722 00a6 D3E90801 		ldrd	r0, [r3, #32]
 723 00aa 294B     		ldr	r3, .L18+4
 724 00ac 03F11004 		add	r4, r3, #16
 725 00b0 D4E90034 		ldrd	r3, [r4]
 726 00b4 1A46     		mov	r2, r3
 727 00b6 2346     		mov	r3, r4
 728 00b8 FFF7FEFF 		bl	__aeabi_dsub
 729 00bc 0346     		mov	r3, r0
 730 00be 0C46     		mov	r4, r1
 731 00c0 C7E90034 		strd	r3, [r7]
 154:main.c        ****     right_motor.int_error  = right_motor.int_error + error;
 732              		.loc 1 154 0
 733 00c4 224B     		ldr	r3, .L18+4
 734 00c6 D3E90201 		ldrd	r0, [r3, #8]
 735 00ca D7E90023 		ldrd	r2, [r7]
 736 00ce FFF7FEFF 		bl	__aeabi_dadd
 737 00d2 0346     		mov	r3, r0
 738 00d4 0C46     		mov	r4, r1
 739 00d6 1E4A     		ldr	r2, .L18+4
 740 00d8 C2E90234 		strd	r3, [r2, #8]
 155:main.c        ****     right_motor.duty_cycle = right_motor.duty_cycle + right_motor.Kp*error + right_motor.Ki*right_m
 741              		.loc 1 155 0
 742 00dc 1C4B     		ldr	r3, .L18+4
 743 00de D3E90045 		ldrd	r4, [r3]
 744 00e2 1B4B     		ldr	r3, .L18+4
 745 00e4 D3E90C01 		ldrd	r0, [r3, #48]
 746 00e8 D7E90023 		ldrd	r2, [r7]
 747 00ec FFF7FEFF 		bl	__aeabi_dmul
 748 00f0 0246     		mov	r2, r0
 749 00f2 0B46     		mov	r3, r1
 750 00f4 2046     		mov	r0, r4
 751 00f6 2946     		mov	r1, r5
 752 00f8 FFF7FEFF 		bl	__aeabi_dadd
 753 00fc 0346     		mov	r3, r0
 754 00fe 0C46     		mov	r4, r1
 755 0100 1D46     		mov	r5, r3
 756 0102 2646     		mov	r6, r4
 757 0104 124B     		ldr	r3, .L18+4
ARM GAS  C:\Users\cyu13\AppData\Local\Temp\cc9UQms6.s 			page 17


 758 0106 D3E90A01 		ldrd	r0, [r3, #40]
 759 010a 114B     		ldr	r3, .L18+4
 760 010c 03F10804 		add	r4, r3, #8
 761 0110 D4E90034 		ldrd	r3, [r4]
 762 0114 1A46     		mov	r2, r3
 763 0116 2346     		mov	r3, r4
 764 0118 FFF7FEFF 		bl	__aeabi_dmul
 765 011c 0346     		mov	r3, r0
 766 011e 0C46     		mov	r4, r1
 767 0120 1A46     		mov	r2, r3
 768 0122 2346     		mov	r3, r4
 769 0124 2846     		mov	r0, r5
 770 0126 3146     		mov	r1, r6
 771 0128 FFF7FEFF 		bl	__aeabi_dadd
 772 012c 0346     		mov	r3, r0
 773 012e 0C46     		mov	r4, r1
 774 0130 074A     		ldr	r2, .L18+4
 775 0132 C2E90034 		strd	r3, [r2]
 156:main.c        ****     Drive_Right_Motor(right_motor.duty_cycle);
 776              		.loc 1 156 0
 777 0136 064B     		ldr	r3, .L18+4
 778 0138 18CB     		ldmia	r3, {r3-r4}
 779 013a 1846     		mov	r0, r3
 780 013c 2146     		mov	r1, r4
 781 013e FFF7FEFF 		bl	Drive_Right_Motor
 157:main.c        **** }
 782              		.loc 1 157 0
 783 0142 00BF     		nop
 784 0144 0C37     		adds	r7, r7, #12
 785              		.cfi_def_cfa_offset 20
 786 0146 BD46     		mov	sp, r7
 787              		.cfi_def_cfa_register 13
 788              		@ sp needed
 789 0148 F0BD     		pop	{r4, r5, r6, r7, pc}
 790              	.L19:
 791 014a 00BF     		.align	2
 792              	.L18:
 793 014c 00000000 		.word	left_motor
 794 0150 00000000 		.word	right_motor
 795              		.cfi_endproc
 796              	.LFE66:
 797              		.size	Motor_PI_Int_Handler, .-Motor_PI_Int_Handler
 798              		.global	__aeabi_dcmpge
 799              		.section	.text.Navigation_Test_Int_Handler,"ax",%progbits
 800              		.align	2
 801              		.global	Navigation_Test_Int_Handler
 802              		.thumb
 803              		.thumb_func
 804              		.type	Navigation_Test_Int_Handler, %function
 805              	Navigation_Test_Int_Handler:
 806              	.LFB67:
 158:main.c        **** 
 159:main.c        **** CY_ISR( Navigation_Test_Int_Handler ) {
 807              		.loc 1 159 0
 808              		.cfi_startproc
 809              		@ args = 0, pretend = 0, frame = 8
 810              		@ frame_needed = 1, uses_anonymous_args = 0
ARM GAS  C:\Users\cyu13\AppData\Local\Temp\cc9UQms6.s 			page 18


 811 0000 90B5     		push	{r4, r7, lr}
 812              		.cfi_def_cfa_offset 12
 813              		.cfi_offset 4, -12
 814              		.cfi_offset 7, -8
 815              		.cfi_offset 14, -4
 816 0002 83B0     		sub	sp, sp, #12
 817              		.cfi_def_cfa_offset 24
 818 0004 00AF     		add	r7, sp, #0
 819              		.cfi_def_cfa_register 7
 160:main.c        ****     long double angle;
 161:main.c        ****     angle = robot.desired_theta + M_PI/8;
 820              		.loc 1 161 0
 821 0006 1A4B     		ldr	r3, .L24+16
 822 0008 D3E90E01 		ldrd	r0, [r3, #56]
 823 000c 14A3     		adr	r3, .L24
 824 000e D3E90023 		ldrd	r2, [r3]
 825 0012 FFF7FEFF 		bl	__aeabi_dadd
 826 0016 0346     		mov	r3, r0
 827 0018 0C46     		mov	r4, r1
 828 001a C7E90034 		strd	r3, [r7]
 162:main.c        ****     if( angle >= M_TWOPI ) {
 829              		.loc 1 162 0
 830 001e 12A3     		adr	r3, .L24+8
 831 0020 D3E90023 		ldrd	r2, [r3]
 832 0024 D7E90001 		ldrd	r0, [r7]
 833 0028 FFF7FEFF 		bl	__aeabi_dcmpge
 834 002c 0346     		mov	r3, r0
 835 002e 002B     		cmp	r3, #0
 836 0030 0AD0     		beq	.L21
 163:main.c        ****         angle = angle - M_TWOPI;
 837              		.loc 1 163 0
 838 0032 0DA3     		adr	r3, .L24+8
 839 0034 D3E90023 		ldrd	r2, [r3]
 840 0038 D7E90001 		ldrd	r0, [r7]
 841 003c FFF7FEFF 		bl	__aeabi_dsub
 842 0040 0346     		mov	r3, r0
 843 0042 0C46     		mov	r4, r1
 844 0044 C7E90034 		strd	r3, [r7]
 845              	.L21:
 164:main.c        ****     }
 165:main.c        ****     robot.desired_theta = angle;
 846              		.loc 1 165 0
 847 0048 094A     		ldr	r2, .L24+16
 848 004a D7E90034 		ldrd	r3, [r7]
 849 004e C2E90E34 		strd	r3, [r2, #56]
 166:main.c        **** }
 850              		.loc 1 166 0
 851 0052 00BF     		nop
 852 0054 0C37     		adds	r7, r7, #12
 853              		.cfi_def_cfa_offset 12
 854 0056 BD46     		mov	sp, r7
 855              		.cfi_def_cfa_register 13
 856              		@ sp needed
 857 0058 90BD     		pop	{r4, r7, pc}
 858              	.L25:
 859 005a 00BFAFF3 		.align	3
 859      0080
ARM GAS  C:\Users\cyu13\AppData\Local\Temp\cc9UQms6.s 			page 19


 860              	.L24:
 861 0060 182D4454 		.word	1413754136
 862 0064 FB21D93F 		.word	1071194619
 863 0068 182D4454 		.word	1413754136
 864 006c FB211940 		.word	1075388923
 865 0070 00000000 		.word	robot
 866              		.cfi_endproc
 867              	.LFE67:
 868              		.size	Navigation_Test_Int_Handler, .-Navigation_Test_Int_Handler
 869              		.global	__aeabi_f2d
 870              		.section	.rodata
 871              		.align	2
 872              	.LC2:
 873 0010 44697374 		.ascii	"Distance to goal: %f\012\000"
 873      616E6365 
 873      20746F20 
 873      676F616C 
 873      3A202566 
 874              		.global	__aeabi_d2iz
 875 0026 0000     		.align	2
 876              	.LC3:
 877 0028 54656E74 		.ascii	"Tentacles: %f, %f\012\000"
 877      61636C65 
 877      733A2025 
 877      662C2025 
 877      660A00
 878 003b 00       		.align	2
 879              	.LC0:
 880 003c 5A000000 		.word	90
 881 0040 5A000000 		.word	90
 882 0044 1E000000 		.word	30
 883 0048 5A000000 		.word	90
 884              		.align	2
 885              	.LC1:
 886 004c 00000000 		.word	0
 887 0050 0000803F 		.word	1065353216
 888 0054 00000000 		.word	0
 889 0058 000080BF 		.word	-1082130432
 890 005c CDCCCC3D 		.word	1036831949
 891 0060 0000803F 		.word	1065353216
 892 0064 CDCCCC3D 		.word	1036831949
 893 0068 000080BF 		.word	-1082130432
 894 006c CDCCCC3D 		.word	1036831949
 895 0070 0000003F 		.word	1056964608
 896 0074 CDCCCC3D 		.word	1036831949
 897 0078 000000BF 		.word	-1090519040
 898 007c CDCCCC3D 		.word	1036831949
 899 0080 00000000 		.word	0
 900 0084 00000000 		.word	0
 901 0088 00000000 		.word	0
 902              		.section	.text.main,"ax",%progbits
 903              		.align	2
 904              		.global	main
 905              		.thumb
 906              		.thumb_func
 907              		.type	main, %function
 908              	main:
ARM GAS  C:\Users\cyu13\AppData\Local\Temp\cc9UQms6.s 			page 20


 909              	.LFB68:
 167:main.c        **** 
 168:main.c        **** 
 169:main.c        **** 
 170:main.c        **** 
 171:main.c        **** int main(void)
 172:main.c        **** {
 910              		.loc 1 172 0
 911              		.cfi_startproc
 912              		@ args = 0, pretend = 0, frame = 184
 913              		@ frame_needed = 1, uses_anonymous_args = 0
 914 0000 2DE9F04F 		push	{r4, r5, r6, r7, r8, r9, r10, fp, lr}
 915              		.cfi_def_cfa_offset 36
 916              		.cfi_offset 4, -36
 917              		.cfi_offset 5, -32
 918              		.cfi_offset 6, -28
 919              		.cfi_offset 7, -24
 920              		.cfi_offset 8, -20
 921              		.cfi_offset 9, -16
 922              		.cfi_offset 10, -12
 923              		.cfi_offset 11, -8
 924              		.cfi_offset 14, -4
 925 0004 B7B0     		sub	sp, sp, #220
 926              		.cfi_def_cfa_offset 256
 927 0006 08AF     		add	r7, sp, #32
 928              		.cfi_def_cfa 7, 224
 173:main.c        ****     long double wheel_r_scale = 0.9378;   
 929              		.loc 1 173 0
 930 0008 A3A4     		adr	r4, .L42
 931 000a D4E90034 		ldrd	r3, [r4]
 932 000e C7E92434 		strd	r3, [r7, #144]
 174:main.c        ****     left_motor.duty_cycle = 0;
 933              		.loc 1 174 0
 934 0012 AF4A     		ldr	r2, .L42+56
 935 0014 4FF00003 		mov	r3, #0
 936 0018 4FF00004 		mov	r4, #0
 937 001c C2E90034 		strd	r3, [r2]
 175:main.c        ****     left_motor.int_error = 0;
 938              		.loc 1 175 0
 939 0020 AB4A     		ldr	r2, .L42+56
 940 0022 4FF00003 		mov	r3, #0
 941 0026 4FF00004 		mov	r4, #0
 942 002a C2E90234 		strd	r3, [r2, #8]
 176:main.c        ****     left_motor.desired_w = 0;
 943              		.loc 1 176 0
 944 002e A84A     		ldr	r2, .L42+56
 945 0030 4FF00003 		mov	r3, #0
 946 0034 4FF00004 		mov	r4, #0
 947 0038 C2E90834 		strd	r3, [r2, #32]
 177:main.c        ****     left_motor.wheel_radius = wheel_r_scale * 2.75;
 948              		.loc 1 177 0
 949 003c 4FF00002 		mov	r2, #0
 950 0040 A44B     		ldr	r3, .L42+60
 951 0042 D7E92401 		ldrd	r0, [r7, #144]
 952 0046 FFF7FEFF 		bl	__aeabi_dmul
 953 004a 0346     		mov	r3, r0
 954 004c 0C46     		mov	r4, r1
ARM GAS  C:\Users\cyu13\AppData\Local\Temp\cc9UQms6.s 			page 21


 955 004e A04A     		ldr	r2, .L42+56
 956 0050 C2E90E34 		strd	r3, [r2, #56]
 178:main.c        ****     left_motor.enc_count = 0;
 957              		.loc 1 178 0
 958 0054 9E4B     		ldr	r3, .L42+56
 959 0056 0022     		movs	r2, #0
 960 0058 1A64     		str	r2, [r3, #64]
 179:main.c        ****     left_motor.Ki = 3e-6;  // TODO: determine good PI params
 961              		.loc 1 179 0
 962 005a 9D4A     		ldr	r2, .L42+56
 963 005c 90A4     		adr	r4, .L42+8
 964 005e D4E90034 		ldrd	r3, [r4]
 965 0062 C2E90A34 		strd	r3, [r2, #40]
 180:main.c        ****     left_motor.Kp = 0.0025;
 966              		.loc 1 180 0
 967 0066 9A4A     		ldr	r2, .L42+56
 968 0068 8FA4     		adr	r4, .L42+16
 969 006a D4E90034 		ldrd	r3, [r4]
 970 006e C2E90C34 		strd	r3, [r2, #48]
 181:main.c        ****     
 182:main.c        ****     right_motor.duty_cycle = 0;
 971              		.loc 1 182 0
 972 0072 994A     		ldr	r2, .L42+64
 973 0074 4FF00003 		mov	r3, #0
 974 0078 4FF00004 		mov	r4, #0
 975 007c C2E90034 		strd	r3, [r2]
 183:main.c        ****     right_motor.int_error = 0;
 976              		.loc 1 183 0
 977 0080 954A     		ldr	r2, .L42+64
 978 0082 4FF00003 		mov	r3, #0
 979 0086 4FF00004 		mov	r4, #0
 980 008a C2E90234 		strd	r3, [r2, #8]
 184:main.c        ****     right_motor.desired_w = 0;
 981              		.loc 1 184 0
 982 008e 924A     		ldr	r2, .L42+64
 983 0090 4FF00003 		mov	r3, #0
 984 0094 4FF00004 		mov	r4, #0
 985 0098 C2E90834 		strd	r3, [r2, #32]
 185:main.c        ****     right_motor.wheel_radius = wheel_r_scale * 1.001*2.75;
 986              		.loc 1 185 0
 987 009c 84A3     		adr	r3, .L42+24
 988 009e D3E90023 		ldrd	r2, [r3]
 989 00a2 D7E92401 		ldrd	r0, [r7, #144]
 990 00a6 FFF7FEFF 		bl	__aeabi_dmul
 991 00aa 0346     		mov	r3, r0
 992 00ac 0C46     		mov	r4, r1
 993 00ae 1846     		mov	r0, r3
 994 00b0 2146     		mov	r1, r4
 995 00b2 4FF00002 		mov	r2, #0
 996 00b6 874B     		ldr	r3, .L42+60
 997 00b8 FFF7FEFF 		bl	__aeabi_dmul
 998 00bc 0346     		mov	r3, r0
 999 00be 0C46     		mov	r4, r1
 1000 00c0 854A     		ldr	r2, .L42+64
 1001 00c2 C2E90E34 		strd	r3, [r2, #56]
 186:main.c        ****     right_motor.enc_count = 0;
 1002              		.loc 1 186 0
ARM GAS  C:\Users\cyu13\AppData\Local\Temp\cc9UQms6.s 			page 22


 1003 00c6 844B     		ldr	r3, .L42+64
 1004 00c8 0022     		movs	r2, #0
 1005 00ca 1A64     		str	r2, [r3, #64]
 187:main.c        ****     right_motor.Ki = 3e-6;  // TODO: determine good PI params
 1006              		.loc 1 187 0
 1007 00cc 824A     		ldr	r2, .L42+64
 1008 00ce 74A4     		adr	r4, .L42+8
 1009 00d0 D4E90034 		ldrd	r3, [r4]
 1010 00d4 C2E90A34 		strd	r3, [r2, #40]
 188:main.c        ****     right_motor.Kp = 0.0025;
 1011              		.loc 1 188 0
 1012 00d8 7F4A     		ldr	r2, .L42+64
 1013 00da 73A4     		adr	r4, .L42+16
 1014 00dc D4E90034 		ldrd	r3, [r4]
 1015 00e0 C2E90C34 		strd	r3, [r2, #48]
 189:main.c        ****     
 190:main.c        ****     robot.axle_width = 0.936*22.5; // TODO: get accurate measurement
 1016              		.loc 1 190 0
 1017 00e4 7D4A     		ldr	r2, .L42+68
 1018 00e6 74A4     		adr	r4, .L42+32
 1019 00e8 D4E90034 		ldrd	r3, [r4]
 1020 00ec C2E90634 		strd	r3, [r2, #24]
 191:main.c        ****     robot.int_error = 0;
 1021              		.loc 1 191 0
 1022 00f0 7A4A     		ldr	r2, .L42+68
 1023 00f2 4FF00003 		mov	r3, #0
 1024 00f6 4FF00004 		mov	r4, #0
 1025 00fa C2E91434 		strd	r3, [r2, #80]
 192:main.c        ****     robot.Ki = 3e-5;    // TODO: determine good PI values
 1026              		.loc 1 192 0
 1027 00fe 774A     		ldr	r2, .L42+68
 1028 0100 6FA4     		adr	r4, .L42+40
 1029 0102 D4E90034 		ldrd	r3, [r4]
 1030 0106 C2E91034 		strd	r3, [r2, #64]
 193:main.c        ****     robot.Kp = 0.5;  // was previously 0.75 before changing for MS1
 1031              		.loc 1 193 0
 1032 010a 744A     		ldr	r2, .L42+68
 1033 010c 4FF00003 		mov	r3, #0
 1034 0110 734C     		ldr	r4, .L42+72
 1035 0112 C2E91234 		strd	r3, [r2, #72]
 194:main.c        ****     robot.desired_V = 0;
 1036              		.loc 1 194 0
 1037 0116 714A     		ldr	r2, .L42+68
 1038 0118 4FF00003 		mov	r3, #0
 1039 011c 4FF00004 		mov	r4, #0
 1040 0120 C2E90C34 		strd	r3, [r2, #48]
 195:main.c        ****     robot.desired_theta = 0;
 1041              		.loc 1 195 0
 1042 0124 6D4A     		ldr	r2, .L42+68
 1043 0126 4FF00003 		mov	r3, #0
 1044 012a 4FF00004 		mov	r4, #0
 1045 012e C2E90E34 		strd	r3, [r2, #56]
 196:main.c        ****     robot.theta = 0;
 1046              		.loc 1 196 0
 1047 0132 6A4A     		ldr	r2, .L42+68
 1048 0134 4FF00003 		mov	r3, #0
 1049 0138 4FF00004 		mov	r4, #0
ARM GAS  C:\Users\cyu13\AppData\Local\Temp\cc9UQms6.s 			page 23


 1050 013c C2E90034 		strd	r3, [r2]
 197:main.c        ****     robot.x = 30;
 1051              		.loc 1 197 0
 1052 0140 664A     		ldr	r2, .L42+68
 1053 0142 4FF00003 		mov	r3, #0
 1054 0146 674C     		ldr	r4, .L42+76
 1055 0148 C2E90234 		strd	r3, [r2, #8]
 198:main.c        ****     robot.y = 30;
 1056              		.loc 1 198 0
 1057 014c 634A     		ldr	r2, .L42+68
 1058 014e 4FF00003 		mov	r3, #0
 1059 0152 644C     		ldr	r4, .L42+76
 1060 0154 C2E90434 		strd	r3, [r2, #16]
 199:main.c        ****     robot.goal_min_dist = 2;
 1061              		.loc 1 199 0
 1062 0158 604A     		ldr	r2, .L42+68
 1063 015a 4FF00003 		mov	r3, #0
 1064 015e 4FF08044 		mov	r4, #1073741824
 1065 0162 C2E91A34 		strd	r3, [r2, #104]
 200:main.c        ****     robot.goal_x = 0;
 1066              		.loc 1 200 0
 1067 0166 5D4A     		ldr	r2, .L42+68
 1068 0168 4FF00003 		mov	r3, #0
 1069 016c 4FF00004 		mov	r4, #0
 1070 0170 C2E91634 		strd	r3, [r2, #88]
 201:main.c        ****     robot.goal_y = 0;
 1071              		.loc 1 201 0
 1072 0174 594A     		ldr	r2, .L42+68
 1073 0176 4FF00003 		mov	r3, #0
 1074 017a 4FF00004 		mov	r4, #0
 1075 017e C2E91834 		strd	r3, [r2, #96]
 202:main.c        ****     
 203:main.c        ****     sensors->direction[0] = 0;
 1076              		.loc 1 203 0
 1077 0182 594B     		ldr	r3, .L42+80
 1078 0184 1B68     		ldr	r3, [r3]
 1079 0186 0022     		movs	r2, #0
 1080 0188 1A60     		str	r2, [r3]
 204:main.c        ****     sensors->direction[1] = 30;
 1081              		.loc 1 204 0
 1082 018a 574B     		ldr	r3, .L42+80
 1083 018c 1B68     		ldr	r3, [r3]
 1084 018e 1E22     		movs	r2, #30
 1085 0190 5A60     		str	r2, [r3, #4]
 205:main.c        ****     sensors->direction[2] = 90;
 1086              		.loc 1 205 0
 1087 0192 554B     		ldr	r3, .L42+80
 1088 0194 1B68     		ldr	r3, [r3]
 1089 0196 5A22     		movs	r2, #90
 1090 0198 9A60     		str	r2, [r3, #8]
 206:main.c        ****     sensors->direction[3] = 270;
 1091              		.loc 1 206 0
 1092 019a 534B     		ldr	r3, .L42+80
 1093 019c 1B68     		ldr	r3, [r3]
 1094 019e 4FF48772 		mov	r2, #270
 1095 01a2 DA60     		str	r2, [r3, #12]
 207:main.c        ****     sensors->direction[4] = 330;
ARM GAS  C:\Users\cyu13\AppData\Local\Temp\cc9UQms6.s 			page 24


 1096              		.loc 1 207 0
 1097 01a4 504B     		ldr	r3, .L42+80
 1098 01a6 1B68     		ldr	r3, [r3]
 1099 01a8 4FF4A572 		mov	r2, #330
 1100 01ac 1A61     		str	r2, [r3, #16]
 208:main.c        ****     
 209:main.c        ****     sensors->distance[0] = 1000;
 1101              		.loc 1 209 0
 1102 01ae 4E4B     		ldr	r3, .L42+80
 1103 01b0 1B68     		ldr	r3, [r3]
 1104 01b2 4FF47A72 		mov	r2, #1000
 1105 01b6 5A61     		str	r2, [r3, #20]
 210:main.c        ****     
 211:main.c        ****     CyGlobalIntEnable;
 1106              		.loc 1 211 0
 1107              		.syntax unified
 1108              	@ 211 "main.c" 1
 1109 01b8 62B6     		CPSIE   i
 1110              	@ 0 "" 2
 212:main.c        ****     
 213:main.c        ****     // Registration of Timer ISR
 214:main.c        ****     Timer_Echo_Int_StartEx( Timer_Int_Handler );
 1111              		.loc 1 214 0
 1112              		.thumb
 1113              		.syntax unified
 1114 01ba 4C48     		ldr	r0, .L42+84
 1115 01bc FFF7FEFF 		bl	Timer_Echo_Int_StartEx
 215:main.c        ****     Pose_Update_Int_StartEx( Pose_Update_Int_Handler );
 1116              		.loc 1 215 0
 1117 01c0 4B48     		ldr	r0, .L42+88
 1118 01c2 FFF7FEFF 		bl	Pose_Update_Int_StartEx
 216:main.c        ****     Motor_PI_Int_StartEx( Motor_PI_Int_Handler );
 1119              		.loc 1 216 0
 1120 01c6 4B48     		ldr	r0, .L42+92
 1121 01c8 FFF7FEFF 		bl	Motor_PI_Int_StartEx
 217:main.c        ****     //Testing_Int_StartEx( Navigation_Test_Int_Handler );
 218:main.c        ****     
 219:main.c        ****     // Start up code - enable UART, PWM and Timer used for ultrasonic module
 220:main.c        ****     UART_Start();
 1122              		.loc 1 220 0
 1123 01cc FFF7FEFF 		bl	UART_Start
 221:main.c        ****     Timer_Echo_Start();
 1124              		.loc 1 221 0
 1125 01d0 FFF7FEFF 		bl	Timer_Echo_Start
 222:main.c        ****     PWM_Trigger_Start();
 1126              		.loc 1 222 0
 1127 01d4 FFF7FEFF 		bl	PWM_Trigger_Start
 223:main.c        ****     QuadDec_L_Start();
 1128              		.loc 1 223 0
 1129 01d8 FFF7FEFF 		bl	QuadDec_L_Start
 224:main.c        ****     PWM_Motor_L_Start();
 1130              		.loc 1 224 0
 1131 01dc FFF7FEFF 		bl	PWM_Motor_L_Start
 225:main.c        ****     QuadDec_R_Start();
 1132              		.loc 1 225 0
 1133 01e0 FFF7FEFF 		bl	QuadDec_R_Start
 226:main.c        ****     PWM_Motor_R_Start();
ARM GAS  C:\Users\cyu13\AppData\Local\Temp\cc9UQms6.s 			page 25


 1134              		.loc 1 226 0
 1135 01e4 FFF7FEFF 		bl	PWM_Motor_R_Start
 227:main.c        ****     Timer_Avoidance_Start();
 1136              		.loc 1 227 0
 1137 01e8 FFF7FEFF 		bl	Timer_Avoidance_Start
 228:main.c        ****     Timer_Avoidance_WriteCounter(60000); // Cause robot to start moving immediately
 1138              		.loc 1 228 0
 1139 01ec 4EF66020 		movw	r0, #60000
 1140 01f0 FFF7FEFF 		bl	Timer_Avoidance_WriteCounter
 229:main.c        **** 
 230:main.c        ****    
 231:main.c        ****     // Define Goal Coordinates
 232:main.c        ****     int N_GOALS = 2;
 1141              		.loc 1 232 0
 1142 01f4 0223     		movs	r3, #2
 1143 01f6 C7F88C30 		str	r3, [r7, #140]
 233:main.c        ****     int goals[4] = {90, 90, 30, 90};
 1144              		.loc 1 233 0
 1145 01fa 3F4B     		ldr	r3, .L42+96
 1146 01fc 07F16404 		add	r4, r7, #100
 1147 0200 0FCB     		ldmia	r3, {r0, r1, r2, r3}
 1148 0202 84E80F00 		stmia	r4, {r0, r1, r2, r3}
 234:main.c        ****     robot.goal_x = goals[0];
 1149              		.loc 1 234 0
 1150 0206 7B6E     		ldr	r3, [r7, #100]
 1151 0208 1846     		mov	r0, r3
 1152 020a FFF7FEFF 		bl	__aeabi_i2d
 1153 020e 0346     		mov	r3, r0
 1154 0210 0C46     		mov	r4, r1
 1155 0212 324A     		ldr	r2, .L42+68
 1156 0214 C2E91634 		strd	r3, [r2, #88]
 235:main.c        ****     robot.goal_y = goals[1]; 
 1157              		.loc 1 235 0
 1158 0218 BB6E     		ldr	r3, [r7, #104]
 1159 021a 1846     		mov	r0, r3
 1160 021c FFF7FEFF 		bl	__aeabi_i2d
 1161 0220 0346     		mov	r3, r0
 1162 0222 0C46     		mov	r4, r1
 1163 0224 2D4A     		ldr	r2, .L42+68
 1164 0226 C2E91834 		strd	r3, [r2, #96]
 236:main.c        ****     int goal_counter = 0;
 1165              		.loc 1 236 0
 1166 022a 0023     		movs	r3, #0
 1167 022c C7F8B430 		str	r3, [r7, #180]
 237:main.c        **** 
 238:main.c        ****     // DRIVING WITH TENTACLES
 239:main.c        ****     octopussy->alpha = 1;
 1168              		.loc 1 239 0
 1169 0230 324B     		ldr	r3, .L42+100
 1170 0232 1A68     		ldr	r2, [r3]
 1171 0234 4FF00003 		mov	r3, #0
 1172 0238 314C     		ldr	r4, .L42+104
 1173 023a C2E90434 		strd	r3, [r2, #16]
 240:main.c        ****     octopussy->beta = 0.1;
 1174              		.loc 1 240 0
 1175 023e 2F4B     		ldr	r3, .L42+100
 1176 0240 1A68     		ldr	r2, [r3]
ARM GAS  C:\Users\cyu13\AppData\Local\Temp\cc9UQms6.s 			page 26


 1177 0242 21A4     		adr	r4, .L42+48
 1178 0244 D4E90034 		ldrd	r3, [r4]
 1179 0248 C2E90634 		strd	r3, [r2, #24]
 241:main.c        ****     octopussy->dt = 0.1;
 1180              		.loc 1 241 0
 1181 024c 2B4B     		ldr	r3, .L42+100
 1182 024e 1A68     		ldr	r2, [r3]
 1183 0250 1DA4     		adr	r4, .L42+48
 1184 0252 D4E90034 		ldrd	r3, [r4]
 1185 0256 C2E90034 		strd	r3, [r2]
 242:main.c        ****     octopussy->steps = 5;
 1186              		.loc 1 242 0
 1187 025a 284B     		ldr	r3, .L42+100
 1188 025c 1A68     		ldr	r2, [r3]
 1189 025e 4FF00003 		mov	r3, #0
 1190 0262 284C     		ldr	r4, .L42+108
 1191 0264 C2E90234 		strd	r3, [r2, #8]
 243:main.c        ****     octopussy->ten_count = 8;
 1192              		.loc 1 243 0
 1193 0268 244B     		ldr	r3, .L42+100
 1194 026a 1B68     		ldr	r3, [r3]
 1195 026c 0822     		movs	r2, #8
 1196 026e 1A62     		str	r2, [r3, #32]
 244:main.c        ****     float tensdsd[16] = {0.0, 1.0, 0.0, -1.0, 0.1, 1.0, 0.1, -1.0, 0.1, 0.5, 0.1, -0.5, 0.1, 0.0, 0
 1197              		.loc 1 244 0
 1198 0270 254B     		ldr	r3, .L42+112
 1199 0272 07F12404 		add	r4, r7, #36
 1200 0276 1D46     		mov	r5, r3
 1201 0278 0FCD     		ldmia	r5!, {r0, r1, r2, r3}
 1202 027a 0FC4     		stmia	r4!, {r0, r1, r2, r3}
 1203 027c 0FCD     		ldmia	r5!, {r0, r1, r2, r3}
 1204 027e 0FC4     		stmia	r4!, {r0, r1, r2, r3}
 1205 0280 0FCD     		ldmia	r5!, {r0, r1, r2, r3}
 1206 0282 0FC4     		stmia	r4!, {r0, r1, r2, r3}
 1207 0284 95E80F00 		ldmia	r5, {r0, r1, r2, r3}
 1208 0288 84E80F00 		stmia	r4, {r0, r1, r2, r3}
 1209              	.LBB2:
 245:main.c        ****     for (int i = 0; i < 16; i++) {
 1210              		.loc 1 245 0
 1211 028c 0023     		movs	r3, #0
 1212 028e C7F8B030 		str	r3, [r7, #176]
 1213 0292 56E0     		b	.L27
 1214              	.L43:
 1215 0294 AFF30080 		.align	3
 1216              	.L42:
 1217 0298 A60A4625 		.word	625347238
 1218 029c 7502EE3F 		.word	1072562805
 1219 02a0 54E41071 		.word	1896932436
 1220 02a4 732AC93E 		.word	1053370995
 1221 02a8 7B14AE47 		.word	1202590843
 1222 02ac E17A643F 		.word	1063549665
 1223 02b0 6ABC7493 		.word	-1821066134
 1224 02b4 1804F03F 		.word	1072694296
 1225 02b8 90C2F528 		.word	687194768
 1226 02bc 5C0F3540 		.word	1077219164
 1227 02c0 691D554D 		.word	1297423721
 1228 02c4 1075FF3E 		.word	1056929040
ARM GAS  C:\Users\cyu13\AppData\Local\Temp\cc9UQms6.s 			page 27


 1229 02c8 9A999999 		.word	-1717986918
 1230 02cc 9999B93F 		.word	1069128089
 1231 02d0 00000000 		.word	left_motor
 1232 02d4 00000640 		.word	1074135040
 1233 02d8 00000000 		.word	right_motor
 1234 02dc 00000000 		.word	robot
 1235 02e0 0000E03F 		.word	1071644672
 1236 02e4 00003E40 		.word	1077805056
 1237 02e8 00000000 		.word	sensors
 1238 02ec 00000000 		.word	Timer_Int_Handler
 1239 02f0 00000000 		.word	Pose_Update_Int_Handler
 1240 02f4 00000000 		.word	Motor_PI_Int_Handler
 1241 02f8 3C000000 		.word	.LC0
 1242 02fc 00000000 		.word	octopussy
 1243 0300 0000F03F 		.word	1072693248
 1244 0304 00001440 		.word	1075052544
 1245 0308 4C000000 		.word	.LC1
 1246              	.L28:
 246:main.c        ****         octopussy->ten[i] = tensdsd[i];
 1247              		.loc 1 246 0 discriminator 3
 1248 030c AC4B     		ldr	r3, .L44+8
 1249 030e 1D68     		ldr	r5, [r3]
 1250 0310 D7F8B030 		ldr	r3, [r7, #176]
 1251 0314 9B00     		lsls	r3, r3, #2
 1252 0316 07F1B802 		add	r2, r7, #184
 1253 031a 1344     		add	r3, r3, r2
 1254 031c 53F8943C 		ldr	r3, [r3, #-148]	@ float
 1255 0320 1846     		mov	r0, r3
 1256 0322 FFF7FEFF 		bl	__aeabi_f2d
 1257 0326 0346     		mov	r3, r0
 1258 0328 0C46     		mov	r4, r1
 1259 032a D7F8B020 		ldr	r2, [r7, #176]
 1260 032e 0532     		adds	r2, r2, #5
 1261 0330 D200     		lsls	r2, r2, #3
 1262 0332 2A44     		add	r2, r2, r5
 1263 0334 C2E90034 		strd	r3, [r2]
 245:main.c        ****     for (int i = 0; i < 16; i++) {
 1264              		.loc 1 245 0 discriminator 3
 1265 0338 D7F8B030 		ldr	r3, [r7, #176]
 1266 033c 0133     		adds	r3, r3, #1
 1267 033e C7F8B030 		str	r3, [r7, #176]
 1268              	.L27:
 245:main.c        ****     for (int i = 0; i < 16; i++) {
 1269              		.loc 1 245 0 is_stmt 0 discriminator 1
 1270 0342 D7F8B030 		ldr	r3, [r7, #176]
 1271 0346 0F2B     		cmp	r3, #15
 1272 0348 E0DD     		ble	.L28
 1273              	.L39:
 1274              	.LBE2:
 1275              	.LBB3:
 247:main.c        ****     }
 248:main.c        ****         
 249:main.c        ****     
 250:main.c        ****     for(;;) {  
 251:main.c        ****        
 252:main.c        ****         double dist_to_goal = calculate_distance_from_goal(robot.x, robot.y, robot.goal_x, robot.go
 1276              		.loc 1 252 0 is_stmt 1
ARM GAS  C:\Users\cyu13\AppData\Local\Temp\cc9UQms6.s 			page 28


 1277 034a 9E4B     		ldr	r3, .L44+12
 1278 034c D3E90256 		ldrd	r5, [r3, #8]
 1279 0350 9C4B     		ldr	r3, .L44+12
 1280 0352 D3E90489 		ldrd	r8, [r3, #16]
 1281 0356 9B4B     		ldr	r3, .L44+12
 1282 0358 03F15804 		add	r4, r3, #88
 1283 035c D4E90034 		ldrd	r3, [r4]
 1284 0360 984A     		ldr	r2, .L44+12
 1285 0362 D2E91812 		ldrd	r1, [r2, #96]
 1286 0366 CDE90212 		strd	r1, [sp, #8]
 1287 036a CDE90034 		strd	r3, [sp]
 1288 036e 4246     		mov	r2, r8
 1289 0370 4B46     		mov	r3, r9
 1290 0372 2846     		mov	r0, r5
 1291 0374 3146     		mov	r1, r6
 1292 0376 FFF7FEFF 		bl	calculate_distance_from_goal
 1293 037a C7E92001 		strd	r0, [r7, #128]
 253:main.c        ****         sprintf(serial_output, "Distance to goal: %f\n", dist_to_goal);
 1294              		.loc 1 253 0
 1295 037e D7E92023 		ldrd	r2, [r7, #128]
 1296 0382 9149     		ldr	r1, .L44+16
 1297 0384 9148     		ldr	r0, .L44+20
 1298 0386 FFF7FEFF 		bl	sprintf
 254:main.c        ****         UART_PutString(serial_output);
 1299              		.loc 1 254 0
 1300 038a 9048     		ldr	r0, .L44+20
 1301 038c FFF7FEFF 		bl	UART_PutString
 255:main.c        ****         CyDelay(2000);
 1302              		.loc 1 255 0
 1303 0390 4FF4FA60 		mov	r0, #2000
 1304 0394 FFF7FEFF 		bl	CyDelay
 256:main.c        ****         if( dist_to_goal <= robot.goal_min_dist ) { 
 1305              		.loc 1 256 0
 1306 0398 8A4B     		ldr	r3, .L44+12
 1307 039a D3E91A01 		ldrd	r0, [r3, #104]
 1308 039e D7E92023 		ldrd	r2, [r7, #128]
 1309 03a2 FFF7FEFF 		bl	__aeabi_dcmpge
 1310 03a6 0346     		mov	r3, r0
 1311 03a8 002B     		cmp	r3, #0
 1312 03aa 34D0     		beq	.L41
 257:main.c        ****             robot.desired_V = 0;
 1313              		.loc 1 257 0
 1314 03ac 854A     		ldr	r2, .L44+12
 1315 03ae 4FF00003 		mov	r3, #0
 1316 03b2 4FF00004 		mov	r4, #0
 1317 03b6 C2E90C34 		strd	r3, [r2, #48]
 258:main.c        ****             if (goal_counter < N_GOALS) {
 1318              		.loc 1 258 0
 1319 03ba D7F8B420 		ldr	r2, [r7, #180]
 1320 03be D7F88C30 		ldr	r3, [r7, #140]
 1321 03c2 9A42     		cmp	r2, r3
 1322 03c4 C1DA     		bge	.L39
 259:main.c        ****                 robot.goal_x = goals[goal_counter + 2];
 1323              		.loc 1 259 0
 1324 03c6 D7F8B430 		ldr	r3, [r7, #180]
 1325 03ca 0233     		adds	r3, r3, #2
 1326 03cc 9B00     		lsls	r3, r3, #2
ARM GAS  C:\Users\cyu13\AppData\Local\Temp\cc9UQms6.s 			page 29


 1327 03ce 07F1B802 		add	r2, r7, #184
 1328 03d2 1344     		add	r3, r3, r2
 1329 03d4 53F8543C 		ldr	r3, [r3, #-84]
 1330 03d8 1846     		mov	r0, r3
 1331 03da FFF7FEFF 		bl	__aeabi_i2d
 1332 03de 0346     		mov	r3, r0
 1333 03e0 0C46     		mov	r4, r1
 1334 03e2 784A     		ldr	r2, .L44+12
 1335 03e4 C2E91634 		strd	r3, [r2, #88]
 260:main.c        ****                 robot.goal_y = goals[goal_counter + 2];
 1336              		.loc 1 260 0
 1337 03e8 D7F8B430 		ldr	r3, [r7, #180]
 1338 03ec 0233     		adds	r3, r3, #2
 1339 03ee 9B00     		lsls	r3, r3, #2
 1340 03f0 07F1B802 		add	r2, r7, #184
 1341 03f4 1344     		add	r3, r3, r2
 1342 03f6 53F8543C 		ldr	r3, [r3, #-84]
 1343 03fa 1846     		mov	r0, r3
 1344 03fc FFF7FEFF 		bl	__aeabi_i2d
 1345 0400 0346     		mov	r3, r0
 1346 0402 0C46     		mov	r4, r1
 1347 0404 6F4A     		ldr	r2, .L44+12
 1348 0406 C2E91834 		strd	r3, [r2, #96]
 261:main.c        ****                 goal_counter += 2;
 1349              		.loc 1 261 0
 1350 040a D7F8B430 		ldr	r3, [r7, #180]
 1351 040e 0233     		adds	r3, r3, #2
 1352 0410 C7F8B430 		str	r3, [r7, #180]
 1353 0414 99E7     		b	.L39
 1354              	.L41:
 1355              	.LBB4:
 262:main.c        ****                 
 263:main.c        ****                 // Adjust robot angle to face new goal
 264:main.c        ****                 //robot.desired_theta = calculate_goal_angle(robot.x, robot.y, robot.theta, robot.g
 265:main.c        ****             }
 266:main.c        ****         } else {
 1356              		.loc 1 266 0
 1357 0416 6B46     		mov	r3, sp
 1358 0418 9846     		mov	r8, r3
 267:main.c        ****             // Store cost values
 268:main.c        ****             int cost[octopussy->ten_count];
 1359              		.loc 1 268 0
 1360 041a 694B     		ldr	r3, .L44+8
 1361 041c 1B68     		ldr	r3, [r3]
 1362 041e 1A6A     		ldr	r2, [r3, #32]
 1363 0420 531E     		subs	r3, r2, #1
 1364 0422 FB67     		str	r3, [r7, #124]
 1365 0424 1346     		mov	r3, r2
 1366 0426 4FF00004 		mov	r4, #0
 1367 042a 4FEA441B 		lsl	fp, r4, #5
 1368 042e 4BEAD36B 		orr	fp, fp, r3, lsr #27
 1369 0432 4FEA431A 		lsl	r10, r3, #5
 1370 0436 1346     		mov	r3, r2
 1371 0438 4FF00004 		mov	r4, #0
 1372 043c 6101     		lsls	r1, r4, #5
 1373 043e F961     		str	r1, [r7, #28]
 1374 0440 F969     		ldr	r1, [r7, #28]
ARM GAS  C:\Users\cyu13\AppData\Local\Temp\cc9UQms6.s 			page 30


 1375 0442 41EAD361 		orr	r1, r1, r3, lsr #27
 1376 0446 F961     		str	r1, [r7, #28]
 1377 0448 5B01     		lsls	r3, r3, #5
 1378 044a BB61     		str	r3, [r7, #24]
 1379 044c 1346     		mov	r3, r2
 1380 044e 9B00     		lsls	r3, r3, #2
 1381 0450 0333     		adds	r3, r3, #3
 1382 0452 0733     		adds	r3, r3, #7
 1383 0454 DB08     		lsrs	r3, r3, #3
 1384 0456 DB00     		lsls	r3, r3, #3
 1385 0458 ADEB030D 		sub	sp, sp, r3
 1386 045c 08AB     		add	r3, sp, #32
 1387 045e 0333     		adds	r3, r3, #3
 1388 0460 9B08     		lsrs	r3, r3, #2
 1389 0462 9B00     		lsls	r3, r3, #2
 1390 0464 BB67     		str	r3, [r7, #120]
 269:main.c        **** 
 270:main.c        ****             // Tentacles oooooh lala
 271:main.c        ****             int t_c = 0;
 1391              		.loc 1 271 0
 1392 0466 0023     		movs	r3, #0
 1393 0468 C7F8AC30 		str	r3, [r7, #172]
 272:main.c        ****             int min_combo;
 273:main.c        ****             int min_cost = 1000000;
 1394              		.loc 1 273 0
 1395 046c 584B     		ldr	r3, .L44+24
 1396 046e C7F8A430 		str	r3, [r7, #164]
 1397              	.LBB5:
 274:main.c        **** 
 275:main.c        ****             for (int i = 0; i < octopussy->ten_count; i++) {
 1398              		.loc 1 275 0
 1399 0472 0023     		movs	r3, #0
 1400 0474 C7F8A030 		str	r3, [r7, #160]
 1401 0478 8BE0     		b	.L33
 1402              	.L35:
 276:main.c        ****                 cost[i] = cost_function(octopussy, sensors, octopussy->ten[t_c], octopussy->ten[t_c
 1403              		.loc 1 276 0
 1404 047a 514B     		ldr	r3, .L44+8
 1405 047c 1B68     		ldr	r3, [r3]
 1406 047e 7B61     		str	r3, [r7, #20]
 1407 0480 544B     		ldr	r3, .L44+28
 1408 0482 1A68     		ldr	r2, [r3]
 1409 0484 3A61     		str	r2, [r7, #16]
 1410 0486 4E4B     		ldr	r3, .L44+8
 1411 0488 1A68     		ldr	r2, [r3]
 1412 048a D7F8AC30 		ldr	r3, [r7, #172]
 1413 048e 0533     		adds	r3, r3, #5
 1414 0490 DB00     		lsls	r3, r3, #3
 1415 0492 1344     		add	r3, r3, r2
 1416 0494 18CB     		ldmia	r3, {r3-r4}
 1417 0496 1846     		mov	r0, r3
 1418 0498 2146     		mov	r1, r4
 1419 049a FFF7FEFF 		bl	__aeabi_d2iz
 1420 049e 8146     		mov	r9, r0
 1421 04a0 474B     		ldr	r3, .L44+8
 1422 04a2 1A68     		ldr	r2, [r3]
 1423 04a4 D7F8AC30 		ldr	r3, [r7, #172]
ARM GAS  C:\Users\cyu13\AppData\Local\Temp\cc9UQms6.s 			page 31


 1424 04a8 0133     		adds	r3, r3, #1
 1425 04aa 0533     		adds	r3, r3, #5
 1426 04ac DB00     		lsls	r3, r3, #3
 1427 04ae 1344     		add	r3, r3, r2
 1428 04b0 18CB     		ldmia	r3, {r3-r4}
 1429 04b2 1846     		mov	r0, r3
 1430 04b4 2146     		mov	r1, r4
 1431 04b6 FFF7FEFF 		bl	__aeabi_d2iz
 1432 04ba F860     		str	r0, [r7, #12]
 1433 04bc 414B     		ldr	r3, .L44+12
 1434 04be 03F15804 		add	r4, r3, #88
 1435 04c2 D4E90034 		ldrd	r3, [r4]
 1436 04c6 1846     		mov	r0, r3
 1437 04c8 2146     		mov	r1, r4
 1438 04ca FFF7FEFF 		bl	__aeabi_d2iz
 1439 04ce B860     		str	r0, [r7, #8]
 1440 04d0 3C4B     		ldr	r3, .L44+12
 1441 04d2 03F16004 		add	r4, r3, #96
 1442 04d6 D4E90034 		ldrd	r3, [r4]
 1443 04da 1846     		mov	r0, r3
 1444 04dc 2146     		mov	r1, r4
 1445 04de FFF7FEFF 		bl	__aeabi_d2iz
 1446 04e2 7860     		str	r0, [r7, #4]
 1447 04e4 374B     		ldr	r3, .L44+12
 1448 04e6 03F10804 		add	r4, r3, #8
 1449 04ea D4E90034 		ldrd	r3, [r4]
 1450 04ee 1846     		mov	r0, r3
 1451 04f0 2146     		mov	r1, r4
 1452 04f2 FFF7FEFF 		bl	__aeabi_d2iz
 1453 04f6 0646     		mov	r6, r0
 1454 04f8 324B     		ldr	r3, .L44+12
 1455 04fa 03F11004 		add	r4, r3, #16
 1456 04fe D4E90034 		ldrd	r3, [r4]
 1457 0502 1846     		mov	r0, r3
 1458 0504 2146     		mov	r1, r4
 1459 0506 FFF7FEFF 		bl	__aeabi_d2iz
 1460 050a 0546     		mov	r5, r0
 1461 050c 2D4B     		ldr	r3, .L44+12
 1462 050e 18CB     		ldmia	r3, {r3-r4}
 1463 0510 1846     		mov	r0, r3
 1464 0512 2146     		mov	r1, r4
 1465 0514 FFF7FEFF 		bl	__aeabi_d2iz
 1466 0518 0346     		mov	r3, r0
 1467 051a 0693     		str	r3, [sp, #24]
 1468 051c 0595     		str	r5, [sp, #20]
 1469 051e 0496     		str	r6, [sp, #16]
 1470 0520 25A4     		adr	r4, .L44
 1471 0522 D4E90034 		ldrd	r3, [r4]
 1472 0526 CDE90234 		strd	r3, [sp, #8]
 1473 052a 7C68     		ldr	r4, [r7, #4]
 1474 052c 0194     		str	r4, [sp, #4]
 1475 052e BC68     		ldr	r4, [r7, #8]
 1476 0530 0094     		str	r4, [sp]
 1477 0532 FB68     		ldr	r3, [r7, #12]
 1478 0534 4A46     		mov	r2, r9
 1479 0536 3969     		ldr	r1, [r7, #16]
 1480 0538 7869     		ldr	r0, [r7, #20]
ARM GAS  C:\Users\cyu13\AppData\Local\Temp\cc9UQms6.s 			page 32


 1481 053a FFF7FEFF 		bl	cost_function
 1482 053e 0346     		mov	r3, r0
 1483 0540 0C46     		mov	r4, r1
 1484 0542 1846     		mov	r0, r3
 1485 0544 2146     		mov	r1, r4
 1486 0546 FFF7FEFF 		bl	__aeabi_d2iz
 1487 054a 0146     		mov	r1, r0
 1488 054c BB6F     		ldr	r3, [r7, #120]
 1489 054e D7F8A020 		ldr	r2, [r7, #160]
 1490 0552 43F82210 		str	r1, [r3, r2, lsl #2]
 277:main.c        ****                 if (cost[i] < min_cost) {
 1491              		.loc 1 277 0
 1492 0556 BB6F     		ldr	r3, [r7, #120]
 1493 0558 D7F8A020 		ldr	r2, [r7, #160]
 1494 055c 53F82220 		ldr	r2, [r3, r2, lsl #2]
 1495 0560 D7F8A430 		ldr	r3, [r7, #164]
 1496 0564 9A42     		cmp	r2, r3
 1497 0566 0ADA     		bge	.L34
 278:main.c        ****                     min_cost = cost[i];
 1498              		.loc 1 278 0
 1499 0568 BB6F     		ldr	r3, [r7, #120]
 1500 056a D7F8A020 		ldr	r2, [r7, #160]
 1501 056e 53F82230 		ldr	r3, [r3, r2, lsl #2]
 1502 0572 C7F8A430 		str	r3, [r7, #164]
 279:main.c        ****                     min_combo = t_c;
 1503              		.loc 1 279 0
 1504 0576 D7F8AC30 		ldr	r3, [r7, #172]
 1505 057a C7F8A830 		str	r3, [r7, #168]
 1506              	.L34:
 280:main.c        ****                 }
 281:main.c        ****                 t_c += 2;
 1507              		.loc 1 281 0 discriminator 2
 1508 057e D7F8AC30 		ldr	r3, [r7, #172]
 1509 0582 0233     		adds	r3, r3, #2
 1510 0584 C7F8AC30 		str	r3, [r7, #172]
 275:main.c        ****                 cost[i] = cost_function(octopussy, sensors, octopussy->ten[t_c], octopussy->ten[t_c
 1511              		.loc 1 275 0 discriminator 2
 1512 0588 D7F8A030 		ldr	r3, [r7, #160]
 1513 058c 0133     		adds	r3, r3, #1
 1514 058e C7F8A030 		str	r3, [r7, #160]
 1515              	.L33:
 275:main.c        ****                 cost[i] = cost_function(octopussy, sensors, octopussy->ten[t_c], octopussy->ten[t_c
 1516              		.loc 1 275 0 is_stmt 0 discriminator 1
 1517 0592 0B4B     		ldr	r3, .L44+8
 1518 0594 1B68     		ldr	r3, [r3]
 1519 0596 1A6A     		ldr	r2, [r3, #32]
 1520 0598 D7F8A030 		ldr	r3, [r7, #160]
 1521 059c 9A42     		cmp	r2, r3
 1522 059e 3FF76CAF 		bgt	.L35
 1523              	.LBE5:
 282:main.c        ****             }
 283:main.c        **** 
 284:main.c        ****             // Identify best tentacle SHEEEEEEEEEESH
 285:main.c        ****             double *combo = malloc(2);
 1524              		.loc 1 285 0 is_stmt 1
 1525 05a2 0220     		movs	r0, #2
 1526 05a4 FFF7FEFF 		bl	malloc
ARM GAS  C:\Users\cyu13\AppData\Local\Temp\cc9UQms6.s 			page 33


 1527 05a8 0346     		mov	r3, r0
 1528 05aa 7B67     		str	r3, [r7, #116]
 1529              	.LBB6:
 286:main.c        ****             for (int i = min_combo; i < min_combo + 2; i++) {
 1530              		.loc 1 286 0
 1531 05ac D7F8A830 		ldr	r3, [r7, #168]
 1532 05b0 C7F89C30 		str	r3, [r7, #156]
 1533 05b4 24E0     		b	.L36
 1534              	.L45:
 1535 05b6 00BF     		.align	3
 1536              	.L44:
 1537 05b8 182D4454 		.word	1413754136
 1538 05bc FB210940 		.word	1074340347
 1539 05c0 00000000 		.word	octopussy
 1540 05c4 00000000 		.word	robot
 1541 05c8 10000000 		.word	.LC2
 1542 05cc 00000000 		.word	serial_output
 1543 05d0 40420F00 		.word	1000000
 1544 05d4 00000000 		.word	sensors
 1545              	.L37:
 287:main.c        ****                 combo[i] = octopussy->ten[i];
 1546              		.loc 1 287 0 discriminator 3
 1547 05d8 D7F89C30 		ldr	r3, [r7, #156]
 1548 05dc DB00     		lsls	r3, r3, #3
 1549 05de 7A6F     		ldr	r2, [r7, #116]
 1550 05e0 1A44     		add	r2, r2, r3
 1551 05e2 1F4B     		ldr	r3, .L46
 1552 05e4 1968     		ldr	r1, [r3]
 1553 05e6 D7F89C30 		ldr	r3, [r7, #156]
 1554 05ea 0533     		adds	r3, r3, #5
 1555 05ec DB00     		lsls	r3, r3, #3
 1556 05ee 0B44     		add	r3, r3, r1
 1557 05f0 18CB     		ldmia	r3, {r3-r4}
 1558 05f2 C2E90034 		strd	r3, [r2]
 286:main.c        ****             for (int i = min_combo; i < min_combo + 2; i++) {
 1559              		.loc 1 286 0 discriminator 3
 1560 05f6 D7F89C30 		ldr	r3, [r7, #156]
 1561 05fa 0133     		adds	r3, r3, #1
 1562 05fc C7F89C30 		str	r3, [r7, #156]
 1563              	.L36:
 286:main.c        ****             for (int i = min_combo; i < min_combo + 2; i++) {
 1564              		.loc 1 286 0 is_stmt 0 discriminator 1
 1565 0600 D7F8A830 		ldr	r3, [r7, #168]
 1566 0604 9A1C     		adds	r2, r3, #2
 1567 0606 D7F89C30 		ldr	r3, [r7, #156]
 1568 060a 9A42     		cmp	r2, r3
 1569 060c E4DC     		bgt	.L37
 1570              	.LBE6:
 288:main.c        ****             }
 289:main.c        ****      
 290:main.c        ****             if (combo) {
 1571              		.loc 1 290 0 is_stmt 1
 1572 060e 7B6F     		ldr	r3, [r7, #116]
 1573 0610 002B     		cmp	r3, #0
 1574 0612 22D0     		beq	.L38
 291:main.c        ****                 robot.desired_V = combo[0];
 1575              		.loc 1 291 0
ARM GAS  C:\Users\cyu13\AppData\Local\Temp\cc9UQms6.s 			page 34


 1576 0614 7B6F     		ldr	r3, [r7, #116]
 1577 0616 18CB     		ldmia	r3, {r3-r4}
 1578 0618 124A     		ldr	r2, .L46+4
 1579 061a C2E90C34 		strd	r3, [r2, #48]
 292:main.c        ****                 robot.desired_theta = combo[1];
 1580              		.loc 1 292 0
 1581 061e 7B6F     		ldr	r3, [r7, #116]
 1582 0620 0833     		adds	r3, r3, #8
 1583 0622 18CB     		ldmia	r3, {r3-r4}
 1584 0624 0F4A     		ldr	r2, .L46+4
 1585 0626 C2E90E34 		strd	r3, [r2, #56]
 293:main.c        ****                 sprintf(serial_output, "Tentacles: %f, %f\n", combo[0], combo[1]);
 1586              		.loc 1 293 0
 1587 062a 7B6F     		ldr	r3, [r7, #116]
 1588 062c D3E90012 		ldrd	r1, [r3]
 1589 0630 7B6F     		ldr	r3, [r7, #116]
 1590 0632 0833     		adds	r3, r3, #8
 1591 0634 18CB     		ldmia	r3, {r3-r4}
 1592 0636 CDE90034 		strd	r3, [sp]
 1593 063a 1346     		mov	r3, r2
 1594 063c 0A46     		mov	r2, r1
 1595 063e 0A49     		ldr	r1, .L46+8
 1596 0640 0A48     		ldr	r0, .L46+12
 1597 0642 FFF7FEFF 		bl	sprintf
 294:main.c        ****                 UART_PutString(serial_output);
 1598              		.loc 1 294 0
 1599 0646 0948     		ldr	r0, .L46+12
 1600 0648 FFF7FEFF 		bl	UART_PutString
 295:main.c        ****                 CyDelay(2000);
 1601              		.loc 1 295 0
 1602 064c 4FF4FA60 		mov	r0, #2000
 1603 0650 FFF7FEFF 		bl	CyDelay
 296:main.c        ****                 free(combo);
 1604              		.loc 1 296 0
 1605 0654 786F     		ldr	r0, [r7, #116]
 1606 0656 FFF7FEFF 		bl	free
 1607              	.L38:
 1608 065a C546     		mov	sp, r8
 1609              	.LBE4:
 1610              	.LBE3:
 297:main.c        ****             }
 298:main.c        ****         } 
 299:main.c        ****        
 300:main.c        ****         
 301:main.c        ****     }
 1611              		.loc 1 301 0 discriminator 2
 1612 065c 75E6     		b	.L39
 1613              	.L47:
 1614 065e 00BF     		.align	2
 1615              	.L46:
 1616 0660 00000000 		.word	octopussy
 1617 0664 00000000 		.word	robot
 1618 0668 28000000 		.word	.LC3
 1619 066c 00000000 		.word	serial_output
 1620              		.cfi_endproc
 1621              	.LFE68:
 1622              		.size	main, .-main
ARM GAS  C:\Users\cyu13\AppData\Local\Temp\cc9UQms6.s 			page 35


 1623              		.global	__aeabi_d2uiz
 1624              		.section	.text.Drive_Left_Motor,"ax",%progbits
 1625              		.align	2
 1626              		.global	Drive_Left_Motor
 1627              		.thumb
 1628              		.thumb_func
 1629              		.type	Drive_Left_Motor, %function
 1630              	Drive_Left_Motor:
 1631              	.LFB69:
 302:main.c        ****   
 303:main.c        **** }
 304:main.c        **** 
 305:main.c        **** void Drive_Left_Motor(long double duty_cycle) {
 1632              		.loc 1 305 0
 1633              		.cfi_startproc
 1634              		@ args = 0, pretend = 0, frame = 8
 1635              		@ frame_needed = 1, uses_anonymous_args = 0
 1636 0000 90B5     		push	{r4, r7, lr}
 1637              		.cfi_def_cfa_offset 12
 1638              		.cfi_offset 4, -12
 1639              		.cfi_offset 7, -8
 1640              		.cfi_offset 14, -4
 1641 0002 83B0     		sub	sp, sp, #12
 1642              		.cfi_def_cfa_offset 24
 1643 0004 00AF     		add	r7, sp, #0
 1644              		.cfi_def_cfa_register 7
 1645 0006 C7E90001 		strd	r0, [r7]
 306:main.c        ****     if (duty_cycle < -1) {
 1646              		.loc 1 306 0
 1647 000a 4FF00002 		mov	r2, #0
 1648 000e 304B     		ldr	r3, .L62+8
 1649 0010 D7E90001 		ldrd	r0, [r7]
 1650 0014 FFF7FEFF 		bl	__aeabi_dcmplt
 1651 0018 0346     		mov	r3, r0
 1652 001a 002B     		cmp	r3, #0
 1653 001c 05D0     		beq	.L59
 307:main.c        ****         duty_cycle = -1;
 1654              		.loc 1 307 0
 1655 001e 4FF00003 		mov	r3, #0
 1656 0022 2B4C     		ldr	r4, .L62+8
 1657 0024 C7E90034 		strd	r3, [r7]
 1658 0028 0EE0     		b	.L51
 1659              	.L59:
 308:main.c        ****     } else if (duty_cycle > 1) {
 1660              		.loc 1 308 0
 1661 002a 4FF00002 		mov	r2, #0
 1662 002e 294B     		ldr	r3, .L62+12
 1663 0030 D7E90001 		ldrd	r0, [r7]
 1664 0034 FFF7FEFF 		bl	__aeabi_dcmpgt
 1665 0038 0346     		mov	r3, r0
 1666 003a 002B     		cmp	r3, #0
 1667 003c 04D0     		beq	.L51
 309:main.c        ****         duty_cycle = 1;
 1668              		.loc 1 309 0
 1669 003e 4FF00003 		mov	r3, #0
 1670 0042 244C     		ldr	r4, .L62+12
 1671 0044 C7E90034 		strd	r3, [r7]
ARM GAS  C:\Users\cyu13\AppData\Local\Temp\cc9UQms6.s 			page 36


 1672              	.L51:
 310:main.c        ****     }
 311:main.c        ****     
 312:main.c        ****     if (duty_cycle < 0) {
 1673              		.loc 1 312 0
 1674 0048 4FF00002 		mov	r2, #0
 1675 004c 4FF00003 		mov	r3, #0
 1676 0050 D7E90001 		ldrd	r0, [r7]
 1677 0054 FFF7FEFF 		bl	__aeabi_dcmplt
 1678 0058 0346     		mov	r3, r0
 1679 005a 002B     		cmp	r3, #0
 1680 005c 1BD0     		beq	.L60
 313:main.c        ****         duty_cycle = -duty_cycle;
 1681              		.loc 1 313 0
 1682 005e 3B68     		ldr	r3, [r7]
 1683 0060 3B60     		str	r3, [r7]
 1684 0062 7B68     		ldr	r3, [r7, #4]
 1685 0064 83F00043 		eor	r3, r3, #-2147483648
 1686 0068 7B60     		str	r3, [r7, #4]
 314:main.c        ****         PWM_Motor_L_WriteCompare1(0);
 1687              		.loc 1 314 0
 1688 006a 0020     		movs	r0, #0
 1689 006c FFF7FEFF 		bl	PWM_Motor_L_WriteCompare1
 315:main.c        ****         PWM_Motor_L_WriteCompare2(duty_cycle*10000);
 1690              		.loc 1 315 0
 1691 0070 15A3     		adr	r3, .L62
 1692 0072 D3E90023 		ldrd	r2, [r3]
 1693 0076 D7E90001 		ldrd	r0, [r7]
 1694 007a FFF7FEFF 		bl	__aeabi_dmul
 1695 007e 0346     		mov	r3, r0
 1696 0080 0C46     		mov	r4, r1
 1697 0082 1846     		mov	r0, r3
 1698 0084 2146     		mov	r1, r4
 1699 0086 FFF7FEFF 		bl	__aeabi_d2uiz
 1700 008a 0346     		mov	r3, r0
 1701 008c 9BB2     		uxth	r3, r3
 1702 008e 1846     		mov	r0, r3
 1703 0090 FFF7FEFF 		bl	PWM_Motor_L_WriteCompare2
 316:main.c        ****     } else {
 317:main.c        ****         PWM_Motor_L_WriteCompare1(duty_cycle*10000);
 318:main.c        ****         PWM_Motor_L_WriteCompare2(0);
 319:main.c        ****     }
 320:main.c        **** }
 1704              		.loc 1 320 0
 1705 0094 14E0     		b	.L61
 1706              	.L60:
 317:main.c        ****         PWM_Motor_L_WriteCompare2(0);
 1707              		.loc 1 317 0
 1708 0096 0CA3     		adr	r3, .L62
 1709 0098 D3E90023 		ldrd	r2, [r3]
 1710 009c D7E90001 		ldrd	r0, [r7]
 1711 00a0 FFF7FEFF 		bl	__aeabi_dmul
 1712 00a4 0346     		mov	r3, r0
 1713 00a6 0C46     		mov	r4, r1
 1714 00a8 1846     		mov	r0, r3
 1715 00aa 2146     		mov	r1, r4
 1716 00ac FFF7FEFF 		bl	__aeabi_d2uiz
ARM GAS  C:\Users\cyu13\AppData\Local\Temp\cc9UQms6.s 			page 37


 1717 00b0 0346     		mov	r3, r0
 1718 00b2 9BB2     		uxth	r3, r3
 1719 00b4 1846     		mov	r0, r3
 1720 00b6 FFF7FEFF 		bl	PWM_Motor_L_WriteCompare1
 318:main.c        ****     }
 1721              		.loc 1 318 0
 1722 00ba 0020     		movs	r0, #0
 1723 00bc FFF7FEFF 		bl	PWM_Motor_L_WriteCompare2
 1724              	.L61:
 1725              		.loc 1 320 0
 1726 00c0 00BF     		nop
 1727 00c2 0C37     		adds	r7, r7, #12
 1728              		.cfi_def_cfa_offset 12
 1729 00c4 BD46     		mov	sp, r7
 1730              		.cfi_def_cfa_register 13
 1731              		@ sp needed
 1732 00c6 90BD     		pop	{r4, r7, pc}
 1733              	.L63:
 1734              		.align	3
 1735              	.L62:
 1736 00c8 00000000 		.word	0
 1737 00cc 0088C340 		.word	1086556160
 1738 00d0 0000F0BF 		.word	-1074790400
 1739 00d4 0000F03F 		.word	1072693248
 1740              		.cfi_endproc
 1741              	.LFE69:
 1742              		.size	Drive_Left_Motor, .-Drive_Left_Motor
 1743              		.section	.text.Drive_Right_Motor,"ax",%progbits
 1744              		.align	2
 1745              		.global	Drive_Right_Motor
 1746              		.thumb
 1747              		.thumb_func
 1748              		.type	Drive_Right_Motor, %function
 1749              	Drive_Right_Motor:
 1750              	.LFB70:
 321:main.c        **** 
 322:main.c        **** void Drive_Right_Motor(long double duty_cycle) {
 1751              		.loc 1 322 0
 1752              		.cfi_startproc
 1753              		@ args = 0, pretend = 0, frame = 8
 1754              		@ frame_needed = 1, uses_anonymous_args = 0
 1755 0000 90B5     		push	{r4, r7, lr}
 1756              		.cfi_def_cfa_offset 12
 1757              		.cfi_offset 4, -12
 1758              		.cfi_offset 7, -8
 1759              		.cfi_offset 14, -4
 1760 0002 83B0     		sub	sp, sp, #12
 1761              		.cfi_def_cfa_offset 24
 1762 0004 00AF     		add	r7, sp, #0
 1763              		.cfi_def_cfa_register 7
 1764 0006 C7E90001 		strd	r0, [r7]
 323:main.c        ****     if (duty_cycle < -1) {
 1765              		.loc 1 323 0
 1766 000a 4FF00002 		mov	r2, #0
 1767 000e 304B     		ldr	r3, .L78+8
 1768 0010 D7E90001 		ldrd	r0, [r7]
 1769 0014 FFF7FEFF 		bl	__aeabi_dcmplt
ARM GAS  C:\Users\cyu13\AppData\Local\Temp\cc9UQms6.s 			page 38


 1770 0018 0346     		mov	r3, r0
 1771 001a 002B     		cmp	r3, #0
 1772 001c 05D0     		beq	.L75
 324:main.c        ****         duty_cycle = -1;
 1773              		.loc 1 324 0
 1774 001e 4FF00003 		mov	r3, #0
 1775 0022 2B4C     		ldr	r4, .L78+8
 1776 0024 C7E90034 		strd	r3, [r7]
 1777 0028 0EE0     		b	.L67
 1778              	.L75:
 325:main.c        ****     } else if (duty_cycle > 1) {
 1779              		.loc 1 325 0
 1780 002a 4FF00002 		mov	r2, #0
 1781 002e 294B     		ldr	r3, .L78+12
 1782 0030 D7E90001 		ldrd	r0, [r7]
 1783 0034 FFF7FEFF 		bl	__aeabi_dcmpgt
 1784 0038 0346     		mov	r3, r0
 1785 003a 002B     		cmp	r3, #0
 1786 003c 04D0     		beq	.L67
 326:main.c        ****         duty_cycle = 1;
 1787              		.loc 1 326 0
 1788 003e 4FF00003 		mov	r3, #0
 1789 0042 244C     		ldr	r4, .L78+12
 1790 0044 C7E90034 		strd	r3, [r7]
 1791              	.L67:
 327:main.c        ****     }
 328:main.c        ****     
 329:main.c        ****     if (duty_cycle < 0) {
 1792              		.loc 1 329 0
 1793 0048 4FF00002 		mov	r2, #0
 1794 004c 4FF00003 		mov	r3, #0
 1795 0050 D7E90001 		ldrd	r0, [r7]
 1796 0054 FFF7FEFF 		bl	__aeabi_dcmplt
 1797 0058 0346     		mov	r3, r0
 1798 005a 002B     		cmp	r3, #0
 1799 005c 1BD0     		beq	.L76
 330:main.c        ****         duty_cycle = -duty_cycle;
 1800              		.loc 1 330 0
 1801 005e 3B68     		ldr	r3, [r7]
 1802 0060 3B60     		str	r3, [r7]
 1803 0062 7B68     		ldr	r3, [r7, #4]
 1804 0064 83F00043 		eor	r3, r3, #-2147483648
 1805 0068 7B60     		str	r3, [r7, #4]
 331:main.c        ****         PWM_Motor_R_WriteCompare1(0);
 1806              		.loc 1 331 0
 1807 006a 0020     		movs	r0, #0
 1808 006c FFF7FEFF 		bl	PWM_Motor_R_WriteCompare1
 332:main.c        ****         PWM_Motor_R_WriteCompare2(duty_cycle*5000);
 1809              		.loc 1 332 0
 1810 0070 15A3     		adr	r3, .L78
 1811 0072 D3E90023 		ldrd	r2, [r3]
 1812 0076 D7E90001 		ldrd	r0, [r7]
 1813 007a FFF7FEFF 		bl	__aeabi_dmul
 1814 007e 0346     		mov	r3, r0
 1815 0080 0C46     		mov	r4, r1
 1816 0082 1846     		mov	r0, r3
 1817 0084 2146     		mov	r1, r4
ARM GAS  C:\Users\cyu13\AppData\Local\Temp\cc9UQms6.s 			page 39


 1818 0086 FFF7FEFF 		bl	__aeabi_d2uiz
 1819 008a 0346     		mov	r3, r0
 1820 008c 9BB2     		uxth	r3, r3
 1821 008e 1846     		mov	r0, r3
 1822 0090 FFF7FEFF 		bl	PWM_Motor_R_WriteCompare2
 333:main.c        ****     } else {
 334:main.c        ****         PWM_Motor_R_WriteCompare1(duty_cycle*5000);
 335:main.c        ****         PWM_Motor_R_WriteCompare2(0);
 336:main.c        ****     }
 337:main.c        **** }
 1823              		.loc 1 337 0
 1824 0094 14E0     		b	.L77
 1825              	.L76:
 334:main.c        ****         PWM_Motor_R_WriteCompare2(0);
 1826              		.loc 1 334 0
 1827 0096 0CA3     		adr	r3, .L78
 1828 0098 D3E90023 		ldrd	r2, [r3]
 1829 009c D7E90001 		ldrd	r0, [r7]
 1830 00a0 FFF7FEFF 		bl	__aeabi_dmul
 1831 00a4 0346     		mov	r3, r0
 1832 00a6 0C46     		mov	r4, r1
 1833 00a8 1846     		mov	r0, r3
 1834 00aa 2146     		mov	r1, r4
 1835 00ac FFF7FEFF 		bl	__aeabi_d2uiz
 1836 00b0 0346     		mov	r3, r0
 1837 00b2 9BB2     		uxth	r3, r3
 1838 00b4 1846     		mov	r0, r3
 1839 00b6 FFF7FEFF 		bl	PWM_Motor_R_WriteCompare1
 335:main.c        ****     }
 1840              		.loc 1 335 0
 1841 00ba 0020     		movs	r0, #0
 1842 00bc FFF7FEFF 		bl	PWM_Motor_R_WriteCompare2
 1843              	.L77:
 1844              		.loc 1 337 0
 1845 00c0 00BF     		nop
 1846 00c2 0C37     		adds	r7, r7, #12
 1847              		.cfi_def_cfa_offset 12
 1848 00c4 BD46     		mov	sp, r7
 1849              		.cfi_def_cfa_register 13
 1850              		@ sp needed
 1851 00c6 90BD     		pop	{r4, r7, pc}
 1852              	.L79:
 1853              		.align	3
 1854              	.L78:
 1855 00c8 00000000 		.word	0
 1856 00cc 0088B340 		.word	1085507584
 1857 00d0 0000F0BF 		.word	-1074790400
 1858 00d4 0000F03F 		.word	1072693248
 1859              		.cfi_endproc
 1860              	.LFE70:
 1861              		.size	Drive_Right_Motor, .-Drive_Right_Motor
 1862              		.section	.text.angle_modulo,"ax",%progbits
 1863              		.align	2
 1864              		.global	angle_modulo
 1865              		.thumb
 1866              		.thumb_func
 1867              		.type	angle_modulo, %function
ARM GAS  C:\Users\cyu13\AppData\Local\Temp\cc9UQms6.s 			page 40


 1868              	angle_modulo:
 1869              	.LFB71:
 338:main.c        **** 
 339:main.c        **** long double angle_modulo(long double angle) {
 1870              		.loc 1 339 0
 1871              		.cfi_startproc
 1872              		@ args = 0, pretend = 0, frame = 8
 1873              		@ frame_needed = 1, uses_anonymous_args = 0
 1874 0000 90B5     		push	{r4, r7, lr}
 1875              		.cfi_def_cfa_offset 12
 1876              		.cfi_offset 4, -12
 1877              		.cfi_offset 7, -8
 1878              		.cfi_offset 14, -4
 1879 0002 83B0     		sub	sp, sp, #12
 1880              		.cfi_def_cfa_offset 24
 1881 0004 00AF     		add	r7, sp, #0
 1882              		.cfi_def_cfa_register 7
 1883 0006 C7E90001 		strd	r0, [r7]
 340:main.c        ****     return angle - M_TWOPI * floor(angle / M_TWOPI);  
 1884              		.loc 1 340 0
 1885 000a 11A3     		adr	r3, .L82
 1886 000c D3E90023 		ldrd	r2, [r3]
 1887 0010 D7E90001 		ldrd	r0, [r7]
 1888 0014 FFF7FEFF 		bl	__aeabi_ddiv
 1889 0018 0346     		mov	r3, r0
 1890 001a 0C46     		mov	r4, r1
 1891 001c 1846     		mov	r0, r3
 1892 001e 2146     		mov	r1, r4
 1893 0020 FFF7FEFF 		bl	floor
 1894 0024 0AA3     		adr	r3, .L82
 1895 0026 D3E90023 		ldrd	r2, [r3]
 1896 002a FFF7FEFF 		bl	__aeabi_dmul
 1897 002e 0346     		mov	r3, r0
 1898 0030 0C46     		mov	r4, r1
 1899 0032 1A46     		mov	r2, r3
 1900 0034 2346     		mov	r3, r4
 1901 0036 D7E90001 		ldrd	r0, [r7]
 1902 003a FFF7FEFF 		bl	__aeabi_dsub
 1903 003e 0346     		mov	r3, r0
 1904 0040 0C46     		mov	r4, r1
 341:main.c        **** }
 1905              		.loc 1 341 0
 1906 0042 1846     		mov	r0, r3
 1907 0044 2146     		mov	r1, r4
 1908 0046 0C37     		adds	r7, r7, #12
 1909              		.cfi_def_cfa_offset 12
 1910 0048 BD46     		mov	sp, r7
 1911              		.cfi_def_cfa_register 13
 1912              		@ sp needed
 1913 004a 90BD     		pop	{r4, r7, pc}
 1914              	.L83:
 1915 004c AFF30080 		.align	3
 1916              	.L82:
 1917 0050 182D4454 		.word	1413754136
 1918 0054 FB211940 		.word	1075388923
 1919              		.cfi_endproc
 1920              	.LFE71:
ARM GAS  C:\Users\cyu13\AppData\Local\Temp\cc9UQms6.s 			page 41


 1921              		.size	angle_modulo, .-angle_modulo
 1922              		.text
 1923              	.Letext0:
 1924              		.file 2 "c:\\program files (x86)\\cypress\\psoc creator\\4.4\\psoc creator\\import\\gnu\\arm\\5.4.
 1925              		.file 3 "c:\\program files (x86)\\cypress\\psoc creator\\4.4\\psoc creator\\import\\gnu\\arm\\5.4.
 1926              		.file 4 "Generated_Source\\PSoC5/cytypes.h"
 1927              		.file 5 "..\\Tentacles\\tentacles.h"
 1928              		.file 6 "Generated_Source\\PSoC5/core_cm3.h"
 1929              		.section	.debug_info,"",%progbits
 1930              	.Ldebug_info0:
 1931 0000 6A060000 		.4byte	0x66a
 1932 0004 0400     		.2byte	0x4
 1933 0006 00000000 		.4byte	.Ldebug_abbrev0
 1934 000a 04       		.byte	0x4
 1935 000b 01       		.uleb128 0x1
 1936 000c 98000000 		.4byte	.LASF83
 1937 0010 0C       		.byte	0xc
 1938 0011 54030000 		.4byte	.LASF84
 1939 0015 8B030000 		.4byte	.LASF85
 1940 0019 00000000 		.4byte	.Ldebug_ranges0+0
 1941 001d 00000000 		.4byte	0
 1942 0021 00000000 		.4byte	.Ldebug_line0
 1943 0025 02       		.uleb128 0x2
 1944 0026 01       		.byte	0x1
 1945 0027 06       		.byte	0x6
 1946 0028 78020000 		.4byte	.LASF0
 1947 002c 03       		.uleb128 0x3
 1948 002d 1C020000 		.4byte	.LASF3
 1949 0031 02       		.byte	0x2
 1950 0032 1D       		.byte	0x1d
 1951 0033 37000000 		.4byte	0x37
 1952 0037 02       		.uleb128 0x2
 1953 0038 01       		.byte	0x1
 1954 0039 08       		.byte	0x8
 1955 003a 50020000 		.4byte	.LASF1
 1956 003e 02       		.uleb128 0x2
 1957 003f 02       		.byte	0x2
 1958 0040 05       		.byte	0x5
 1959 0041 51000000 		.4byte	.LASF2
 1960 0045 03       		.uleb128 0x3
 1961 0046 30010000 		.4byte	.LASF4
 1962 004a 02       		.byte	0x2
 1963 004b 2B       		.byte	0x2b
 1964 004c 50000000 		.4byte	0x50
 1965 0050 02       		.uleb128 0x2
 1966 0051 02       		.byte	0x2
 1967 0052 07       		.byte	0x7
 1968 0053 EE020000 		.4byte	.LASF5
 1969 0057 03       		.uleb128 0x3
 1970 0058 F2030000 		.4byte	.LASF6
 1971 005c 02       		.byte	0x2
 1972 005d 3F       		.byte	0x3f
 1973 005e 62000000 		.4byte	0x62
 1974 0062 02       		.uleb128 0x2
 1975 0063 04       		.byte	0x4
 1976 0064 05       		.byte	0x5
 1977 0065 EF010000 		.4byte	.LASF7
ARM GAS  C:\Users\cyu13\AppData\Local\Temp\cc9UQms6.s 			page 42


 1978 0069 02       		.uleb128 0x2
 1979 006a 04       		.byte	0x4
 1980 006b 07       		.byte	0x7
 1981 006c BA020000 		.4byte	.LASF8
 1982 0070 02       		.uleb128 0x2
 1983 0071 08       		.byte	0x8
 1984 0072 05       		.byte	0x5
 1985 0073 BC010000 		.4byte	.LASF9
 1986 0077 02       		.uleb128 0x2
 1987 0078 08       		.byte	0x8
 1988 0079 07       		.byte	0x7
 1989 007a 8C020000 		.4byte	.LASF10
 1990 007e 04       		.uleb128 0x4
 1991 007f 04       		.byte	0x4
 1992 0080 05       		.byte	0x5
 1993 0081 696E7400 		.ascii	"int\000"
 1994 0085 02       		.uleb128 0x2
 1995 0086 04       		.byte	0x4
 1996 0087 07       		.byte	0x7
 1997 0088 A3020000 		.4byte	.LASF11
 1998 008c 03       		.uleb128 0x3
 1999 008d 92010000 		.4byte	.LASF12
 2000 0091 03       		.byte	0x3
 2001 0092 18       		.byte	0x18
 2002 0093 2C000000 		.4byte	0x2c
 2003 0097 03       		.uleb128 0x3
 2004 0098 46030000 		.4byte	.LASF13
 2005 009c 03       		.byte	0x3
 2006 009d 24       		.byte	0x24
 2007 009e 45000000 		.4byte	0x45
 2008 00a2 03       		.uleb128 0x3
 2009 00a3 84020000 		.4byte	.LASF14
 2010 00a7 03       		.byte	0x3
 2011 00a8 2C       		.byte	0x2c
 2012 00a9 57000000 		.4byte	0x57
 2013 00ad 05       		.uleb128 0x5
 2014 00ae 7E030000 		.4byte	.LASF15
 2015 00b2 04       		.byte	0x4
 2016 00b3 ED01     		.2byte	0x1ed
 2017 00b5 62000000 		.4byte	0x62
 2018 00b9 02       		.uleb128 0x2
 2019 00ba 04       		.byte	0x4
 2020 00bb 04       		.byte	0x4
 2021 00bc AB010000 		.4byte	.LASF16
 2022 00c0 02       		.uleb128 0x2
 2023 00c1 08       		.byte	0x8
 2024 00c2 04       		.byte	0x4
 2025 00c3 84030000 		.4byte	.LASF17
 2026 00c7 02       		.uleb128 0x2
 2027 00c8 01       		.byte	0x1
 2028 00c9 08       		.byte	0x8
 2029 00ca 0A030000 		.4byte	.LASF18
 2030 00ce 02       		.uleb128 0x2
 2031 00cf 08       		.byte	0x8
 2032 00d0 04       		.byte	0x4
 2033 00d1 34020000 		.4byte	.LASF19
 2034 00d5 02       		.uleb128 0x2
ARM GAS  C:\Users\cyu13\AppData\Local\Temp\cc9UQms6.s 			page 43


 2035 00d6 04       		.byte	0x4
 2036 00d7 07       		.byte	0x7
 2037 00d8 6E000000 		.4byte	.LASF20
 2038 00dc 06       		.uleb128 0x6
 2039 00dd A8       		.byte	0xa8
 2040 00de 05       		.byte	0x5
 2041 00df 09       		.byte	0x9
 2042 00e0 2C010000 		.4byte	0x12c
 2043 00e4 07       		.uleb128 0x7
 2044 00e5 647400   		.ascii	"dt\000"
 2045 00e8 05       		.byte	0x5
 2046 00e9 0A       		.byte	0xa
 2047 00ea C0000000 		.4byte	0xc0
 2048 00ee 00       		.byte	0
 2049 00ef 08       		.uleb128 0x8
 2050 00f0 E8020000 		.4byte	.LASF21
 2051 00f4 05       		.byte	0x5
 2052 00f5 0B       		.byte	0xb
 2053 00f6 C0000000 		.4byte	0xc0
 2054 00fa 08       		.byte	0x8
 2055 00fb 08       		.uleb128 0x8
 2056 00fc D8030000 		.4byte	.LASF22
 2057 0100 05       		.byte	0x5
 2058 0101 0C       		.byte	0xc
 2059 0102 C0000000 		.4byte	0xc0
 2060 0106 10       		.byte	0x10
 2061 0107 08       		.uleb128 0x8
 2062 0108 4F030000 		.4byte	.LASF23
 2063 010c 05       		.byte	0x5
 2064 010d 0D       		.byte	0xd
 2065 010e C0000000 		.4byte	0xc0
 2066 0112 18       		.byte	0x18
 2067 0113 08       		.uleb128 0x8
 2068 0114 CE030000 		.4byte	.LASF24
 2069 0118 05       		.byte	0x5
 2070 0119 0E       		.byte	0xe
 2071 011a 7E000000 		.4byte	0x7e
 2072 011e 20       		.byte	0x20
 2073 011f 07       		.uleb128 0x7
 2074 0120 74656E00 		.ascii	"ten\000"
 2075 0124 05       		.byte	0x5
 2076 0125 0F       		.byte	0xf
 2077 0126 2C010000 		.4byte	0x12c
 2078 012a 28       		.byte	0x28
 2079 012b 00       		.byte	0
 2080 012c 09       		.uleb128 0x9
 2081 012d C0000000 		.4byte	0xc0
 2082 0131 3C010000 		.4byte	0x13c
 2083 0135 0A       		.uleb128 0xa
 2084 0136 D5000000 		.4byte	0xd5
 2085 013a 0F       		.byte	0xf
 2086 013b 00       		.byte	0
 2087 013c 03       		.uleb128 0x3
 2088 013d 46020000 		.4byte	.LASF25
 2089 0141 05       		.byte	0x5
 2090 0142 11       		.byte	0x11
 2091 0143 DC000000 		.4byte	0xdc
ARM GAS  C:\Users\cyu13\AppData\Local\Temp\cc9UQms6.s 			page 44


 2092 0147 06       		.uleb128 0x6
 2093 0148 28       		.byte	0x28
 2094 0149 01       		.byte	0x1
 2095 014a 14       		.byte	0x14
 2096 014b 68010000 		.4byte	0x168
 2097 014f 08       		.uleb128 0x8
 2098 0150 26010000 		.4byte	.LASF26
 2099 0154 01       		.byte	0x1
 2100 0155 15       		.byte	0x15
 2101 0156 68010000 		.4byte	0x168
 2102 015a 00       		.byte	0
 2103 015b 08       		.uleb128 0x8
 2104 015c 01030000 		.4byte	.LASF27
 2105 0160 01       		.byte	0x1
 2106 0161 16       		.byte	0x16
 2107 0162 68010000 		.4byte	0x168
 2108 0166 14       		.byte	0x14
 2109 0167 00       		.byte	0
 2110 0168 09       		.uleb128 0x9
 2111 0169 7E000000 		.4byte	0x7e
 2112 016d 78010000 		.4byte	0x178
 2113 0171 0A       		.uleb128 0xa
 2114 0172 D5000000 		.4byte	0xd5
 2115 0176 04       		.byte	0x4
 2116 0177 00       		.byte	0
 2117 0178 03       		.uleb128 0x3
 2118 0179 F8010000 		.4byte	.LASF28
 2119 017d 01       		.byte	0x1
 2120 017e 17       		.byte	0x17
 2121 017f 47010000 		.4byte	0x147
 2122 0183 0B       		.uleb128 0xb
 2123 0184 40020000 		.4byte	.LASF35
 2124 0188 48       		.byte	0x48
 2125 0189 01       		.byte	0x1
 2126 018a 1E       		.byte	0x1e
 2127 018b F8010000 		.4byte	0x1f8
 2128 018f 08       		.uleb128 0x8
 2129 0190 E7030000 		.4byte	.LASF29
 2130 0194 01       		.byte	0x1
 2131 0195 1F       		.byte	0x1f
 2132 0196 CE000000 		.4byte	0xce
 2133 019a 00       		.byte	0
 2134 019b 08       		.uleb128 0x8
 2135 019c FC030000 		.4byte	.LASF30
 2136 01a0 01       		.byte	0x1
 2137 01a1 20       		.byte	0x20
 2138 01a2 CE000000 		.4byte	0xce
 2139 01a6 08       		.byte	0x8
 2140 01a7 07       		.uleb128 0x7
 2141 01a8 7700     		.ascii	"w\000"
 2142 01aa 01       		.byte	0x1
 2143 01ab 21       		.byte	0x21
 2144 01ac CE000000 		.4byte	0xce
 2145 01b0 10       		.byte	0x10
 2146 01b1 08       		.uleb128 0x8
 2147 01b2 30040000 		.4byte	.LASF31
 2148 01b6 01       		.byte	0x1
ARM GAS  C:\Users\cyu13\AppData\Local\Temp\cc9UQms6.s 			page 45


 2149 01b7 22       		.byte	0x22
 2150 01b8 CE000000 		.4byte	0xce
 2151 01bc 18       		.byte	0x18
 2152 01bd 08       		.uleb128 0x8
 2153 01be 68020000 		.4byte	.LASF32
 2154 01c2 01       		.byte	0x1
 2155 01c3 23       		.byte	0x23
 2156 01c4 CE000000 		.4byte	0xce
 2157 01c8 20       		.byte	0x20
 2158 01c9 07       		.uleb128 0x7
 2159 01ca 4B6900   		.ascii	"Ki\000"
 2160 01cd 01       		.byte	0x1
 2161 01ce 24       		.byte	0x24
 2162 01cf CE000000 		.4byte	0xce
 2163 01d3 28       		.byte	0x28
 2164 01d4 07       		.uleb128 0x7
 2165 01d5 4B7000   		.ascii	"Kp\000"
 2166 01d8 01       		.byte	0x1
 2167 01d9 25       		.byte	0x25
 2168 01da CE000000 		.4byte	0xce
 2169 01de 30       		.byte	0x30
 2170 01df 08       		.uleb128 0x8
 2171 01e0 E2010000 		.4byte	.LASF33
 2172 01e4 01       		.byte	0x1
 2173 01e5 26       		.byte	0x26
 2174 01e6 CE000000 		.4byte	0xce
 2175 01ea 38       		.byte	0x38
 2176 01eb 08       		.uleb128 0x8
 2177 01ec 20040000 		.4byte	.LASF34
 2178 01f0 01       		.byte	0x1
 2179 01f1 27       		.byte	0x27
 2180 01f2 AD000000 		.4byte	0xad
 2181 01f6 40       		.byte	0x40
 2182 01f7 00       		.byte	0
 2183 01f8 0B       		.uleb128 0xb
 2184 01f9 92000000 		.4byte	.LASF36
 2185 01fd 70       		.byte	0x70
 2186 01fe 01       		.byte	0x1
 2187 01ff 2A       		.byte	0x2a
 2188 0200 A3020000 		.4byte	0x2a3
 2189 0204 08       		.uleb128 0x8
 2190 0205 06040000 		.4byte	.LASF37
 2191 0209 01       		.byte	0x1
 2192 020a 2B       		.byte	0x2b
 2193 020b CE000000 		.4byte	0xce
 2194 020f 00       		.byte	0
 2195 0210 07       		.uleb128 0x7
 2196 0211 7800     		.ascii	"x\000"
 2197 0213 01       		.byte	0x1
 2198 0214 2C       		.byte	0x2c
 2199 0215 CE000000 		.4byte	0xce
 2200 0219 08       		.byte	0x8
 2201 021a 07       		.uleb128 0x7
 2202 021b 7900     		.ascii	"y\000"
 2203 021d 01       		.byte	0x1
 2204 021e 2D       		.byte	0x2d
 2205 021f CE000000 		.4byte	0xce
ARM GAS  C:\Users\cyu13\AppData\Local\Temp\cc9UQms6.s 			page 46


 2206 0223 10       		.byte	0x10
 2207 0224 08       		.uleb128 0x8
 2208 0225 11000000 		.4byte	.LASF38
 2209 0229 01       		.byte	0x1
 2210 022a 2E       		.byte	0x2e
 2211 022b CE000000 		.4byte	0xce
 2212 022f 18       		.byte	0x18
 2213 0230 07       		.uleb128 0x7
 2214 0231 5600     		.ascii	"V\000"
 2215 0233 01       		.byte	0x1
 2216 0234 30       		.byte	0x30
 2217 0235 CE000000 		.4byte	0xce
 2218 0239 20       		.byte	0x20
 2219 023a 07       		.uleb128 0x7
 2220 023b 7700     		.ascii	"w\000"
 2221 023d 01       		.byte	0x1
 2222 023e 31       		.byte	0x31
 2223 023f CE000000 		.4byte	0xce
 2224 0243 28       		.byte	0x28
 2225 0244 08       		.uleb128 0x8
 2226 0245 04020000 		.4byte	.LASF39
 2227 0249 01       		.byte	0x1
 2228 024a 33       		.byte	0x33
 2229 024b CE000000 		.4byte	0xce
 2230 024f 30       		.byte	0x30
 2231 0250 08       		.uleb128 0x8
 2232 0251 29000000 		.4byte	.LASF40
 2233 0255 01       		.byte	0x1
 2234 0256 34       		.byte	0x34
 2235 0257 CE000000 		.4byte	0xce
 2236 025b 38       		.byte	0x38
 2237 025c 07       		.uleb128 0x7
 2238 025d 4B6900   		.ascii	"Ki\000"
 2239 0260 01       		.byte	0x1
 2240 0261 36       		.byte	0x36
 2241 0262 CE000000 		.4byte	0xce
 2242 0266 40       		.byte	0x40
 2243 0267 07       		.uleb128 0x7
 2244 0268 4B7000   		.ascii	"Kp\000"
 2245 026b 01       		.byte	0x1
 2246 026c 37       		.byte	0x37
 2247 026d CE000000 		.4byte	0xce
 2248 0271 48       		.byte	0x48
 2249 0272 08       		.uleb128 0x8
 2250 0273 FC030000 		.4byte	.LASF30
 2251 0277 01       		.byte	0x1
 2252 0278 38       		.byte	0x38
 2253 0279 CE000000 		.4byte	0xce
 2254 027d 50       		.byte	0x50
 2255 027e 08       		.uleb128 0x8
 2256 027f 9A010000 		.4byte	.LASF41
 2257 0283 01       		.byte	0x1
 2258 0284 3A       		.byte	0x3a
 2259 0285 CE000000 		.4byte	0xce
 2260 0289 58       		.byte	0x58
 2261 028a 08       		.uleb128 0x8
 2262 028b 1C000000 		.4byte	.LASF42
ARM GAS  C:\Users\cyu13\AppData\Local\Temp\cc9UQms6.s 			page 47


 2263 028f 01       		.byte	0x1
 2264 0290 3B       		.byte	0x3b
 2265 0291 CE000000 		.4byte	0xce
 2266 0295 60       		.byte	0x60
 2267 0296 08       		.uleb128 0x8
 2268 0297 0C040000 		.4byte	.LASF43
 2269 029b 01       		.byte	0x1
 2270 029c 3C       		.byte	0x3c
 2271 029d CE000000 		.4byte	0xce
 2272 02a1 68       		.byte	0x68
 2273 02a2 00       		.byte	0
 2274 02a3 0C       		.uleb128 0xc
 2275 02a4 BC030000 		.4byte	.LASF86
 2276 02a8 01       		.byte	0x1
 2277 02a9 58       		.byte	0x58
 2278 02aa 00000000 		.4byte	.LFB64
 2279 02ae 64000000 		.4byte	.LFE64-.LFB64
 2280 02b2 01       		.uleb128 0x1
 2281 02b3 9C       		.byte	0x9c
 2282 02b4 0D       		.uleb128 0xd
 2283 02b5 CA010000 		.4byte	.LASF48
 2284 02b9 01       		.byte	0x1
 2285 02ba 66       		.byte	0x66
 2286 02bb 00000000 		.4byte	.LFB65
 2287 02bf 5C040000 		.4byte	.LFE65-.LFB65
 2288 02c3 01       		.uleb128 0x1
 2289 02c4 9C       		.byte	0x9c
 2290 02c5 11030000 		.4byte	0x311
 2291 02c9 0E       		.uleb128 0xe
 2292 02ca 6E657700 		.ascii	"new\000"
 2293 02ce 01       		.byte	0x1
 2294 02cf 67       		.byte	0x67
 2295 02d0 AD000000 		.4byte	0xad
 2296 02d4 02       		.uleb128 0x2
 2297 02d5 91       		.byte	0x91
 2298 02d6 4C       		.sleb128 -52
 2299 02d7 0F       		.uleb128 0xf
 2300 02d8 4C000000 		.4byte	.LASF44
 2301 02dc 01       		.byte	0x1
 2302 02dd 68       		.byte	0x68
 2303 02de AD000000 		.4byte	0xad
 2304 02e2 02       		.uleb128 0x2
 2305 02e3 91       		.byte	0x91
 2306 02e4 48       		.sleb128 -56
 2307 02e5 0F       		.uleb128 0xf
 2308 02e6 2A040000 		.4byte	.LASF45
 2309 02ea 01       		.byte	0x1
 2310 02eb 82       		.byte	0x82
 2311 02ec CE000000 		.4byte	0xce
 2312 02f0 02       		.uleb128 0x2
 2313 02f1 91       		.byte	0x91
 2314 02f2 50       		.sleb128 -48
 2315 02f3 0F       		.uleb128 0xf
 2316 02f4 DE030000 		.4byte	.LASF46
 2317 02f8 01       		.byte	0x1
 2318 02f9 8A       		.byte	0x8a
 2319 02fa C0000000 		.4byte	0xc0
ARM GAS  C:\Users\cyu13\AppData\Local\Temp\cc9UQms6.s 			page 48


 2320 02fe 02       		.uleb128 0x2
 2321 02ff 91       		.byte	0x91
 2322 0300 40       		.sleb128 -64
 2323 0301 0F       		.uleb128 0xf
 2324 0302 B0020000 		.4byte	.LASF47
 2325 0306 01       		.byte	0x1
 2326 0307 8D       		.byte	0x8d
 2327 0308 CE000000 		.4byte	0xce
 2328 030c 03       		.uleb128 0x3
 2329 030d 91       		.byte	0x91
 2330 030e B87F     		.sleb128 -72
 2331 0310 00       		.byte	0
 2332 0311 0D       		.uleb128 0xd
 2333 0312 3B010000 		.4byte	.LASF49
 2334 0316 01       		.byte	0x1
 2335 0317 93       		.byte	0x93
 2336 0318 00000000 		.4byte	.LFB66
 2337 031c 54010000 		.4byte	.LFE66-.LFB66
 2338 0320 01       		.uleb128 0x1
 2339 0321 9C       		.byte	0x9c
 2340 0322 35030000 		.4byte	0x335
 2341 0326 0F       		.uleb128 0xf
 2342 0327 2A040000 		.4byte	.LASF45
 2343 032b 01       		.byte	0x1
 2344 032c 94       		.byte	0x94
 2345 032d CE000000 		.4byte	0xce
 2346 0331 02       		.uleb128 0x2
 2347 0332 91       		.byte	0x91
 2348 0333 60       		.sleb128 -32
 2349 0334 00       		.byte	0
 2350 0335 0D       		.uleb128 0xd
 2351 0336 2A030000 		.4byte	.LASF50
 2352 033a 01       		.byte	0x1
 2353 033b 9F       		.byte	0x9f
 2354 033c 00000000 		.4byte	.LFB67
 2355 0340 74000000 		.4byte	.LFE67-.LFB67
 2356 0344 01       		.uleb128 0x1
 2357 0345 9C       		.byte	0x9c
 2358 0346 59030000 		.4byte	0x359
 2359 034a 0F       		.uleb128 0xf
 2360 034b 1A040000 		.4byte	.LASF51
 2361 034f 01       		.byte	0x1
 2362 0350 A0       		.byte	0xa0
 2363 0351 CE000000 		.4byte	0xce
 2364 0355 02       		.uleb128 0x2
 2365 0356 91       		.byte	0x91
 2366 0357 68       		.sleb128 -24
 2367 0358 00       		.byte	0
 2368 0359 10       		.uleb128 0x10
 2369 035a 25030000 		.4byte	.LASF64
 2370 035e 01       		.byte	0x1
 2371 035f AB       		.byte	0xab
 2372 0360 7E000000 		.4byte	0x7e
 2373 0364 00000000 		.4byte	.LFB68
 2374 0368 70060000 		.4byte	.LFE68-.LFB68
 2375 036c 01       		.uleb128 0x1
 2376 036d 9C       		.byte	0x9c
ARM GAS  C:\Users\cyu13\AppData\Local\Temp\cc9UQms6.s 			page 49


 2377 036e 7B040000 		.4byte	0x47b
 2378 0372 0F       		.uleb128 0xf
 2379 0373 56040000 		.4byte	.LASF52
 2380 0377 01       		.byte	0x1
 2381 0378 AD       		.byte	0xad
 2382 0379 CE000000 		.4byte	0xce
 2383 037d 03       		.uleb128 0x3
 2384 037e 91       		.byte	0x91
 2385 037f B07F     		.sleb128 -80
 2386 0381 0F       		.uleb128 0xf
 2387 0382 1D030000 		.4byte	.LASF53
 2388 0386 01       		.byte	0x1
 2389 0387 E8       		.byte	0xe8
 2390 0388 7E000000 		.4byte	0x7e
 2391 038c 03       		.uleb128 0x3
 2392 038d 91       		.byte	0x91
 2393 038e AC7F     		.sleb128 -84
 2394 0390 0F       		.uleb128 0xf
 2395 0391 64040000 		.4byte	.LASF54
 2396 0395 01       		.byte	0x1
 2397 0396 E9       		.byte	0xe9
 2398 0397 7B040000 		.4byte	0x47b
 2399 039b 03       		.uleb128 0x3
 2400 039c 91       		.byte	0x91
 2401 039d 847F     		.sleb128 -124
 2402 039f 0F       		.uleb128 0xf
 2403 03a0 37000000 		.4byte	.LASF55
 2404 03a4 01       		.byte	0x1
 2405 03a5 EC       		.byte	0xec
 2406 03a6 7E000000 		.4byte	0x7e
 2407 03aa 02       		.uleb128 0x2
 2408 03ab 91       		.byte	0x91
 2409 03ac 54       		.sleb128 -44
 2410 03ad 0F       		.uleb128 0xf
 2411 03ae 44000000 		.4byte	.LASF56
 2412 03b2 01       		.byte	0x1
 2413 03b3 F4       		.byte	0xf4
 2414 03b4 8B040000 		.4byte	0x48b
 2415 03b8 03       		.uleb128 0x3
 2416 03b9 91       		.byte	0x91
 2417 03ba C47E     		.sleb128 -188
 2418 03bc 11       		.uleb128 0x11
 2419 03bd 8C020000 		.4byte	.LBB2
 2420 03c1 BE000000 		.4byte	.LBE2-.LBB2
 2421 03c5 D6030000 		.4byte	0x3d6
 2422 03c9 0E       		.uleb128 0xe
 2423 03ca 6900     		.ascii	"i\000"
 2424 03cc 01       		.byte	0x1
 2425 03cd F5       		.byte	0xf5
 2426 03ce 7E000000 		.4byte	0x7e
 2427 03d2 02       		.uleb128 0x2
 2428 03d3 91       		.byte	0x91
 2429 03d4 50       		.sleb128 -48
 2430 03d5 00       		.byte	0
 2431 03d6 12       		.uleb128 0x12
 2432 03d7 4A030000 		.4byte	.LBB3
 2433 03db 12030000 		.4byte	.LBE3-.LBB3
ARM GAS  C:\Users\cyu13\AppData\Local\Temp\cc9UQms6.s 			page 50


 2434 03df 0F       		.uleb128 0xf
 2435 03e0 85010000 		.4byte	.LASF57
 2436 03e4 01       		.byte	0x1
 2437 03e5 FC       		.byte	0xfc
 2438 03e6 C0000000 		.4byte	0xc0
 2439 03ea 03       		.uleb128 0x3
 2440 03eb 91       		.byte	0x91
 2441 03ec A07F     		.sleb128 -96
 2442 03ee 12       		.uleb128 0x12
 2443 03ef 16040000 		.4byte	.LBB4
 2444 03f3 46020000 		.4byte	.LBE4-.LBB4
 2445 03f7 13       		.uleb128 0x13
 2446 03f8 26020000 		.4byte	.LASF58
 2447 03fc 01       		.byte	0x1
 2448 03fd 0C01     		.2byte	0x10c
 2449 03ff 9B040000 		.4byte	0x49b
 2450 0403 04       		.uleb128 0x4
 2451 0404 91       		.byte	0x91
 2452 0405 987F     		.sleb128 -104
 2453 0407 06       		.byte	0x6
 2454 0408 14       		.uleb128 0x14
 2455 0409 745F6300 		.ascii	"t_c\000"
 2456 040d 01       		.byte	0x1
 2457 040e 0F01     		.2byte	0x10f
 2458 0410 7E000000 		.4byte	0x7e
 2459 0414 02       		.uleb128 0x2
 2460 0415 91       		.byte	0x91
 2461 0416 4C       		.sleb128 -52
 2462 0417 13       		.uleb128 0x13
 2463 0418 80000000 		.4byte	.LASF59
 2464 041c 01       		.byte	0x1
 2465 041d 1001     		.2byte	0x110
 2466 041f 7E000000 		.4byte	0x7e
 2467 0423 02       		.uleb128 0x2
 2468 0424 91       		.byte	0x91
 2469 0425 48       		.sleb128 -56
 2470 0426 13       		.uleb128 0x13
 2471 0427 77000000 		.4byte	.LASF60
 2472 042b 01       		.byte	0x1
 2473 042c 1101     		.2byte	0x111
 2474 042e 7E000000 		.4byte	0x7e
 2475 0432 02       		.uleb128 0x2
 2476 0433 91       		.byte	0x91
 2477 0434 44       		.sleb128 -60
 2478 0435 13       		.uleb128 0x13
 2479 0436 72020000 		.4byte	.LASF61
 2480 043a 01       		.byte	0x1
 2481 043b 1D01     		.2byte	0x11d
 2482 043d AF040000 		.4byte	0x4af
 2483 0441 03       		.uleb128 0x3
 2484 0442 91       		.byte	0x91
 2485 0443 947F     		.sleb128 -108
 2486 0445 11       		.uleb128 0x11
 2487 0446 72040000 		.4byte	.LBB5
 2488 044a 30010000 		.4byte	.LBE5-.LBB5
 2489 044e 60040000 		.4byte	0x460
 2490 0452 14       		.uleb128 0x14
ARM GAS  C:\Users\cyu13\AppData\Local\Temp\cc9UQms6.s 			page 51


 2491 0453 6900     		.ascii	"i\000"
 2492 0455 01       		.byte	0x1
 2493 0456 1301     		.2byte	0x113
 2494 0458 7E000000 		.4byte	0x7e
 2495 045c 02       		.uleb128 0x2
 2496 045d 91       		.byte	0x91
 2497 045e 40       		.sleb128 -64
 2498 045f 00       		.byte	0
 2499 0460 12       		.uleb128 0x12
 2500 0461 AC050000 		.4byte	.LBB6
 2501 0465 62000000 		.4byte	.LBE6-.LBB6
 2502 0469 14       		.uleb128 0x14
 2503 046a 6900     		.ascii	"i\000"
 2504 046c 01       		.byte	0x1
 2505 046d 1E01     		.2byte	0x11e
 2506 046f 7E000000 		.4byte	0x7e
 2507 0473 03       		.uleb128 0x3
 2508 0474 91       		.byte	0x91
 2509 0475 BC7F     		.sleb128 -68
 2510 0477 00       		.byte	0
 2511 0478 00       		.byte	0
 2512 0479 00       		.byte	0
 2513 047a 00       		.byte	0
 2514 047b 09       		.uleb128 0x9
 2515 047c 7E000000 		.4byte	0x7e
 2516 0480 8B040000 		.4byte	0x48b
 2517 0484 0A       		.uleb128 0xa
 2518 0485 D5000000 		.4byte	0xd5
 2519 0489 03       		.byte	0x3
 2520 048a 00       		.byte	0
 2521 048b 09       		.uleb128 0x9
 2522 048c B9000000 		.4byte	0xb9
 2523 0490 9B040000 		.4byte	0x49b
 2524 0494 0A       		.uleb128 0xa
 2525 0495 D5000000 		.4byte	0xd5
 2526 0499 0F       		.byte	0xf
 2527 049a 00       		.byte	0
 2528 049b 09       		.uleb128 0x9
 2529 049c 7E000000 		.4byte	0x7e
 2530 04a0 AF040000 		.4byte	0x4af
 2531 04a4 15       		.uleb128 0x15
 2532 04a5 D5000000 		.4byte	0xd5
 2533 04a9 04       		.uleb128 0x4
 2534 04aa 91       		.byte	0x91
 2535 04ab 9C7F     		.sleb128 -100
 2536 04ad 06       		.byte	0x6
 2537 04ae 00       		.byte	0
 2538 04af 16       		.uleb128 0x16
 2539 04b0 04       		.byte	0x4
 2540 04b1 C0000000 		.4byte	0xc0
 2541 04b5 17       		.uleb128 0x17
 2542 04b6 50010000 		.4byte	.LASF62
 2543 04ba 01       		.byte	0x1
 2544 04bb 3101     		.2byte	0x131
 2545 04bd 00000000 		.4byte	.LFB69
 2546 04c1 D8000000 		.4byte	.LFE69-.LFB69
 2547 04c5 01       		.uleb128 0x1
ARM GAS  C:\Users\cyu13\AppData\Local\Temp\cc9UQms6.s 			page 52


 2548 04c6 9C       		.byte	0x9c
 2549 04c7 DB040000 		.4byte	0x4db
 2550 04cb 18       		.uleb128 0x18
 2551 04cc E7030000 		.4byte	.LASF29
 2552 04d0 01       		.byte	0x1
 2553 04d1 3101     		.2byte	0x131
 2554 04d3 CE000000 		.4byte	0xce
 2555 04d7 02       		.uleb128 0x2
 2556 04d8 91       		.byte	0x91
 2557 04d9 68       		.sleb128 -24
 2558 04da 00       		.byte	0
 2559 04db 17       		.uleb128 0x17
 2560 04dc D6020000 		.4byte	.LASF63
 2561 04e0 01       		.byte	0x1
 2562 04e1 4201     		.2byte	0x142
 2563 04e3 00000000 		.4byte	.LFB70
 2564 04e7 D8000000 		.4byte	.LFE70-.LFB70
 2565 04eb 01       		.uleb128 0x1
 2566 04ec 9C       		.byte	0x9c
 2567 04ed 01050000 		.4byte	0x501
 2568 04f1 18       		.uleb128 0x18
 2569 04f2 E7030000 		.4byte	.LASF29
 2570 04f6 01       		.byte	0x1
 2571 04f7 4201     		.2byte	0x142
 2572 04f9 CE000000 		.4byte	0xce
 2573 04fd 02       		.uleb128 0x2
 2574 04fe 91       		.byte	0x91
 2575 04ff 68       		.sleb128 -24
 2576 0500 00       		.byte	0
 2577 0501 19       		.uleb128 0x19
 2578 0502 6D010000 		.4byte	.LASF65
 2579 0506 01       		.byte	0x1
 2580 0507 5301     		.2byte	0x153
 2581 0509 CE000000 		.4byte	0xce
 2582 050d 00000000 		.4byte	.LFB71
 2583 0511 58000000 		.4byte	.LFE71-.LFB71
 2584 0515 01       		.uleb128 0x1
 2585 0516 9C       		.byte	0x9c
 2586 0517 2B050000 		.4byte	0x52b
 2587 051b 18       		.uleb128 0x18
 2588 051c 1A040000 		.4byte	.LASF51
 2589 0520 01       		.byte	0x1
 2590 0521 5301     		.2byte	0x153
 2591 0523 CE000000 		.4byte	0xce
 2592 0527 02       		.uleb128 0x2
 2593 0528 91       		.byte	0x91
 2594 0529 68       		.sleb128 -24
 2595 052a 00       		.byte	0
 2596 052b 1A       		.uleb128 0x1a
 2597 052c 3A040000 		.4byte	.LASF66
 2598 0530 06       		.byte	0x6
 2599 0531 1207     		.2byte	0x712
 2600 0533 37050000 		.4byte	0x537
 2601 0537 1B       		.uleb128 0x1b
 2602 0538 A2000000 		.4byte	0xa2
 2603 053c 1C       		.uleb128 0x1c
 2604 053d 47040000 		.4byte	.LASF67
ARM GAS  C:\Users\cyu13\AppData\Local\Temp\cc9UQms6.s 			page 53


 2605 0541 01       		.byte	0x1
 2606 0542 3F       		.byte	0x3f
 2607 0543 4D050000 		.4byte	0x54d
 2608 0547 05       		.uleb128 0x5
 2609 0548 03       		.byte	0x3
 2610 0549 00000000 		.4byte	PULSES_PER_REV
 2611 054d 1D       		.uleb128 0x1d
 2612 054e CE000000 		.4byte	0xce
 2613 0552 1C       		.uleb128 0x1c
 2614 0553 5B000000 		.4byte	.LASF68
 2615 0557 01       		.byte	0x1
 2616 0558 40       		.byte	0x40
 2617 0559 4D050000 		.4byte	0x54d
 2618 055d 05       		.uleb128 0x5
 2619 055e 03       		.byte	0x3
 2620 055f 00000000 		.4byte	POSE_UPDATE_PERIOD
 2621 0563 1C       		.uleb128 0x1c
 2622 0564 5E020000 		.4byte	.LASF69
 2623 0568 01       		.byte	0x1
 2624 0569 46       		.byte	0x46
 2625 056a 8C000000 		.4byte	0x8c
 2626 056e 05       		.uleb128 0x5
 2627 056f 03       		.byte	0x3
 2628 0570 00000000 		.4byte	echo_flag
 2629 0574 1C       		.uleb128 0x1c
 2630 0575 CC020000 		.4byte	.LASF70
 2631 0579 01       		.byte	0x1
 2632 057a 47       		.byte	0x47
 2633 057b 97000000 		.4byte	0x97
 2634 057f 05       		.uleb128 0x5
 2635 0580 03       		.byte	0x3
 2636 0581 00000000 		.4byte	max_count
 2637 0585 1C       		.uleb128 0x1c
 2638 0586 0E020000 		.4byte	.LASF71
 2639 058a 01       		.byte	0x1
 2640 058b 48       		.byte	0x48
 2641 058c 97000000 		.4byte	0x97
 2642 0590 05       		.uleb128 0x5
 2643 0591 03       		.byte	0x3
 2644 0592 00000000 		.4byte	echo_distance
 2645 0596 1C       		.uleb128 0x1c
 2646 0597 B1010000 		.4byte	.LASF72
 2647 059b 01       		.byte	0x1
 2648 059c 49       		.byte	0x49
 2649 059d 8C000000 		.4byte	0x8c
 2650 05a1 05       		.uleb128 0x5
 2651 05a2 03       		.byte	0x3
 2652 05a3 00000000 		.4byte	mux_select
 2653 05a7 1C       		.uleb128 0x1c
 2654 05a8 6D030000 		.4byte	.LASF73
 2655 05ac 01       		.byte	0x1
 2656 05ad 4A       		.byte	0x4a
 2657 05ae AD000000 		.4byte	0xad
 2658 05b2 05       		.uleb128 0x5
 2659 05b3 03       		.byte	0x3
 2660 05b4 00000000 		.4byte	left_wheel_count
 2661 05b8 1C       		.uleb128 0x1c
ARM GAS  C:\Users\cyu13\AppData\Local\Temp\cc9UQms6.s 			page 54


 2662 05b9 5B030000 		.4byte	.LASF74
 2663 05bd 01       		.byte	0x1
 2664 05be 4B       		.byte	0x4b
 2665 05bf AD000000 		.4byte	0xad
 2666 05c3 05       		.uleb128 0x5
 2667 05c4 03       		.byte	0x3
 2668 05c5 00000000 		.4byte	right_wheel_count
 2669 05c9 09       		.uleb128 0x9
 2670 05ca C7000000 		.4byte	0xc7
 2671 05ce D9050000 		.4byte	0x5d9
 2672 05d2 0A       		.uleb128 0xa
 2673 05d3 D5000000 		.4byte	0xd5
 2674 05d7 95       		.byte	0x95
 2675 05d8 00       		.byte	0
 2676 05d9 1C       		.uleb128 0x1c
 2677 05da 0F030000 		.4byte	.LASF75
 2678 05de 01       		.byte	0x1
 2679 05df 4C       		.byte	0x4c
 2680 05e0 C9050000 		.4byte	0x5c9
 2681 05e4 05       		.uleb128 0x5
 2682 05e5 03       		.byte	0x3
 2683 05e6 00000000 		.4byte	serial_output
 2684 05ea 1C       		.uleb128 0x1c
 2685 05eb 2B020000 		.4byte	.LASF76
 2686 05ef 01       		.byte	0x1
 2687 05f0 4D       		.byte	0x4d
 2688 05f1 7E000000 		.4byte	0x7e
 2689 05f5 05       		.uleb128 0x5
 2690 05f6 03       		.byte	0x3
 2691 05f7 00000000 		.4byte	deviated
 2692 05fb 1C       		.uleb128 0x1c
 2693 05fc 00000000 		.4byte	.LASF77
 2694 0600 01       		.byte	0x1
 2695 0601 4E       		.byte	0x4e
 2696 0602 7E000000 		.4byte	0x7e
 2697 0606 05       		.uleb128 0x5
 2698 0607 03       		.byte	0x3
 2699 0608 00000000 		.4byte	goal_one_reached
 2700 060c 1C       		.uleb128 0x1c
 2701 060d 7A010000 		.4byte	.LASF78
 2702 0611 01       		.byte	0x1
 2703 0612 50       		.byte	0x50
 2704 0613 83010000 		.4byte	0x183
 2705 0617 05       		.uleb128 0x5
 2706 0618 03       		.byte	0x3
 2707 0619 00000000 		.4byte	left_motor
 2708 061d 1C       		.uleb128 0x1c
 2709 061e 61010000 		.4byte	.LASF79
 2710 0622 01       		.byte	0x1
 2711 0623 51       		.byte	0x51
 2712 0624 83010000 		.4byte	0x183
 2713 0628 05       		.uleb128 0x5
 2714 0629 03       		.byte	0x3
 2715 062a 00000000 		.4byte	right_motor
 2716 062e 1C       		.uleb128 0x1c
 2717 062f 23000000 		.4byte	.LASF80
 2718 0633 01       		.byte	0x1
ARM GAS  C:\Users\cyu13\AppData\Local\Temp\cc9UQms6.s 			page 55


 2719 0634 52       		.byte	0x52
 2720 0635 F8010000 		.4byte	0x1f8
 2721 0639 05       		.uleb128 0x5
 2722 063a 03       		.byte	0x3
 2723 063b 00000000 		.4byte	robot
 2724 063f 1C       		.uleb128 0x1c
 2725 0640 8A000000 		.4byte	.LASF81
 2726 0644 01       		.byte	0x1
 2727 0645 55       		.byte	0x55
 2728 0646 50060000 		.4byte	0x650
 2729 064a 05       		.uleb128 0x5
 2730 064b 03       		.byte	0x3
 2731 064c 00000000 		.4byte	sensors
 2732 0650 16       		.uleb128 0x16
 2733 0651 04       		.byte	0x4
 2734 0652 78010000 		.4byte	0x178
 2735 0656 1C       		.uleb128 0x1c
 2736 0657 A1010000 		.4byte	.LASF82
 2737 065b 01       		.byte	0x1
 2738 065c 56       		.byte	0x56
 2739 065d 67060000 		.4byte	0x667
 2740 0661 05       		.uleb128 0x5
 2741 0662 03       		.byte	0x3
 2742 0663 00000000 		.4byte	octopussy
 2743 0667 16       		.uleb128 0x16
 2744 0668 04       		.byte	0x4
 2745 0669 3C010000 		.4byte	0x13c
 2746 066d 00       		.byte	0
 2747              		.section	.debug_abbrev,"",%progbits
 2748              	.Ldebug_abbrev0:
 2749 0000 01       		.uleb128 0x1
 2750 0001 11       		.uleb128 0x11
 2751 0002 01       		.byte	0x1
 2752 0003 25       		.uleb128 0x25
 2753 0004 0E       		.uleb128 0xe
 2754 0005 13       		.uleb128 0x13
 2755 0006 0B       		.uleb128 0xb
 2756 0007 03       		.uleb128 0x3
 2757 0008 0E       		.uleb128 0xe
 2758 0009 1B       		.uleb128 0x1b
 2759 000a 0E       		.uleb128 0xe
 2760 000b 55       		.uleb128 0x55
 2761 000c 17       		.uleb128 0x17
 2762 000d 11       		.uleb128 0x11
 2763 000e 01       		.uleb128 0x1
 2764 000f 10       		.uleb128 0x10
 2765 0010 17       		.uleb128 0x17
 2766 0011 00       		.byte	0
 2767 0012 00       		.byte	0
 2768 0013 02       		.uleb128 0x2
 2769 0014 24       		.uleb128 0x24
 2770 0015 00       		.byte	0
 2771 0016 0B       		.uleb128 0xb
 2772 0017 0B       		.uleb128 0xb
 2773 0018 3E       		.uleb128 0x3e
 2774 0019 0B       		.uleb128 0xb
 2775 001a 03       		.uleb128 0x3
ARM GAS  C:\Users\cyu13\AppData\Local\Temp\cc9UQms6.s 			page 56


 2776 001b 0E       		.uleb128 0xe
 2777 001c 00       		.byte	0
 2778 001d 00       		.byte	0
 2779 001e 03       		.uleb128 0x3
 2780 001f 16       		.uleb128 0x16
 2781 0020 00       		.byte	0
 2782 0021 03       		.uleb128 0x3
 2783 0022 0E       		.uleb128 0xe
 2784 0023 3A       		.uleb128 0x3a
 2785 0024 0B       		.uleb128 0xb
 2786 0025 3B       		.uleb128 0x3b
 2787 0026 0B       		.uleb128 0xb
 2788 0027 49       		.uleb128 0x49
 2789 0028 13       		.uleb128 0x13
 2790 0029 00       		.byte	0
 2791 002a 00       		.byte	0
 2792 002b 04       		.uleb128 0x4
 2793 002c 24       		.uleb128 0x24
 2794 002d 00       		.byte	0
 2795 002e 0B       		.uleb128 0xb
 2796 002f 0B       		.uleb128 0xb
 2797 0030 3E       		.uleb128 0x3e
 2798 0031 0B       		.uleb128 0xb
 2799 0032 03       		.uleb128 0x3
 2800 0033 08       		.uleb128 0x8
 2801 0034 00       		.byte	0
 2802 0035 00       		.byte	0
 2803 0036 05       		.uleb128 0x5
 2804 0037 16       		.uleb128 0x16
 2805 0038 00       		.byte	0
 2806 0039 03       		.uleb128 0x3
 2807 003a 0E       		.uleb128 0xe
 2808 003b 3A       		.uleb128 0x3a
 2809 003c 0B       		.uleb128 0xb
 2810 003d 3B       		.uleb128 0x3b
 2811 003e 05       		.uleb128 0x5
 2812 003f 49       		.uleb128 0x49
 2813 0040 13       		.uleb128 0x13
 2814 0041 00       		.byte	0
 2815 0042 00       		.byte	0
 2816 0043 06       		.uleb128 0x6
 2817 0044 13       		.uleb128 0x13
 2818 0045 01       		.byte	0x1
 2819 0046 0B       		.uleb128 0xb
 2820 0047 0B       		.uleb128 0xb
 2821 0048 3A       		.uleb128 0x3a
 2822 0049 0B       		.uleb128 0xb
 2823 004a 3B       		.uleb128 0x3b
 2824 004b 0B       		.uleb128 0xb
 2825 004c 01       		.uleb128 0x1
 2826 004d 13       		.uleb128 0x13
 2827 004e 00       		.byte	0
 2828 004f 00       		.byte	0
 2829 0050 07       		.uleb128 0x7
 2830 0051 0D       		.uleb128 0xd
 2831 0052 00       		.byte	0
 2832 0053 03       		.uleb128 0x3
ARM GAS  C:\Users\cyu13\AppData\Local\Temp\cc9UQms6.s 			page 57


 2833 0054 08       		.uleb128 0x8
 2834 0055 3A       		.uleb128 0x3a
 2835 0056 0B       		.uleb128 0xb
 2836 0057 3B       		.uleb128 0x3b
 2837 0058 0B       		.uleb128 0xb
 2838 0059 49       		.uleb128 0x49
 2839 005a 13       		.uleb128 0x13
 2840 005b 38       		.uleb128 0x38
 2841 005c 0B       		.uleb128 0xb
 2842 005d 00       		.byte	0
 2843 005e 00       		.byte	0
 2844 005f 08       		.uleb128 0x8
 2845 0060 0D       		.uleb128 0xd
 2846 0061 00       		.byte	0
 2847 0062 03       		.uleb128 0x3
 2848 0063 0E       		.uleb128 0xe
 2849 0064 3A       		.uleb128 0x3a
 2850 0065 0B       		.uleb128 0xb
 2851 0066 3B       		.uleb128 0x3b
 2852 0067 0B       		.uleb128 0xb
 2853 0068 49       		.uleb128 0x49
 2854 0069 13       		.uleb128 0x13
 2855 006a 38       		.uleb128 0x38
 2856 006b 0B       		.uleb128 0xb
 2857 006c 00       		.byte	0
 2858 006d 00       		.byte	0
 2859 006e 09       		.uleb128 0x9
 2860 006f 01       		.uleb128 0x1
 2861 0070 01       		.byte	0x1
 2862 0071 49       		.uleb128 0x49
 2863 0072 13       		.uleb128 0x13
 2864 0073 01       		.uleb128 0x1
 2865 0074 13       		.uleb128 0x13
 2866 0075 00       		.byte	0
 2867 0076 00       		.byte	0
 2868 0077 0A       		.uleb128 0xa
 2869 0078 21       		.uleb128 0x21
 2870 0079 00       		.byte	0
 2871 007a 49       		.uleb128 0x49
 2872 007b 13       		.uleb128 0x13
 2873 007c 2F       		.uleb128 0x2f
 2874 007d 0B       		.uleb128 0xb
 2875 007e 00       		.byte	0
 2876 007f 00       		.byte	0
 2877 0080 0B       		.uleb128 0xb
 2878 0081 13       		.uleb128 0x13
 2879 0082 01       		.byte	0x1
 2880 0083 03       		.uleb128 0x3
 2881 0084 0E       		.uleb128 0xe
 2882 0085 0B       		.uleb128 0xb
 2883 0086 0B       		.uleb128 0xb
 2884 0087 3A       		.uleb128 0x3a
 2885 0088 0B       		.uleb128 0xb
 2886 0089 3B       		.uleb128 0x3b
 2887 008a 0B       		.uleb128 0xb
 2888 008b 01       		.uleb128 0x1
 2889 008c 13       		.uleb128 0x13
ARM GAS  C:\Users\cyu13\AppData\Local\Temp\cc9UQms6.s 			page 58


 2890 008d 00       		.byte	0
 2891 008e 00       		.byte	0
 2892 008f 0C       		.uleb128 0xc
 2893 0090 2E       		.uleb128 0x2e
 2894 0091 00       		.byte	0
 2895 0092 3F       		.uleb128 0x3f
 2896 0093 19       		.uleb128 0x19
 2897 0094 03       		.uleb128 0x3
 2898 0095 0E       		.uleb128 0xe
 2899 0096 3A       		.uleb128 0x3a
 2900 0097 0B       		.uleb128 0xb
 2901 0098 3B       		.uleb128 0x3b
 2902 0099 0B       		.uleb128 0xb
 2903 009a 27       		.uleb128 0x27
 2904 009b 19       		.uleb128 0x19
 2905 009c 11       		.uleb128 0x11
 2906 009d 01       		.uleb128 0x1
 2907 009e 12       		.uleb128 0x12
 2908 009f 06       		.uleb128 0x6
 2909 00a0 40       		.uleb128 0x40
 2910 00a1 18       		.uleb128 0x18
 2911 00a2 9642     		.uleb128 0x2116
 2912 00a4 19       		.uleb128 0x19
 2913 00a5 00       		.byte	0
 2914 00a6 00       		.byte	0
 2915 00a7 0D       		.uleb128 0xd
 2916 00a8 2E       		.uleb128 0x2e
 2917 00a9 01       		.byte	0x1
 2918 00aa 3F       		.uleb128 0x3f
 2919 00ab 19       		.uleb128 0x19
 2920 00ac 03       		.uleb128 0x3
 2921 00ad 0E       		.uleb128 0xe
 2922 00ae 3A       		.uleb128 0x3a
 2923 00af 0B       		.uleb128 0xb
 2924 00b0 3B       		.uleb128 0x3b
 2925 00b1 0B       		.uleb128 0xb
 2926 00b2 27       		.uleb128 0x27
 2927 00b3 19       		.uleb128 0x19
 2928 00b4 11       		.uleb128 0x11
 2929 00b5 01       		.uleb128 0x1
 2930 00b6 12       		.uleb128 0x12
 2931 00b7 06       		.uleb128 0x6
 2932 00b8 40       		.uleb128 0x40
 2933 00b9 18       		.uleb128 0x18
 2934 00ba 9642     		.uleb128 0x2116
 2935 00bc 19       		.uleb128 0x19
 2936 00bd 01       		.uleb128 0x1
 2937 00be 13       		.uleb128 0x13
 2938 00bf 00       		.byte	0
 2939 00c0 00       		.byte	0
 2940 00c1 0E       		.uleb128 0xe
 2941 00c2 34       		.uleb128 0x34
 2942 00c3 00       		.byte	0
 2943 00c4 03       		.uleb128 0x3
 2944 00c5 08       		.uleb128 0x8
 2945 00c6 3A       		.uleb128 0x3a
 2946 00c7 0B       		.uleb128 0xb
ARM GAS  C:\Users\cyu13\AppData\Local\Temp\cc9UQms6.s 			page 59


 2947 00c8 3B       		.uleb128 0x3b
 2948 00c9 0B       		.uleb128 0xb
 2949 00ca 49       		.uleb128 0x49
 2950 00cb 13       		.uleb128 0x13
 2951 00cc 02       		.uleb128 0x2
 2952 00cd 18       		.uleb128 0x18
 2953 00ce 00       		.byte	0
 2954 00cf 00       		.byte	0
 2955 00d0 0F       		.uleb128 0xf
 2956 00d1 34       		.uleb128 0x34
 2957 00d2 00       		.byte	0
 2958 00d3 03       		.uleb128 0x3
 2959 00d4 0E       		.uleb128 0xe
 2960 00d5 3A       		.uleb128 0x3a
 2961 00d6 0B       		.uleb128 0xb
 2962 00d7 3B       		.uleb128 0x3b
 2963 00d8 0B       		.uleb128 0xb
 2964 00d9 49       		.uleb128 0x49
 2965 00da 13       		.uleb128 0x13
 2966 00db 02       		.uleb128 0x2
 2967 00dc 18       		.uleb128 0x18
 2968 00dd 00       		.byte	0
 2969 00de 00       		.byte	0
 2970 00df 10       		.uleb128 0x10
 2971 00e0 2E       		.uleb128 0x2e
 2972 00e1 01       		.byte	0x1
 2973 00e2 3F       		.uleb128 0x3f
 2974 00e3 19       		.uleb128 0x19
 2975 00e4 03       		.uleb128 0x3
 2976 00e5 0E       		.uleb128 0xe
 2977 00e6 3A       		.uleb128 0x3a
 2978 00e7 0B       		.uleb128 0xb
 2979 00e8 3B       		.uleb128 0x3b
 2980 00e9 0B       		.uleb128 0xb
 2981 00ea 27       		.uleb128 0x27
 2982 00eb 19       		.uleb128 0x19
 2983 00ec 49       		.uleb128 0x49
 2984 00ed 13       		.uleb128 0x13
 2985 00ee 11       		.uleb128 0x11
 2986 00ef 01       		.uleb128 0x1
 2987 00f0 12       		.uleb128 0x12
 2988 00f1 06       		.uleb128 0x6
 2989 00f2 40       		.uleb128 0x40
 2990 00f3 18       		.uleb128 0x18
 2991 00f4 9642     		.uleb128 0x2116
 2992 00f6 19       		.uleb128 0x19
 2993 00f7 01       		.uleb128 0x1
 2994 00f8 13       		.uleb128 0x13
 2995 00f9 00       		.byte	0
 2996 00fa 00       		.byte	0
 2997 00fb 11       		.uleb128 0x11
 2998 00fc 0B       		.uleb128 0xb
 2999 00fd 01       		.byte	0x1
 3000 00fe 11       		.uleb128 0x11
 3001 00ff 01       		.uleb128 0x1
 3002 0100 12       		.uleb128 0x12
 3003 0101 06       		.uleb128 0x6
ARM GAS  C:\Users\cyu13\AppData\Local\Temp\cc9UQms6.s 			page 60


 3004 0102 01       		.uleb128 0x1
 3005 0103 13       		.uleb128 0x13
 3006 0104 00       		.byte	0
 3007 0105 00       		.byte	0
 3008 0106 12       		.uleb128 0x12
 3009 0107 0B       		.uleb128 0xb
 3010 0108 01       		.byte	0x1
 3011 0109 11       		.uleb128 0x11
 3012 010a 01       		.uleb128 0x1
 3013 010b 12       		.uleb128 0x12
 3014 010c 06       		.uleb128 0x6
 3015 010d 00       		.byte	0
 3016 010e 00       		.byte	0
 3017 010f 13       		.uleb128 0x13
 3018 0110 34       		.uleb128 0x34
 3019 0111 00       		.byte	0
 3020 0112 03       		.uleb128 0x3
 3021 0113 0E       		.uleb128 0xe
 3022 0114 3A       		.uleb128 0x3a
 3023 0115 0B       		.uleb128 0xb
 3024 0116 3B       		.uleb128 0x3b
 3025 0117 05       		.uleb128 0x5
 3026 0118 49       		.uleb128 0x49
 3027 0119 13       		.uleb128 0x13
 3028 011a 02       		.uleb128 0x2
 3029 011b 18       		.uleb128 0x18
 3030 011c 00       		.byte	0
 3031 011d 00       		.byte	0
 3032 011e 14       		.uleb128 0x14
 3033 011f 34       		.uleb128 0x34
 3034 0120 00       		.byte	0
 3035 0121 03       		.uleb128 0x3
 3036 0122 08       		.uleb128 0x8
 3037 0123 3A       		.uleb128 0x3a
 3038 0124 0B       		.uleb128 0xb
 3039 0125 3B       		.uleb128 0x3b
 3040 0126 05       		.uleb128 0x5
 3041 0127 49       		.uleb128 0x49
 3042 0128 13       		.uleb128 0x13
 3043 0129 02       		.uleb128 0x2
 3044 012a 18       		.uleb128 0x18
 3045 012b 00       		.byte	0
 3046 012c 00       		.byte	0
 3047 012d 15       		.uleb128 0x15
 3048 012e 21       		.uleb128 0x21
 3049 012f 00       		.byte	0
 3050 0130 49       		.uleb128 0x49
 3051 0131 13       		.uleb128 0x13
 3052 0132 2F       		.uleb128 0x2f
 3053 0133 18       		.uleb128 0x18
 3054 0134 00       		.byte	0
 3055 0135 00       		.byte	0
 3056 0136 16       		.uleb128 0x16
 3057 0137 0F       		.uleb128 0xf
 3058 0138 00       		.byte	0
 3059 0139 0B       		.uleb128 0xb
 3060 013a 0B       		.uleb128 0xb
ARM GAS  C:\Users\cyu13\AppData\Local\Temp\cc9UQms6.s 			page 61


 3061 013b 49       		.uleb128 0x49
 3062 013c 13       		.uleb128 0x13
 3063 013d 00       		.byte	0
 3064 013e 00       		.byte	0
 3065 013f 17       		.uleb128 0x17
 3066 0140 2E       		.uleb128 0x2e
 3067 0141 01       		.byte	0x1
 3068 0142 3F       		.uleb128 0x3f
 3069 0143 19       		.uleb128 0x19
 3070 0144 03       		.uleb128 0x3
 3071 0145 0E       		.uleb128 0xe
 3072 0146 3A       		.uleb128 0x3a
 3073 0147 0B       		.uleb128 0xb
 3074 0148 3B       		.uleb128 0x3b
 3075 0149 05       		.uleb128 0x5
 3076 014a 27       		.uleb128 0x27
 3077 014b 19       		.uleb128 0x19
 3078 014c 11       		.uleb128 0x11
 3079 014d 01       		.uleb128 0x1
 3080 014e 12       		.uleb128 0x12
 3081 014f 06       		.uleb128 0x6
 3082 0150 40       		.uleb128 0x40
 3083 0151 18       		.uleb128 0x18
 3084 0152 9642     		.uleb128 0x2116
 3085 0154 19       		.uleb128 0x19
 3086 0155 01       		.uleb128 0x1
 3087 0156 13       		.uleb128 0x13
 3088 0157 00       		.byte	0
 3089 0158 00       		.byte	0
 3090 0159 18       		.uleb128 0x18
 3091 015a 05       		.uleb128 0x5
 3092 015b 00       		.byte	0
 3093 015c 03       		.uleb128 0x3
 3094 015d 0E       		.uleb128 0xe
 3095 015e 3A       		.uleb128 0x3a
 3096 015f 0B       		.uleb128 0xb
 3097 0160 3B       		.uleb128 0x3b
 3098 0161 05       		.uleb128 0x5
 3099 0162 49       		.uleb128 0x49
 3100 0163 13       		.uleb128 0x13
 3101 0164 02       		.uleb128 0x2
 3102 0165 18       		.uleb128 0x18
 3103 0166 00       		.byte	0
 3104 0167 00       		.byte	0
 3105 0168 19       		.uleb128 0x19
 3106 0169 2E       		.uleb128 0x2e
 3107 016a 01       		.byte	0x1
 3108 016b 3F       		.uleb128 0x3f
 3109 016c 19       		.uleb128 0x19
 3110 016d 03       		.uleb128 0x3
 3111 016e 0E       		.uleb128 0xe
 3112 016f 3A       		.uleb128 0x3a
 3113 0170 0B       		.uleb128 0xb
 3114 0171 3B       		.uleb128 0x3b
 3115 0172 05       		.uleb128 0x5
 3116 0173 27       		.uleb128 0x27
 3117 0174 19       		.uleb128 0x19
ARM GAS  C:\Users\cyu13\AppData\Local\Temp\cc9UQms6.s 			page 62


 3118 0175 49       		.uleb128 0x49
 3119 0176 13       		.uleb128 0x13
 3120 0177 11       		.uleb128 0x11
 3121 0178 01       		.uleb128 0x1
 3122 0179 12       		.uleb128 0x12
 3123 017a 06       		.uleb128 0x6
 3124 017b 40       		.uleb128 0x40
 3125 017c 18       		.uleb128 0x18
 3126 017d 9642     		.uleb128 0x2116
 3127 017f 19       		.uleb128 0x19
 3128 0180 01       		.uleb128 0x1
 3129 0181 13       		.uleb128 0x13
 3130 0182 00       		.byte	0
 3131 0183 00       		.byte	0
 3132 0184 1A       		.uleb128 0x1a
 3133 0185 34       		.uleb128 0x34
 3134 0186 00       		.byte	0
 3135 0187 03       		.uleb128 0x3
 3136 0188 0E       		.uleb128 0xe
 3137 0189 3A       		.uleb128 0x3a
 3138 018a 0B       		.uleb128 0xb
 3139 018b 3B       		.uleb128 0x3b
 3140 018c 05       		.uleb128 0x5
 3141 018d 49       		.uleb128 0x49
 3142 018e 13       		.uleb128 0x13
 3143 018f 3F       		.uleb128 0x3f
 3144 0190 19       		.uleb128 0x19
 3145 0191 3C       		.uleb128 0x3c
 3146 0192 19       		.uleb128 0x19
 3147 0193 00       		.byte	0
 3148 0194 00       		.byte	0
 3149 0195 1B       		.uleb128 0x1b
 3150 0196 35       		.uleb128 0x35
 3151 0197 00       		.byte	0
 3152 0198 49       		.uleb128 0x49
 3153 0199 13       		.uleb128 0x13
 3154 019a 00       		.byte	0
 3155 019b 00       		.byte	0
 3156 019c 1C       		.uleb128 0x1c
 3157 019d 34       		.uleb128 0x34
 3158 019e 00       		.byte	0
 3159 019f 03       		.uleb128 0x3
 3160 01a0 0E       		.uleb128 0xe
 3161 01a1 3A       		.uleb128 0x3a
 3162 01a2 0B       		.uleb128 0xb
 3163 01a3 3B       		.uleb128 0x3b
 3164 01a4 0B       		.uleb128 0xb
 3165 01a5 49       		.uleb128 0x49
 3166 01a6 13       		.uleb128 0x13
 3167 01a7 3F       		.uleb128 0x3f
 3168 01a8 19       		.uleb128 0x19
 3169 01a9 02       		.uleb128 0x2
 3170 01aa 18       		.uleb128 0x18
 3171 01ab 00       		.byte	0
 3172 01ac 00       		.byte	0
 3173 01ad 1D       		.uleb128 0x1d
 3174 01ae 26       		.uleb128 0x26
ARM GAS  C:\Users\cyu13\AppData\Local\Temp\cc9UQms6.s 			page 63


 3175 01af 00       		.byte	0
 3176 01b0 49       		.uleb128 0x49
 3177 01b1 13       		.uleb128 0x13
 3178 01b2 00       		.byte	0
 3179 01b3 00       		.byte	0
 3180 01b4 00       		.byte	0
 3181              		.section	.debug_aranges,"",%progbits
 3182 0000 54000000 		.4byte	0x54
 3183 0004 0200     		.2byte	0x2
 3184 0006 00000000 		.4byte	.Ldebug_info0
 3185 000a 04       		.byte	0x4
 3186 000b 00       		.byte	0
 3187 000c 0000     		.2byte	0
 3188 000e 0000     		.2byte	0
 3189 0010 00000000 		.4byte	.LFB64
 3190 0014 64000000 		.4byte	.LFE64-.LFB64
 3191 0018 00000000 		.4byte	.LFB65
 3192 001c 5C040000 		.4byte	.LFE65-.LFB65
 3193 0020 00000000 		.4byte	.LFB66
 3194 0024 54010000 		.4byte	.LFE66-.LFB66
 3195 0028 00000000 		.4byte	.LFB67
 3196 002c 74000000 		.4byte	.LFE67-.LFB67
 3197 0030 00000000 		.4byte	.LFB68
 3198 0034 70060000 		.4byte	.LFE68-.LFB68
 3199 0038 00000000 		.4byte	.LFB69
 3200 003c D8000000 		.4byte	.LFE69-.LFB69
 3201 0040 00000000 		.4byte	.LFB70
 3202 0044 D8000000 		.4byte	.LFE70-.LFB70
 3203 0048 00000000 		.4byte	.LFB71
 3204 004c 58000000 		.4byte	.LFE71-.LFB71
 3205 0050 00000000 		.4byte	0
 3206 0054 00000000 		.4byte	0
 3207              		.section	.debug_ranges,"",%progbits
 3208              	.Ldebug_ranges0:
 3209 0000 00000000 		.4byte	.LFB64
 3210 0004 64000000 		.4byte	.LFE64
 3211 0008 00000000 		.4byte	.LFB65
 3212 000c 5C040000 		.4byte	.LFE65
 3213 0010 00000000 		.4byte	.LFB66
 3214 0014 54010000 		.4byte	.LFE66
 3215 0018 00000000 		.4byte	.LFB67
 3216 001c 74000000 		.4byte	.LFE67
 3217 0020 00000000 		.4byte	.LFB68
 3218 0024 70060000 		.4byte	.LFE68
 3219 0028 00000000 		.4byte	.LFB69
 3220 002c D8000000 		.4byte	.LFE69
 3221 0030 00000000 		.4byte	.LFB70
 3222 0034 D8000000 		.4byte	.LFE70
 3223 0038 00000000 		.4byte	.LFB71
 3224 003c 58000000 		.4byte	.LFE71
 3225 0040 00000000 		.4byte	0
 3226 0044 00000000 		.4byte	0
 3227              		.section	.debug_line,"",%progbits
 3228              	.Ldebug_line0:
 3229 0000 EF020000 		.section	.debug_str,"MS",%progbits,1
 3229      02006801 
 3229      00000201 
ARM GAS  C:\Users\cyu13\AppData\Local\Temp\cc9UQms6.s 			page 64


 3229      FB0E0D00 
 3229      01010101 
 3230              	.LASF77:
 3231 0000 676F616C 		.ascii	"goal_one_reached\000"
 3231      5F6F6E65 
 3231      5F726561 
 3231      63686564 
 3231      00
 3232              	.LASF38:
 3233 0011 61786C65 		.ascii	"axle_width\000"
 3233      5F776964 
 3233      746800
 3234              	.LASF42:
 3235 001c 676F616C 		.ascii	"goal_y\000"
 3235      5F7900
 3236              	.LASF80:
 3237 0023 726F626F 		.ascii	"robot\000"
 3237      7400
 3238              	.LASF40:
 3239 0029 64657369 		.ascii	"desired_theta\000"
 3239      7265645F 
 3239      74686574 
 3239      6100
 3240              	.LASF55:
 3241 0037 676F616C 		.ascii	"goal_counter\000"
 3241      5F636F75 
 3241      6E746572 
 3241      00
 3242              	.LASF56:
 3243 0044 74656E73 		.ascii	"tensdsd\000"
 3243      64736400 
 3244              	.LASF44:
 3245 004c 64696666 		.ascii	"diff\000"
 3245      00
 3246              	.LASF2:
 3247 0051 73686F72 		.ascii	"short int\000"
 3247      7420696E 
 3247      7400
 3248              	.LASF68:
 3249 005b 504F5345 		.ascii	"POSE_UPDATE_PERIOD\000"
 3249      5F555044 
 3249      4154455F 
 3249      50455249 
 3249      4F4400
 3250              	.LASF20:
 3251 006e 73697A65 		.ascii	"sizetype\000"
 3251      74797065 
 3251      00
 3252              	.LASF60:
 3253 0077 6D696E5F 		.ascii	"min_cost\000"
 3253      636F7374 
 3253      00
 3254              	.LASF59:
 3255 0080 6D696E5F 		.ascii	"min_combo\000"
 3255      636F6D62 
 3255      6F00
 3256              	.LASF81:
ARM GAS  C:\Users\cyu13\AppData\Local\Temp\cc9UQms6.s 			page 65


 3257 008a 73656E73 		.ascii	"sensors\000"
 3257      6F727300 
 3258              	.LASF36:
 3259 0092 526F626F 		.ascii	"Robot\000"
 3259      7400
 3260              	.LASF83:
 3261 0098 474E5520 		.ascii	"GNU C11 5.4.1 20160609 (release) [ARM/embedded-5-br"
 3261      43313120 
 3261      352E342E 
 3261      31203230 
 3261      31363036 
 3262 00cb 616E6368 		.ascii	"anch revision 237715] -mcpu=cortex-m3 -mthumb -g -O"
 3262      20726576 
 3262      6973696F 
 3262      6E203233 
 3262      37373135 
 3263 00fe 30202D66 		.ascii	"0 -ffunction-sections -ffat-lto-objects\000"
 3263      66756E63 
 3263      74696F6E 
 3263      2D736563 
 3263      74696F6E 
 3264              	.LASF26:
 3265 0126 64697265 		.ascii	"direction\000"
 3265      6374696F 
 3265      6E00
 3266              	.LASF4:
 3267 0130 5F5F7569 		.ascii	"__uint16_t\000"
 3267      6E743136 
 3267      5F7400
 3268              	.LASF49:
 3269 013b 4D6F746F 		.ascii	"Motor_PI_Int_Handler\000"
 3269      725F5049 
 3269      5F496E74 
 3269      5F48616E 
 3269      646C6572 
 3270              	.LASF62:
 3271 0150 44726976 		.ascii	"Drive_Left_Motor\000"
 3271      655F4C65 
 3271      66745F4D 
 3271      6F746F72 
 3271      00
 3272              	.LASF79:
 3273 0161 72696768 		.ascii	"right_motor\000"
 3273      745F6D6F 
 3273      746F7200 
 3274              	.LASF65:
 3275 016d 616E676C 		.ascii	"angle_modulo\000"
 3275      655F6D6F 
 3275      64756C6F 
 3275      00
 3276              	.LASF78:
 3277 017a 6C656674 		.ascii	"left_motor\000"
 3277      5F6D6F74 
 3277      6F7200
 3278              	.LASF57:
 3279 0185 64697374 		.ascii	"dist_to_goal\000"
 3279      5F746F5F 
ARM GAS  C:\Users\cyu13\AppData\Local\Temp\cc9UQms6.s 			page 66


 3279      676F616C 
 3279      00
 3280              	.LASF12:
 3281 0192 75696E74 		.ascii	"uint8_t\000"
 3281      385F7400 
 3282              	.LASF41:
 3283 019a 676F616C 		.ascii	"goal_x\000"
 3283      5F7800
 3284              	.LASF82:
 3285 01a1 6F63746F 		.ascii	"octopussy\000"
 3285      70757373 
 3285      7900
 3286              	.LASF16:
 3287 01ab 666C6F61 		.ascii	"float\000"
 3287      7400
 3288              	.LASF72:
 3289 01b1 6D75785F 		.ascii	"mux_select\000"
 3289      73656C65 
 3289      637400
 3290              	.LASF9:
 3291 01bc 6C6F6E67 		.ascii	"long long int\000"
 3291      206C6F6E 
 3291      6720696E 
 3291      7400
 3292              	.LASF48:
 3293 01ca 506F7365 		.ascii	"Pose_Update_Int_Handler\000"
 3293      5F557064 
 3293      6174655F 
 3293      496E745F 
 3293      48616E64 
 3294              	.LASF33:
 3295 01e2 77686565 		.ascii	"wheel_radius\000"
 3295      6C5F7261 
 3295      64697573 
 3295      00
 3296              	.LASF7:
 3297 01ef 6C6F6E67 		.ascii	"long int\000"
 3297      20696E74 
 3297      00
 3298              	.LASF28:
 3299 01f8 73656E73 		.ascii	"sensor_data\000"
 3299      6F725F64 
 3299      61746100 
 3300              	.LASF39:
 3301 0204 64657369 		.ascii	"desired_V\000"
 3301      7265645F 
 3301      5600
 3302              	.LASF71:
 3303 020e 6563686F 		.ascii	"echo_distance\000"
 3303      5F646973 
 3303      74616E63 
 3303      6500
 3304              	.LASF3:
 3305 021c 5F5F7569 		.ascii	"__uint8_t\000"
 3305      6E74385F 
 3305      7400
 3306              	.LASF58:
ARM GAS  C:\Users\cyu13\AppData\Local\Temp\cc9UQms6.s 			page 67


 3307 0226 636F7374 		.ascii	"cost\000"
 3307      00
 3308              	.LASF76:
 3309 022b 64657669 		.ascii	"deviated\000"
 3309      61746564 
 3309      00
 3310              	.LASF19:
 3311 0234 6C6F6E67 		.ascii	"long double\000"
 3311      20646F75 
 3311      626C6500 
 3312              	.LASF35:
 3313 0240 4D6F746F 		.ascii	"Motor\000"
 3313      7200
 3314              	.LASF25:
 3315 0246 74656E74 		.ascii	"tentacles\000"
 3315      61636C65 
 3315      7300
 3316              	.LASF1:
 3317 0250 756E7369 		.ascii	"unsigned char\000"
 3317      676E6564 
 3317      20636861 
 3317      7200
 3318              	.LASF69:
 3319 025e 6563686F 		.ascii	"echo_flag\000"
 3319      5F666C61 
 3319      6700
 3320              	.LASF32:
 3321 0268 64657369 		.ascii	"desired_w\000"
 3321      7265645F 
 3321      7700
 3322              	.LASF61:
 3323 0272 636F6D62 		.ascii	"combo\000"
 3323      6F00
 3324              	.LASF0:
 3325 0278 7369676E 		.ascii	"signed char\000"
 3325      65642063 
 3325      68617200 
 3326              	.LASF14:
 3327 0284 696E7433 		.ascii	"int32_t\000"
 3327      325F7400 
 3328              	.LASF10:
 3329 028c 6C6F6E67 		.ascii	"long long unsigned int\000"
 3329      206C6F6E 
 3329      6720756E 
 3329      7369676E 
 3329      65642069 
 3330              	.LASF11:
 3331 02a3 756E7369 		.ascii	"unsigned int\000"
 3331      676E6564 
 3331      20696E74 
 3331      00
 3332              	.LASF47:
 3333 02b0 6E65775F 		.ascii	"new_omega\000"
 3333      6F6D6567 
 3333      6100
 3334              	.LASF8:
 3335 02ba 6C6F6E67 		.ascii	"long unsigned int\000"
ARM GAS  C:\Users\cyu13\AppData\Local\Temp\cc9UQms6.s 			page 68


 3335      20756E73 
 3335      69676E65 
 3335      6420696E 
 3335      7400
 3336              	.LASF70:
 3337 02cc 6D61785F 		.ascii	"max_count\000"
 3337      636F756E 
 3337      7400
 3338              	.LASF63:
 3339 02d6 44726976 		.ascii	"Drive_Right_Motor\000"
 3339      655F5269 
 3339      6768745F 
 3339      4D6F746F 
 3339      7200
 3340              	.LASF21:
 3341 02e8 73746570 		.ascii	"steps\000"
 3341      7300
 3342              	.LASF5:
 3343 02ee 73686F72 		.ascii	"short unsigned int\000"
 3343      7420756E 
 3343      7369676E 
 3343      65642069 
 3343      6E7400
 3344              	.LASF27:
 3345 0301 64697374 		.ascii	"distance\000"
 3345      616E6365 
 3345      00
 3346              	.LASF18:
 3347 030a 63686172 		.ascii	"char\000"
 3347      00
 3348              	.LASF75:
 3349 030f 73657269 		.ascii	"serial_output\000"
 3349      616C5F6F 
 3349      75747075 
 3349      7400
 3350              	.LASF53:
 3351 031d 4E5F474F 		.ascii	"N_GOALS\000"
 3351      414C5300 
 3352              	.LASF64:
 3353 0325 6D61696E 		.ascii	"main\000"
 3353      00
 3354              	.LASF50:
 3355 032a 4E617669 		.ascii	"Navigation_Test_Int_Handler\000"
 3355      67617469 
 3355      6F6E5F54 
 3355      6573745F 
 3355      496E745F 
 3356              	.LASF13:
 3357 0346 75696E74 		.ascii	"uint16_t\000"
 3357      31365F74 
 3357      00
 3358              	.LASF23:
 3359 034f 62657461 		.ascii	"beta\000"
 3359      00
 3360              	.LASF84:
 3361 0354 6D61696E 		.ascii	"main.c\000"
 3361      2E6300
ARM GAS  C:\Users\cyu13\AppData\Local\Temp\cc9UQms6.s 			page 69


 3362              	.LASF74:
 3363 035b 72696768 		.ascii	"right_wheel_count\000"
 3363      745F7768 
 3363      65656C5F 
 3363      636F756E 
 3363      7400
 3364              	.LASF73:
 3365 036d 6C656674 		.ascii	"left_wheel_count\000"
 3365      5F776865 
 3365      656C5F63 
 3365      6F756E74 
 3365      00
 3366              	.LASF15:
 3367 037e 696E7433 		.ascii	"int32\000"
 3367      3200
 3368              	.LASF17:
 3369 0384 646F7562 		.ascii	"double\000"
 3369      6C6500
 3370              	.LASF85:
 3371 038b 433A5C74 		.ascii	"C:\\temp\\jacob_branch\\ECE4191\\DeliveryRobot.cyds"
 3371      656D705C 
 3371      6A61636F 
 3371      625F6272 
 3371      616E6368 
 3372 03ba 6E00     		.ascii	"n\000"
 3373              	.LASF86:
 3374 03bc 54696D65 		.ascii	"Timer_Int_Handler\000"
 3374      725F496E 
 3374      745F4861 
 3374      6E646C65 
 3374      7200
 3375              	.LASF24:
 3376 03ce 74656E5F 		.ascii	"ten_count\000"
 3376      636F756E 
 3376      7400
 3377              	.LASF22:
 3378 03d8 616C7068 		.ascii	"alpha\000"
 3378      6100
 3379              	.LASF46:
 3380 03de 7363616C 		.ascii	"scaled_V\000"
 3380      65645F56 
 3380      00
 3381              	.LASF29:
 3382 03e7 64757479 		.ascii	"duty_cycle\000"
 3382      5F637963 
 3382      6C6500
 3383              	.LASF6:
 3384 03f2 5F5F696E 		.ascii	"__int32_t\000"
 3384      7433325F 
 3384      7400
 3385              	.LASF30:
 3386 03fc 696E745F 		.ascii	"int_error\000"
 3386      6572726F 
 3386      7200
 3387              	.LASF37:
 3388 0406 74686574 		.ascii	"theta\000"
 3388      6100
ARM GAS  C:\Users\cyu13\AppData\Local\Temp\cc9UQms6.s 			page 70


 3389              	.LASF43:
 3390 040c 676F616C 		.ascii	"goal_min_dist\000"
 3390      5F6D696E 
 3390      5F646973 
 3390      7400
 3391              	.LASF51:
 3392 041a 616E676C 		.ascii	"angle\000"
 3392      6500
 3393              	.LASF34:
 3394 0420 656E635F 		.ascii	"enc_count\000"
 3394      636F756E 
 3394      7400
 3395              	.LASF45:
 3396 042a 6572726F 		.ascii	"error\000"
 3396      7200
 3397              	.LASF31:
 3398 0430 74616E67 		.ascii	"tangent_v\000"
 3398      656E745F 
 3398      7600
 3399              	.LASF66:
 3400 043a 49544D5F 		.ascii	"ITM_RxBuffer\000"
 3400      52784275 
 3400      66666572 
 3400      00
 3401              	.LASF67:
 3402 0447 50554C53 		.ascii	"PULSES_PER_REV\000"
 3402      45535F50 
 3402      45525F52 
 3402      455600
 3403              	.LASF52:
 3404 0456 77686565 		.ascii	"wheel_r_scale\000"
 3404      6C5F725F 
 3404      7363616C 
 3404      6500
 3405              	.LASF54:
 3406 0464 676F616C 		.ascii	"goals\000"
 3406      7300
 3407              		.ident	"GCC: (GNU Tools for ARM Embedded Processors) 5.4.1 20160609 (release) [ARM/embedded-5-bran
