ARM GAS  C:\Users\jmspi\AppData\Local\Temp\cc6DyfyP.s 			page 1


   1              		.syntax unified
   2              		.cpu cortex-m3
   3              		.fpu softvfp
   4              		.eabi_attribute 20, 1
   5              		.eabi_attribute 21, 1
   6              		.eabi_attribute 23, 3
   7              		.eabi_attribute 24, 1
   8              		.eabi_attribute 25, 1
   9              		.eabi_attribute 26, 1
  10              		.eabi_attribute 30, 4
  11              		.eabi_attribute 34, 1
  12              		.eabi_attribute 18, 4
  13              		.thumb
  14              		.syntax unified
  15              		.file	"minOrMax.c"
  16              		.text
  17              	.Ltext0:
  18              		.cfi_sections	.debug_frame
  19              		.global	__aeabi_dcmplt
  20              		.global	__aeabi_dcmpgt
  21              		.section	.text.b_minimum,"ax",%progbits
  22              		.align	1
  23              		.global	b_minimum
  24              		.thumb
  25              		.thumb_func
  26              		.type	b_minimum, %function
  27              	b_minimum:
  28              	.LFB0:
  29              		.file 1 "VFH+\\src\\minOrMax.c"
   1:VFH+\src/minOrMax.c **** /*
   2:VFH+\src/minOrMax.c ****  * Academic License - for use in teaching, academic research, and meeting
   3:VFH+\src/minOrMax.c ****  * course requirements at degree granting institutions only.  Not for
   4:VFH+\src/minOrMax.c ****  * government, commercial, or other organizational use.
   5:VFH+\src/minOrMax.c ****  * File: minOrMax.c
   6:VFH+\src/minOrMax.c ****  *
   7:VFH+\src/minOrMax.c ****  * MATLAB Coder version            : 5.3
   8:VFH+\src/minOrMax.c ****  * C/C++ source code generated on  : 30-Aug-2023 22:51:35
   9:VFH+\src/minOrMax.c ****  */
  10:VFH+\src/minOrMax.c **** 
  11:VFH+\src/minOrMax.c **** /* Include Files */
  12:VFH+\src/minOrMax.c **** #include "minOrMax.h"
  13:VFH+\src/minOrMax.c **** #include "rt_nonfinite.h"
  14:VFH+\src/minOrMax.c **** #include "vfhTest_types.h"
  15:VFH+\src/minOrMax.c **** #include "rt_nonfinite.h"
  16:VFH+\src/minOrMax.c **** 
  17:VFH+\src/minOrMax.c **** /* Function Definitions */
  18:VFH+\src/minOrMax.c **** /*
  19:VFH+\src/minOrMax.c ****  * Arguments    : const double x_data[]
  20:VFH+\src/minOrMax.c ****  *                const int x_size[2]
  21:VFH+\src/minOrMax.c ****  * Return Type  : double
  22:VFH+\src/minOrMax.c ****  */
  23:VFH+\src/minOrMax.c **** double b_minimum(const double x_data[], const int x_size[2])
  24:VFH+\src/minOrMax.c **** {
  30              		.loc 1 24 0
  31              		.cfi_startproc
  32              		@ args = 0, pretend = 0, frame = 0
  33              		@ frame_needed = 0, uses_anonymous_args = 0
ARM GAS  C:\Users\jmspi\AppData\Local\Temp\cc6DyfyP.s 			page 2


  34              	.LVL0:
  35 0000 2DE9F84F 		push	{r3, r4, r5, r6, r7, r8, r9, r10, fp, lr}
  36              		.cfi_def_cfa_offset 40
  37              		.cfi_offset 3, -40
  38              		.cfi_offset 4, -36
  39              		.cfi_offset 5, -32
  40              		.cfi_offset 6, -28
  41              		.cfi_offset 7, -24
  42              		.cfi_offset 8, -20
  43              		.cfi_offset 9, -16
  44              		.cfi_offset 10, -12
  45              		.cfi_offset 11, -8
  46              		.cfi_offset 14, -4
  25:VFH+\src/minOrMax.c ****   double d;
  26:VFH+\src/minOrMax.c ****   double ex;
  27:VFH+\src/minOrMax.c ****   int idx;
  28:VFH+\src/minOrMax.c ****   int k;
  29:VFH+\src/minOrMax.c ****   int last;
  30:VFH+\src/minOrMax.c ****   bool exitg1;
  31:VFH+\src/minOrMax.c ****   last = x_size[1];
  47              		.loc 1 31 0
  48 0004 D1F804A0 		ldr	r10, [r1, #4]
  49              	.LVL1:
  24:VFH+\src/minOrMax.c ****   double d;
  50              		.loc 1 24 0
  51 0008 8346     		mov	fp, r0
  32:VFH+\src/minOrMax.c ****   if (x_size[1] <= 2) {
  52              		.loc 1 32 0
  53 000a BAF1020F 		cmp	r10, #2
  54 000e 1EDC     		bgt	.L2
  55 0010 D0E90089 		ldrd	r8, [r0]
  33:VFH+\src/minOrMax.c ****     if (x_size[1] == 1) {
  56              		.loc 1 33 0
  57 0014 BAF1010F 		cmp	r10, #1
  58 0018 02D1     		bne	.L3
  34:VFH+\src/minOrMax.c ****       ex = x_data[0];
  59              		.loc 1 34 0
  60 001a 4646     		mov	r6, r8
  61 001c 4F46     		mov	r7, r9
  62              	.LVL2:
  63 001e 43E0     		b	.L17
  64              	.LVL3:
  65              	.L3:
  35:VFH+\src/minOrMax.c ****     } else {
  36:VFH+\src/minOrMax.c ****       ex = x_data[x_size[1] - 1];
  66              		.loc 1 36 0
  67 0020 00EBCA0A 		add	r10, r0, r10, lsl #3
  68              	.LVL4:
  69 0024 5AE90267 		ldrd	r6, [r10, #-8]
  70              	.LVL5:
  37:VFH+\src/minOrMax.c ****       if ((!(x_data[0] > ex)) && ((!rtIsNaN(x_data[0])) || rtIsNaN(ex))) {
  71              		.loc 1 37 0
  72 0028 4246     		mov	r2, r8
  73 002a 4B46     		mov	r3, r9
  74 002c 3046     		mov	r0, r6
  75              	.LVL6:
  76 002e 3946     		mov	r1, r7
ARM GAS  C:\Users\jmspi\AppData\Local\Temp\cc6DyfyP.s 			page 3


  77              	.LVL7:
  78 0030 FFF7FEFF 		bl	__aeabi_dcmplt
  79              	.LVL8:
  80 0034 0028     		cmp	r0, #0
  81 0036 37D1     		bne	.L17
  82              		.loc 1 37 0 is_stmt 0 discriminator 1
  83 0038 4046     		mov	r0, r8
  84 003a 4946     		mov	r1, r9
  85 003c FFF7FEFF 		bl	rtIsNaN
  86              	.LVL9:
  87 0040 80B3     		cbz	r0, .L21
  88              		.loc 1 37 0 discriminator 2
  89 0042 3046     		mov	r0, r6
  90 0044 3946     		mov	r1, r7
  91 0046 FFF7FEFF 		bl	rtIsNaN
  92              	.LVL10:
  93 004a 58BB     		cbnz	r0, .L21
  94 004c 2CE0     		b	.L17
  95              	.LVL11:
  96              	.L2:
  38:VFH+\src/minOrMax.c ****         ex = x_data[0];
  39:VFH+\src/minOrMax.c ****       }
  40:VFH+\src/minOrMax.c ****     }
  41:VFH+\src/minOrMax.c ****   } else {
  42:VFH+\src/minOrMax.c ****     if (!rtIsNaN(x_data[0])) {
  97              		.loc 1 42 0 is_stmt 1
  98 004e 03C8     		ldmia	r0, {r0-r1}
  99              	.LVL12:
 100 0050 FFF7FEFF 		bl	rtIsNaN
 101              	.LVL13:
 102 0054 50B1     		cbz	r0, .L14
 103 0056 5C46     		mov	r4, fp
 104              	.LVL14:
 105 0058 0225     		movs	r5, #2
 106              	.LVL15:
 107              	.L8:
  43:VFH+\src/minOrMax.c ****       idx = 1;
  44:VFH+\src/minOrMax.c ****     } else {
  45:VFH+\src/minOrMax.c ****       idx = 0;
  46:VFH+\src/minOrMax.c ****       k = 2;
  47:VFH+\src/minOrMax.c ****       exitg1 = false;
  48:VFH+\src/minOrMax.c ****       while ((!exitg1) && (k <= last)) {
  49:VFH+\src/minOrMax.c ****         if (!rtIsNaN(x_data[k - 1])) {
 108              		.loc 1 49 0
 109 005a F4E90201 		ldrd	r0, [r4, #8]!
 110 005e FFF7FEFF 		bl	rtIsNaN
 111              	.LVL16:
 112 0062 20B1     		cbz	r0, .L7
  50:VFH+\src/minOrMax.c ****           idx = k;
  51:VFH+\src/minOrMax.c ****           exitg1 = true;
  52:VFH+\src/minOrMax.c ****         } else {
  53:VFH+\src/minOrMax.c ****           k++;
 113              		.loc 1 53 0
 114 0064 0135     		adds	r5, r5, #1
 115              	.LVL17:
  48:VFH+\src/minOrMax.c ****         if (!rtIsNaN(x_data[k - 1])) {
 116              		.loc 1 48 0
ARM GAS  C:\Users\jmspi\AppData\Local\Temp\cc6DyfyP.s 			page 4


 117 0066 AA45     		cmp	r10, r5
 118 0068 F7DA     		bge	.L8
 119 006a 1BE0     		b	.L21
 120              	.LVL18:
 121              	.L14:
  43:VFH+\src/minOrMax.c ****       idx = 1;
 122              		.loc 1 43 0
 123 006c 0125     		movs	r5, #1
 124              	.L7:
 125              	.LVL19:
  54:VFH+\src/minOrMax.c ****         }
  55:VFH+\src/minOrMax.c ****       }
  56:VFH+\src/minOrMax.c ****     }
  57:VFH+\src/minOrMax.c ****     if (idx == 0) {
  58:VFH+\src/minOrMax.c ****       ex = x_data[0];
  59:VFH+\src/minOrMax.c ****     } else {
  60:VFH+\src/minOrMax.c ****       ex = x_data[idx - 1];
 126              		.loc 1 60 0
 127 006e 05F10053 		add	r3, r5, #536870912
 128 0072 013B     		subs	r3, r3, #1
 129 0074 DB00     		lsls	r3, r3, #3
 130 0076 0BEB0302 		add	r2, fp, r3
 131 007a 0833     		adds	r3, r3, #8
  61:VFH+\src/minOrMax.c ****       idx++;
 132              		.loc 1 61 0
 133 007c 0135     		adds	r5, r5, #1
 134              	.LVL20:
 135 007e 0BEB0304 		add	r4, fp, r3
  60:VFH+\src/minOrMax.c ****       idx++;
 136              		.loc 1 60 0
 137 0082 D2E90067 		ldrd	r6, [r2]
 138              	.LVL21:
 139              	.L10:
  62:VFH+\src/minOrMax.c ****       for (k = idx; k <= last; k++) {
 140              		.loc 1 62 0 discriminator 1
 141 0086 5545     		cmp	r5, r10
 142 0088 0EDC     		bgt	.L17
  63:VFH+\src/minOrMax.c ****         d = x_data[k - 1];
 143              		.loc 1 63 0
 144 008a F4E80289 		ldrd	r8, [r4], #8
 145              	.LVL22:
  64:VFH+\src/minOrMax.c ****         if (ex > d) {
 146              		.loc 1 64 0
 147 008e 3046     		mov	r0, r6
 148 0090 4246     		mov	r2, r8
 149 0092 4B46     		mov	r3, r9
 150 0094 3946     		mov	r1, r7
 151 0096 FFF7FEFF 		bl	__aeabi_dcmpgt
 152              	.LVL23:
 153 009a 08B1     		cbz	r0, .L11
  65:VFH+\src/minOrMax.c ****           ex = d;
 154              		.loc 1 65 0
 155 009c 4646     		mov	r6, r8
 156              	.LVL24:
 157 009e 4F46     		mov	r7, r9
 158              	.L11:
 159              	.LVL25:
ARM GAS  C:\Users\jmspi\AppData\Local\Temp\cc6DyfyP.s 			page 5


  62:VFH+\src/minOrMax.c ****         d = x_data[k - 1];
 160              		.loc 1 62 0 discriminator 2
 161 00a0 0135     		adds	r5, r5, #1
 162              	.LVL26:
 163 00a2 F0E7     		b	.L10
 164              	.LVL27:
 165              	.L21:
  58:VFH+\src/minOrMax.c ****     } else {
 166              		.loc 1 58 0
 167 00a4 DBE90067 		ldrd	r6, [fp]
 168              	.LVL28:
 169              	.L17:
  66:VFH+\src/minOrMax.c ****         }
  67:VFH+\src/minOrMax.c ****       }
  68:VFH+\src/minOrMax.c ****     }
  69:VFH+\src/minOrMax.c ****   }
  70:VFH+\src/minOrMax.c ****   return ex;
  71:VFH+\src/minOrMax.c **** }
 170              		.loc 1 71 0
 171 00a8 3046     		mov	r0, r6
 172 00aa 3946     		mov	r1, r7
 173 00ac BDE8F88F 		pop	{r3, r4, r5, r6, r7, r8, r9, r10, fp, pc}
 174              		.cfi_endproc
 175              	.LFE0:
 176              		.size	b_minimum, .-b_minimum
 177              		.section	.text.minimum,"ax",%progbits
 178              		.align	1
 179              		.global	minimum
 180              		.thumb
 181              		.thumb_func
 182              		.type	minimum, %function
 183              	minimum:
 184              	.LFB1:
  72:VFH+\src/minOrMax.c **** 
  73:VFH+\src/minOrMax.c **** /*
  74:VFH+\src/minOrMax.c ****  * Arguments    : const emxArray_real_T *x
  75:VFH+\src/minOrMax.c ****  *                double ex_data[]
  76:VFH+\src/minOrMax.c ****  *                int *ex_size
  77:VFH+\src/minOrMax.c ****  * Return Type  : void
  78:VFH+\src/minOrMax.c ****  */
  79:VFH+\src/minOrMax.c **** void minimum(const emxArray_real_T *x, double ex_data[], int *ex_size)
  80:VFH+\src/minOrMax.c **** {
 185              		.loc 1 80 0
 186              		.cfi_startproc
 187              		@ args = 0, pretend = 0, frame = 8
 188              		@ frame_needed = 0, uses_anonymous_args = 0
 189              	.LVL29:
 190 0000 2DE9F74F 		push	{r0, r1, r2, r4, r5, r6, r7, r8, r9, r10, fp, lr}
 191              		.cfi_def_cfa_offset 48
 192              		.cfi_offset 4, -36
 193              		.cfi_offset 5, -32
 194              		.cfi_offset 6, -28
 195              		.cfi_offset 7, -24
 196              		.cfi_offset 8, -20
 197              		.cfi_offset 9, -16
 198              		.cfi_offset 10, -12
 199              		.cfi_offset 11, -8
ARM GAS  C:\Users\jmspi\AppData\Local\Temp\cc6DyfyP.s 			page 6


 200              		.cfi_offset 14, -4
 201              		.loc 1 80 0
 202 0004 8846     		mov	r8, r1
 203 0006 0746     		mov	r7, r0
  81:VFH+\src/minOrMax.c ****   const double *x_data;
  82:VFH+\src/minOrMax.c ****   double b;
  83:VFH+\src/minOrMax.c ****   int i;
  84:VFH+\src/minOrMax.c ****   int j;
  85:VFH+\src/minOrMax.c ****   int m;
  86:VFH+\src/minOrMax.c ****   bool p;
  87:VFH+\src/minOrMax.c ****   x_data = x->data;
  88:VFH+\src/minOrMax.c ****   m = x->size[0] - 1;
 204              		.loc 1 88 0
 205 0008 4368     		ldr	r3, [r0, #4]
  87:VFH+\src/minOrMax.c ****   m = x->size[0] - 1;
 206              		.loc 1 87 0
 207 000a D0F80090 		ldr	r9, [r0]
 208              	.LVL30:
 209              		.loc 1 88 0
 210 000e 1B68     		ldr	r3, [r3]
 211 0010 A9F10804 		sub	r4, r9, #8
 212 0014 591E     		subs	r1, r3, #1
 213              	.LVL31:
  89:VFH+\src/minOrMax.c ****   *ex_size = x->size[0];
 214              		.loc 1 89 0
 215 0016 1360     		str	r3, [r2]
  88:VFH+\src/minOrMax.c ****   *ex_size = x->size[0];
 216              		.loc 1 88 0
 217 0018 0191     		str	r1, [sp, #4]
 218              	.LVL32:
 219 001a A8F10802 		sub	r2, r8, #8
 220              	.LVL33:
  90:VFH+\src/minOrMax.c ****   for (i = 0; i <= m; i++) {
 221              		.loc 1 90 0
 222 001e 0023     		movs	r3, #0
 223              	.LVL34:
 224              	.L24:
 225              		.loc 1 90 0 is_stmt 0 discriminator 1
 226 0020 0199     		ldr	r1, [sp, #4]
 227 0022 8B42     		cmp	r3, r1
 228 0024 05DC     		bgt	.L38
  91:VFH+\src/minOrMax.c ****     ex_data[i] = x_data[i];
 229              		.loc 1 91 0 is_stmt 1 discriminator 3
 230 0026 F4E90201 		ldrd	r0, [r4, #8]!
  90:VFH+\src/minOrMax.c ****   for (i = 0; i <= m; i++) {
 231              		.loc 1 90 0 discriminator 3
 232 002a 0133     		adds	r3, r3, #1
 233              	.LVL35:
 234              		.loc 1 91 0 discriminator 3
 235 002c E2E90201 		strd	r0, [r2, #8]!
 236 0030 F6E7     		b	.L24
 237              	.L38:
 238 0032 0126     		movs	r6, #1
 239              	.LVL36:
 240              	.L33:
 241 0034 4446     		mov	r4, r8
  90:VFH+\src/minOrMax.c ****   for (i = 0; i <= m; i++) {
ARM GAS  C:\Users\jmspi\AppData\Local\Temp\cc6DyfyP.s 			page 7


 242              		.loc 1 90 0
 243 0036 0025     		movs	r5, #0
 244              	.L35:
 245              	.LVL37:
  92:VFH+\src/minOrMax.c ****   }
  93:VFH+\src/minOrMax.c ****   for (j = 0; j < 179; j++) {
  94:VFH+\src/minOrMax.c ****     for (i = 0; i <= m; i++) {
 246              		.loc 1 94 0 discriminator 1
 247 0038 019B     		ldr	r3, [sp, #4]
 248 003a 9D42     		cmp	r5, r3
 249 003c 1DDC     		bgt	.L39
  95:VFH+\src/minOrMax.c ****       b = x_data[i + x->size[0] * (j + 1)];
 250              		.loc 1 95 0
 251 003e 7B68     		ldr	r3, [r7, #4]
 252 0040 1B68     		ldr	r3, [r3]
 253 0042 03FB0653 		mla	r3, r3, r6, r5
 254 0046 09EBC303 		add	r3, r9, r3, lsl #3
 255 004a D3E900AB 		ldrd	r10, [r3]
 256              	.LVL38:
  96:VFH+\src/minOrMax.c ****       if (rtIsNaN(b)) {
 257              		.loc 1 96 0
 258 004e 5046     		mov	r0, r10
 259 0050 5946     		mov	r1, fp
 260 0052 FFF7FEFF 		bl	rtIsNaN
 261              	.LVL39:
 262 0056 68B9     		cbnz	r0, .L28
  97:VFH+\src/minOrMax.c ****         p = false;
  98:VFH+\src/minOrMax.c ****       } else if (rtIsNaN(ex_data[i])) {
 263              		.loc 1 98 0
 264 0058 D4E90001 		ldrd	r0, [r4]
 265 005c FFF7FEFF 		bl	rtIsNaN
 266              	.LVL40:
 267 0060 30B9     		cbnz	r0, .L29
 268              	.LVL41:
  99:VFH+\src/minOrMax.c ****         p = true;
 100:VFH+\src/minOrMax.c ****       } else {
 101:VFH+\src/minOrMax.c ****         p = (ex_data[i] > b);
 102:VFH+\src/minOrMax.c ****       }
 103:VFH+\src/minOrMax.c ****       if (p) {
 269              		.loc 1 103 0
 270 0062 D4E90023 		ldrd	r2, [r4]
 271 0066 5046     		mov	r0, r10
 272 0068 5946     		mov	r1, fp
 273 006a FFF7FEFF 		bl	__aeabi_dcmplt
 274              	.LVL42:
 275 006e 08B1     		cbz	r0, .L28
 276              	.L29:
 104:VFH+\src/minOrMax.c ****         ex_data[i] = b;
 277              		.loc 1 104 0
 278 0070 C4E900AB 		strd	r10, [r4]
 279              	.L28:
  94:VFH+\src/minOrMax.c ****       b = x_data[i + x->size[0] * (j + 1)];
 280              		.loc 1 94 0 discriminator 2
 281 0074 0135     		adds	r5, r5, #1
 282              	.LVL43:
 283 0076 0834     		adds	r4, r4, #8
 284 0078 DEE7     		b	.L35
ARM GAS  C:\Users\jmspi\AppData\Local\Temp\cc6DyfyP.s 			page 8


 285              	.LVL44:
 286              	.L39:
 287 007a 0136     		adds	r6, r6, #1
 288              	.LVL45:
  93:VFH+\src/minOrMax.c ****     for (i = 0; i <= m; i++) {
 289              		.loc 1 93 0 discriminator 2
 290 007c B42E     		cmp	r6, #180
 291 007e D9D1     		bne	.L33
 105:VFH+\src/minOrMax.c ****       }
 106:VFH+\src/minOrMax.c ****     }
 107:VFH+\src/minOrMax.c ****   }
 108:VFH+\src/minOrMax.c **** }
 292              		.loc 1 108 0
 293 0080 03B0     		add	sp, sp, #12
 294              		.cfi_def_cfa_offset 36
 295              		@ sp needed
 296 0082 BDE8F08F 		pop	{r4, r5, r6, r7, r8, r9, r10, fp, pc}
 297              		.cfi_endproc
 298              	.LFE1:
 299              		.size	minimum, .-minimum
 300              		.text
 301              	.Letext0:
 302              		.file 2 ".\\VFH+\\include/vfhTest_types.h"
 303              		.file 3 ".\\VFH+\\include/rt_nonfinite.h"