ARM GAS  C:\Users\jmspi\AppData\Local\Temp\ccWoqQL4.s 			page 1


   1              		.syntax unified
   2              		.cpu cortex-m3
   3              		.fpu softvfp
   4              		.eabi_attribute 20, 1
   5              		.eabi_attribute 21, 1
   6              		.eabi_attribute 23, 3
   7              		.eabi_attribute 24, 1
   8              		.eabi_attribute 25, 1
   9              		.eabi_attribute 26, 1
  10              		.eabi_attribute 30, 4
  11              		.eabi_attribute 34, 1
  12              		.eabi_attribute 18, 4
  13              		.thumb
  14              		.syntax unified
  15              		.file	"nullAssignment.c"
  16              		.text
  17              	.Ltext0:
  18              		.cfi_sections	.debug_frame
  19              		.section	.text.nullAssignment,"ax",%progbits
  20              		.align	1
  21              		.global	nullAssignment
  22              		.thumb
  23              		.thumb_func
  24              		.type	nullAssignment, %function
  25              	nullAssignment:
  26              	.LFB0:
  27              		.file 1 "VFH+\\src\\nullAssignment.c"
   1:VFH+\src/nullAssignment.c **** /*
   2:VFH+\src/nullAssignment.c ****  * Academic License - for use in teaching, academic research, and meeting
   3:VFH+\src/nullAssignment.c ****  * course requirements at degree granting institutions only.  Not for
   4:VFH+\src/nullAssignment.c ****  * government, commercial, or other organizational use.
   5:VFH+\src/nullAssignment.c ****  * File: nullAssignment.c
   6:VFH+\src/nullAssignment.c ****  *
   7:VFH+\src/nullAssignment.c ****  * MATLAB Coder version            : 5.3
   8:VFH+\src/nullAssignment.c ****  * C/C++ source code generated on  : 30-Aug-2023 22:51:35
   9:VFH+\src/nullAssignment.c ****  */
  10:VFH+\src/nullAssignment.c **** 
  11:VFH+\src/nullAssignment.c **** /* Include Files */
  12:VFH+\src/nullAssignment.c **** #include "nullAssignment.h"
  13:VFH+\src/nullAssignment.c **** #include "rt_nonfinite.h"
  14:VFH+\src/nullAssignment.c **** #include "vfhTest_emxutil.h"
  15:VFH+\src/nullAssignment.c **** #include "vfhTest_types.h"
  16:VFH+\src/nullAssignment.c **** 
  17:VFH+\src/nullAssignment.c **** /* Function Definitions */
  18:VFH+\src/nullAssignment.c **** /*
  19:VFH+\src/nullAssignment.c ****  * Arguments    : emxArray_real_T *x
  20:VFH+\src/nullAssignment.c ****  *                const bool idx_data[]
  21:VFH+\src/nullAssignment.c ****  *                int idx_size
  22:VFH+\src/nullAssignment.c ****  * Return Type  : void
  23:VFH+\src/nullAssignment.c ****  */
  24:VFH+\src/nullAssignment.c **** void nullAssignment(emxArray_real_T *x, const bool idx_data[], int idx_size)
  25:VFH+\src/nullAssignment.c **** {
  28              		.loc 1 25 0
  29              		.cfi_startproc
  30              		@ args = 0, pretend = 0, frame = 0
  31              		@ frame_needed = 0, uses_anonymous_args = 0
  32              	.LVL0:
ARM GAS  C:\Users\jmspi\AppData\Local\Temp\ccWoqQL4.s 			page 2


  33 0000 2DE9F047 		push	{r4, r5, r6, r7, r8, r9, r10, lr}
  34              		.cfi_def_cfa_offset 32
  35              		.cfi_offset 4, -32
  36              		.cfi_offset 5, -28
  37              		.cfi_offset 6, -24
  38              		.cfi_offset 7, -20
  39              		.cfi_offset 8, -16
  40              		.cfi_offset 9, -12
  41              		.cfi_offset 10, -8
  42              		.cfi_offset 14, -4
  43              		.loc 1 25 0
  44 0004 8846     		mov	r8, r1
  26:VFH+\src/nullAssignment.c ****   double *x_data;
  27:VFH+\src/nullAssignment.c ****   int k;
  28:VFH+\src/nullAssignment.c ****   int k0;
  29:VFH+\src/nullAssignment.c ****   int nxin;
  30:VFH+\src/nullAssignment.c ****   int nxout;
  31:VFH+\src/nullAssignment.c ****   x_data = x->data;
  32:VFH+\src/nullAssignment.c ****   nxin = x->size[0];
  33:VFH+\src/nullAssignment.c ****   k0 = 0;
  34:VFH+\src/nullAssignment.c ****   for (k = 0; k < idx_size; k++) {
  45              		.loc 1 34 0
  46 0006 4446     		mov	r4, r8
  32:VFH+\src/nullAssignment.c ****   k0 = 0;
  47              		.loc 1 32 0
  48 0008 4568     		ldr	r5, [r0, #4]
  31:VFH+\src/nullAssignment.c ****   nxin = x->size[0];
  49              		.loc 1 31 0
  50 000a D0F80090 		ldr	r9, [r0]
  51              	.LVL1:
  32:VFH+\src/nullAssignment.c ****   k0 = 0;
  52              		.loc 1 32 0
  53 000e 2968     		ldr	r1, [r5]
  54              	.LVL2:
  33:VFH+\src/nullAssignment.c ****   for (k = 0; k < idx_size; k++) {
  55              		.loc 1 33 0
  56 0010 0023     		movs	r3, #0
  57              	.LVL3:
  58              	.L2:
  59              		.loc 1 34 0 discriminator 1
  60 0012 C8EB0406 		rsb	r6, r8, r4
  61              	.LVL4:
  62 0016 B242     		cmp	r2, r6
  63 0018 03DD     		ble	.L11
  35:VFH+\src/nullAssignment.c ****     k0 += idx_data[k];
  64              		.loc 1 35 0 discriminator 3
  65 001a 14F8016B 		ldrb	r6, [r4], #1	@ zero_extendqisi2
  66              	.LVL5:
  67 001e 3344     		add	r3, r3, r6
  68              	.LVL6:
  69 0020 F7E7     		b	.L2
  70              	.LVL7:
  71              	.L11:
  72 0022 CC46     		mov	ip, r9
  36:VFH+\src/nullAssignment.c ****   }
  37:VFH+\src/nullAssignment.c ****   nxout = x->size[0] - k0;
  73              		.loc 1 37 0
ARM GAS  C:\Users\jmspi\AppData\Local\Temp\ccWoqQL4.s 			page 3


  74 0024 CB1A     		subs	r3, r1, r3
  75              	.LVL8:
  38:VFH+\src/nullAssignment.c ****   k0 = -1;
  76              		.loc 1 38 0
  77 0026 4FF0FF3E 		mov	lr, #-1
  39:VFH+\src/nullAssignment.c ****   for (k = 0; k < nxin; k++) {
  78              		.loc 1 39 0
  79 002a 0024     		movs	r4, #0
  80              	.LVL9:
  81              	.L4:
  82              		.loc 1 39 0 is_stmt 0 discriminator 1
  83 002c 8C42     		cmp	r4, r1
  84 002e 10DA     		bge	.L12
  40:VFH+\src/nullAssignment.c ****     if ((k + 1 > idx_size) || (!idx_data[k])) {
  85              		.loc 1 40 0 is_stmt 1
  86 0030 9442     		cmp	r4, r2
  87 0032 02DA     		bge	.L5
  88              		.loc 1 40 0 is_stmt 0 discriminator 1
  89 0034 18F80460 		ldrb	r6, [r8, r4]	@ zero_extendqisi2
  90 0038 3EB9     		cbnz	r6, .L6
  91              	.L5:
  41:VFH+\src/nullAssignment.c ****       k0++;
  42:VFH+\src/nullAssignment.c ****       x_data[k0] = x_data[k];
  92              		.loc 1 42 0 is_stmt 1
  93 003a DCE90067 		ldrd	r6, [ip]
  41:VFH+\src/nullAssignment.c ****       k0++;
  94              		.loc 1 41 0
  95 003e 0EF1010E 		add	lr, lr, #1
  96              	.LVL10:
  97              		.loc 1 42 0
  98 0042 09EBCE0A 		add	r10, r9, lr, lsl #3
  99 0046 CAE90067 		strd	r6, [r10]
 100              	.L6:
  39:VFH+\src/nullAssignment.c ****     if ((k + 1 > idx_size) || (!idx_data[k])) {
 101              		.loc 1 39 0 discriminator 2
 102 004a 0134     		adds	r4, r4, #1
 103              	.LVL11:
 104 004c 0CF1080C 		add	ip, ip, #8
 105 0050 ECE7     		b	.L4
 106              	.L12:
 107              	.LVL12:
  43:VFH+\src/nullAssignment.c ****     }
  44:VFH+\src/nullAssignment.c ****   }
  45:VFH+\src/nullAssignment.c ****   k0 = x->size[0];
  46:VFH+\src/nullAssignment.c ****   if (1 > nxout) {
 108              		.loc 1 46 0
 109 0052 002B     		cmp	r3, #0
  47:VFH+\src/nullAssignment.c ****     x->size[0] = 0;
 110              		.loc 1 47 0
 111 0054 D8BF     		it	le
 112 0056 0023     		movle	r3, #0
 113              	.LVL13:
  48:VFH+\src/nullAssignment.c ****   } else {
  49:VFH+\src/nullAssignment.c ****     x->size[0] = nxout;
 114              		.loc 1 49 0
 115 0058 2B60     		str	r3, [r5]
  50:VFH+\src/nullAssignment.c ****   }
ARM GAS  C:\Users\jmspi\AppData\Local\Temp\ccWoqQL4.s 			page 4


  51:VFH+\src/nullAssignment.c ****   emxEnsureCapacity_real_T(x, k0);
  52:VFH+\src/nullAssignment.c **** }
 116              		.loc 1 52 0
 117 005a BDE8F047 		pop	{r4, r5, r6, r7, r8, r9, r10, lr}
 118              		.cfi_restore 14
 119              		.cfi_restore 10
 120              		.cfi_restore 9
 121              		.cfi_restore 8
 122              		.cfi_restore 7
 123              		.cfi_restore 6
 124              		.cfi_restore 5
 125              		.cfi_restore 4
 126              		.cfi_def_cfa_offset 0
 127              	.LVL14:
  51:VFH+\src/nullAssignment.c **** }
 128              		.loc 1 51 0
 129 005e FFF7FEBF 		b	emxEnsureCapacity_real_T
 130              	.LVL15:
 131              		.cfi_endproc
 132              	.LFE0:
 133              		.size	nullAssignment, .-nullAssignment
 134              		.text
 135              	.Letext0:
 136              		.file 2 ".\\VFH+\\include/vfhTest_types.h"
 137              		.file 3 ".\\VFH+\\include/vfhTest_emxutil.h"