ARM GAS  C:\Users\jmspi\AppData\Local\Temp\cco2mZYM.s 			page 1


   1              		.syntax unified
   2              		.cpu cortex-m3
   3              		.fpu softvfp
   4              		.eabi_attribute 20, 1
   5              		.eabi_attribute 21, 1
   6              		.eabi_attribute 23, 3
   7              		.eabi_attribute 24, 1
   8              		.eabi_attribute 25, 1
   9              		.eabi_attribute 26, 1
  10              		.eabi_attribute 30, 6
  11              		.eabi_attribute 34, 1
  12              		.eabi_attribute 18, 4
  13              		.thumb
  14              		.syntax unified
  15              		.file	"polar_histogram.c"
  16              		.text
  17              	.Ltext0:
  18              		.cfi_sections	.debug_frame
  19              		.section	.text.initial_histogram,"ax",%progbits
  20              		.align	2
  21              		.global	initial_histogram
  22              		.thumb
  23              		.thumb_func
  24              		.type	initial_histogram, %function
  25              	initial_histogram:
  26              	.LFB0:
  27              		.file 1 "VFH\\src\\polar_histogram.c"
   1:VFH\src/polar_histogram.c **** #include <stdlib.h>
   2:VFH\src/polar_histogram.c **** #include <math.h>
   3:VFH\src/polar_histogram.c **** 
   4:VFH\src/polar_histogram.c **** #include "histogram_grid.h"
   5:VFH\src/polar_histogram.c **** #include "polar_histogram.h"
   6:VFH\src/polar_histogram.c **** 
   7:VFH\src/polar_histogram.c **** // Converting Histogram Grid into Polar Histogram for VFH implementation.
   8:VFH\src/polar_histogram.c **** 
   9:VFH\src/polar_histogram.c **** histogram * initial_histogram(int alpha, double threshold, double density_a, double density_b) {
  28              		.loc 1 9 0
  29              		.cfi_startproc
  30              		@ args = 16, pretend = 0, frame = 24
  31              		@ frame_needed = 1, uses_anonymous_args = 0
  32 0000 90B5     		push	{r4, r7, lr}
  33              		.cfi_def_cfa_offset 12
  34              		.cfi_offset 4, -12
  35              		.cfi_offset 7, -8
  36              		.cfi_offset 14, -4
  37 0002 87B0     		sub	sp, sp, #28
  38              		.cfi_def_cfa_offset 40
  39 0004 00AF     		add	r7, sp, #0
  40              		.cfi_def_cfa_register 7
  41 0006 F860     		str	r0, [r7, #12]
  42 0008 C7E90023 		strd	r2, [r7]
  10:VFH\src/polar_histogram.c ****   /* Create a histogram pointer and allocate memory to it. */
  11:VFH\src/polar_histogram.c ****   histogram * hist = malloc(sizeof(histogram));
  43              		.loc 1 11 0
  44 000c 3020     		movs	r0, #48
  45 000e FFF7FEFF 		bl	malloc
  46 0012 0346     		mov	r3, r0
ARM GAS  C:\Users\jmspi\AppData\Local\Temp\cco2mZYM.s 			page 2


  47 0014 3B61     		str	r3, [r7, #16]
  12:VFH\src/polar_histogram.c **** 
  13:VFH\src/polar_histogram.c ****   /* Is there enough memory for the histogram? */
  14:VFH\src/polar_histogram.c ****   if (NULL == hist) {
  48              		.loc 1 14 0
  49 0016 3B69     		ldr	r3, [r7, #16]
  50 0018 002B     		cmp	r3, #0
  51 001a 04D1     		bne	.L2
  15:VFH\src/polar_histogram.c ****     free(hist);
  52              		.loc 1 15 0
  53 001c 3869     		ldr	r0, [r7, #16]
  54 001e FFF7FEFF 		bl	free
  16:VFH\src/polar_histogram.c ****     return NULL;
  55              		.loc 1 16 0
  56 0022 0023     		movs	r3, #0
  57 0024 34E0     		b	.L3
  58              	.L2:
  17:VFH\src/polar_histogram.c ****   }
  18:VFH\src/polar_histogram.c **** 
  19:VFH\src/polar_histogram.c ****   /* Initialize the histogram parameters. */
  20:VFH\src/polar_histogram.c ****   hist->alpha = alpha;
  59              		.loc 1 20 0
  60 0026 3B69     		ldr	r3, [r7, #16]
  61 0028 FA68     		ldr	r2, [r7, #12]
  62 002a 1A60     		str	r2, [r3]
  21:VFH\src/polar_histogram.c ****   hist->sectors = 360 / alpha;
  63              		.loc 1 21 0
  64 002c 4FF4B472 		mov	r2, #360
  65 0030 FB68     		ldr	r3, [r7, #12]
  66 0032 92FBF3F2 		sdiv	r2, r2, r3
  67 0036 3B69     		ldr	r3, [r7, #16]
  68 0038 5A60     		str	r2, [r3, #4]
  22:VFH\src/polar_histogram.c ****   hist->threshold = threshold;
  69              		.loc 1 22 0
  70 003a 3A69     		ldr	r2, [r7, #16]
  71 003c D7E90034 		ldrd	r3, [r7]
  72 0040 C2E90234 		strd	r3, [r2, #8]
  23:VFH\src/polar_histogram.c ****   hist->densities = (int *)malloc(hist->sectors * sizeof(int));
  73              		.loc 1 23 0
  74 0044 3B69     		ldr	r3, [r7, #16]
  75 0046 5B68     		ldr	r3, [r3, #4]
  76 0048 9B00     		lsls	r3, r3, #2
  77 004a 1846     		mov	r0, r3
  78 004c FFF7FEFF 		bl	malloc
  79 0050 0346     		mov	r3, r0
  80 0052 1A46     		mov	r2, r3
  81 0054 3B69     		ldr	r3, [r7, #16]
  82 0056 9A62     		str	r2, [r3, #40]
  24:VFH\src/polar_histogram.c **** 
  25:VFH\src/polar_histogram.c ****   if (hist->densities == NULL) {
  83              		.loc 1 25 0
  84 0058 3B69     		ldr	r3, [r7, #16]
  85 005a 9B6A     		ldr	r3, [r3, #40]
  86 005c 002B     		cmp	r3, #0
  87 005e 04D1     		bne	.L4
  26:VFH\src/polar_histogram.c ****     free(hist);
  88              		.loc 1 26 0
ARM GAS  C:\Users\jmspi\AppData\Local\Temp\cco2mZYM.s 			page 3


  89 0060 3869     		ldr	r0, [r7, #16]
  90 0062 FFF7FEFF 		bl	free
  27:VFH\src/polar_histogram.c ****     return NULL;
  91              		.loc 1 27 0
  92 0066 0023     		movs	r3, #0
  93 0068 12E0     		b	.L3
  94              	.L4:
  95              	.LBB2:
  28:VFH\src/polar_histogram.c ****   }
  29:VFH\src/polar_histogram.c **** 
  30:VFH\src/polar_histogram.c ****   /* Initialize all densities to 0. */
  31:VFH\src/polar_histogram.c ****   for (int i = 0; i < hist->sectors; ++i) {
  96              		.loc 1 31 0
  97 006a 0023     		movs	r3, #0
  98 006c 7B61     		str	r3, [r7, #20]
  99 006e 09E0     		b	.L5
 100              	.L6:
  32:VFH\src/polar_histogram.c ****     hist->densities[i] = 0;
 101              		.loc 1 32 0 discriminator 3
 102 0070 3B69     		ldr	r3, [r7, #16]
 103 0072 9A6A     		ldr	r2, [r3, #40]
 104 0074 7B69     		ldr	r3, [r7, #20]
 105 0076 9B00     		lsls	r3, r3, #2
 106 0078 1344     		add	r3, r3, r2
 107 007a 0022     		movs	r2, #0
 108 007c 1A60     		str	r2, [r3]
  31:VFH\src/polar_histogram.c ****     hist->densities[i] = 0;
 109              		.loc 1 31 0 discriminator 3
 110 007e 7B69     		ldr	r3, [r7, #20]
 111 0080 0133     		adds	r3, r3, #1
 112 0082 7B61     		str	r3, [r7, #20]
 113              	.L5:
  31:VFH\src/polar_histogram.c ****     hist->densities[i] = 0;
 114              		.loc 1 31 0 is_stmt 0 discriminator 1
 115 0084 3B69     		ldr	r3, [r7, #16]
 116 0086 5A68     		ldr	r2, [r3, #4]
 117 0088 7B69     		ldr	r3, [r7, #20]
 118 008a 9A42     		cmp	r2, r3
 119 008c F0DC     		bgt	.L6
 120              	.LBE2:
  33:VFH\src/polar_histogram.c ****   }
  34:VFH\src/polar_histogram.c **** 
  35:VFH\src/polar_histogram.c ****   return hist;
 121              		.loc 1 35 0 is_stmt 1
 122 008e 3B69     		ldr	r3, [r7, #16]
 123              	.L3:
  36:VFH\src/polar_histogram.c **** }
 124              		.loc 1 36 0
 125 0090 1846     		mov	r0, r3
 126 0092 1C37     		adds	r7, r7, #28
 127              		.cfi_def_cfa_offset 12
 128 0094 BD46     		mov	sp, r7
 129              		.cfi_def_cfa_register 13
 130              		@ sp needed
 131 0096 90BD     		pop	{r4, r7, pc}
 132              		.cfi_endproc
 133              	.LFE0:
ARM GAS  C:\Users\jmspi\AppData\Local\Temp\cco2mZYM.s 			page 4


 134              		.size	initial_histogram, .-initial_histogram
 135              		.global	__aeabi_i2d
 136              		.global	__aeabi_dadd
 137              		.global	__aeabi_dmul
 138              		.global	__aeabi_dsub
 139              		.global	__aeabi_ddiv
 140              		.global	__aeabi_d2iz
 141              		.section	.text.hist_update,"ax",%progbits
 142              		.align	2
 143              		.global	hist_update
 144              		.thumb
 145              		.thumb_func
 146              		.type	hist_update, %function
 147              	hist_update:
 148              	.LFB1:
  37:VFH\src/polar_histogram.c **** 
  38:VFH\src/polar_histogram.c **** void hist_update(histogram * hist, grid * map) {
 149              		.loc 1 38 0
 150              		.cfi_startproc
 151              		@ args = 0, pretend = 0, frame = 56
 152              		@ frame_needed = 1, uses_anonymous_args = 0
 153 0000 B0B5     		push	{r4, r5, r7, lr}
 154              		.cfi_def_cfa_offset 16
 155              		.cfi_offset 4, -16
 156              		.cfi_offset 5, -12
 157              		.cfi_offset 7, -8
 158              		.cfi_offset 14, -4
 159 0002 8EB0     		sub	sp, sp, #56
 160              		.cfi_def_cfa_offset 72
 161 0004 00AF     		add	r7, sp, #0
 162              		.cfi_def_cfa_register 7
 163 0006 7860     		str	r0, [r7, #4]
 164 0008 3960     		str	r1, [r7]
  39:VFH\src/polar_histogram.c ****   int width = map->width;
 165              		.loc 1 39 0
 166 000a 3B68     		ldr	r3, [r7]
 167 000c 1B68     		ldr	r3, [r3]
 168 000e FB62     		str	r3, [r7, #44]
  40:VFH\src/polar_histogram.c ****   int height = map->height;
 169              		.loc 1 40 0
 170 0010 3B68     		ldr	r3, [r7]
 171 0012 5B68     		ldr	r3, [r3, #4]
 172 0014 BB62     		str	r3, [r7, #40]
  41:VFH\src/polar_histogram.c ****   double dens_a = hist->density_a;
 173              		.loc 1 41 0
 174 0016 7B68     		ldr	r3, [r7, #4]
 175 0018 03F11804 		add	r4, r3, #24
 176 001c D4E90034 		ldrd	r3, [r4]
 177 0020 C7E90834 		strd	r3, [r7, #32]
  42:VFH\src/polar_histogram.c ****   double dens_b = hist->density_b;
 178              		.loc 1 42 0
 179 0024 7B68     		ldr	r3, [r7, #4]
 180 0026 03F12004 		add	r4, r3, #32
 181 002a D4E90034 		ldrd	r3, [r4]
 182 002e C7E90634 		strd	r3, [r7, #24]
 183              	.LBB3:
  43:VFH\src/polar_histogram.c **** 
ARM GAS  C:\Users\jmspi\AppData\Local\Temp\cco2mZYM.s 			page 5


  44:VFH\src/polar_histogram.c ****   /* Calculate densities based on grid. */
  45:VFH\src/polar_histogram.c ****   for (int i = 0; i < width; ++i) {
 184              		.loc 1 45 0
 185 0032 0023     		movs	r3, #0
 186 0034 7B63     		str	r3, [r7, #52]
 187 0036 CFE0     		b	.L8
 188              	.L11:
 189              	.LBB4:
  46:VFH\src/polar_histogram.c ****     for (int j = 0; j < height; ++j) {
 190              		.loc 1 46 0
 191 0038 0023     		movs	r3, #0
 192 003a 3B63     		str	r3, [r7, #48]
 193 003c C4E0     		b	.L9
 194              	.L10:
 195              	.LBB5:
  47:VFH\src/polar_histogram.c **** 
  48:VFH\src/polar_histogram.c ****       /* Calculate the angular position (beta) of this cell. */
  49:VFH\src/polar_histogram.c ****       double beta = atan2((double)(j - height/2), (double)(i - width/2));
 196              		.loc 1 49 0 discriminator 3
 197 003e BB6A     		ldr	r3, [r7, #40]
 198 0040 DA0F     		lsrs	r2, r3, #31
 199 0042 1344     		add	r3, r3, r2
 200 0044 5B10     		asrs	r3, r3, #1
 201 0046 1A46     		mov	r2, r3
 202 0048 3B6B     		ldr	r3, [r7, #48]
 203 004a 9B1A     		subs	r3, r3, r2
 204 004c 1846     		mov	r0, r3
 205 004e FFF7FEFF 		bl	__aeabi_i2d
 206 0052 0446     		mov	r4, r0
 207 0054 0D46     		mov	r5, r1
 208 0056 FB6A     		ldr	r3, [r7, #44]
 209 0058 DA0F     		lsrs	r2, r3, #31
 210 005a 1344     		add	r3, r3, r2
 211 005c 5B10     		asrs	r3, r3, #1
 212 005e 1A46     		mov	r2, r3
 213 0060 7B6B     		ldr	r3, [r7, #52]
 214 0062 9B1A     		subs	r3, r3, r2
 215 0064 1846     		mov	r0, r3
 216 0066 FFF7FEFF 		bl	__aeabi_i2d
 217 006a 0246     		mov	r2, r0
 218 006c 0B46     		mov	r3, r1
 219 006e 2046     		mov	r0, r4
 220 0070 2946     		mov	r1, r5
 221 0072 FFF7FEFF 		bl	atan2
 222 0076 C7E90401 		strd	r0, [r7, #16]
  50:VFH\src/polar_histogram.c **** 
  51:VFH\src/polar_histogram.c ****       /* Calculate the obstacle density of this cell. */
  52:VFH\src/polar_histogram.c ****       double density = pow(map->cells[i * width + j], 2);
 223              		.loc 1 52 0 discriminator 3
 224 007a 3B68     		ldr	r3, [r7]
 225 007c DA68     		ldr	r2, [r3, #12]
 226 007e 7B6B     		ldr	r3, [r7, #52]
 227 0080 F96A     		ldr	r1, [r7, #44]
 228 0082 01FB03F1 		mul	r1, r1, r3
 229 0086 3B6B     		ldr	r3, [r7, #48]
 230 0088 0B44     		add	r3, r3, r1
 231 008a 9B00     		lsls	r3, r3, #2
ARM GAS  C:\Users\jmspi\AppData\Local\Temp\cco2mZYM.s 			page 6


 232 008c 1344     		add	r3, r3, r2
 233 008e 1B68     		ldr	r3, [r3]
 234 0090 1846     		mov	r0, r3
 235 0092 FFF7FEFF 		bl	__aeabi_i2d
 236 0096 4FF00002 		mov	r2, #0
 237 009a 4FF08043 		mov	r3, #1073741824
 238 009e FFF7FEFF 		bl	pow
 239 00a2 C7E90201 		strd	r0, [r7, #8]
  53:VFH\src/polar_histogram.c ****       density *= dens_a - dens_b * sqrt(pow(i - width/2, 2) + pow(j - height/2, 2));
 240              		.loc 1 53 0 discriminator 3
 241 00a6 FB6A     		ldr	r3, [r7, #44]
 242 00a8 DA0F     		lsrs	r2, r3, #31
 243 00aa 1344     		add	r3, r3, r2
 244 00ac 5B10     		asrs	r3, r3, #1
 245 00ae 1A46     		mov	r2, r3
 246 00b0 7B6B     		ldr	r3, [r7, #52]
 247 00b2 9B1A     		subs	r3, r3, r2
 248 00b4 1846     		mov	r0, r3
 249 00b6 FFF7FEFF 		bl	__aeabi_i2d
 250 00ba 4FF00002 		mov	r2, #0
 251 00be 4FF08043 		mov	r3, #1073741824
 252 00c2 FFF7FEFF 		bl	pow
 253 00c6 0446     		mov	r4, r0
 254 00c8 0D46     		mov	r5, r1
 255 00ca BB6A     		ldr	r3, [r7, #40]
 256 00cc DA0F     		lsrs	r2, r3, #31
 257 00ce 1344     		add	r3, r3, r2
 258 00d0 5B10     		asrs	r3, r3, #1
 259 00d2 1A46     		mov	r2, r3
 260 00d4 3B6B     		ldr	r3, [r7, #48]
 261 00d6 9B1A     		subs	r3, r3, r2
 262 00d8 1846     		mov	r0, r3
 263 00da FFF7FEFF 		bl	__aeabi_i2d
 264 00de 4FF00002 		mov	r2, #0
 265 00e2 4FF08043 		mov	r3, #1073741824
 266 00e6 FFF7FEFF 		bl	pow
 267 00ea 0246     		mov	r2, r0
 268 00ec 0B46     		mov	r3, r1
 269 00ee 2046     		mov	r0, r4
 270 00f0 2946     		mov	r1, r5
 271 00f2 FFF7FEFF 		bl	__aeabi_dadd
 272 00f6 0346     		mov	r3, r0
 273 00f8 0C46     		mov	r4, r1
 274 00fa 1846     		mov	r0, r3
 275 00fc 2146     		mov	r1, r4
 276 00fe FFF7FEFF 		bl	sqrt
 277 0102 D7E90623 		ldrd	r2, [r7, #24]
 278 0106 FFF7FEFF 		bl	__aeabi_dmul
 279 010a 0346     		mov	r3, r0
 280 010c 0C46     		mov	r4, r1
 281 010e 1A46     		mov	r2, r3
 282 0110 2346     		mov	r3, r4
 283 0112 D7E90801 		ldrd	r0, [r7, #32]
 284 0116 FFF7FEFF 		bl	__aeabi_dsub
 285 011a 0346     		mov	r3, r0
 286 011c 0C46     		mov	r4, r1
 287 011e 1A46     		mov	r2, r3
ARM GAS  C:\Users\jmspi\AppData\Local\Temp\cco2mZYM.s 			page 7


 288 0120 2346     		mov	r3, r4
 289 0122 D7E90201 		ldrd	r0, [r7, #8]
 290 0126 FFF7FEFF 		bl	__aeabi_dmul
 291 012a 0346     		mov	r3, r0
 292 012c 0C46     		mov	r4, r1
 293 012e C7E90234 		strd	r3, [r7, #8]
  54:VFH\src/polar_histogram.c **** 
  55:VFH\src/polar_histogram.c ****       /* Add density to respective point in the histogram. */
  56:VFH\src/polar_histogram.c ****       hist->densities[(int) floor(beta / hist->alpha)] += density;
 294              		.loc 1 56 0 discriminator 3
 295 0132 7B68     		ldr	r3, [r7, #4]
 296 0134 9C6A     		ldr	r4, [r3, #40]
 297 0136 7B68     		ldr	r3, [r7, #4]
 298 0138 1B68     		ldr	r3, [r3]
 299 013a 1846     		mov	r0, r3
 300 013c FFF7FEFF 		bl	__aeabi_i2d
 301 0140 0246     		mov	r2, r0
 302 0142 0B46     		mov	r3, r1
 303 0144 D7E90401 		ldrd	r0, [r7, #16]
 304 0148 FFF7FEFF 		bl	__aeabi_ddiv
 305 014c 0246     		mov	r2, r0
 306 014e 0B46     		mov	r3, r1
 307 0150 1046     		mov	r0, r2
 308 0152 1946     		mov	r1, r3
 309 0154 FFF7FEFF 		bl	floor
 310 0158 0246     		mov	r2, r0
 311 015a 0B46     		mov	r3, r1
 312 015c 1046     		mov	r0, r2
 313 015e 1946     		mov	r1, r3
 314 0160 FFF7FEFF 		bl	__aeabi_d2iz
 315 0164 0346     		mov	r3, r0
 316 0166 9B00     		lsls	r3, r3, #2
 317 0168 1C44     		add	r4, r4, r3
 318 016a 7B68     		ldr	r3, [r7, #4]
 319 016c 9D6A     		ldr	r5, [r3, #40]
 320 016e 7B68     		ldr	r3, [r7, #4]
 321 0170 1B68     		ldr	r3, [r3]
 322 0172 1846     		mov	r0, r3
 323 0174 FFF7FEFF 		bl	__aeabi_i2d
 324 0178 0246     		mov	r2, r0
 325 017a 0B46     		mov	r3, r1
 326 017c D7E90401 		ldrd	r0, [r7, #16]
 327 0180 FFF7FEFF 		bl	__aeabi_ddiv
 328 0184 0246     		mov	r2, r0
 329 0186 0B46     		mov	r3, r1
 330 0188 1046     		mov	r0, r2
 331 018a 1946     		mov	r1, r3
 332 018c FFF7FEFF 		bl	floor
 333 0190 0246     		mov	r2, r0
 334 0192 0B46     		mov	r3, r1
 335 0194 1046     		mov	r0, r2
 336 0196 1946     		mov	r1, r3
 337 0198 FFF7FEFF 		bl	__aeabi_d2iz
 338 019c 0346     		mov	r3, r0
 339 019e 9B00     		lsls	r3, r3, #2
 340 01a0 2B44     		add	r3, r3, r5
 341 01a2 1B68     		ldr	r3, [r3]
ARM GAS  C:\Users\jmspi\AppData\Local\Temp\cco2mZYM.s 			page 8


 342 01a4 1846     		mov	r0, r3
 343 01a6 FFF7FEFF 		bl	__aeabi_i2d
 344 01aa D7E90223 		ldrd	r2, [r7, #8]
 345 01ae FFF7FEFF 		bl	__aeabi_dadd
 346 01b2 0246     		mov	r2, r0
 347 01b4 0B46     		mov	r3, r1
 348 01b6 1046     		mov	r0, r2
 349 01b8 1946     		mov	r1, r3
 350 01ba FFF7FEFF 		bl	__aeabi_d2iz
 351 01be 0346     		mov	r3, r0
 352 01c0 2360     		str	r3, [r4]
 353              	.LBE5:
  46:VFH\src/polar_histogram.c **** 
 354              		.loc 1 46 0 discriminator 3
 355 01c2 3B6B     		ldr	r3, [r7, #48]
 356 01c4 0133     		adds	r3, r3, #1
 357 01c6 3B63     		str	r3, [r7, #48]
 358              	.L9:
  46:VFH\src/polar_histogram.c **** 
 359              		.loc 1 46 0 is_stmt 0 discriminator 1
 360 01c8 3A6B     		ldr	r2, [r7, #48]
 361 01ca BB6A     		ldr	r3, [r7, #40]
 362 01cc 9A42     		cmp	r2, r3
 363 01ce FFF636AF 		blt	.L10
 364              	.LBE4:
  45:VFH\src/polar_histogram.c ****     for (int j = 0; j < height; ++j) {
 365              		.loc 1 45 0 is_stmt 1 discriminator 2
 366 01d2 7B6B     		ldr	r3, [r7, #52]
 367 01d4 0133     		adds	r3, r3, #1
 368 01d6 7B63     		str	r3, [r7, #52]
 369              	.L8:
  45:VFH\src/polar_histogram.c ****     for (int j = 0; j < height; ++j) {
 370              		.loc 1 45 0 is_stmt 0 discriminator 1
 371 01d8 7A6B     		ldr	r2, [r7, #52]
 372 01da FB6A     		ldr	r3, [r7, #44]
 373 01dc 9A42     		cmp	r2, r3
 374 01de FFF62BAF 		blt	.L11
 375              	.LBE3:
  57:VFH\src/polar_histogram.c ****     }
  58:VFH\src/polar_histogram.c ****   }
  59:VFH\src/polar_histogram.c **** }
 376              		.loc 1 59 0 is_stmt 1
 377 01e2 00BF     		nop
 378 01e4 3837     		adds	r7, r7, #56
 379              		.cfi_def_cfa_offset 16
 380 01e6 BD46     		mov	sp, r7
 381              		.cfi_def_cfa_register 13
 382              		@ sp needed
 383 01e8 B0BD     		pop	{r4, r5, r7, pc}
 384              		.cfi_endproc
 385              	.LFE1:
 386              		.size	hist_update, .-hist_update
 387 01ea 00BF     		.text
 388              	.Letext0:
 389              		.file 2 ".\\VFH\\include/histogram_grid.h"
 390              		.file 3 ".\\VFH\\include/polar_histogram.h"