ARM GAS  C:\Users\jmspi\AppData\Local\Temp\ccK7Zozg.s 			page 1


   1              		.syntax unified
   2              		.cpu cortex-m3
   3              		.fpu softvfp
   4              		.eabi_attribute 20, 1
   5              		.eabi_attribute 21, 1
   6              		.eabi_attribute 23, 3
   7              		.eabi_attribute 24, 1
   8              		.eabi_attribute 25, 1
   9              		.eabi_attribute 26, 1
  10              		.eabi_attribute 30, 6
  11              		.eabi_attribute 34, 1
  12              		.eabi_attribute 18, 4
  13              		.thumb
  14              		.syntax unified
  15              		.file	"PWM_ServoDir.c"
  16              		.text
  17              	.Ltext0:
  18              		.cfi_sections	.debug_frame
  19              		.global	PWM_ServoDir_initVar
  20              		.bss
  21              		.type	PWM_ServoDir_initVar, %object
  22              		.size	PWM_ServoDir_initVar, 1
  23              	PWM_ServoDir_initVar:
  24 0000 00       		.space	1
  25              		.section	.text.PWM_ServoDir_Start,"ax",%progbits
  26              		.align	2
  27              		.global	PWM_ServoDir_Start
  28              		.thumb
  29              		.thumb_func
  30              		.type	PWM_ServoDir_Start, %function
  31              	PWM_ServoDir_Start:
  32              	.LFB0:
  33              		.file 1 "Generated_Source\\PSoC5\\PWM_ServoDir.c"
   1:Generated_Source\PSoC5/PWM_ServoDir.c **** /*******************************************************************************
   2:Generated_Source\PSoC5/PWM_ServoDir.c **** * File Name: PWM_ServoDir.c
   3:Generated_Source\PSoC5/PWM_ServoDir.c **** * Version 3.30
   4:Generated_Source\PSoC5/PWM_ServoDir.c **** *
   5:Generated_Source\PSoC5/PWM_ServoDir.c **** * Description:
   6:Generated_Source\PSoC5/PWM_ServoDir.c **** *  The PWM User Module consist of an 8 or 16-bit counter with two 8 or 16-bit
   7:Generated_Source\PSoC5/PWM_ServoDir.c **** *  comparitors. Each instance of this user module is capable of generating
   8:Generated_Source\PSoC5/PWM_ServoDir.c **** *  two PWM outputs with the same period. The pulse width is selectable between
   9:Generated_Source\PSoC5/PWM_ServoDir.c **** *  1 and 255/65535. The period is selectable between 2 and 255/65536 clocks.
  10:Generated_Source\PSoC5/PWM_ServoDir.c **** *  The compare value output may be configured to be active when the present
  11:Generated_Source\PSoC5/PWM_ServoDir.c **** *  counter is less than or less than/equal to the compare value.
  12:Generated_Source\PSoC5/PWM_ServoDir.c **** *  A terminal count output is also provided. It generates a pulse one clock
  13:Generated_Source\PSoC5/PWM_ServoDir.c **** *  width wide when the counter is equal to zero.
  14:Generated_Source\PSoC5/PWM_ServoDir.c **** *
  15:Generated_Source\PSoC5/PWM_ServoDir.c **** * Note:
  16:Generated_Source\PSoC5/PWM_ServoDir.c **** *
  17:Generated_Source\PSoC5/PWM_ServoDir.c **** *******************************************************************************
  18:Generated_Source\PSoC5/PWM_ServoDir.c **** * Copyright 2008-2014, Cypress Semiconductor Corporation.  All rights reserved.
  19:Generated_Source\PSoC5/PWM_ServoDir.c **** * You may use this file only in accordance with the license, terms, conditions,
  20:Generated_Source\PSoC5/PWM_ServoDir.c **** * disclaimers, and limitations in the end user license agreement accompanying
  21:Generated_Source\PSoC5/PWM_ServoDir.c **** * the software package with which this file was provided.
  22:Generated_Source\PSoC5/PWM_ServoDir.c **** ********************************************************************************/
  23:Generated_Source\PSoC5/PWM_ServoDir.c **** 
  24:Generated_Source\PSoC5/PWM_ServoDir.c **** #include "PWM_ServoDir.h"
ARM GAS  C:\Users\jmspi\AppData\Local\Temp\ccK7Zozg.s 			page 2


  25:Generated_Source\PSoC5/PWM_ServoDir.c **** 
  26:Generated_Source\PSoC5/PWM_ServoDir.c **** /* Error message for removed <resource> through optimization */
  27:Generated_Source\PSoC5/PWM_ServoDir.c **** #ifdef PWM_ServoDir_PWMUDB_genblk1_ctrlreg__REMOVED
  28:Generated_Source\PSoC5/PWM_ServoDir.c ****     #error PWM_v3_30 detected with a constant 0 for the enable or \
  29:Generated_Source\PSoC5/PWM_ServoDir.c ****          constant 1 for reset. This will prevent the component from operating.
  30:Generated_Source\PSoC5/PWM_ServoDir.c **** #endif /* PWM_ServoDir_PWMUDB_genblk1_ctrlreg__REMOVED */
  31:Generated_Source\PSoC5/PWM_ServoDir.c **** 
  32:Generated_Source\PSoC5/PWM_ServoDir.c **** uint8 PWM_ServoDir_initVar = 0u;
  33:Generated_Source\PSoC5/PWM_ServoDir.c **** 
  34:Generated_Source\PSoC5/PWM_ServoDir.c **** 
  35:Generated_Source\PSoC5/PWM_ServoDir.c **** /*******************************************************************************
  36:Generated_Source\PSoC5/PWM_ServoDir.c **** * Function Name: PWM_ServoDir_Start
  37:Generated_Source\PSoC5/PWM_ServoDir.c **** ********************************************************************************
  38:Generated_Source\PSoC5/PWM_ServoDir.c **** *
  39:Generated_Source\PSoC5/PWM_ServoDir.c **** * Summary:
  40:Generated_Source\PSoC5/PWM_ServoDir.c **** *  The start function initializes the pwm with the default values, the
  41:Generated_Source\PSoC5/PWM_ServoDir.c **** *  enables the counter to begin counting.  It does not enable interrupts,
  42:Generated_Source\PSoC5/PWM_ServoDir.c **** *  the EnableInt command should be called if interrupt generation is required.
  43:Generated_Source\PSoC5/PWM_ServoDir.c **** *
  44:Generated_Source\PSoC5/PWM_ServoDir.c **** * Parameters:
  45:Generated_Source\PSoC5/PWM_ServoDir.c **** *  None
  46:Generated_Source\PSoC5/PWM_ServoDir.c **** *
  47:Generated_Source\PSoC5/PWM_ServoDir.c **** * Return:
  48:Generated_Source\PSoC5/PWM_ServoDir.c **** *  None
  49:Generated_Source\PSoC5/PWM_ServoDir.c **** *
  50:Generated_Source\PSoC5/PWM_ServoDir.c **** * Global variables:
  51:Generated_Source\PSoC5/PWM_ServoDir.c **** *  PWM_ServoDir_initVar: Is modified when this function is called for the
  52:Generated_Source\PSoC5/PWM_ServoDir.c **** *   first time. Is used to ensure that initialization happens only once.
  53:Generated_Source\PSoC5/PWM_ServoDir.c **** *
  54:Generated_Source\PSoC5/PWM_ServoDir.c **** *******************************************************************************/
  55:Generated_Source\PSoC5/PWM_ServoDir.c **** void PWM_ServoDir_Start(void) 
  56:Generated_Source\PSoC5/PWM_ServoDir.c **** {
  34              		.loc 1 56 0
  35              		.cfi_startproc
  36              		@ args = 0, pretend = 0, frame = 0
  37              		@ frame_needed = 1, uses_anonymous_args = 0
  38 0000 80B5     		push	{r7, lr}
  39              		.cfi_def_cfa_offset 8
  40              		.cfi_offset 7, -8
  41              		.cfi_offset 14, -4
  42 0002 00AF     		add	r7, sp, #0
  43              		.cfi_def_cfa_register 7
  57:Generated_Source\PSoC5/PWM_ServoDir.c ****     /* If not Initialized then initialize all required hardware and software */
  58:Generated_Source\PSoC5/PWM_ServoDir.c ****     if(PWM_ServoDir_initVar == 0u)
  44              		.loc 1 58 0
  45 0004 064B     		ldr	r3, .L3
  46 0006 1B78     		ldrb	r3, [r3]	@ zero_extendqisi2
  47 0008 002B     		cmp	r3, #0
  48 000a 04D1     		bne	.L2
  59:Generated_Source\PSoC5/PWM_ServoDir.c ****     {
  60:Generated_Source\PSoC5/PWM_ServoDir.c ****         PWM_ServoDir_Init();
  49              		.loc 1 60 0
  50 000c FFF7FEFF 		bl	PWM_ServoDir_Init
  61:Generated_Source\PSoC5/PWM_ServoDir.c ****         PWM_ServoDir_initVar = 1u;
  51              		.loc 1 61 0
  52 0010 034B     		ldr	r3, .L3
  53 0012 0122     		movs	r2, #1
ARM GAS  C:\Users\jmspi\AppData\Local\Temp\ccK7Zozg.s 			page 3


  54 0014 1A70     		strb	r2, [r3]
  55              	.L2:
  62:Generated_Source\PSoC5/PWM_ServoDir.c ****     }
  63:Generated_Source\PSoC5/PWM_ServoDir.c ****     PWM_ServoDir_Enable();
  56              		.loc 1 63 0
  57 0016 FFF7FEFF 		bl	PWM_ServoDir_Enable
  64:Generated_Source\PSoC5/PWM_ServoDir.c **** 
  65:Generated_Source\PSoC5/PWM_ServoDir.c **** }
  58              		.loc 1 65 0
  59 001a 00BF     		nop
  60 001c 80BD     		pop	{r7, pc}
  61              	.L4:
  62 001e 00BF     		.align	2
  63              	.L3:
  64 0020 00000000 		.word	PWM_ServoDir_initVar
  65              		.cfi_endproc
  66              	.LFE0:
  67              		.size	PWM_ServoDir_Start, .-PWM_ServoDir_Start
  68              		.section	.text.PWM_ServoDir_Init,"ax",%progbits
  69              		.align	2
  70              		.global	PWM_ServoDir_Init
  71              		.thumb
  72              		.thumb_func
  73              		.type	PWM_ServoDir_Init, %function
  74              	PWM_ServoDir_Init:
  75              	.LFB1:
  66:Generated_Source\PSoC5/PWM_ServoDir.c **** 
  67:Generated_Source\PSoC5/PWM_ServoDir.c **** 
  68:Generated_Source\PSoC5/PWM_ServoDir.c **** /*******************************************************************************
  69:Generated_Source\PSoC5/PWM_ServoDir.c **** * Function Name: PWM_ServoDir_Init
  70:Generated_Source\PSoC5/PWM_ServoDir.c **** ********************************************************************************
  71:Generated_Source\PSoC5/PWM_ServoDir.c **** *
  72:Generated_Source\PSoC5/PWM_ServoDir.c **** * Summary:
  73:Generated_Source\PSoC5/PWM_ServoDir.c **** *  Initialize component's parameters to the parameters set by user in the
  74:Generated_Source\PSoC5/PWM_ServoDir.c **** *  customizer of the component placed onto schematic. Usually called in
  75:Generated_Source\PSoC5/PWM_ServoDir.c **** *  PWM_ServoDir_Start().
  76:Generated_Source\PSoC5/PWM_ServoDir.c **** *
  77:Generated_Source\PSoC5/PWM_ServoDir.c **** * Parameters:
  78:Generated_Source\PSoC5/PWM_ServoDir.c **** *  None
  79:Generated_Source\PSoC5/PWM_ServoDir.c **** *
  80:Generated_Source\PSoC5/PWM_ServoDir.c **** * Return:
  81:Generated_Source\PSoC5/PWM_ServoDir.c **** *  None
  82:Generated_Source\PSoC5/PWM_ServoDir.c **** *
  83:Generated_Source\PSoC5/PWM_ServoDir.c **** *******************************************************************************/
  84:Generated_Source\PSoC5/PWM_ServoDir.c **** void PWM_ServoDir_Init(void) 
  85:Generated_Source\PSoC5/PWM_ServoDir.c **** {
  76              		.loc 1 85 0
  77              		.cfi_startproc
  78              		@ args = 0, pretend = 0, frame = 8
  79              		@ frame_needed = 1, uses_anonymous_args = 0
  80 0000 80B5     		push	{r7, lr}
  81              		.cfi_def_cfa_offset 8
  82              		.cfi_offset 7, -8
  83              		.cfi_offset 14, -4
  84 0002 82B0     		sub	sp, sp, #8
  85              		.cfi_def_cfa_offset 16
  86 0004 00AF     		add	r7, sp, #0
ARM GAS  C:\Users\jmspi\AppData\Local\Temp\ccK7Zozg.s 			page 4


  87              		.cfi_def_cfa_register 7
  86:Generated_Source\PSoC5/PWM_ServoDir.c ****     #if (PWM_ServoDir_UsingFixedFunction || PWM_ServoDir_UseControl)
  87:Generated_Source\PSoC5/PWM_ServoDir.c ****         uint8 ctrl;
  88:Generated_Source\PSoC5/PWM_ServoDir.c ****     #endif /* (PWM_ServoDir_UsingFixedFunction || PWM_ServoDir_UseControl) */
  89:Generated_Source\PSoC5/PWM_ServoDir.c **** 
  90:Generated_Source\PSoC5/PWM_ServoDir.c ****     #if(!PWM_ServoDir_UsingFixedFunction)
  91:Generated_Source\PSoC5/PWM_ServoDir.c ****         #if(PWM_ServoDir_UseStatus)
  92:Generated_Source\PSoC5/PWM_ServoDir.c ****             /* Interrupt State Backup for Critical Region*/
  93:Generated_Source\PSoC5/PWM_ServoDir.c ****             uint8 PWM_ServoDir_interruptState;
  94:Generated_Source\PSoC5/PWM_ServoDir.c ****         #endif /* (PWM_ServoDir_UseStatus) */
  95:Generated_Source\PSoC5/PWM_ServoDir.c ****     #endif /* (!PWM_ServoDir_UsingFixedFunction) */
  96:Generated_Source\PSoC5/PWM_ServoDir.c **** 
  97:Generated_Source\PSoC5/PWM_ServoDir.c ****     #if (PWM_ServoDir_UsingFixedFunction)
  98:Generated_Source\PSoC5/PWM_ServoDir.c ****         /* You are allowed to write the compare value (FF only) */
  99:Generated_Source\PSoC5/PWM_ServoDir.c ****         PWM_ServoDir_CONTROL |= PWM_ServoDir_CFG0_MODE;
 100:Generated_Source\PSoC5/PWM_ServoDir.c ****         #if (PWM_ServoDir_DeadBand2_4)
 101:Generated_Source\PSoC5/PWM_ServoDir.c ****             PWM_ServoDir_CONTROL |= PWM_ServoDir_CFG0_DB;
 102:Generated_Source\PSoC5/PWM_ServoDir.c ****         #endif /* (PWM_ServoDir_DeadBand2_4) */
 103:Generated_Source\PSoC5/PWM_ServoDir.c **** 
 104:Generated_Source\PSoC5/PWM_ServoDir.c ****         ctrl = PWM_ServoDir_CONTROL3 & ((uint8 )(~PWM_ServoDir_CTRL_CMPMODE1_MASK));
 105:Generated_Source\PSoC5/PWM_ServoDir.c ****         PWM_ServoDir_CONTROL3 = ctrl | PWM_ServoDir_DEFAULT_COMPARE1_MODE;
 106:Generated_Source\PSoC5/PWM_ServoDir.c **** 
 107:Generated_Source\PSoC5/PWM_ServoDir.c ****          /* Clear and Set SYNCTC and SYNCCMP bits of RT1 register */
 108:Generated_Source\PSoC5/PWM_ServoDir.c ****         PWM_ServoDir_RT1 &= ((uint8)(~PWM_ServoDir_RT1_MASK));
 109:Generated_Source\PSoC5/PWM_ServoDir.c ****         PWM_ServoDir_RT1 |= PWM_ServoDir_SYNC;
 110:Generated_Source\PSoC5/PWM_ServoDir.c **** 
 111:Generated_Source\PSoC5/PWM_ServoDir.c ****         /*Enable DSI Sync all all inputs of the PWM*/
 112:Generated_Source\PSoC5/PWM_ServoDir.c ****         PWM_ServoDir_RT1 &= ((uint8)(~PWM_ServoDir_SYNCDSI_MASK));
 113:Generated_Source\PSoC5/PWM_ServoDir.c ****         PWM_ServoDir_RT1 |= PWM_ServoDir_SYNCDSI_EN;
 114:Generated_Source\PSoC5/PWM_ServoDir.c **** 
 115:Generated_Source\PSoC5/PWM_ServoDir.c ****     #elif (PWM_ServoDir_UseControl)
 116:Generated_Source\PSoC5/PWM_ServoDir.c ****         /* Set the default compare mode defined in the parameter */
 117:Generated_Source\PSoC5/PWM_ServoDir.c ****         ctrl = PWM_ServoDir_CONTROL & ((uint8)(~PWM_ServoDir_CTRL_CMPMODE2_MASK)) &
 118:Generated_Source\PSoC5/PWM_ServoDir.c ****                 ((uint8)(~PWM_ServoDir_CTRL_CMPMODE1_MASK));
 119:Generated_Source\PSoC5/PWM_ServoDir.c ****         PWM_ServoDir_CONTROL = ctrl | PWM_ServoDir_DEFAULT_COMPARE2_MODE |
 120:Generated_Source\PSoC5/PWM_ServoDir.c ****                                    PWM_ServoDir_DEFAULT_COMPARE1_MODE;
 121:Generated_Source\PSoC5/PWM_ServoDir.c ****     #endif /* (PWM_ServoDir_UsingFixedFunction) */
 122:Generated_Source\PSoC5/PWM_ServoDir.c **** 
 123:Generated_Source\PSoC5/PWM_ServoDir.c ****     #if (!PWM_ServoDir_UsingFixedFunction)
 124:Generated_Source\PSoC5/PWM_ServoDir.c ****         #if (PWM_ServoDir_Resolution == 8)
 125:Generated_Source\PSoC5/PWM_ServoDir.c ****             /* Set FIFO 0 to 1 byte register for period*/
 126:Generated_Source\PSoC5/PWM_ServoDir.c ****             PWM_ServoDir_AUX_CONTROLDP0 |= (PWM_ServoDir_AUX_CTRL_FIFO0_CLR);
 127:Generated_Source\PSoC5/PWM_ServoDir.c ****         #else /* (PWM_ServoDir_Resolution == 16)*/
 128:Generated_Source\PSoC5/PWM_ServoDir.c ****             /* Set FIFO 0 to 1 byte register for period */
 129:Generated_Source\PSoC5/PWM_ServoDir.c ****             PWM_ServoDir_AUX_CONTROLDP0 |= (PWM_ServoDir_AUX_CTRL_FIFO0_CLR);
  88              		.loc 1 129 0
  89 0006 1C4A     		ldr	r2, .L6
  90 0008 1B4B     		ldr	r3, .L6
  91 000a 1B78     		ldrb	r3, [r3]
  92 000c DBB2     		uxtb	r3, r3
  93 000e 43F00103 		orr	r3, r3, #1
  94 0012 DBB2     		uxtb	r3, r3
  95 0014 1370     		strb	r3, [r2]
 130:Generated_Source\PSoC5/PWM_ServoDir.c ****             PWM_ServoDir_AUX_CONTROLDP1 |= (PWM_ServoDir_AUX_CTRL_FIFO0_CLR);
  96              		.loc 1 130 0
  97 0016 194A     		ldr	r2, .L6+4
  98 0018 184B     		ldr	r3, .L6+4
ARM GAS  C:\Users\jmspi\AppData\Local\Temp\ccK7Zozg.s 			page 5


  99 001a 1B78     		ldrb	r3, [r3]
 100 001c DBB2     		uxtb	r3, r3
 101 001e 43F00103 		orr	r3, r3, #1
 102 0022 DBB2     		uxtb	r3, r3
 103 0024 1370     		strb	r3, [r2]
 131:Generated_Source\PSoC5/PWM_ServoDir.c ****         #endif /* (PWM_ServoDir_Resolution == 8) */
 132:Generated_Source\PSoC5/PWM_ServoDir.c **** 
 133:Generated_Source\PSoC5/PWM_ServoDir.c ****         PWM_ServoDir_WriteCounter(PWM_ServoDir_INIT_PERIOD_VALUE);
 104              		.loc 1 133 0
 105 0026 49F64040 		movw	r0, #40000
 106 002a FFF7FEFF 		bl	PWM_ServoDir_WriteCounter
 134:Generated_Source\PSoC5/PWM_ServoDir.c ****     #endif /* (!PWM_ServoDir_UsingFixedFunction) */
 135:Generated_Source\PSoC5/PWM_ServoDir.c **** 
 136:Generated_Source\PSoC5/PWM_ServoDir.c ****     PWM_ServoDir_WritePeriod(PWM_ServoDir_INIT_PERIOD_VALUE);
 107              		.loc 1 136 0
 108 002e 49F64040 		movw	r0, #40000
 109 0032 FFF7FEFF 		bl	PWM_ServoDir_WritePeriod
 137:Generated_Source\PSoC5/PWM_ServoDir.c **** 
 138:Generated_Source\PSoC5/PWM_ServoDir.c ****         #if (PWM_ServoDir_UseOneCompareMode)
 139:Generated_Source\PSoC5/PWM_ServoDir.c ****             PWM_ServoDir_WriteCompare(PWM_ServoDir_INIT_COMPARE_VALUE1);
 140:Generated_Source\PSoC5/PWM_ServoDir.c ****         #else
 141:Generated_Source\PSoC5/PWM_ServoDir.c ****             PWM_ServoDir_WriteCompare1(PWM_ServoDir_INIT_COMPARE_VALUE1);
 110              		.loc 1 141 0
 111 0036 4FF47A60 		mov	r0, #4000
 112 003a FFF7FEFF 		bl	PWM_ServoDir_WriteCompare1
 142:Generated_Source\PSoC5/PWM_ServoDir.c ****             PWM_ServoDir_WriteCompare2(PWM_ServoDir_INIT_COMPARE_VALUE2);
 113              		.loc 1 142 0
 114 003e 4FF4FA60 		mov	r0, #2000
 115 0042 FFF7FEFF 		bl	PWM_ServoDir_WriteCompare2
 143:Generated_Source\PSoC5/PWM_ServoDir.c ****         #endif /* (PWM_ServoDir_UseOneCompareMode) */
 144:Generated_Source\PSoC5/PWM_ServoDir.c **** 
 145:Generated_Source\PSoC5/PWM_ServoDir.c ****         #if (PWM_ServoDir_KillModeMinTime)
 146:Generated_Source\PSoC5/PWM_ServoDir.c ****             PWM_ServoDir_WriteKillTime(PWM_ServoDir_MinimumKillTime);
 147:Generated_Source\PSoC5/PWM_ServoDir.c ****         #endif /* (PWM_ServoDir_KillModeMinTime) */
 148:Generated_Source\PSoC5/PWM_ServoDir.c **** 
 149:Generated_Source\PSoC5/PWM_ServoDir.c ****         #if (PWM_ServoDir_DeadBandUsed)
 150:Generated_Source\PSoC5/PWM_ServoDir.c ****             PWM_ServoDir_WriteDeadTime(PWM_ServoDir_INIT_DEAD_TIME);
 151:Generated_Source\PSoC5/PWM_ServoDir.c ****         #endif /* (PWM_ServoDir_DeadBandUsed) */
 152:Generated_Source\PSoC5/PWM_ServoDir.c **** 
 153:Generated_Source\PSoC5/PWM_ServoDir.c ****     #if (PWM_ServoDir_UseStatus || PWM_ServoDir_UsingFixedFunction)
 154:Generated_Source\PSoC5/PWM_ServoDir.c ****         PWM_ServoDir_SetInterruptMode(PWM_ServoDir_INIT_INTERRUPTS_MODE);
 116              		.loc 1 154 0
 117 0046 0020     		movs	r0, #0
 118 0048 FFF7FEFF 		bl	PWM_ServoDir_SetInterruptMode
 155:Generated_Source\PSoC5/PWM_ServoDir.c ****     #endif /* (PWM_ServoDir_UseStatus || PWM_ServoDir_UsingFixedFunction) */
 156:Generated_Source\PSoC5/PWM_ServoDir.c **** 
 157:Generated_Source\PSoC5/PWM_ServoDir.c ****     #if (PWM_ServoDir_UsingFixedFunction)
 158:Generated_Source\PSoC5/PWM_ServoDir.c ****         /* Globally Enable the Fixed Function Block chosen */
 159:Generated_Source\PSoC5/PWM_ServoDir.c ****         PWM_ServoDir_GLOBAL_ENABLE |= PWM_ServoDir_BLOCK_EN_MASK;
 160:Generated_Source\PSoC5/PWM_ServoDir.c ****         /* Set the Interrupt source to come from the status register */
 161:Generated_Source\PSoC5/PWM_ServoDir.c ****         PWM_ServoDir_CONTROL2 |= PWM_ServoDir_CTRL2_IRQ_SEL;
 162:Generated_Source\PSoC5/PWM_ServoDir.c ****     #else
 163:Generated_Source\PSoC5/PWM_ServoDir.c ****         #if(PWM_ServoDir_UseStatus)
 164:Generated_Source\PSoC5/PWM_ServoDir.c **** 
 165:Generated_Source\PSoC5/PWM_ServoDir.c ****             /* CyEnterCriticalRegion and CyExitCriticalRegion are used to mark following region cri
 166:Generated_Source\PSoC5/PWM_ServoDir.c ****             /* Enter Critical Region*/
 167:Generated_Source\PSoC5/PWM_ServoDir.c ****             PWM_ServoDir_interruptState = CyEnterCriticalSection();
ARM GAS  C:\Users\jmspi\AppData\Local\Temp\ccK7Zozg.s 			page 6


 119              		.loc 1 167 0
 120 004c FFF7FEFF 		bl	CyEnterCriticalSection
 121 0050 0346     		mov	r3, r0
 122 0052 FB71     		strb	r3, [r7, #7]
 168:Generated_Source\PSoC5/PWM_ServoDir.c ****             /* Use the interrupt output of the status register for IRQ output */
 169:Generated_Source\PSoC5/PWM_ServoDir.c ****             PWM_ServoDir_STATUS_AUX_CTRL |= PWM_ServoDir_STATUS_ACTL_INT_EN_MASK;
 123              		.loc 1 169 0
 124 0054 0A4A     		ldr	r2, .L6+8
 125 0056 0A4B     		ldr	r3, .L6+8
 126 0058 1B78     		ldrb	r3, [r3]
 127 005a DBB2     		uxtb	r3, r3
 128 005c 43F01003 		orr	r3, r3, #16
 129 0060 DBB2     		uxtb	r3, r3
 130 0062 1370     		strb	r3, [r2]
 170:Generated_Source\PSoC5/PWM_ServoDir.c **** 
 171:Generated_Source\PSoC5/PWM_ServoDir.c ****              /* Exit Critical Region*/
 172:Generated_Source\PSoC5/PWM_ServoDir.c ****             CyExitCriticalSection(PWM_ServoDir_interruptState);
 131              		.loc 1 172 0
 132 0064 FB79     		ldrb	r3, [r7, #7]	@ zero_extendqisi2
 133 0066 1846     		mov	r0, r3
 134 0068 FFF7FEFF 		bl	CyExitCriticalSection
 173:Generated_Source\PSoC5/PWM_ServoDir.c **** 
 174:Generated_Source\PSoC5/PWM_ServoDir.c ****             /* Clear the FIFO to enable the PWM_ServoDir_STATUS_FIFOFULL
 175:Generated_Source\PSoC5/PWM_ServoDir.c ****                    bit to be set on FIFO full. */
 176:Generated_Source\PSoC5/PWM_ServoDir.c ****             PWM_ServoDir_ClearFIFO();
 135              		.loc 1 176 0
 136 006c FFF7FEFF 		bl	PWM_ServoDir_ClearFIFO
 177:Generated_Source\PSoC5/PWM_ServoDir.c ****         #endif /* (PWM_ServoDir_UseStatus) */
 178:Generated_Source\PSoC5/PWM_ServoDir.c ****     #endif /* (PWM_ServoDir_UsingFixedFunction) */
 179:Generated_Source\PSoC5/PWM_ServoDir.c **** }
 137              		.loc 1 179 0
 138 0070 00BF     		nop
 139 0072 0837     		adds	r7, r7, #8
 140              		.cfi_def_cfa_offset 8
 141 0074 BD46     		mov	sp, r7
 142              		.cfi_def_cfa_register 13
 143              		@ sp needed
 144 0076 80BD     		pop	{r7, pc}
 145              	.L7:
 146              		.align	2
 147              	.L6:
 148 0078 96650040 		.word	1073767830
 149 007c 97650040 		.word	1073767831
 150 0080 95650040 		.word	1073767829
 151              		.cfi_endproc
 152              	.LFE1:
 153              		.size	PWM_ServoDir_Init, .-PWM_ServoDir_Init
 154              		.section	.text.PWM_ServoDir_Enable,"ax",%progbits
 155              		.align	2
 156              		.global	PWM_ServoDir_Enable
 157              		.thumb
 158              		.thumb_func
 159              		.type	PWM_ServoDir_Enable, %function
 160              	PWM_ServoDir_Enable:
 161              	.LFB2:
 180:Generated_Source\PSoC5/PWM_ServoDir.c **** 
 181:Generated_Source\PSoC5/PWM_ServoDir.c **** 
ARM GAS  C:\Users\jmspi\AppData\Local\Temp\ccK7Zozg.s 			page 7


 182:Generated_Source\PSoC5/PWM_ServoDir.c **** /*******************************************************************************
 183:Generated_Source\PSoC5/PWM_ServoDir.c **** * Function Name: PWM_ServoDir_Enable
 184:Generated_Source\PSoC5/PWM_ServoDir.c **** ********************************************************************************
 185:Generated_Source\PSoC5/PWM_ServoDir.c **** *
 186:Generated_Source\PSoC5/PWM_ServoDir.c **** * Summary:
 187:Generated_Source\PSoC5/PWM_ServoDir.c **** *  Enables the PWM block operation
 188:Generated_Source\PSoC5/PWM_ServoDir.c **** *
 189:Generated_Source\PSoC5/PWM_ServoDir.c **** * Parameters:
 190:Generated_Source\PSoC5/PWM_ServoDir.c **** *  None
 191:Generated_Source\PSoC5/PWM_ServoDir.c **** *
 192:Generated_Source\PSoC5/PWM_ServoDir.c **** * Return:
 193:Generated_Source\PSoC5/PWM_ServoDir.c **** *  None
 194:Generated_Source\PSoC5/PWM_ServoDir.c **** *
 195:Generated_Source\PSoC5/PWM_ServoDir.c **** * Side Effects:
 196:Generated_Source\PSoC5/PWM_ServoDir.c **** *  This works only if software enable mode is chosen
 197:Generated_Source\PSoC5/PWM_ServoDir.c **** *
 198:Generated_Source\PSoC5/PWM_ServoDir.c **** *******************************************************************************/
 199:Generated_Source\PSoC5/PWM_ServoDir.c **** void PWM_ServoDir_Enable(void) 
 200:Generated_Source\PSoC5/PWM_ServoDir.c **** {
 162              		.loc 1 200 0
 163              		.cfi_startproc
 164              		@ args = 0, pretend = 0, frame = 0
 165              		@ frame_needed = 1, uses_anonymous_args = 0
 166              		@ link register save eliminated.
 167 0000 80B4     		push	{r7}
 168              		.cfi_def_cfa_offset 4
 169              		.cfi_offset 7, -4
 170 0002 00AF     		add	r7, sp, #0
 171              		.cfi_def_cfa_register 7
 201:Generated_Source\PSoC5/PWM_ServoDir.c ****     /* Globally Enable the Fixed Function Block chosen */
 202:Generated_Source\PSoC5/PWM_ServoDir.c ****     #if (PWM_ServoDir_UsingFixedFunction)
 203:Generated_Source\PSoC5/PWM_ServoDir.c ****         PWM_ServoDir_GLOBAL_ENABLE |= PWM_ServoDir_BLOCK_EN_MASK;
 204:Generated_Source\PSoC5/PWM_ServoDir.c ****         PWM_ServoDir_GLOBAL_STBY_ENABLE |= PWM_ServoDir_BLOCK_STBY_EN_MASK;
 205:Generated_Source\PSoC5/PWM_ServoDir.c ****     #endif /* (PWM_ServoDir_UsingFixedFunction) */
 206:Generated_Source\PSoC5/PWM_ServoDir.c **** 
 207:Generated_Source\PSoC5/PWM_ServoDir.c ****     /* Enable the PWM from the control register  */
 208:Generated_Source\PSoC5/PWM_ServoDir.c ****     #if (PWM_ServoDir_UseControl || PWM_ServoDir_UsingFixedFunction)
 209:Generated_Source\PSoC5/PWM_ServoDir.c ****         PWM_ServoDir_CONTROL |= PWM_ServoDir_CTRL_ENABLE;
 210:Generated_Source\PSoC5/PWM_ServoDir.c ****     #endif /* (PWM_ServoDir_UseControl || PWM_ServoDir_UsingFixedFunction) */
 211:Generated_Source\PSoC5/PWM_ServoDir.c **** }
 172              		.loc 1 211 0
 173 0004 00BF     		nop
 174 0006 BD46     		mov	sp, r7
 175              		.cfi_def_cfa_register 13
 176              		@ sp needed
 177 0008 80BC     		pop	{r7}
 178              		.cfi_restore 7
 179              		.cfi_def_cfa_offset 0
 180 000a 7047     		bx	lr
 181              		.cfi_endproc
 182              	.LFE2:
 183              		.size	PWM_ServoDir_Enable, .-PWM_ServoDir_Enable
 184              		.section	.text.PWM_ServoDir_Stop,"ax",%progbits
 185              		.align	2
 186              		.global	PWM_ServoDir_Stop
 187              		.thumb
 188              		.thumb_func
ARM GAS  C:\Users\jmspi\AppData\Local\Temp\ccK7Zozg.s 			page 8


 189              		.type	PWM_ServoDir_Stop, %function
 190              	PWM_ServoDir_Stop:
 191              	.LFB3:
 212:Generated_Source\PSoC5/PWM_ServoDir.c **** 
 213:Generated_Source\PSoC5/PWM_ServoDir.c **** 
 214:Generated_Source\PSoC5/PWM_ServoDir.c **** /*******************************************************************************
 215:Generated_Source\PSoC5/PWM_ServoDir.c **** * Function Name: PWM_ServoDir_Stop
 216:Generated_Source\PSoC5/PWM_ServoDir.c **** ********************************************************************************
 217:Generated_Source\PSoC5/PWM_ServoDir.c **** *
 218:Generated_Source\PSoC5/PWM_ServoDir.c **** * Summary:
 219:Generated_Source\PSoC5/PWM_ServoDir.c **** *  The stop function halts the PWM, but does not change any modes or disable
 220:Generated_Source\PSoC5/PWM_ServoDir.c **** *  interrupts.
 221:Generated_Source\PSoC5/PWM_ServoDir.c **** *
 222:Generated_Source\PSoC5/PWM_ServoDir.c **** * Parameters:
 223:Generated_Source\PSoC5/PWM_ServoDir.c **** *  None
 224:Generated_Source\PSoC5/PWM_ServoDir.c **** *
 225:Generated_Source\PSoC5/PWM_ServoDir.c **** * Return:
 226:Generated_Source\PSoC5/PWM_ServoDir.c **** *  None
 227:Generated_Source\PSoC5/PWM_ServoDir.c **** *
 228:Generated_Source\PSoC5/PWM_ServoDir.c **** * Side Effects:
 229:Generated_Source\PSoC5/PWM_ServoDir.c **** *  If the Enable mode is set to Hardware only then this function
 230:Generated_Source\PSoC5/PWM_ServoDir.c **** *  has no effect on the operation of the PWM
 231:Generated_Source\PSoC5/PWM_ServoDir.c **** *
 232:Generated_Source\PSoC5/PWM_ServoDir.c **** *******************************************************************************/
 233:Generated_Source\PSoC5/PWM_ServoDir.c **** void PWM_ServoDir_Stop(void) 
 234:Generated_Source\PSoC5/PWM_ServoDir.c **** {
 192              		.loc 1 234 0
 193              		.cfi_startproc
 194              		@ args = 0, pretend = 0, frame = 0
 195              		@ frame_needed = 1, uses_anonymous_args = 0
 196              		@ link register save eliminated.
 197 0000 80B4     		push	{r7}
 198              		.cfi_def_cfa_offset 4
 199              		.cfi_offset 7, -4
 200 0002 00AF     		add	r7, sp, #0
 201              		.cfi_def_cfa_register 7
 235:Generated_Source\PSoC5/PWM_ServoDir.c ****     #if (PWM_ServoDir_UseControl || PWM_ServoDir_UsingFixedFunction)
 236:Generated_Source\PSoC5/PWM_ServoDir.c ****         PWM_ServoDir_CONTROL &= ((uint8)(~PWM_ServoDir_CTRL_ENABLE));
 237:Generated_Source\PSoC5/PWM_ServoDir.c ****     #endif /* (PWM_ServoDir_UseControl || PWM_ServoDir_UsingFixedFunction) */
 238:Generated_Source\PSoC5/PWM_ServoDir.c **** 
 239:Generated_Source\PSoC5/PWM_ServoDir.c ****     /* Globally disable the Fixed Function Block chosen */
 240:Generated_Source\PSoC5/PWM_ServoDir.c ****     #if (PWM_ServoDir_UsingFixedFunction)
 241:Generated_Source\PSoC5/PWM_ServoDir.c ****         PWM_ServoDir_GLOBAL_ENABLE &= ((uint8)(~PWM_ServoDir_BLOCK_EN_MASK));
 242:Generated_Source\PSoC5/PWM_ServoDir.c ****         PWM_ServoDir_GLOBAL_STBY_ENABLE &= ((uint8)(~PWM_ServoDir_BLOCK_STBY_EN_MASK));
 243:Generated_Source\PSoC5/PWM_ServoDir.c ****     #endif /* (PWM_ServoDir_UsingFixedFunction) */
 244:Generated_Source\PSoC5/PWM_ServoDir.c **** }
 202              		.loc 1 244 0
 203 0004 00BF     		nop
 204 0006 BD46     		mov	sp, r7
 205              		.cfi_def_cfa_register 13
 206              		@ sp needed
 207 0008 80BC     		pop	{r7}
 208              		.cfi_restore 7
 209              		.cfi_def_cfa_offset 0
 210 000a 7047     		bx	lr
 211              		.cfi_endproc
 212              	.LFE3:
ARM GAS  C:\Users\jmspi\AppData\Local\Temp\ccK7Zozg.s 			page 9


 213              		.size	PWM_ServoDir_Stop, .-PWM_ServoDir_Stop
 214              		.section	.text.PWM_ServoDir_WriteCounter,"ax",%progbits
 215              		.align	2
 216              		.global	PWM_ServoDir_WriteCounter
 217              		.thumb
 218              		.thumb_func
 219              		.type	PWM_ServoDir_WriteCounter, %function
 220              	PWM_ServoDir_WriteCounter:
 221              	.LFB4:
 245:Generated_Source\PSoC5/PWM_ServoDir.c **** 
 246:Generated_Source\PSoC5/PWM_ServoDir.c **** #if (PWM_ServoDir_UseOneCompareMode)
 247:Generated_Source\PSoC5/PWM_ServoDir.c ****     #if (PWM_ServoDir_CompareMode1SW)
 248:Generated_Source\PSoC5/PWM_ServoDir.c **** 
 249:Generated_Source\PSoC5/PWM_ServoDir.c **** 
 250:Generated_Source\PSoC5/PWM_ServoDir.c ****         /*******************************************************************************
 251:Generated_Source\PSoC5/PWM_ServoDir.c ****         * Function Name: PWM_ServoDir_SetCompareMode
 252:Generated_Source\PSoC5/PWM_ServoDir.c ****         ********************************************************************************
 253:Generated_Source\PSoC5/PWM_ServoDir.c ****         *
 254:Generated_Source\PSoC5/PWM_ServoDir.c ****         * Summary:
 255:Generated_Source\PSoC5/PWM_ServoDir.c ****         *  This function writes the Compare Mode for the pwm output when in Dither mode,
 256:Generated_Source\PSoC5/PWM_ServoDir.c ****         *  Center Align Mode or One Output Mode.
 257:Generated_Source\PSoC5/PWM_ServoDir.c ****         *
 258:Generated_Source\PSoC5/PWM_ServoDir.c ****         * Parameters:
 259:Generated_Source\PSoC5/PWM_ServoDir.c ****         *  comparemode:  The new compare mode for the PWM output. Use the compare types
 260:Generated_Source\PSoC5/PWM_ServoDir.c ****         *                defined in the H file as input arguments.
 261:Generated_Source\PSoC5/PWM_ServoDir.c ****         *
 262:Generated_Source\PSoC5/PWM_ServoDir.c ****         * Return:
 263:Generated_Source\PSoC5/PWM_ServoDir.c ****         *  None
 264:Generated_Source\PSoC5/PWM_ServoDir.c ****         *
 265:Generated_Source\PSoC5/PWM_ServoDir.c ****         *******************************************************************************/
 266:Generated_Source\PSoC5/PWM_ServoDir.c ****         void PWM_ServoDir_SetCompareMode(uint8 comparemode) 
 267:Generated_Source\PSoC5/PWM_ServoDir.c ****         {
 268:Generated_Source\PSoC5/PWM_ServoDir.c ****             #if(PWM_ServoDir_UsingFixedFunction)
 269:Generated_Source\PSoC5/PWM_ServoDir.c **** 
 270:Generated_Source\PSoC5/PWM_ServoDir.c ****                 #if(0 != PWM_ServoDir_CTRL_CMPMODE1_SHIFT)
 271:Generated_Source\PSoC5/PWM_ServoDir.c ****                     uint8 comparemodemasked = ((uint8)((uint8)comparemode << PWM_ServoDir_CTRL_CMPM
 272:Generated_Source\PSoC5/PWM_ServoDir.c ****                 #else
 273:Generated_Source\PSoC5/PWM_ServoDir.c ****                     uint8 comparemodemasked = comparemode;
 274:Generated_Source\PSoC5/PWM_ServoDir.c ****                 #endif /* (0 != PWM_ServoDir_CTRL_CMPMODE1_SHIFT) */
 275:Generated_Source\PSoC5/PWM_ServoDir.c **** 
 276:Generated_Source\PSoC5/PWM_ServoDir.c ****                 PWM_ServoDir_CONTROL3 &= ((uint8)(~PWM_ServoDir_CTRL_CMPMODE1_MASK)); /*Clear Exist
 277:Generated_Source\PSoC5/PWM_ServoDir.c ****                 PWM_ServoDir_CONTROL3 |= comparemodemasked;
 278:Generated_Source\PSoC5/PWM_ServoDir.c **** 
 279:Generated_Source\PSoC5/PWM_ServoDir.c ****             #elif (PWM_ServoDir_UseControl)
 280:Generated_Source\PSoC5/PWM_ServoDir.c **** 
 281:Generated_Source\PSoC5/PWM_ServoDir.c ****                 #if(0 != PWM_ServoDir_CTRL_CMPMODE1_SHIFT)
 282:Generated_Source\PSoC5/PWM_ServoDir.c ****                     uint8 comparemode1masked = ((uint8)((uint8)comparemode << PWM_ServoDir_CTRL_CMP
 283:Generated_Source\PSoC5/PWM_ServoDir.c ****                                                 PWM_ServoDir_CTRL_CMPMODE1_MASK;
 284:Generated_Source\PSoC5/PWM_ServoDir.c ****                 #else
 285:Generated_Source\PSoC5/PWM_ServoDir.c ****                     uint8 comparemode1masked = comparemode & PWM_ServoDir_CTRL_CMPMODE1_MASK;
 286:Generated_Source\PSoC5/PWM_ServoDir.c ****                 #endif /* (0 != PWM_ServoDir_CTRL_CMPMODE1_SHIFT) */
 287:Generated_Source\PSoC5/PWM_ServoDir.c **** 
 288:Generated_Source\PSoC5/PWM_ServoDir.c ****                 #if(0 != PWM_ServoDir_CTRL_CMPMODE2_SHIFT)
 289:Generated_Source\PSoC5/PWM_ServoDir.c ****                     uint8 comparemode2masked = ((uint8)((uint8)comparemode << PWM_ServoDir_CTRL_CMP
 290:Generated_Source\PSoC5/PWM_ServoDir.c ****                                                PWM_ServoDir_CTRL_CMPMODE2_MASK;
 291:Generated_Source\PSoC5/PWM_ServoDir.c ****                 #else
 292:Generated_Source\PSoC5/PWM_ServoDir.c ****                     uint8 comparemode2masked = comparemode & PWM_ServoDir_CTRL_CMPMODE2_MASK;
ARM GAS  C:\Users\jmspi\AppData\Local\Temp\ccK7Zozg.s 			page 10


 293:Generated_Source\PSoC5/PWM_ServoDir.c ****                 #endif /* (0 != PWM_ServoDir_CTRL_CMPMODE2_SHIFT) */
 294:Generated_Source\PSoC5/PWM_ServoDir.c **** 
 295:Generated_Source\PSoC5/PWM_ServoDir.c ****                 /*Clear existing mode */
 296:Generated_Source\PSoC5/PWM_ServoDir.c ****                 PWM_ServoDir_CONTROL &= ((uint8)(~(PWM_ServoDir_CTRL_CMPMODE1_MASK |
 297:Generated_Source\PSoC5/PWM_ServoDir.c ****                                             PWM_ServoDir_CTRL_CMPMODE2_MASK)));
 298:Generated_Source\PSoC5/PWM_ServoDir.c ****                 PWM_ServoDir_CONTROL |= (comparemode1masked | comparemode2masked);
 299:Generated_Source\PSoC5/PWM_ServoDir.c **** 
 300:Generated_Source\PSoC5/PWM_ServoDir.c ****             #else
 301:Generated_Source\PSoC5/PWM_ServoDir.c ****                 uint8 temp = comparemode;
 302:Generated_Source\PSoC5/PWM_ServoDir.c ****             #endif /* (PWM_ServoDir_UsingFixedFunction) */
 303:Generated_Source\PSoC5/PWM_ServoDir.c ****         }
 304:Generated_Source\PSoC5/PWM_ServoDir.c ****     #endif /* PWM_ServoDir_CompareMode1SW */
 305:Generated_Source\PSoC5/PWM_ServoDir.c **** 
 306:Generated_Source\PSoC5/PWM_ServoDir.c **** #else /* UseOneCompareMode */
 307:Generated_Source\PSoC5/PWM_ServoDir.c **** 
 308:Generated_Source\PSoC5/PWM_ServoDir.c ****     #if (PWM_ServoDir_CompareMode1SW)
 309:Generated_Source\PSoC5/PWM_ServoDir.c **** 
 310:Generated_Source\PSoC5/PWM_ServoDir.c **** 
 311:Generated_Source\PSoC5/PWM_ServoDir.c ****         /*******************************************************************************
 312:Generated_Source\PSoC5/PWM_ServoDir.c ****         * Function Name: PWM_ServoDir_SetCompareMode1
 313:Generated_Source\PSoC5/PWM_ServoDir.c ****         ********************************************************************************
 314:Generated_Source\PSoC5/PWM_ServoDir.c ****         *
 315:Generated_Source\PSoC5/PWM_ServoDir.c ****         * Summary:
 316:Generated_Source\PSoC5/PWM_ServoDir.c ****         *  This function writes the Compare Mode for the pwm or pwm1 output
 317:Generated_Source\PSoC5/PWM_ServoDir.c ****         *
 318:Generated_Source\PSoC5/PWM_ServoDir.c ****         * Parameters:
 319:Generated_Source\PSoC5/PWM_ServoDir.c ****         *  comparemode:  The new compare mode for the PWM output. Use the compare types
 320:Generated_Source\PSoC5/PWM_ServoDir.c ****         *                defined in the H file as input arguments.
 321:Generated_Source\PSoC5/PWM_ServoDir.c ****         *
 322:Generated_Source\PSoC5/PWM_ServoDir.c ****         * Return:
 323:Generated_Source\PSoC5/PWM_ServoDir.c ****         *  None
 324:Generated_Source\PSoC5/PWM_ServoDir.c ****         *
 325:Generated_Source\PSoC5/PWM_ServoDir.c ****         *******************************************************************************/
 326:Generated_Source\PSoC5/PWM_ServoDir.c ****         void PWM_ServoDir_SetCompareMode1(uint8 comparemode) 
 327:Generated_Source\PSoC5/PWM_ServoDir.c ****         {
 328:Generated_Source\PSoC5/PWM_ServoDir.c ****             #if(0 != PWM_ServoDir_CTRL_CMPMODE1_SHIFT)
 329:Generated_Source\PSoC5/PWM_ServoDir.c ****                 uint8 comparemodemasked = ((uint8)((uint8)comparemode << PWM_ServoDir_CTRL_CMPMODE1
 330:Generated_Source\PSoC5/PWM_ServoDir.c ****                                            PWM_ServoDir_CTRL_CMPMODE1_MASK;
 331:Generated_Source\PSoC5/PWM_ServoDir.c ****             #else
 332:Generated_Source\PSoC5/PWM_ServoDir.c ****                 uint8 comparemodemasked = comparemode & PWM_ServoDir_CTRL_CMPMODE1_MASK;
 333:Generated_Source\PSoC5/PWM_ServoDir.c ****             #endif /* (0 != PWM_ServoDir_CTRL_CMPMODE1_SHIFT) */
 334:Generated_Source\PSoC5/PWM_ServoDir.c **** 
 335:Generated_Source\PSoC5/PWM_ServoDir.c ****             #if (PWM_ServoDir_UseControl)
 336:Generated_Source\PSoC5/PWM_ServoDir.c ****                 PWM_ServoDir_CONTROL &= ((uint8)(~PWM_ServoDir_CTRL_CMPMODE1_MASK)); /*Clear existi
 337:Generated_Source\PSoC5/PWM_ServoDir.c ****                 PWM_ServoDir_CONTROL |= comparemodemasked;
 338:Generated_Source\PSoC5/PWM_ServoDir.c ****             #endif /* (PWM_ServoDir_UseControl) */
 339:Generated_Source\PSoC5/PWM_ServoDir.c ****         }
 340:Generated_Source\PSoC5/PWM_ServoDir.c ****     #endif /* PWM_ServoDir_CompareMode1SW */
 341:Generated_Source\PSoC5/PWM_ServoDir.c **** 
 342:Generated_Source\PSoC5/PWM_ServoDir.c **** #if (PWM_ServoDir_CompareMode2SW)
 343:Generated_Source\PSoC5/PWM_ServoDir.c **** 
 344:Generated_Source\PSoC5/PWM_ServoDir.c **** 
 345:Generated_Source\PSoC5/PWM_ServoDir.c ****     /*******************************************************************************
 346:Generated_Source\PSoC5/PWM_ServoDir.c ****     * Function Name: PWM_ServoDir_SetCompareMode2
 347:Generated_Source\PSoC5/PWM_ServoDir.c ****     ********************************************************************************
 348:Generated_Source\PSoC5/PWM_ServoDir.c ****     *
 349:Generated_Source\PSoC5/PWM_ServoDir.c ****     * Summary:
ARM GAS  C:\Users\jmspi\AppData\Local\Temp\ccK7Zozg.s 			page 11


 350:Generated_Source\PSoC5/PWM_ServoDir.c ****     *  This function writes the Compare Mode for the pwm or pwm2 output
 351:Generated_Source\PSoC5/PWM_ServoDir.c ****     *
 352:Generated_Source\PSoC5/PWM_ServoDir.c ****     * Parameters:
 353:Generated_Source\PSoC5/PWM_ServoDir.c ****     *  comparemode:  The new compare mode for the PWM output. Use the compare types
 354:Generated_Source\PSoC5/PWM_ServoDir.c ****     *                defined in the H file as input arguments.
 355:Generated_Source\PSoC5/PWM_ServoDir.c ****     *
 356:Generated_Source\PSoC5/PWM_ServoDir.c ****     * Return:
 357:Generated_Source\PSoC5/PWM_ServoDir.c ****     *  None
 358:Generated_Source\PSoC5/PWM_ServoDir.c ****     *
 359:Generated_Source\PSoC5/PWM_ServoDir.c ****     *******************************************************************************/
 360:Generated_Source\PSoC5/PWM_ServoDir.c ****     void PWM_ServoDir_SetCompareMode2(uint8 comparemode) 
 361:Generated_Source\PSoC5/PWM_ServoDir.c ****     {
 362:Generated_Source\PSoC5/PWM_ServoDir.c **** 
 363:Generated_Source\PSoC5/PWM_ServoDir.c ****         #if(0 != PWM_ServoDir_CTRL_CMPMODE2_SHIFT)
 364:Generated_Source\PSoC5/PWM_ServoDir.c ****             uint8 comparemodemasked = ((uint8)((uint8)comparemode << PWM_ServoDir_CTRL_CMPMODE2_SHI
 365:Generated_Source\PSoC5/PWM_ServoDir.c ****                                                  PWM_ServoDir_CTRL_CMPMODE2_MASK;
 366:Generated_Source\PSoC5/PWM_ServoDir.c ****         #else
 367:Generated_Source\PSoC5/PWM_ServoDir.c ****             uint8 comparemodemasked = comparemode & PWM_ServoDir_CTRL_CMPMODE2_MASK;
 368:Generated_Source\PSoC5/PWM_ServoDir.c ****         #endif /* (0 != PWM_ServoDir_CTRL_CMPMODE2_SHIFT) */
 369:Generated_Source\PSoC5/PWM_ServoDir.c **** 
 370:Generated_Source\PSoC5/PWM_ServoDir.c ****         #if (PWM_ServoDir_UseControl)
 371:Generated_Source\PSoC5/PWM_ServoDir.c ****             PWM_ServoDir_CONTROL &= ((uint8)(~PWM_ServoDir_CTRL_CMPMODE2_MASK)); /*Clear existing m
 372:Generated_Source\PSoC5/PWM_ServoDir.c ****             PWM_ServoDir_CONTROL |= comparemodemasked;
 373:Generated_Source\PSoC5/PWM_ServoDir.c ****         #endif /* (PWM_ServoDir_UseControl) */
 374:Generated_Source\PSoC5/PWM_ServoDir.c ****     }
 375:Generated_Source\PSoC5/PWM_ServoDir.c ****     #endif /*PWM_ServoDir_CompareMode2SW */
 376:Generated_Source\PSoC5/PWM_ServoDir.c **** 
 377:Generated_Source\PSoC5/PWM_ServoDir.c **** #endif /* UseOneCompareMode */
 378:Generated_Source\PSoC5/PWM_ServoDir.c **** 
 379:Generated_Source\PSoC5/PWM_ServoDir.c **** 
 380:Generated_Source\PSoC5/PWM_ServoDir.c **** #if (!PWM_ServoDir_UsingFixedFunction)
 381:Generated_Source\PSoC5/PWM_ServoDir.c **** 
 382:Generated_Source\PSoC5/PWM_ServoDir.c **** 
 383:Generated_Source\PSoC5/PWM_ServoDir.c ****     /*******************************************************************************
 384:Generated_Source\PSoC5/PWM_ServoDir.c ****     * Function Name: PWM_ServoDir_WriteCounter
 385:Generated_Source\PSoC5/PWM_ServoDir.c ****     ********************************************************************************
 386:Generated_Source\PSoC5/PWM_ServoDir.c ****     *
 387:Generated_Source\PSoC5/PWM_ServoDir.c ****     * Summary:
 388:Generated_Source\PSoC5/PWM_ServoDir.c ****     *  Writes a new counter value directly to the counter register. This will be
 389:Generated_Source\PSoC5/PWM_ServoDir.c ****     *  implemented for that currently running period and only that period. This API
 390:Generated_Source\PSoC5/PWM_ServoDir.c ****     *  is valid only for UDB implementation and not available for fixed function
 391:Generated_Source\PSoC5/PWM_ServoDir.c ****     *  PWM implementation.
 392:Generated_Source\PSoC5/PWM_ServoDir.c ****     *
 393:Generated_Source\PSoC5/PWM_ServoDir.c ****     * Parameters:
 394:Generated_Source\PSoC5/PWM_ServoDir.c ****     *  counter:  The period new period counter value.
 395:Generated_Source\PSoC5/PWM_ServoDir.c ****     *
 396:Generated_Source\PSoC5/PWM_ServoDir.c ****     * Return:
 397:Generated_Source\PSoC5/PWM_ServoDir.c ****     *  None
 398:Generated_Source\PSoC5/PWM_ServoDir.c ****     *
 399:Generated_Source\PSoC5/PWM_ServoDir.c ****     * Side Effects:
 400:Generated_Source\PSoC5/PWM_ServoDir.c ****     *  The PWM Period will be reloaded when a counter value will be a zero
 401:Generated_Source\PSoC5/PWM_ServoDir.c ****     *
 402:Generated_Source\PSoC5/PWM_ServoDir.c ****     *******************************************************************************/
 403:Generated_Source\PSoC5/PWM_ServoDir.c ****     void PWM_ServoDir_WriteCounter(uint16 counter) \
 404:Generated_Source\PSoC5/PWM_ServoDir.c ****                                        
 405:Generated_Source\PSoC5/PWM_ServoDir.c ****     {
 222              		.loc 1 405 0
ARM GAS  C:\Users\jmspi\AppData\Local\Temp\ccK7Zozg.s 			page 12


 223              		.cfi_startproc
 224              		@ args = 0, pretend = 0, frame = 8
 225              		@ frame_needed = 1, uses_anonymous_args = 0
 226              		@ link register save eliminated.
 227 0000 80B4     		push	{r7}
 228              		.cfi_def_cfa_offset 4
 229              		.cfi_offset 7, -4
 230 0002 83B0     		sub	sp, sp, #12
 231              		.cfi_def_cfa_offset 16
 232 0004 00AF     		add	r7, sp, #0
 233              		.cfi_def_cfa_register 7
 234 0006 0346     		mov	r3, r0
 235 0008 FB80     		strh	r3, [r7, #6]	@ movhi
 406:Generated_Source\PSoC5/PWM_ServoDir.c ****         CY_SET_REG16(PWM_ServoDir_COUNTER_LSB_PTR, counter);
 236              		.loc 1 406 0
 237 000a 044A     		ldr	r2, .L11
 238 000c FB88     		ldrh	r3, [r7, #6]	@ movhi
 239 000e 1380     		strh	r3, [r2]	@ movhi
 407:Generated_Source\PSoC5/PWM_ServoDir.c ****     }
 240              		.loc 1 407 0
 241 0010 00BF     		nop
 242 0012 0C37     		adds	r7, r7, #12
 243              		.cfi_def_cfa_offset 4
 244 0014 BD46     		mov	sp, r7
 245              		.cfi_def_cfa_register 13
 246              		@ sp needed
 247 0016 80BC     		pop	{r7}
 248              		.cfi_restore 7
 249              		.cfi_def_cfa_offset 0
 250 0018 7047     		bx	lr
 251              	.L12:
 252 001a 00BF     		.align	2
 253              	.L11:
 254 001c 0C6A0040 		.word	1073768972
 255              		.cfi_endproc
 256              	.LFE4:
 257              		.size	PWM_ServoDir_WriteCounter, .-PWM_ServoDir_WriteCounter
 258              		.section	.text.PWM_ServoDir_ReadCounter,"ax",%progbits
 259              		.align	2
 260              		.global	PWM_ServoDir_ReadCounter
 261              		.thumb
 262              		.thumb_func
 263              		.type	PWM_ServoDir_ReadCounter, %function
 264              	PWM_ServoDir_ReadCounter:
 265              	.LFB5:
 408:Generated_Source\PSoC5/PWM_ServoDir.c **** 
 409:Generated_Source\PSoC5/PWM_ServoDir.c **** 
 410:Generated_Source\PSoC5/PWM_ServoDir.c ****     /*******************************************************************************
 411:Generated_Source\PSoC5/PWM_ServoDir.c ****     * Function Name: PWM_ServoDir_ReadCounter
 412:Generated_Source\PSoC5/PWM_ServoDir.c ****     ********************************************************************************
 413:Generated_Source\PSoC5/PWM_ServoDir.c ****     *
 414:Generated_Source\PSoC5/PWM_ServoDir.c ****     * Summary:
 415:Generated_Source\PSoC5/PWM_ServoDir.c ****     *  This function returns the current value of the counter.  It doesn't matter
 416:Generated_Source\PSoC5/PWM_ServoDir.c ****     *  if the counter is enabled or running.
 417:Generated_Source\PSoC5/PWM_ServoDir.c ****     *
 418:Generated_Source\PSoC5/PWM_ServoDir.c ****     * Parameters:
 419:Generated_Source\PSoC5/PWM_ServoDir.c ****     *  None
ARM GAS  C:\Users\jmspi\AppData\Local\Temp\ccK7Zozg.s 			page 13


 420:Generated_Source\PSoC5/PWM_ServoDir.c ****     *
 421:Generated_Source\PSoC5/PWM_ServoDir.c ****     * Return:
 422:Generated_Source\PSoC5/PWM_ServoDir.c ****     *  The current value of the counter.
 423:Generated_Source\PSoC5/PWM_ServoDir.c ****     *
 424:Generated_Source\PSoC5/PWM_ServoDir.c ****     *******************************************************************************/
 425:Generated_Source\PSoC5/PWM_ServoDir.c ****     uint16 PWM_ServoDir_ReadCounter(void) 
 426:Generated_Source\PSoC5/PWM_ServoDir.c ****     {
 266              		.loc 1 426 0
 267              		.cfi_startproc
 268              		@ args = 0, pretend = 0, frame = 0
 269              		@ frame_needed = 1, uses_anonymous_args = 0
 270              		@ link register save eliminated.
 271 0000 80B4     		push	{r7}
 272              		.cfi_def_cfa_offset 4
 273              		.cfi_offset 7, -4
 274 0002 00AF     		add	r7, sp, #0
 275              		.cfi_def_cfa_register 7
 427:Generated_Source\PSoC5/PWM_ServoDir.c ****         /* Force capture by reading Accumulator */
 428:Generated_Source\PSoC5/PWM_ServoDir.c ****         /* Must first do a software capture to be able to read the counter */
 429:Generated_Source\PSoC5/PWM_ServoDir.c ****         /* It is up to the user code to make sure there isn't already captured data in the FIFO */
 430:Generated_Source\PSoC5/PWM_ServoDir.c ****           (void)CY_GET_REG8(PWM_ServoDir_COUNTERCAP_LSB_PTR_8BIT);
 276              		.loc 1 430 0
 277 0004 044B     		ldr	r3, .L15
 278 0006 1B78     		ldrb	r3, [r3]
 431:Generated_Source\PSoC5/PWM_ServoDir.c **** 
 432:Generated_Source\PSoC5/PWM_ServoDir.c ****         /* Read the data from the FIFO */
 433:Generated_Source\PSoC5/PWM_ServoDir.c ****         return (CY_GET_REG16(PWM_ServoDir_CAPTURE_LSB_PTR));
 279              		.loc 1 433 0
 280 0008 044B     		ldr	r3, .L15+4
 281 000a 1B88     		ldrh	r3, [r3]	@ movhi
 282 000c 9BB2     		uxth	r3, r3
 434:Generated_Source\PSoC5/PWM_ServoDir.c ****     }
 283              		.loc 1 434 0
 284 000e 1846     		mov	r0, r3
 285 0010 BD46     		mov	sp, r7
 286              		.cfi_def_cfa_register 13
 287              		@ sp needed
 288 0012 80BC     		pop	{r7}
 289              		.cfi_restore 7
 290              		.cfi_def_cfa_offset 0
 291 0014 7047     		bx	lr
 292              	.L16:
 293 0016 00BF     		.align	2
 294              	.L15:
 295 0018 16650040 		.word	1073767702
 296 001c AC6A0040 		.word	1073769132
 297              		.cfi_endproc
 298              	.LFE5:
 299              		.size	PWM_ServoDir_ReadCounter, .-PWM_ServoDir_ReadCounter
 300              		.section	.text.PWM_ServoDir_ClearFIFO,"ax",%progbits
 301              		.align	2
 302              		.global	PWM_ServoDir_ClearFIFO
 303              		.thumb
 304              		.thumb_func
 305              		.type	PWM_ServoDir_ClearFIFO, %function
 306              	PWM_ServoDir_ClearFIFO:
 307              	.LFB6:
ARM GAS  C:\Users\jmspi\AppData\Local\Temp\ccK7Zozg.s 			page 14


 435:Generated_Source\PSoC5/PWM_ServoDir.c **** 
 436:Generated_Source\PSoC5/PWM_ServoDir.c ****     #if (PWM_ServoDir_UseStatus)
 437:Generated_Source\PSoC5/PWM_ServoDir.c **** 
 438:Generated_Source\PSoC5/PWM_ServoDir.c **** 
 439:Generated_Source\PSoC5/PWM_ServoDir.c ****         /*******************************************************************************
 440:Generated_Source\PSoC5/PWM_ServoDir.c ****         * Function Name: PWM_ServoDir_ClearFIFO
 441:Generated_Source\PSoC5/PWM_ServoDir.c ****         ********************************************************************************
 442:Generated_Source\PSoC5/PWM_ServoDir.c ****         *
 443:Generated_Source\PSoC5/PWM_ServoDir.c ****         * Summary:
 444:Generated_Source\PSoC5/PWM_ServoDir.c ****         *  This function clears all capture data from the capture FIFO
 445:Generated_Source\PSoC5/PWM_ServoDir.c ****         *
 446:Generated_Source\PSoC5/PWM_ServoDir.c ****         * Parameters:
 447:Generated_Source\PSoC5/PWM_ServoDir.c ****         *  None
 448:Generated_Source\PSoC5/PWM_ServoDir.c ****         *
 449:Generated_Source\PSoC5/PWM_ServoDir.c ****         * Return:
 450:Generated_Source\PSoC5/PWM_ServoDir.c ****         *  None
 451:Generated_Source\PSoC5/PWM_ServoDir.c ****         *
 452:Generated_Source\PSoC5/PWM_ServoDir.c ****         *******************************************************************************/
 453:Generated_Source\PSoC5/PWM_ServoDir.c ****         void PWM_ServoDir_ClearFIFO(void) 
 454:Generated_Source\PSoC5/PWM_ServoDir.c ****         {
 308              		.loc 1 454 0
 309              		.cfi_startproc
 310              		@ args = 0, pretend = 0, frame = 0
 311              		@ frame_needed = 1, uses_anonymous_args = 0
 312 0000 80B5     		push	{r7, lr}
 313              		.cfi_def_cfa_offset 8
 314              		.cfi_offset 7, -8
 315              		.cfi_offset 14, -4
 316 0002 00AF     		add	r7, sp, #0
 317              		.cfi_def_cfa_register 7
 455:Generated_Source\PSoC5/PWM_ServoDir.c ****             while(0u != (PWM_ServoDir_ReadStatusRegister() & PWM_ServoDir_STATUS_FIFONEMPTY))
 318              		.loc 1 455 0
 319 0004 01E0     		b	.L18
 320              	.L19:
 456:Generated_Source\PSoC5/PWM_ServoDir.c ****             {
 457:Generated_Source\PSoC5/PWM_ServoDir.c ****                 (void)PWM_ServoDir_ReadCapture();
 321              		.loc 1 457 0
 322 0006 FFF7FEFF 		bl	PWM_ServoDir_ReadCapture
 323              	.L18:
 455:Generated_Source\PSoC5/PWM_ServoDir.c ****             while(0u != (PWM_ServoDir_ReadStatusRegister() & PWM_ServoDir_STATUS_FIFONEMPTY))
 324              		.loc 1 455 0
 325 000a FFF7FEFF 		bl	PWM_ServoDir_ReadStatusRegister
 326 000e 0346     		mov	r3, r0
 327 0010 03F01003 		and	r3, r3, #16
 328 0014 002B     		cmp	r3, #0
 329 0016 F6D1     		bne	.L19
 458:Generated_Source\PSoC5/PWM_ServoDir.c ****             }
 459:Generated_Source\PSoC5/PWM_ServoDir.c ****         }
 330              		.loc 1 459 0
 331 0018 00BF     		nop
 332 001a 80BD     		pop	{r7, pc}
 333              		.cfi_endproc
 334              	.LFE6:
 335              		.size	PWM_ServoDir_ClearFIFO, .-PWM_ServoDir_ClearFIFO
 336              		.section	.text.PWM_ServoDir_WritePeriod,"ax",%progbits
 337              		.align	2
 338              		.global	PWM_ServoDir_WritePeriod
ARM GAS  C:\Users\jmspi\AppData\Local\Temp\ccK7Zozg.s 			page 15


 339              		.thumb
 340              		.thumb_func
 341              		.type	PWM_ServoDir_WritePeriod, %function
 342              	PWM_ServoDir_WritePeriod:
 343              	.LFB7:
 460:Generated_Source\PSoC5/PWM_ServoDir.c **** 
 461:Generated_Source\PSoC5/PWM_ServoDir.c ****     #endif /* PWM_ServoDir_UseStatus */
 462:Generated_Source\PSoC5/PWM_ServoDir.c **** 
 463:Generated_Source\PSoC5/PWM_ServoDir.c **** #endif /* !PWM_ServoDir_UsingFixedFunction */
 464:Generated_Source\PSoC5/PWM_ServoDir.c **** 
 465:Generated_Source\PSoC5/PWM_ServoDir.c **** 
 466:Generated_Source\PSoC5/PWM_ServoDir.c **** /*******************************************************************************
 467:Generated_Source\PSoC5/PWM_ServoDir.c **** * Function Name: PWM_ServoDir_WritePeriod
 468:Generated_Source\PSoC5/PWM_ServoDir.c **** ********************************************************************************
 469:Generated_Source\PSoC5/PWM_ServoDir.c **** *
 470:Generated_Source\PSoC5/PWM_ServoDir.c **** * Summary:
 471:Generated_Source\PSoC5/PWM_ServoDir.c **** *  This function is used to change the period of the counter.  The new period
 472:Generated_Source\PSoC5/PWM_ServoDir.c **** *  will be loaded the next time terminal count is detected.
 473:Generated_Source\PSoC5/PWM_ServoDir.c **** *
 474:Generated_Source\PSoC5/PWM_ServoDir.c **** * Parameters:
 475:Generated_Source\PSoC5/PWM_ServoDir.c **** *  period:  Period value. May be between 1 and (2^Resolution)-1.  A value of 0
 476:Generated_Source\PSoC5/PWM_ServoDir.c **** *           will result in the counter remaining at zero.
 477:Generated_Source\PSoC5/PWM_ServoDir.c **** *
 478:Generated_Source\PSoC5/PWM_ServoDir.c **** * Return:
 479:Generated_Source\PSoC5/PWM_ServoDir.c **** *  None
 480:Generated_Source\PSoC5/PWM_ServoDir.c **** *
 481:Generated_Source\PSoC5/PWM_ServoDir.c **** *******************************************************************************/
 482:Generated_Source\PSoC5/PWM_ServoDir.c **** void PWM_ServoDir_WritePeriod(uint16 period) 
 483:Generated_Source\PSoC5/PWM_ServoDir.c **** {
 344              		.loc 1 483 0
 345              		.cfi_startproc
 346              		@ args = 0, pretend = 0, frame = 8
 347              		@ frame_needed = 1, uses_anonymous_args = 0
 348              		@ link register save eliminated.
 349 0000 80B4     		push	{r7}
 350              		.cfi_def_cfa_offset 4
 351              		.cfi_offset 7, -4
 352 0002 83B0     		sub	sp, sp, #12
 353              		.cfi_def_cfa_offset 16
 354 0004 00AF     		add	r7, sp, #0
 355              		.cfi_def_cfa_register 7
 356 0006 0346     		mov	r3, r0
 357 0008 FB80     		strh	r3, [r7, #6]	@ movhi
 484:Generated_Source\PSoC5/PWM_ServoDir.c ****     #if(PWM_ServoDir_UsingFixedFunction)
 485:Generated_Source\PSoC5/PWM_ServoDir.c ****         CY_SET_REG16(PWM_ServoDir_PERIOD_LSB_PTR, (uint16)period);
 486:Generated_Source\PSoC5/PWM_ServoDir.c ****     #else
 487:Generated_Source\PSoC5/PWM_ServoDir.c ****         CY_SET_REG16(PWM_ServoDir_PERIOD_LSB_PTR, period);
 358              		.loc 1 487 0
 359 000a 044A     		ldr	r2, .L21
 360 000c FB88     		ldrh	r3, [r7, #6]	@ movhi
 361 000e 1380     		strh	r3, [r2]	@ movhi
 488:Generated_Source\PSoC5/PWM_ServoDir.c ****     #endif /* (PWM_ServoDir_UsingFixedFunction) */
 489:Generated_Source\PSoC5/PWM_ServoDir.c **** }
 362              		.loc 1 489 0
 363 0010 00BF     		nop
 364 0012 0C37     		adds	r7, r7, #12
 365              		.cfi_def_cfa_offset 4
ARM GAS  C:\Users\jmspi\AppData\Local\Temp\ccK7Zozg.s 			page 16


 366 0014 BD46     		mov	sp, r7
 367              		.cfi_def_cfa_register 13
 368              		@ sp needed
 369 0016 80BC     		pop	{r7}
 370              		.cfi_restore 7
 371              		.cfi_def_cfa_offset 0
 372 0018 7047     		bx	lr
 373              	.L22:
 374 001a 00BF     		.align	2
 375              	.L21:
 376 001c 8C6A0040 		.word	1073769100
 377              		.cfi_endproc
 378              	.LFE7:
 379              		.size	PWM_ServoDir_WritePeriod, .-PWM_ServoDir_WritePeriod
 380              		.section	.text.PWM_ServoDir_WriteCompare1,"ax",%progbits
 381              		.align	2
 382              		.global	PWM_ServoDir_WriteCompare1
 383              		.thumb
 384              		.thumb_func
 385              		.type	PWM_ServoDir_WriteCompare1, %function
 386              	PWM_ServoDir_WriteCompare1:
 387              	.LFB8:
 490:Generated_Source\PSoC5/PWM_ServoDir.c **** 
 491:Generated_Source\PSoC5/PWM_ServoDir.c **** #if (PWM_ServoDir_UseOneCompareMode)
 492:Generated_Source\PSoC5/PWM_ServoDir.c **** 
 493:Generated_Source\PSoC5/PWM_ServoDir.c **** 
 494:Generated_Source\PSoC5/PWM_ServoDir.c ****     /*******************************************************************************
 495:Generated_Source\PSoC5/PWM_ServoDir.c ****     * Function Name: PWM_ServoDir_WriteCompare
 496:Generated_Source\PSoC5/PWM_ServoDir.c ****     ********************************************************************************
 497:Generated_Source\PSoC5/PWM_ServoDir.c ****     *
 498:Generated_Source\PSoC5/PWM_ServoDir.c ****     * Summary:
 499:Generated_Source\PSoC5/PWM_ServoDir.c ****     *  This funtion is used to change the compare1 value when the PWM is in Dither
 500:Generated_Source\PSoC5/PWM_ServoDir.c ****     *  mode. The compare output will reflect the new value on the next UDB clock.
 501:Generated_Source\PSoC5/PWM_ServoDir.c ****     *  The compare output will be driven high when the present counter value is
 502:Generated_Source\PSoC5/PWM_ServoDir.c ****     *  compared to the compare value based on the compare mode defined in
 503:Generated_Source\PSoC5/PWM_ServoDir.c ****     *  Dither Mode.
 504:Generated_Source\PSoC5/PWM_ServoDir.c ****     *
 505:Generated_Source\PSoC5/PWM_ServoDir.c ****     * Parameters:
 506:Generated_Source\PSoC5/PWM_ServoDir.c ****     *  compare:  New compare value.
 507:Generated_Source\PSoC5/PWM_ServoDir.c ****     *
 508:Generated_Source\PSoC5/PWM_ServoDir.c ****     * Return:
 509:Generated_Source\PSoC5/PWM_ServoDir.c ****     *  None
 510:Generated_Source\PSoC5/PWM_ServoDir.c ****     *
 511:Generated_Source\PSoC5/PWM_ServoDir.c ****     * Side Effects:
 512:Generated_Source\PSoC5/PWM_ServoDir.c ****     *  This function is only available if the PWM mode parameter is set to
 513:Generated_Source\PSoC5/PWM_ServoDir.c ****     *  Dither Mode, Center Aligned Mode or One Output Mode
 514:Generated_Source\PSoC5/PWM_ServoDir.c ****     *
 515:Generated_Source\PSoC5/PWM_ServoDir.c ****     *******************************************************************************/
 516:Generated_Source\PSoC5/PWM_ServoDir.c ****     void PWM_ServoDir_WriteCompare(uint16 compare) \
 517:Generated_Source\PSoC5/PWM_ServoDir.c ****                                        
 518:Generated_Source\PSoC5/PWM_ServoDir.c ****     {
 519:Generated_Source\PSoC5/PWM_ServoDir.c ****         #if(PWM_ServoDir_UsingFixedFunction)
 520:Generated_Source\PSoC5/PWM_ServoDir.c ****             CY_SET_REG16(PWM_ServoDir_COMPARE1_LSB_PTR, (uint16)compare);
 521:Generated_Source\PSoC5/PWM_ServoDir.c ****         #else
 522:Generated_Source\PSoC5/PWM_ServoDir.c ****             CY_SET_REG16(PWM_ServoDir_COMPARE1_LSB_PTR, compare);
 523:Generated_Source\PSoC5/PWM_ServoDir.c ****         #endif /* (PWM_ServoDir_UsingFixedFunction) */
 524:Generated_Source\PSoC5/PWM_ServoDir.c **** 
ARM GAS  C:\Users\jmspi\AppData\Local\Temp\ccK7Zozg.s 			page 17


 525:Generated_Source\PSoC5/PWM_ServoDir.c ****         #if (PWM_ServoDir_PWMMode == PWM_ServoDir__B_PWM__DITHER)
 526:Generated_Source\PSoC5/PWM_ServoDir.c ****             #if(PWM_ServoDir_UsingFixedFunction)
 527:Generated_Source\PSoC5/PWM_ServoDir.c ****                 CY_SET_REG16(PWM_ServoDir_COMPARE2_LSB_PTR, (uint16)(compare + 1u));
 528:Generated_Source\PSoC5/PWM_ServoDir.c ****             #else
 529:Generated_Source\PSoC5/PWM_ServoDir.c ****                 CY_SET_REG16(PWM_ServoDir_COMPARE2_LSB_PTR, (compare + 1u));
 530:Generated_Source\PSoC5/PWM_ServoDir.c ****             #endif /* (PWM_ServoDir_UsingFixedFunction) */
 531:Generated_Source\PSoC5/PWM_ServoDir.c ****         #endif /* (PWM_ServoDir_PWMMode == PWM_ServoDir__B_PWM__DITHER) */
 532:Generated_Source\PSoC5/PWM_ServoDir.c ****     }
 533:Generated_Source\PSoC5/PWM_ServoDir.c **** 
 534:Generated_Source\PSoC5/PWM_ServoDir.c **** 
 535:Generated_Source\PSoC5/PWM_ServoDir.c **** #else
 536:Generated_Source\PSoC5/PWM_ServoDir.c **** 
 537:Generated_Source\PSoC5/PWM_ServoDir.c **** 
 538:Generated_Source\PSoC5/PWM_ServoDir.c ****     /*******************************************************************************
 539:Generated_Source\PSoC5/PWM_ServoDir.c ****     * Function Name: PWM_ServoDir_WriteCompare1
 540:Generated_Source\PSoC5/PWM_ServoDir.c ****     ********************************************************************************
 541:Generated_Source\PSoC5/PWM_ServoDir.c ****     *
 542:Generated_Source\PSoC5/PWM_ServoDir.c ****     * Summary:
 543:Generated_Source\PSoC5/PWM_ServoDir.c ****     *  This funtion is used to change the compare1 value.  The compare output will
 544:Generated_Source\PSoC5/PWM_ServoDir.c ****     *  reflect the new value on the next UDB clock.  The compare output will be
 545:Generated_Source\PSoC5/PWM_ServoDir.c ****     *  driven high when the present counter value is less than or less than or
 546:Generated_Source\PSoC5/PWM_ServoDir.c ****     *  equal to the compare register, depending on the mode.
 547:Generated_Source\PSoC5/PWM_ServoDir.c ****     *
 548:Generated_Source\PSoC5/PWM_ServoDir.c ****     * Parameters:
 549:Generated_Source\PSoC5/PWM_ServoDir.c ****     *  compare:  New compare value.
 550:Generated_Source\PSoC5/PWM_ServoDir.c ****     *
 551:Generated_Source\PSoC5/PWM_ServoDir.c ****     * Return:
 552:Generated_Source\PSoC5/PWM_ServoDir.c ****     *  None
 553:Generated_Source\PSoC5/PWM_ServoDir.c ****     *
 554:Generated_Source\PSoC5/PWM_ServoDir.c ****     *******************************************************************************/
 555:Generated_Source\PSoC5/PWM_ServoDir.c ****     void PWM_ServoDir_WriteCompare1(uint16 compare) \
 556:Generated_Source\PSoC5/PWM_ServoDir.c ****                                         
 557:Generated_Source\PSoC5/PWM_ServoDir.c ****     {
 388              		.loc 1 557 0
 389              		.cfi_startproc
 390              		@ args = 0, pretend = 0, frame = 8
 391              		@ frame_needed = 1, uses_anonymous_args = 0
 392              		@ link register save eliminated.
 393 0000 80B4     		push	{r7}
 394              		.cfi_def_cfa_offset 4
 395              		.cfi_offset 7, -4
 396 0002 83B0     		sub	sp, sp, #12
 397              		.cfi_def_cfa_offset 16
 398 0004 00AF     		add	r7, sp, #0
 399              		.cfi_def_cfa_register 7
 400 0006 0346     		mov	r3, r0
 401 0008 FB80     		strh	r3, [r7, #6]	@ movhi
 558:Generated_Source\PSoC5/PWM_ServoDir.c ****         #if(PWM_ServoDir_UsingFixedFunction)
 559:Generated_Source\PSoC5/PWM_ServoDir.c ****             CY_SET_REG16(PWM_ServoDir_COMPARE1_LSB_PTR, (uint16)compare);
 560:Generated_Source\PSoC5/PWM_ServoDir.c ****         #else
 561:Generated_Source\PSoC5/PWM_ServoDir.c ****             CY_SET_REG16(PWM_ServoDir_COMPARE1_LSB_PTR, compare);
 402              		.loc 1 561 0
 403 000a 044A     		ldr	r2, .L24
 404 000c FB88     		ldrh	r3, [r7, #6]	@ movhi
 405 000e 1380     		strh	r3, [r2]	@ movhi
 562:Generated_Source\PSoC5/PWM_ServoDir.c ****         #endif /* (PWM_ServoDir_UsingFixedFunction) */
 563:Generated_Source\PSoC5/PWM_ServoDir.c ****     }
ARM GAS  C:\Users\jmspi\AppData\Local\Temp\ccK7Zozg.s 			page 18


 406              		.loc 1 563 0
 407 0010 00BF     		nop
 408 0012 0C37     		adds	r7, r7, #12
 409              		.cfi_def_cfa_offset 4
 410 0014 BD46     		mov	sp, r7
 411              		.cfi_def_cfa_register 13
 412              		@ sp needed
 413 0016 80BC     		pop	{r7}
 414              		.cfi_restore 7
 415              		.cfi_def_cfa_offset 0
 416 0018 7047     		bx	lr
 417              	.L25:
 418 001a 00BF     		.align	2
 419              	.L24:
 420 001c 4C6A0040 		.word	1073769036
 421              		.cfi_endproc
 422              	.LFE8:
 423              		.size	PWM_ServoDir_WriteCompare1, .-PWM_ServoDir_WriteCompare1
 424              		.section	.text.PWM_ServoDir_WriteCompare2,"ax",%progbits
 425              		.align	2
 426              		.global	PWM_ServoDir_WriteCompare2
 427              		.thumb
 428              		.thumb_func
 429              		.type	PWM_ServoDir_WriteCompare2, %function
 430              	PWM_ServoDir_WriteCompare2:
 431              	.LFB9:
 564:Generated_Source\PSoC5/PWM_ServoDir.c **** 
 565:Generated_Source\PSoC5/PWM_ServoDir.c **** 
 566:Generated_Source\PSoC5/PWM_ServoDir.c ****     /*******************************************************************************
 567:Generated_Source\PSoC5/PWM_ServoDir.c ****     * Function Name: PWM_ServoDir_WriteCompare2
 568:Generated_Source\PSoC5/PWM_ServoDir.c ****     ********************************************************************************
 569:Generated_Source\PSoC5/PWM_ServoDir.c ****     *
 570:Generated_Source\PSoC5/PWM_ServoDir.c ****     * Summary:
 571:Generated_Source\PSoC5/PWM_ServoDir.c ****     *  This funtion is used to change the compare value, for compare1 output.
 572:Generated_Source\PSoC5/PWM_ServoDir.c ****     *  The compare output will reflect the new value on the next UDB clock.
 573:Generated_Source\PSoC5/PWM_ServoDir.c ****     *  The compare output will be driven high when the present counter value is
 574:Generated_Source\PSoC5/PWM_ServoDir.c ****     *  less than or less than or equal to the compare register, depending on the
 575:Generated_Source\PSoC5/PWM_ServoDir.c ****     *  mode.
 576:Generated_Source\PSoC5/PWM_ServoDir.c ****     *
 577:Generated_Source\PSoC5/PWM_ServoDir.c ****     * Parameters:
 578:Generated_Source\PSoC5/PWM_ServoDir.c ****     *  compare:  New compare value.
 579:Generated_Source\PSoC5/PWM_ServoDir.c ****     *
 580:Generated_Source\PSoC5/PWM_ServoDir.c ****     * Return:
 581:Generated_Source\PSoC5/PWM_ServoDir.c ****     *  None
 582:Generated_Source\PSoC5/PWM_ServoDir.c ****     *
 583:Generated_Source\PSoC5/PWM_ServoDir.c ****     *******************************************************************************/
 584:Generated_Source\PSoC5/PWM_ServoDir.c ****     void PWM_ServoDir_WriteCompare2(uint16 compare) \
 585:Generated_Source\PSoC5/PWM_ServoDir.c ****                                         
 586:Generated_Source\PSoC5/PWM_ServoDir.c ****     {
 432              		.loc 1 586 0
 433              		.cfi_startproc
 434              		@ args = 0, pretend = 0, frame = 8
 435              		@ frame_needed = 1, uses_anonymous_args = 0
 436              		@ link register save eliminated.
 437 0000 80B4     		push	{r7}
 438              		.cfi_def_cfa_offset 4
 439              		.cfi_offset 7, -4
ARM GAS  C:\Users\jmspi\AppData\Local\Temp\ccK7Zozg.s 			page 19


 440 0002 83B0     		sub	sp, sp, #12
 441              		.cfi_def_cfa_offset 16
 442 0004 00AF     		add	r7, sp, #0
 443              		.cfi_def_cfa_register 7
 444 0006 0346     		mov	r3, r0
 445 0008 FB80     		strh	r3, [r7, #6]	@ movhi
 587:Generated_Source\PSoC5/PWM_ServoDir.c ****         #if(PWM_ServoDir_UsingFixedFunction)
 588:Generated_Source\PSoC5/PWM_ServoDir.c ****             CY_SET_REG16(PWM_ServoDir_COMPARE2_LSB_PTR, compare);
 589:Generated_Source\PSoC5/PWM_ServoDir.c ****         #else
 590:Generated_Source\PSoC5/PWM_ServoDir.c ****             CY_SET_REG16(PWM_ServoDir_COMPARE2_LSB_PTR, compare);
 446              		.loc 1 590 0
 447 000a 044A     		ldr	r2, .L27
 448 000c FB88     		ldrh	r3, [r7, #6]	@ movhi
 449 000e 1380     		strh	r3, [r2]	@ movhi
 591:Generated_Source\PSoC5/PWM_ServoDir.c ****         #endif /* (PWM_ServoDir_UsingFixedFunction) */
 592:Generated_Source\PSoC5/PWM_ServoDir.c ****     }
 450              		.loc 1 592 0
 451 0010 00BF     		nop
 452 0012 0C37     		adds	r7, r7, #12
 453              		.cfi_def_cfa_offset 4
 454 0014 BD46     		mov	sp, r7
 455              		.cfi_def_cfa_register 13
 456              		@ sp needed
 457 0016 80BC     		pop	{r7}
 458              		.cfi_restore 7
 459              		.cfi_def_cfa_offset 0
 460 0018 7047     		bx	lr
 461              	.L28:
 462 001a 00BF     		.align	2
 463              	.L27:
 464 001c 6C6A0040 		.word	1073769068
 465              		.cfi_endproc
 466              	.LFE9:
 467              		.size	PWM_ServoDir_WriteCompare2, .-PWM_ServoDir_WriteCompare2
 468              		.section	.text.PWM_ServoDir_SetInterruptMode,"ax",%progbits
 469              		.align	2
 470              		.global	PWM_ServoDir_SetInterruptMode
 471              		.thumb
 472              		.thumb_func
 473              		.type	PWM_ServoDir_SetInterruptMode, %function
 474              	PWM_ServoDir_SetInterruptMode:
 475              	.LFB10:
 593:Generated_Source\PSoC5/PWM_ServoDir.c **** #endif /* UseOneCompareMode */
 594:Generated_Source\PSoC5/PWM_ServoDir.c **** 
 595:Generated_Source\PSoC5/PWM_ServoDir.c **** #if (PWM_ServoDir_DeadBandUsed)
 596:Generated_Source\PSoC5/PWM_ServoDir.c **** 
 597:Generated_Source\PSoC5/PWM_ServoDir.c **** 
 598:Generated_Source\PSoC5/PWM_ServoDir.c ****     /*******************************************************************************
 599:Generated_Source\PSoC5/PWM_ServoDir.c ****     * Function Name: PWM_ServoDir_WriteDeadTime
 600:Generated_Source\PSoC5/PWM_ServoDir.c ****     ********************************************************************************
 601:Generated_Source\PSoC5/PWM_ServoDir.c ****     *
 602:Generated_Source\PSoC5/PWM_ServoDir.c ****     * Summary:
 603:Generated_Source\PSoC5/PWM_ServoDir.c ****     *  This function writes the dead-band counts to the corresponding register
 604:Generated_Source\PSoC5/PWM_ServoDir.c ****     *
 605:Generated_Source\PSoC5/PWM_ServoDir.c ****     * Parameters:
 606:Generated_Source\PSoC5/PWM_ServoDir.c ****     *  deadtime:  Number of counts for dead time
 607:Generated_Source\PSoC5/PWM_ServoDir.c ****     *
ARM GAS  C:\Users\jmspi\AppData\Local\Temp\ccK7Zozg.s 			page 20


 608:Generated_Source\PSoC5/PWM_ServoDir.c ****     * Return:
 609:Generated_Source\PSoC5/PWM_ServoDir.c ****     *  None
 610:Generated_Source\PSoC5/PWM_ServoDir.c ****     *
 611:Generated_Source\PSoC5/PWM_ServoDir.c ****     *******************************************************************************/
 612:Generated_Source\PSoC5/PWM_ServoDir.c ****     void PWM_ServoDir_WriteDeadTime(uint8 deadtime) 
 613:Generated_Source\PSoC5/PWM_ServoDir.c ****     {
 614:Generated_Source\PSoC5/PWM_ServoDir.c ****         /* If using the Dead Band 1-255 mode then just write the register */
 615:Generated_Source\PSoC5/PWM_ServoDir.c ****         #if(!PWM_ServoDir_DeadBand2_4)
 616:Generated_Source\PSoC5/PWM_ServoDir.c ****             CY_SET_REG8(PWM_ServoDir_DEADBAND_COUNT_PTR, deadtime);
 617:Generated_Source\PSoC5/PWM_ServoDir.c ****         #else
 618:Generated_Source\PSoC5/PWM_ServoDir.c ****             /* Otherwise the data has to be masked and offset */
 619:Generated_Source\PSoC5/PWM_ServoDir.c ****             /* Clear existing data */
 620:Generated_Source\PSoC5/PWM_ServoDir.c ****             PWM_ServoDir_DEADBAND_COUNT &= ((uint8)(~PWM_ServoDir_DEADBAND_COUNT_MASK));
 621:Generated_Source\PSoC5/PWM_ServoDir.c **** 
 622:Generated_Source\PSoC5/PWM_ServoDir.c ****             /* Set new dead time */
 623:Generated_Source\PSoC5/PWM_ServoDir.c ****             #if(PWM_ServoDir_DEADBAND_COUNT_SHIFT)
 624:Generated_Source\PSoC5/PWM_ServoDir.c ****                 PWM_ServoDir_DEADBAND_COUNT |= ((uint8)((uint8)deadtime << PWM_ServoDir_DEADBAND_CO
 625:Generated_Source\PSoC5/PWM_ServoDir.c ****                                                     PWM_ServoDir_DEADBAND_COUNT_MASK;
 626:Generated_Source\PSoC5/PWM_ServoDir.c ****             #else
 627:Generated_Source\PSoC5/PWM_ServoDir.c ****                 PWM_ServoDir_DEADBAND_COUNT |= deadtime & PWM_ServoDir_DEADBAND_COUNT_MASK;
 628:Generated_Source\PSoC5/PWM_ServoDir.c ****             #endif /* (PWM_ServoDir_DEADBAND_COUNT_SHIFT) */
 629:Generated_Source\PSoC5/PWM_ServoDir.c **** 
 630:Generated_Source\PSoC5/PWM_ServoDir.c ****         #endif /* (!PWM_ServoDir_DeadBand2_4) */
 631:Generated_Source\PSoC5/PWM_ServoDir.c ****     }
 632:Generated_Source\PSoC5/PWM_ServoDir.c **** 
 633:Generated_Source\PSoC5/PWM_ServoDir.c **** 
 634:Generated_Source\PSoC5/PWM_ServoDir.c ****     /*******************************************************************************
 635:Generated_Source\PSoC5/PWM_ServoDir.c ****     * Function Name: PWM_ServoDir_ReadDeadTime
 636:Generated_Source\PSoC5/PWM_ServoDir.c ****     ********************************************************************************
 637:Generated_Source\PSoC5/PWM_ServoDir.c ****     *
 638:Generated_Source\PSoC5/PWM_ServoDir.c ****     * Summary:
 639:Generated_Source\PSoC5/PWM_ServoDir.c ****     *  This function reads the dead-band counts from the corresponding register
 640:Generated_Source\PSoC5/PWM_ServoDir.c ****     *
 641:Generated_Source\PSoC5/PWM_ServoDir.c ****     * Parameters:
 642:Generated_Source\PSoC5/PWM_ServoDir.c ****     *  None
 643:Generated_Source\PSoC5/PWM_ServoDir.c ****     *
 644:Generated_Source\PSoC5/PWM_ServoDir.c ****     * Return:
 645:Generated_Source\PSoC5/PWM_ServoDir.c ****     *  Dead Band Counts
 646:Generated_Source\PSoC5/PWM_ServoDir.c ****     *
 647:Generated_Source\PSoC5/PWM_ServoDir.c ****     *******************************************************************************/
 648:Generated_Source\PSoC5/PWM_ServoDir.c ****     uint8 PWM_ServoDir_ReadDeadTime(void) 
 649:Generated_Source\PSoC5/PWM_ServoDir.c ****     {
 650:Generated_Source\PSoC5/PWM_ServoDir.c ****         /* If using the Dead Band 1-255 mode then just read the register */
 651:Generated_Source\PSoC5/PWM_ServoDir.c ****         #if(!PWM_ServoDir_DeadBand2_4)
 652:Generated_Source\PSoC5/PWM_ServoDir.c ****             return (CY_GET_REG8(PWM_ServoDir_DEADBAND_COUNT_PTR));
 653:Generated_Source\PSoC5/PWM_ServoDir.c ****         #else
 654:Generated_Source\PSoC5/PWM_ServoDir.c **** 
 655:Generated_Source\PSoC5/PWM_ServoDir.c ****             /* Otherwise the data has to be masked and offset */
 656:Generated_Source\PSoC5/PWM_ServoDir.c ****             #if(PWM_ServoDir_DEADBAND_COUNT_SHIFT)
 657:Generated_Source\PSoC5/PWM_ServoDir.c ****                 return ((uint8)(((uint8)(PWM_ServoDir_DEADBAND_COUNT & PWM_ServoDir_DEADBAND_COUNT_
 658:Generated_Source\PSoC5/PWM_ServoDir.c ****                                                                            PWM_ServoDir_DEADBAND_CO
 659:Generated_Source\PSoC5/PWM_ServoDir.c ****             #else
 660:Generated_Source\PSoC5/PWM_ServoDir.c ****                 return (PWM_ServoDir_DEADBAND_COUNT & PWM_ServoDir_DEADBAND_COUNT_MASK);
 661:Generated_Source\PSoC5/PWM_ServoDir.c ****             #endif /* (PWM_ServoDir_DEADBAND_COUNT_SHIFT) */
 662:Generated_Source\PSoC5/PWM_ServoDir.c ****         #endif /* (!PWM_ServoDir_DeadBand2_4) */
 663:Generated_Source\PSoC5/PWM_ServoDir.c ****     }
 664:Generated_Source\PSoC5/PWM_ServoDir.c **** #endif /* DeadBandUsed */
ARM GAS  C:\Users\jmspi\AppData\Local\Temp\ccK7Zozg.s 			page 21


 665:Generated_Source\PSoC5/PWM_ServoDir.c **** 
 666:Generated_Source\PSoC5/PWM_ServoDir.c **** #if (PWM_ServoDir_UseStatus || PWM_ServoDir_UsingFixedFunction)
 667:Generated_Source\PSoC5/PWM_ServoDir.c **** 
 668:Generated_Source\PSoC5/PWM_ServoDir.c **** 
 669:Generated_Source\PSoC5/PWM_ServoDir.c ****     /*******************************************************************************
 670:Generated_Source\PSoC5/PWM_ServoDir.c ****     * Function Name: PWM_ServoDir_SetInterruptMode
 671:Generated_Source\PSoC5/PWM_ServoDir.c ****     ********************************************************************************
 672:Generated_Source\PSoC5/PWM_ServoDir.c ****     *
 673:Generated_Source\PSoC5/PWM_ServoDir.c ****     * Summary:
 674:Generated_Source\PSoC5/PWM_ServoDir.c ****     *  This function configures the interrupts mask control of theinterrupt
 675:Generated_Source\PSoC5/PWM_ServoDir.c ****     *  source status register.
 676:Generated_Source\PSoC5/PWM_ServoDir.c ****     *
 677:Generated_Source\PSoC5/PWM_ServoDir.c ****     * Parameters:
 678:Generated_Source\PSoC5/PWM_ServoDir.c ****     *  uint8 interruptMode: Bit field containing the interrupt sources enabled
 679:Generated_Source\PSoC5/PWM_ServoDir.c ****     *
 680:Generated_Source\PSoC5/PWM_ServoDir.c ****     * Return:
 681:Generated_Source\PSoC5/PWM_ServoDir.c ****     *  None
 682:Generated_Source\PSoC5/PWM_ServoDir.c ****     *
 683:Generated_Source\PSoC5/PWM_ServoDir.c ****     *******************************************************************************/
 684:Generated_Source\PSoC5/PWM_ServoDir.c ****     void PWM_ServoDir_SetInterruptMode(uint8 interruptMode) 
 685:Generated_Source\PSoC5/PWM_ServoDir.c ****     {
 476              		.loc 1 685 0
 477              		.cfi_startproc
 478              		@ args = 0, pretend = 0, frame = 8
 479              		@ frame_needed = 1, uses_anonymous_args = 0
 480              		@ link register save eliminated.
 481 0000 80B4     		push	{r7}
 482              		.cfi_def_cfa_offset 4
 483              		.cfi_offset 7, -4
 484 0002 83B0     		sub	sp, sp, #12
 485              		.cfi_def_cfa_offset 16
 486 0004 00AF     		add	r7, sp, #0
 487              		.cfi_def_cfa_register 7
 488 0006 0346     		mov	r3, r0
 489 0008 FB71     		strb	r3, [r7, #7]
 686:Generated_Source\PSoC5/PWM_ServoDir.c ****         CY_SET_REG8(PWM_ServoDir_STATUS_MASK_PTR, interruptMode);
 490              		.loc 1 686 0
 491 000a 044A     		ldr	r2, .L30
 492 000c FB79     		ldrb	r3, [r7, #7]
 493 000e 1370     		strb	r3, [r2]
 687:Generated_Source\PSoC5/PWM_ServoDir.c ****     }
 494              		.loc 1 687 0
 495 0010 00BF     		nop
 496 0012 0C37     		adds	r7, r7, #12
 497              		.cfi_def_cfa_offset 4
 498 0014 BD46     		mov	sp, r7
 499              		.cfi_def_cfa_register 13
 500              		@ sp needed
 501 0016 80BC     		pop	{r7}
 502              		.cfi_restore 7
 503              		.cfi_def_cfa_offset 0
 504 0018 7047     		bx	lr
 505              	.L31:
 506 001a 00BF     		.align	2
 507              	.L30:
 508 001c 85650040 		.word	1073767813
 509              		.cfi_endproc
ARM GAS  C:\Users\jmspi\AppData\Local\Temp\ccK7Zozg.s 			page 22


 510              	.LFE10:
 511              		.size	PWM_ServoDir_SetInterruptMode, .-PWM_ServoDir_SetInterruptMode
 512              		.section	.text.PWM_ServoDir_ReadStatusRegister,"ax",%progbits
 513              		.align	2
 514              		.global	PWM_ServoDir_ReadStatusRegister
 515              		.thumb
 516              		.thumb_func
 517              		.type	PWM_ServoDir_ReadStatusRegister, %function
 518              	PWM_ServoDir_ReadStatusRegister:
 519              	.LFB11:
 688:Generated_Source\PSoC5/PWM_ServoDir.c **** 
 689:Generated_Source\PSoC5/PWM_ServoDir.c **** 
 690:Generated_Source\PSoC5/PWM_ServoDir.c ****     /*******************************************************************************
 691:Generated_Source\PSoC5/PWM_ServoDir.c ****     * Function Name: PWM_ServoDir_ReadStatusRegister
 692:Generated_Source\PSoC5/PWM_ServoDir.c ****     ********************************************************************************
 693:Generated_Source\PSoC5/PWM_ServoDir.c ****     *
 694:Generated_Source\PSoC5/PWM_ServoDir.c ****     * Summary:
 695:Generated_Source\PSoC5/PWM_ServoDir.c ****     *  This function returns the current state of the status register.
 696:Generated_Source\PSoC5/PWM_ServoDir.c ****     *
 697:Generated_Source\PSoC5/PWM_ServoDir.c ****     * Parameters:
 698:Generated_Source\PSoC5/PWM_ServoDir.c ****     *  None
 699:Generated_Source\PSoC5/PWM_ServoDir.c ****     *
 700:Generated_Source\PSoC5/PWM_ServoDir.c ****     * Return:
 701:Generated_Source\PSoC5/PWM_ServoDir.c ****     *  uint8 : Current status register value. The status register bits are:
 702:Generated_Source\PSoC5/PWM_ServoDir.c ****     *  [7:6] : Unused(0)
 703:Generated_Source\PSoC5/PWM_ServoDir.c ****     *  [5]   : Kill event output
 704:Generated_Source\PSoC5/PWM_ServoDir.c ****     *  [4]   : FIFO not empty
 705:Generated_Source\PSoC5/PWM_ServoDir.c ****     *  [3]   : FIFO full
 706:Generated_Source\PSoC5/PWM_ServoDir.c ****     *  [2]   : Terminal count
 707:Generated_Source\PSoC5/PWM_ServoDir.c ****     *  [1]   : Compare output 2
 708:Generated_Source\PSoC5/PWM_ServoDir.c ****     *  [0]   : Compare output 1
 709:Generated_Source\PSoC5/PWM_ServoDir.c ****     *
 710:Generated_Source\PSoC5/PWM_ServoDir.c ****     *******************************************************************************/
 711:Generated_Source\PSoC5/PWM_ServoDir.c ****     uint8 PWM_ServoDir_ReadStatusRegister(void) 
 712:Generated_Source\PSoC5/PWM_ServoDir.c ****     {
 520              		.loc 1 712 0
 521              		.cfi_startproc
 522              		@ args = 0, pretend = 0, frame = 0
 523              		@ frame_needed = 1, uses_anonymous_args = 0
 524              		@ link register save eliminated.
 525 0000 80B4     		push	{r7}
 526              		.cfi_def_cfa_offset 4
 527              		.cfi_offset 7, -4
 528 0002 00AF     		add	r7, sp, #0
 529              		.cfi_def_cfa_register 7
 713:Generated_Source\PSoC5/PWM_ServoDir.c ****         return (CY_GET_REG8(PWM_ServoDir_STATUS_PTR));
 530              		.loc 1 713 0
 531 0004 034B     		ldr	r3, .L34
 532 0006 1B78     		ldrb	r3, [r3]
 533 0008 DBB2     		uxtb	r3, r3
 714:Generated_Source\PSoC5/PWM_ServoDir.c ****     }
 534              		.loc 1 714 0
 535 000a 1846     		mov	r0, r3
 536 000c BD46     		mov	sp, r7
 537              		.cfi_def_cfa_register 13
 538              		@ sp needed
 539 000e 80BC     		pop	{r7}
ARM GAS  C:\Users\jmspi\AppData\Local\Temp\ccK7Zozg.s 			page 23


 540              		.cfi_restore 7
 541              		.cfi_def_cfa_offset 0
 542 0010 7047     		bx	lr
 543              	.L35:
 544 0012 00BF     		.align	2
 545              	.L34:
 546 0014 65650040 		.word	1073767781
 547              		.cfi_endproc
 548              	.LFE11:
 549              		.size	PWM_ServoDir_ReadStatusRegister, .-PWM_ServoDir_ReadStatusRegister
 550              		.section	.text.PWM_ServoDir_ReadCapture,"ax",%progbits
 551              		.align	2
 552              		.global	PWM_ServoDir_ReadCapture
 553              		.thumb
 554              		.thumb_func
 555              		.type	PWM_ServoDir_ReadCapture, %function
 556              	PWM_ServoDir_ReadCapture:
 557              	.LFB12:
 715:Generated_Source\PSoC5/PWM_ServoDir.c **** 
 716:Generated_Source\PSoC5/PWM_ServoDir.c **** #endif /* (PWM_ServoDir_UseStatus || PWM_ServoDir_UsingFixedFunction) */
 717:Generated_Source\PSoC5/PWM_ServoDir.c **** 
 718:Generated_Source\PSoC5/PWM_ServoDir.c **** 
 719:Generated_Source\PSoC5/PWM_ServoDir.c **** #if (PWM_ServoDir_UseControl)
 720:Generated_Source\PSoC5/PWM_ServoDir.c **** 
 721:Generated_Source\PSoC5/PWM_ServoDir.c **** 
 722:Generated_Source\PSoC5/PWM_ServoDir.c ****     /*******************************************************************************
 723:Generated_Source\PSoC5/PWM_ServoDir.c ****     * Function Name: PWM_ServoDir_ReadControlRegister
 724:Generated_Source\PSoC5/PWM_ServoDir.c ****     ********************************************************************************
 725:Generated_Source\PSoC5/PWM_ServoDir.c ****     *
 726:Generated_Source\PSoC5/PWM_ServoDir.c ****     * Summary:
 727:Generated_Source\PSoC5/PWM_ServoDir.c ****     *  Returns the current state of the control register. This API is available
 728:Generated_Source\PSoC5/PWM_ServoDir.c ****     *  only if the control register is not removed.
 729:Generated_Source\PSoC5/PWM_ServoDir.c ****     *
 730:Generated_Source\PSoC5/PWM_ServoDir.c ****     * Parameters:
 731:Generated_Source\PSoC5/PWM_ServoDir.c ****     *  None
 732:Generated_Source\PSoC5/PWM_ServoDir.c ****     *
 733:Generated_Source\PSoC5/PWM_ServoDir.c ****     * Return:
 734:Generated_Source\PSoC5/PWM_ServoDir.c ****     *  uint8 : Current control register value
 735:Generated_Source\PSoC5/PWM_ServoDir.c ****     *
 736:Generated_Source\PSoC5/PWM_ServoDir.c ****     *******************************************************************************/
 737:Generated_Source\PSoC5/PWM_ServoDir.c ****     uint8 PWM_ServoDir_ReadControlRegister(void) 
 738:Generated_Source\PSoC5/PWM_ServoDir.c ****     {
 739:Generated_Source\PSoC5/PWM_ServoDir.c ****         uint8 result;
 740:Generated_Source\PSoC5/PWM_ServoDir.c **** 
 741:Generated_Source\PSoC5/PWM_ServoDir.c ****         result = CY_GET_REG8(PWM_ServoDir_CONTROL_PTR);
 742:Generated_Source\PSoC5/PWM_ServoDir.c ****         return (result);
 743:Generated_Source\PSoC5/PWM_ServoDir.c ****     }
 744:Generated_Source\PSoC5/PWM_ServoDir.c **** 
 745:Generated_Source\PSoC5/PWM_ServoDir.c **** 
 746:Generated_Source\PSoC5/PWM_ServoDir.c ****     /*******************************************************************************
 747:Generated_Source\PSoC5/PWM_ServoDir.c ****     * Function Name: PWM_ServoDir_WriteControlRegister
 748:Generated_Source\PSoC5/PWM_ServoDir.c ****     ********************************************************************************
 749:Generated_Source\PSoC5/PWM_ServoDir.c ****     *
 750:Generated_Source\PSoC5/PWM_ServoDir.c ****     * Summary:
 751:Generated_Source\PSoC5/PWM_ServoDir.c ****     *  Sets the bit field of the control register. This API is available only if
 752:Generated_Source\PSoC5/PWM_ServoDir.c ****     *  the control register is not removed.
 753:Generated_Source\PSoC5/PWM_ServoDir.c ****     *
ARM GAS  C:\Users\jmspi\AppData\Local\Temp\ccK7Zozg.s 			page 24


 754:Generated_Source\PSoC5/PWM_ServoDir.c ****     * Parameters:
 755:Generated_Source\PSoC5/PWM_ServoDir.c ****     *  uint8 control: Control register bit field, The status register bits are:
 756:Generated_Source\PSoC5/PWM_ServoDir.c ****     *  [7]   : PWM Enable
 757:Generated_Source\PSoC5/PWM_ServoDir.c ****     *  [6]   : Reset
 758:Generated_Source\PSoC5/PWM_ServoDir.c ****     *  [5:3] : Compare Mode2
 759:Generated_Source\PSoC5/PWM_ServoDir.c ****     *  [2:0] : Compare Mode2
 760:Generated_Source\PSoC5/PWM_ServoDir.c ****     *
 761:Generated_Source\PSoC5/PWM_ServoDir.c ****     * Return:
 762:Generated_Source\PSoC5/PWM_ServoDir.c ****     *  None
 763:Generated_Source\PSoC5/PWM_ServoDir.c ****     *
 764:Generated_Source\PSoC5/PWM_ServoDir.c ****     *******************************************************************************/
 765:Generated_Source\PSoC5/PWM_ServoDir.c ****     void PWM_ServoDir_WriteControlRegister(uint8 control) 
 766:Generated_Source\PSoC5/PWM_ServoDir.c ****     {
 767:Generated_Source\PSoC5/PWM_ServoDir.c ****         CY_SET_REG8(PWM_ServoDir_CONTROL_PTR, control);
 768:Generated_Source\PSoC5/PWM_ServoDir.c ****     }
 769:Generated_Source\PSoC5/PWM_ServoDir.c **** 
 770:Generated_Source\PSoC5/PWM_ServoDir.c **** #endif /* (PWM_ServoDir_UseControl) */
 771:Generated_Source\PSoC5/PWM_ServoDir.c **** 
 772:Generated_Source\PSoC5/PWM_ServoDir.c **** 
 773:Generated_Source\PSoC5/PWM_ServoDir.c **** #if (!PWM_ServoDir_UsingFixedFunction)
 774:Generated_Source\PSoC5/PWM_ServoDir.c **** 
 775:Generated_Source\PSoC5/PWM_ServoDir.c **** 
 776:Generated_Source\PSoC5/PWM_ServoDir.c ****     /*******************************************************************************
 777:Generated_Source\PSoC5/PWM_ServoDir.c ****     * Function Name: PWM_ServoDir_ReadCapture
 778:Generated_Source\PSoC5/PWM_ServoDir.c ****     ********************************************************************************
 779:Generated_Source\PSoC5/PWM_ServoDir.c ****     *
 780:Generated_Source\PSoC5/PWM_ServoDir.c ****     * Summary:
 781:Generated_Source\PSoC5/PWM_ServoDir.c ****     *  Reads the capture value from the capture FIFO.
 782:Generated_Source\PSoC5/PWM_ServoDir.c ****     *
 783:Generated_Source\PSoC5/PWM_ServoDir.c ****     * Parameters:
 784:Generated_Source\PSoC5/PWM_ServoDir.c ****     *  None
 785:Generated_Source\PSoC5/PWM_ServoDir.c ****     *
 786:Generated_Source\PSoC5/PWM_ServoDir.c ****     * Return:
 787:Generated_Source\PSoC5/PWM_ServoDir.c ****     *  uint8/uint16: The current capture value
 788:Generated_Source\PSoC5/PWM_ServoDir.c ****     *
 789:Generated_Source\PSoC5/PWM_ServoDir.c ****     *******************************************************************************/
 790:Generated_Source\PSoC5/PWM_ServoDir.c ****     uint16 PWM_ServoDir_ReadCapture(void) 
 791:Generated_Source\PSoC5/PWM_ServoDir.c ****     {
 558              		.loc 1 791 0
 559              		.cfi_startproc
 560              		@ args = 0, pretend = 0, frame = 0
 561              		@ frame_needed = 1, uses_anonymous_args = 0
 562              		@ link register save eliminated.
 563 0000 80B4     		push	{r7}
 564              		.cfi_def_cfa_offset 4
 565              		.cfi_offset 7, -4
 566 0002 00AF     		add	r7, sp, #0
 567              		.cfi_def_cfa_register 7
 792:Generated_Source\PSoC5/PWM_ServoDir.c ****         return (CY_GET_REG16(PWM_ServoDir_CAPTURE_LSB_PTR));
 568              		.loc 1 792 0
 569 0004 034B     		ldr	r3, .L38
 570 0006 1B88     		ldrh	r3, [r3]	@ movhi
 571 0008 9BB2     		uxth	r3, r3
 793:Generated_Source\PSoC5/PWM_ServoDir.c ****     }
 572              		.loc 1 793 0
 573 000a 1846     		mov	r0, r3
 574 000c BD46     		mov	sp, r7
ARM GAS  C:\Users\jmspi\AppData\Local\Temp\ccK7Zozg.s 			page 25


 575              		.cfi_def_cfa_register 13
 576              		@ sp needed
 577 000e 80BC     		pop	{r7}
 578              		.cfi_restore 7
 579              		.cfi_def_cfa_offset 0
 580 0010 7047     		bx	lr
 581              	.L39:
 582 0012 00BF     		.align	2
 583              	.L38:
 584 0014 AC6A0040 		.word	1073769132
 585              		.cfi_endproc
 586              	.LFE12:
 587              		.size	PWM_ServoDir_ReadCapture, .-PWM_ServoDir_ReadCapture
 588              		.section	.text.PWM_ServoDir_ReadCompare1,"ax",%progbits
 589              		.align	2
 590              		.global	PWM_ServoDir_ReadCompare1
 591              		.thumb
 592              		.thumb_func
 593              		.type	PWM_ServoDir_ReadCompare1, %function
 594              	PWM_ServoDir_ReadCompare1:
 595              	.LFB13:
 794:Generated_Source\PSoC5/PWM_ServoDir.c **** 
 795:Generated_Source\PSoC5/PWM_ServoDir.c **** #endif /* (!PWM_ServoDir_UsingFixedFunction) */
 796:Generated_Source\PSoC5/PWM_ServoDir.c **** 
 797:Generated_Source\PSoC5/PWM_ServoDir.c **** 
 798:Generated_Source\PSoC5/PWM_ServoDir.c **** #if (PWM_ServoDir_UseOneCompareMode)
 799:Generated_Source\PSoC5/PWM_ServoDir.c **** 
 800:Generated_Source\PSoC5/PWM_ServoDir.c **** 
 801:Generated_Source\PSoC5/PWM_ServoDir.c ****     /*******************************************************************************
 802:Generated_Source\PSoC5/PWM_ServoDir.c ****     * Function Name: PWM_ServoDir_ReadCompare
 803:Generated_Source\PSoC5/PWM_ServoDir.c ****     ********************************************************************************
 804:Generated_Source\PSoC5/PWM_ServoDir.c ****     *
 805:Generated_Source\PSoC5/PWM_ServoDir.c ****     * Summary:
 806:Generated_Source\PSoC5/PWM_ServoDir.c ****     *  Reads the compare value for the compare output when the PWM Mode parameter is
 807:Generated_Source\PSoC5/PWM_ServoDir.c ****     *  set to Dither mode, Center Aligned mode, or One Output mode.
 808:Generated_Source\PSoC5/PWM_ServoDir.c ****     *
 809:Generated_Source\PSoC5/PWM_ServoDir.c ****     * Parameters:
 810:Generated_Source\PSoC5/PWM_ServoDir.c ****     *  None
 811:Generated_Source\PSoC5/PWM_ServoDir.c ****     *
 812:Generated_Source\PSoC5/PWM_ServoDir.c ****     * Return:
 813:Generated_Source\PSoC5/PWM_ServoDir.c ****     *  uint8/uint16: Current compare value
 814:Generated_Source\PSoC5/PWM_ServoDir.c ****     *
 815:Generated_Source\PSoC5/PWM_ServoDir.c ****     *******************************************************************************/
 816:Generated_Source\PSoC5/PWM_ServoDir.c ****     uint16 PWM_ServoDir_ReadCompare(void) 
 817:Generated_Source\PSoC5/PWM_ServoDir.c ****     {
 818:Generated_Source\PSoC5/PWM_ServoDir.c ****         #if(PWM_ServoDir_UsingFixedFunction)
 819:Generated_Source\PSoC5/PWM_ServoDir.c ****             return ((uint16)CY_GET_REG16(PWM_ServoDir_COMPARE1_LSB_PTR));
 820:Generated_Source\PSoC5/PWM_ServoDir.c ****         #else
 821:Generated_Source\PSoC5/PWM_ServoDir.c ****             return (CY_GET_REG16(PWM_ServoDir_COMPARE1_LSB_PTR));
 822:Generated_Source\PSoC5/PWM_ServoDir.c ****         #endif /* (PWM_ServoDir_UsingFixedFunction) */
 823:Generated_Source\PSoC5/PWM_ServoDir.c ****     }
 824:Generated_Source\PSoC5/PWM_ServoDir.c **** 
 825:Generated_Source\PSoC5/PWM_ServoDir.c **** #else
 826:Generated_Source\PSoC5/PWM_ServoDir.c **** 
 827:Generated_Source\PSoC5/PWM_ServoDir.c **** 
 828:Generated_Source\PSoC5/PWM_ServoDir.c ****     /*******************************************************************************
 829:Generated_Source\PSoC5/PWM_ServoDir.c ****     * Function Name: PWM_ServoDir_ReadCompare1
ARM GAS  C:\Users\jmspi\AppData\Local\Temp\ccK7Zozg.s 			page 26


 830:Generated_Source\PSoC5/PWM_ServoDir.c ****     ********************************************************************************
 831:Generated_Source\PSoC5/PWM_ServoDir.c ****     *
 832:Generated_Source\PSoC5/PWM_ServoDir.c ****     * Summary:
 833:Generated_Source\PSoC5/PWM_ServoDir.c ****     *  Reads the compare value for the compare1 output.
 834:Generated_Source\PSoC5/PWM_ServoDir.c ****     *
 835:Generated_Source\PSoC5/PWM_ServoDir.c ****     * Parameters:
 836:Generated_Source\PSoC5/PWM_ServoDir.c ****     *  None
 837:Generated_Source\PSoC5/PWM_ServoDir.c ****     *
 838:Generated_Source\PSoC5/PWM_ServoDir.c ****     * Return:
 839:Generated_Source\PSoC5/PWM_ServoDir.c ****     *  uint8/uint16: Current compare value.
 840:Generated_Source\PSoC5/PWM_ServoDir.c ****     *
 841:Generated_Source\PSoC5/PWM_ServoDir.c ****     *******************************************************************************/
 842:Generated_Source\PSoC5/PWM_ServoDir.c ****     uint16 PWM_ServoDir_ReadCompare1(void) 
 843:Generated_Source\PSoC5/PWM_ServoDir.c ****     {
 596              		.loc 1 843 0
 597              		.cfi_startproc
 598              		@ args = 0, pretend = 0, frame = 0
 599              		@ frame_needed = 1, uses_anonymous_args = 0
 600              		@ link register save eliminated.
 601 0000 80B4     		push	{r7}
 602              		.cfi_def_cfa_offset 4
 603              		.cfi_offset 7, -4
 604 0002 00AF     		add	r7, sp, #0
 605              		.cfi_def_cfa_register 7
 844:Generated_Source\PSoC5/PWM_ServoDir.c ****         return (CY_GET_REG16(PWM_ServoDir_COMPARE1_LSB_PTR));
 606              		.loc 1 844 0
 607 0004 034B     		ldr	r3, .L42
 608 0006 1B88     		ldrh	r3, [r3]	@ movhi
 609 0008 9BB2     		uxth	r3, r3
 845:Generated_Source\PSoC5/PWM_ServoDir.c ****     }
 610              		.loc 1 845 0
 611 000a 1846     		mov	r0, r3
 612 000c BD46     		mov	sp, r7
 613              		.cfi_def_cfa_register 13
 614              		@ sp needed
 615 000e 80BC     		pop	{r7}
 616              		.cfi_restore 7
 617              		.cfi_def_cfa_offset 0
 618 0010 7047     		bx	lr
 619              	.L43:
 620 0012 00BF     		.align	2
 621              	.L42:
 622 0014 4C6A0040 		.word	1073769036
 623              		.cfi_endproc
 624              	.LFE13:
 625              		.size	PWM_ServoDir_ReadCompare1, .-PWM_ServoDir_ReadCompare1
 626              		.section	.text.PWM_ServoDir_ReadCompare2,"ax",%progbits
 627              		.align	2
 628              		.global	PWM_ServoDir_ReadCompare2
 629              		.thumb
 630              		.thumb_func
 631              		.type	PWM_ServoDir_ReadCompare2, %function
 632              	PWM_ServoDir_ReadCompare2:
 633              	.LFB14:
 846:Generated_Source\PSoC5/PWM_ServoDir.c **** 
 847:Generated_Source\PSoC5/PWM_ServoDir.c **** 
 848:Generated_Source\PSoC5/PWM_ServoDir.c ****     /*******************************************************************************
ARM GAS  C:\Users\jmspi\AppData\Local\Temp\ccK7Zozg.s 			page 27


 849:Generated_Source\PSoC5/PWM_ServoDir.c ****     * Function Name: PWM_ServoDir_ReadCompare2
 850:Generated_Source\PSoC5/PWM_ServoDir.c ****     ********************************************************************************
 851:Generated_Source\PSoC5/PWM_ServoDir.c ****     *
 852:Generated_Source\PSoC5/PWM_ServoDir.c ****     * Summary:
 853:Generated_Source\PSoC5/PWM_ServoDir.c ****     *  Reads the compare value for the compare2 output.
 854:Generated_Source\PSoC5/PWM_ServoDir.c ****     *
 855:Generated_Source\PSoC5/PWM_ServoDir.c ****     * Parameters:
 856:Generated_Source\PSoC5/PWM_ServoDir.c ****     *  None
 857:Generated_Source\PSoC5/PWM_ServoDir.c ****     *
 858:Generated_Source\PSoC5/PWM_ServoDir.c ****     * Return:
 859:Generated_Source\PSoC5/PWM_ServoDir.c ****     *  uint8/uint16: Current compare value.
 860:Generated_Source\PSoC5/PWM_ServoDir.c ****     *
 861:Generated_Source\PSoC5/PWM_ServoDir.c ****     *******************************************************************************/
 862:Generated_Source\PSoC5/PWM_ServoDir.c ****     uint16 PWM_ServoDir_ReadCompare2(void) 
 863:Generated_Source\PSoC5/PWM_ServoDir.c ****     {
 634              		.loc 1 863 0
 635              		.cfi_startproc
 636              		@ args = 0, pretend = 0, frame = 0
 637              		@ frame_needed = 1, uses_anonymous_args = 0
 638              		@ link register save eliminated.
 639 0000 80B4     		push	{r7}
 640              		.cfi_def_cfa_offset 4
 641              		.cfi_offset 7, -4
 642 0002 00AF     		add	r7, sp, #0
 643              		.cfi_def_cfa_register 7
 864:Generated_Source\PSoC5/PWM_ServoDir.c ****         return (CY_GET_REG16(PWM_ServoDir_COMPARE2_LSB_PTR));
 644              		.loc 1 864 0
 645 0004 034B     		ldr	r3, .L46
 646 0006 1B88     		ldrh	r3, [r3]	@ movhi
 647 0008 9BB2     		uxth	r3, r3
 865:Generated_Source\PSoC5/PWM_ServoDir.c ****     }
 648              		.loc 1 865 0
 649 000a 1846     		mov	r0, r3
 650 000c BD46     		mov	sp, r7
 651              		.cfi_def_cfa_register 13
 652              		@ sp needed
 653 000e 80BC     		pop	{r7}
 654              		.cfi_restore 7
 655              		.cfi_def_cfa_offset 0
 656 0010 7047     		bx	lr
 657              	.L47:
 658 0012 00BF     		.align	2
 659              	.L46:
 660 0014 6C6A0040 		.word	1073769068
 661              		.cfi_endproc
 662              	.LFE14:
 663              		.size	PWM_ServoDir_ReadCompare2, .-PWM_ServoDir_ReadCompare2
 664              		.section	.text.PWM_ServoDir_ReadPeriod,"ax",%progbits
 665              		.align	2
 666              		.global	PWM_ServoDir_ReadPeriod
 667              		.thumb
 668              		.thumb_func
 669              		.type	PWM_ServoDir_ReadPeriod, %function
 670              	PWM_ServoDir_ReadPeriod:
 671              	.LFB15:
 866:Generated_Source\PSoC5/PWM_ServoDir.c **** 
 867:Generated_Source\PSoC5/PWM_ServoDir.c **** #endif /* (PWM_ServoDir_UseOneCompareMode) */
ARM GAS  C:\Users\jmspi\AppData\Local\Temp\ccK7Zozg.s 			page 28


 868:Generated_Source\PSoC5/PWM_ServoDir.c **** 
 869:Generated_Source\PSoC5/PWM_ServoDir.c **** 
 870:Generated_Source\PSoC5/PWM_ServoDir.c **** /*******************************************************************************
 871:Generated_Source\PSoC5/PWM_ServoDir.c **** * Function Name: PWM_ServoDir_ReadPeriod
 872:Generated_Source\PSoC5/PWM_ServoDir.c **** ********************************************************************************
 873:Generated_Source\PSoC5/PWM_ServoDir.c **** *
 874:Generated_Source\PSoC5/PWM_ServoDir.c **** * Summary:
 875:Generated_Source\PSoC5/PWM_ServoDir.c **** *  Reads the period value used by the PWM hardware.
 876:Generated_Source\PSoC5/PWM_ServoDir.c **** *
 877:Generated_Source\PSoC5/PWM_ServoDir.c **** * Parameters:
 878:Generated_Source\PSoC5/PWM_ServoDir.c **** *  None
 879:Generated_Source\PSoC5/PWM_ServoDir.c **** *
 880:Generated_Source\PSoC5/PWM_ServoDir.c **** * Return:
 881:Generated_Source\PSoC5/PWM_ServoDir.c **** *  uint8/16: Period value
 882:Generated_Source\PSoC5/PWM_ServoDir.c **** *
 883:Generated_Source\PSoC5/PWM_ServoDir.c **** *******************************************************************************/
 884:Generated_Source\PSoC5/PWM_ServoDir.c **** uint16 PWM_ServoDir_ReadPeriod(void) 
 885:Generated_Source\PSoC5/PWM_ServoDir.c **** {
 672              		.loc 1 885 0
 673              		.cfi_startproc
 674              		@ args = 0, pretend = 0, frame = 0
 675              		@ frame_needed = 1, uses_anonymous_args = 0
 676              		@ link register save eliminated.
 677 0000 80B4     		push	{r7}
 678              		.cfi_def_cfa_offset 4
 679              		.cfi_offset 7, -4
 680 0002 00AF     		add	r7, sp, #0
 681              		.cfi_def_cfa_register 7
 886:Generated_Source\PSoC5/PWM_ServoDir.c ****     #if(PWM_ServoDir_UsingFixedFunction)
 887:Generated_Source\PSoC5/PWM_ServoDir.c ****         return ((uint16)CY_GET_REG16(PWM_ServoDir_PERIOD_LSB_PTR));
 888:Generated_Source\PSoC5/PWM_ServoDir.c ****     #else
 889:Generated_Source\PSoC5/PWM_ServoDir.c ****         return (CY_GET_REG16(PWM_ServoDir_PERIOD_LSB_PTR));
 682              		.loc 1 889 0
 683 0004 034B     		ldr	r3, .L50
 684 0006 1B88     		ldrh	r3, [r3]	@ movhi
 685 0008 9BB2     		uxth	r3, r3
 890:Generated_Source\PSoC5/PWM_ServoDir.c ****     #endif /* (PWM_ServoDir_UsingFixedFunction) */
 891:Generated_Source\PSoC5/PWM_ServoDir.c **** }
 686              		.loc 1 891 0
 687 000a 1846     		mov	r0, r3
 688 000c BD46     		mov	sp, r7
 689              		.cfi_def_cfa_register 13
 690              		@ sp needed
 691 000e 80BC     		pop	{r7}
 692              		.cfi_restore 7
 693              		.cfi_def_cfa_offset 0
 694 0010 7047     		bx	lr
 695              	.L51:
 696 0012 00BF     		.align	2
 697              	.L50:
 698 0014 8C6A0040 		.word	1073769100
 699              		.cfi_endproc
 700              	.LFE15:
 701              		.size	PWM_ServoDir_ReadPeriod, .-PWM_ServoDir_ReadPeriod
 702              		.text
 703              	.Letext0:
 704              		.file 2 "Generated_Source\\PSoC5\\cytypes.h"
ARM GAS  C:\Users\jmspi\AppData\Local\Temp\ccK7Zozg.s 			page 29

