ARM GAS  C:\Users\jmspi\AppData\Local\Temp\ccYEMJgh.s 			page 1


   1              		.syntax unified
   2              		.cpu cortex-m3
   3              		.fpu softvfp
   4              		.eabi_attribute 20, 1
   5              		.eabi_attribute 21, 1
   6              		.eabi_attribute 23, 3
   7              		.eabi_attribute 24, 1
   8              		.eabi_attribute 25, 1
   9              		.eabi_attribute 26, 1
  10              		.eabi_attribute 30, 6
  11              		.eabi_attribute 34, 1
  12              		.eabi_attribute 18, 4
  13              		.thumb
  14              		.syntax unified
  15              		.file	"PWM_Motor_L.c"
  16              		.text
  17              	.Ltext0:
  18              		.cfi_sections	.debug_frame
  19              		.global	PWM_Motor_L_initVar
  20              		.bss
  21              		.type	PWM_Motor_L_initVar, %object
  22              		.size	PWM_Motor_L_initVar, 1
  23              	PWM_Motor_L_initVar:
  24 0000 00       		.space	1
  25              		.section	.text.PWM_Motor_L_Start,"ax",%progbits
  26              		.align	2
  27              		.global	PWM_Motor_L_Start
  28              		.thumb
  29              		.thumb_func
  30              		.type	PWM_Motor_L_Start, %function
  31              	PWM_Motor_L_Start:
  32              	.LFB0:
  33              		.file 1 "Generated_Source\\PSoC5\\PWM_Motor_L.c"
   1:Generated_Source\PSoC5/PWM_Motor_L.c **** /*******************************************************************************
   2:Generated_Source\PSoC5/PWM_Motor_L.c **** * File Name: PWM_Motor_L.c
   3:Generated_Source\PSoC5/PWM_Motor_L.c **** * Version 3.30
   4:Generated_Source\PSoC5/PWM_Motor_L.c **** *
   5:Generated_Source\PSoC5/PWM_Motor_L.c **** * Description:
   6:Generated_Source\PSoC5/PWM_Motor_L.c **** *  The PWM User Module consist of an 8 or 16-bit counter with two 8 or 16-bit
   7:Generated_Source\PSoC5/PWM_Motor_L.c **** *  comparitors. Each instance of this user module is capable of generating
   8:Generated_Source\PSoC5/PWM_Motor_L.c **** *  two PWM outputs with the same period. The pulse width is selectable between
   9:Generated_Source\PSoC5/PWM_Motor_L.c **** *  1 and 255/65535. The period is selectable between 2 and 255/65536 clocks.
  10:Generated_Source\PSoC5/PWM_Motor_L.c **** *  The compare value output may be configured to be active when the present
  11:Generated_Source\PSoC5/PWM_Motor_L.c **** *  counter is less than or less than/equal to the compare value.
  12:Generated_Source\PSoC5/PWM_Motor_L.c **** *  A terminal count output is also provided. It generates a pulse one clock
  13:Generated_Source\PSoC5/PWM_Motor_L.c **** *  width wide when the counter is equal to zero.
  14:Generated_Source\PSoC5/PWM_Motor_L.c **** *
  15:Generated_Source\PSoC5/PWM_Motor_L.c **** * Note:
  16:Generated_Source\PSoC5/PWM_Motor_L.c **** *
  17:Generated_Source\PSoC5/PWM_Motor_L.c **** *******************************************************************************
  18:Generated_Source\PSoC5/PWM_Motor_L.c **** * Copyright 2008-2014, Cypress Semiconductor Corporation.  All rights reserved.
  19:Generated_Source\PSoC5/PWM_Motor_L.c **** * You may use this file only in accordance with the license, terms, conditions,
  20:Generated_Source\PSoC5/PWM_Motor_L.c **** * disclaimers, and limitations in the end user license agreement accompanying
  21:Generated_Source\PSoC5/PWM_Motor_L.c **** * the software package with which this file was provided.
  22:Generated_Source\PSoC5/PWM_Motor_L.c **** ********************************************************************************/
  23:Generated_Source\PSoC5/PWM_Motor_L.c **** 
  24:Generated_Source\PSoC5/PWM_Motor_L.c **** #include "PWM_Motor_L.h"
ARM GAS  C:\Users\jmspi\AppData\Local\Temp\ccYEMJgh.s 			page 2


  25:Generated_Source\PSoC5/PWM_Motor_L.c **** 
  26:Generated_Source\PSoC5/PWM_Motor_L.c **** /* Error message for removed <resource> through optimization */
  27:Generated_Source\PSoC5/PWM_Motor_L.c **** #ifdef PWM_Motor_L_PWMUDB_genblk1_ctrlreg__REMOVED
  28:Generated_Source\PSoC5/PWM_Motor_L.c ****     #error PWM_v3_30 detected with a constant 0 for the enable or \
  29:Generated_Source\PSoC5/PWM_Motor_L.c ****          constant 1 for reset. This will prevent the component from operating.
  30:Generated_Source\PSoC5/PWM_Motor_L.c **** #endif /* PWM_Motor_L_PWMUDB_genblk1_ctrlreg__REMOVED */
  31:Generated_Source\PSoC5/PWM_Motor_L.c **** 
  32:Generated_Source\PSoC5/PWM_Motor_L.c **** uint8 PWM_Motor_L_initVar = 0u;
  33:Generated_Source\PSoC5/PWM_Motor_L.c **** 
  34:Generated_Source\PSoC5/PWM_Motor_L.c **** 
  35:Generated_Source\PSoC5/PWM_Motor_L.c **** /*******************************************************************************
  36:Generated_Source\PSoC5/PWM_Motor_L.c **** * Function Name: PWM_Motor_L_Start
  37:Generated_Source\PSoC5/PWM_Motor_L.c **** ********************************************************************************
  38:Generated_Source\PSoC5/PWM_Motor_L.c **** *
  39:Generated_Source\PSoC5/PWM_Motor_L.c **** * Summary:
  40:Generated_Source\PSoC5/PWM_Motor_L.c **** *  The start function initializes the pwm with the default values, the
  41:Generated_Source\PSoC5/PWM_Motor_L.c **** *  enables the counter to begin counting.  It does not enable interrupts,
  42:Generated_Source\PSoC5/PWM_Motor_L.c **** *  the EnableInt command should be called if interrupt generation is required.
  43:Generated_Source\PSoC5/PWM_Motor_L.c **** *
  44:Generated_Source\PSoC5/PWM_Motor_L.c **** * Parameters:
  45:Generated_Source\PSoC5/PWM_Motor_L.c **** *  None
  46:Generated_Source\PSoC5/PWM_Motor_L.c **** *
  47:Generated_Source\PSoC5/PWM_Motor_L.c **** * Return:
  48:Generated_Source\PSoC5/PWM_Motor_L.c **** *  None
  49:Generated_Source\PSoC5/PWM_Motor_L.c **** *
  50:Generated_Source\PSoC5/PWM_Motor_L.c **** * Global variables:
  51:Generated_Source\PSoC5/PWM_Motor_L.c **** *  PWM_Motor_L_initVar: Is modified when this function is called for the
  52:Generated_Source\PSoC5/PWM_Motor_L.c **** *   first time. Is used to ensure that initialization happens only once.
  53:Generated_Source\PSoC5/PWM_Motor_L.c **** *
  54:Generated_Source\PSoC5/PWM_Motor_L.c **** *******************************************************************************/
  55:Generated_Source\PSoC5/PWM_Motor_L.c **** void PWM_Motor_L_Start(void) 
  56:Generated_Source\PSoC5/PWM_Motor_L.c **** {
  34              		.loc 1 56 0
  35              		.cfi_startproc
  36              		@ args = 0, pretend = 0, frame = 0
  37              		@ frame_needed = 1, uses_anonymous_args = 0
  38 0000 80B5     		push	{r7, lr}
  39              		.cfi_def_cfa_offset 8
  40              		.cfi_offset 7, -8
  41              		.cfi_offset 14, -4
  42 0002 00AF     		add	r7, sp, #0
  43              		.cfi_def_cfa_register 7
  57:Generated_Source\PSoC5/PWM_Motor_L.c ****     /* If not Initialized then initialize all required hardware and software */
  58:Generated_Source\PSoC5/PWM_Motor_L.c ****     if(PWM_Motor_L_initVar == 0u)
  44              		.loc 1 58 0
  45 0004 064B     		ldr	r3, .L3
  46 0006 1B78     		ldrb	r3, [r3]	@ zero_extendqisi2
  47 0008 002B     		cmp	r3, #0
  48 000a 04D1     		bne	.L2
  59:Generated_Source\PSoC5/PWM_Motor_L.c ****     {
  60:Generated_Source\PSoC5/PWM_Motor_L.c ****         PWM_Motor_L_Init();
  49              		.loc 1 60 0
  50 000c FFF7FEFF 		bl	PWM_Motor_L_Init
  61:Generated_Source\PSoC5/PWM_Motor_L.c ****         PWM_Motor_L_initVar = 1u;
  51              		.loc 1 61 0
  52 0010 034B     		ldr	r3, .L3
  53 0012 0122     		movs	r2, #1
ARM GAS  C:\Users\jmspi\AppData\Local\Temp\ccYEMJgh.s 			page 3


  54 0014 1A70     		strb	r2, [r3]
  55              	.L2:
  62:Generated_Source\PSoC5/PWM_Motor_L.c ****     }
  63:Generated_Source\PSoC5/PWM_Motor_L.c ****     PWM_Motor_L_Enable();
  56              		.loc 1 63 0
  57 0016 FFF7FEFF 		bl	PWM_Motor_L_Enable
  64:Generated_Source\PSoC5/PWM_Motor_L.c **** 
  65:Generated_Source\PSoC5/PWM_Motor_L.c **** }
  58              		.loc 1 65 0
  59 001a 00BF     		nop
  60 001c 80BD     		pop	{r7, pc}
  61              	.L4:
  62 001e 00BF     		.align	2
  63              	.L3:
  64 0020 00000000 		.word	PWM_Motor_L_initVar
  65              		.cfi_endproc
  66              	.LFE0:
  67              		.size	PWM_Motor_L_Start, .-PWM_Motor_L_Start
  68              		.section	.text.PWM_Motor_L_Init,"ax",%progbits
  69              		.align	2
  70              		.global	PWM_Motor_L_Init
  71              		.thumb
  72              		.thumb_func
  73              		.type	PWM_Motor_L_Init, %function
  74              	PWM_Motor_L_Init:
  75              	.LFB1:
  66:Generated_Source\PSoC5/PWM_Motor_L.c **** 
  67:Generated_Source\PSoC5/PWM_Motor_L.c **** 
  68:Generated_Source\PSoC5/PWM_Motor_L.c **** /*******************************************************************************
  69:Generated_Source\PSoC5/PWM_Motor_L.c **** * Function Name: PWM_Motor_L_Init
  70:Generated_Source\PSoC5/PWM_Motor_L.c **** ********************************************************************************
  71:Generated_Source\PSoC5/PWM_Motor_L.c **** *
  72:Generated_Source\PSoC5/PWM_Motor_L.c **** * Summary:
  73:Generated_Source\PSoC5/PWM_Motor_L.c **** *  Initialize component's parameters to the parameters set by user in the
  74:Generated_Source\PSoC5/PWM_Motor_L.c **** *  customizer of the component placed onto schematic. Usually called in
  75:Generated_Source\PSoC5/PWM_Motor_L.c **** *  PWM_Motor_L_Start().
  76:Generated_Source\PSoC5/PWM_Motor_L.c **** *
  77:Generated_Source\PSoC5/PWM_Motor_L.c **** * Parameters:
  78:Generated_Source\PSoC5/PWM_Motor_L.c **** *  None
  79:Generated_Source\PSoC5/PWM_Motor_L.c **** *
  80:Generated_Source\PSoC5/PWM_Motor_L.c **** * Return:
  81:Generated_Source\PSoC5/PWM_Motor_L.c **** *  None
  82:Generated_Source\PSoC5/PWM_Motor_L.c **** *
  83:Generated_Source\PSoC5/PWM_Motor_L.c **** *******************************************************************************/
  84:Generated_Source\PSoC5/PWM_Motor_L.c **** void PWM_Motor_L_Init(void) 
  85:Generated_Source\PSoC5/PWM_Motor_L.c **** {
  76              		.loc 1 85 0
  77              		.cfi_startproc
  78              		@ args = 0, pretend = 0, frame = 8
  79              		@ frame_needed = 1, uses_anonymous_args = 0
  80 0000 80B5     		push	{r7, lr}
  81              		.cfi_def_cfa_offset 8
  82              		.cfi_offset 7, -8
  83              		.cfi_offset 14, -4
  84 0002 82B0     		sub	sp, sp, #8
  85              		.cfi_def_cfa_offset 16
  86 0004 00AF     		add	r7, sp, #0
ARM GAS  C:\Users\jmspi\AppData\Local\Temp\ccYEMJgh.s 			page 4


  87              		.cfi_def_cfa_register 7
  86:Generated_Source\PSoC5/PWM_Motor_L.c ****     #if (PWM_Motor_L_UsingFixedFunction || PWM_Motor_L_UseControl)
  87:Generated_Source\PSoC5/PWM_Motor_L.c ****         uint8 ctrl;
  88:Generated_Source\PSoC5/PWM_Motor_L.c ****     #endif /* (PWM_Motor_L_UsingFixedFunction || PWM_Motor_L_UseControl) */
  89:Generated_Source\PSoC5/PWM_Motor_L.c **** 
  90:Generated_Source\PSoC5/PWM_Motor_L.c ****     #if(!PWM_Motor_L_UsingFixedFunction)
  91:Generated_Source\PSoC5/PWM_Motor_L.c ****         #if(PWM_Motor_L_UseStatus)
  92:Generated_Source\PSoC5/PWM_Motor_L.c ****             /* Interrupt State Backup for Critical Region*/
  93:Generated_Source\PSoC5/PWM_Motor_L.c ****             uint8 PWM_Motor_L_interruptState;
  94:Generated_Source\PSoC5/PWM_Motor_L.c ****         #endif /* (PWM_Motor_L_UseStatus) */
  95:Generated_Source\PSoC5/PWM_Motor_L.c ****     #endif /* (!PWM_Motor_L_UsingFixedFunction) */
  96:Generated_Source\PSoC5/PWM_Motor_L.c **** 
  97:Generated_Source\PSoC5/PWM_Motor_L.c ****     #if (PWM_Motor_L_UsingFixedFunction)
  98:Generated_Source\PSoC5/PWM_Motor_L.c ****         /* You are allowed to write the compare value (FF only) */
  99:Generated_Source\PSoC5/PWM_Motor_L.c ****         PWM_Motor_L_CONTROL |= PWM_Motor_L_CFG0_MODE;
 100:Generated_Source\PSoC5/PWM_Motor_L.c ****         #if (PWM_Motor_L_DeadBand2_4)
 101:Generated_Source\PSoC5/PWM_Motor_L.c ****             PWM_Motor_L_CONTROL |= PWM_Motor_L_CFG0_DB;
 102:Generated_Source\PSoC5/PWM_Motor_L.c ****         #endif /* (PWM_Motor_L_DeadBand2_4) */
 103:Generated_Source\PSoC5/PWM_Motor_L.c **** 
 104:Generated_Source\PSoC5/PWM_Motor_L.c ****         ctrl = PWM_Motor_L_CONTROL3 & ((uint8 )(~PWM_Motor_L_CTRL_CMPMODE1_MASK));
 105:Generated_Source\PSoC5/PWM_Motor_L.c ****         PWM_Motor_L_CONTROL3 = ctrl | PWM_Motor_L_DEFAULT_COMPARE1_MODE;
 106:Generated_Source\PSoC5/PWM_Motor_L.c **** 
 107:Generated_Source\PSoC5/PWM_Motor_L.c ****          /* Clear and Set SYNCTC and SYNCCMP bits of RT1 register */
 108:Generated_Source\PSoC5/PWM_Motor_L.c ****         PWM_Motor_L_RT1 &= ((uint8)(~PWM_Motor_L_RT1_MASK));
 109:Generated_Source\PSoC5/PWM_Motor_L.c ****         PWM_Motor_L_RT1 |= PWM_Motor_L_SYNC;
 110:Generated_Source\PSoC5/PWM_Motor_L.c **** 
 111:Generated_Source\PSoC5/PWM_Motor_L.c ****         /*Enable DSI Sync all all inputs of the PWM*/
 112:Generated_Source\PSoC5/PWM_Motor_L.c ****         PWM_Motor_L_RT1 &= ((uint8)(~PWM_Motor_L_SYNCDSI_MASK));
 113:Generated_Source\PSoC5/PWM_Motor_L.c ****         PWM_Motor_L_RT1 |= PWM_Motor_L_SYNCDSI_EN;
 114:Generated_Source\PSoC5/PWM_Motor_L.c **** 
 115:Generated_Source\PSoC5/PWM_Motor_L.c ****     #elif (PWM_Motor_L_UseControl)
 116:Generated_Source\PSoC5/PWM_Motor_L.c ****         /* Set the default compare mode defined in the parameter */
 117:Generated_Source\PSoC5/PWM_Motor_L.c ****         ctrl = PWM_Motor_L_CONTROL & ((uint8)(~PWM_Motor_L_CTRL_CMPMODE2_MASK)) &
  88              		.loc 1 117 0
  89 0006 214B     		ldr	r3, .L6
  90 0008 1B78     		ldrb	r3, [r3]
  91 000a DBB2     		uxtb	r3, r3
  92 000c 23F03F03 		bic	r3, r3, #63
  93 0010 FB71     		strb	r3, [r7, #7]
 118:Generated_Source\PSoC5/PWM_Motor_L.c ****                 ((uint8)(~PWM_Motor_L_CTRL_CMPMODE1_MASK));
 119:Generated_Source\PSoC5/PWM_Motor_L.c ****         PWM_Motor_L_CONTROL = ctrl | PWM_Motor_L_DEFAULT_COMPARE2_MODE |
  94              		.loc 1 119 0
  95 0012 1E4A     		ldr	r2, .L6
  96 0014 FB79     		ldrb	r3, [r7, #7]
  97 0016 43F00903 		orr	r3, r3, #9
  98 001a DBB2     		uxtb	r3, r3
  99 001c 1370     		strb	r3, [r2]
 120:Generated_Source\PSoC5/PWM_Motor_L.c ****                                    PWM_Motor_L_DEFAULT_COMPARE1_MODE;
 121:Generated_Source\PSoC5/PWM_Motor_L.c ****     #endif /* (PWM_Motor_L_UsingFixedFunction) */
 122:Generated_Source\PSoC5/PWM_Motor_L.c **** 
 123:Generated_Source\PSoC5/PWM_Motor_L.c ****     #if (!PWM_Motor_L_UsingFixedFunction)
 124:Generated_Source\PSoC5/PWM_Motor_L.c ****         #if (PWM_Motor_L_Resolution == 8)
 125:Generated_Source\PSoC5/PWM_Motor_L.c ****             /* Set FIFO 0 to 1 byte register for period*/
 126:Generated_Source\PSoC5/PWM_Motor_L.c ****             PWM_Motor_L_AUX_CONTROLDP0 |= (PWM_Motor_L_AUX_CTRL_FIFO0_CLR);
 127:Generated_Source\PSoC5/PWM_Motor_L.c ****         #else /* (PWM_Motor_L_Resolution == 16)*/
 128:Generated_Source\PSoC5/PWM_Motor_L.c ****             /* Set FIFO 0 to 1 byte register for period */
 129:Generated_Source\PSoC5/PWM_Motor_L.c ****             PWM_Motor_L_AUX_CONTROLDP0 |= (PWM_Motor_L_AUX_CTRL_FIFO0_CLR);
ARM GAS  C:\Users\jmspi\AppData\Local\Temp\ccYEMJgh.s 			page 5


 100              		.loc 1 129 0
 101 001e 1C4A     		ldr	r2, .L6+4
 102 0020 1B4B     		ldr	r3, .L6+4
 103 0022 1B78     		ldrb	r3, [r3]
 104 0024 DBB2     		uxtb	r3, r3
 105 0026 43F00103 		orr	r3, r3, #1
 106 002a DBB2     		uxtb	r3, r3
 107 002c 1370     		strb	r3, [r2]
 130:Generated_Source\PSoC5/PWM_Motor_L.c ****             PWM_Motor_L_AUX_CONTROLDP1 |= (PWM_Motor_L_AUX_CTRL_FIFO0_CLR);
 108              		.loc 1 130 0
 109 002e 194A     		ldr	r2, .L6+8
 110 0030 184B     		ldr	r3, .L6+8
 111 0032 1B78     		ldrb	r3, [r3]
 112 0034 DBB2     		uxtb	r3, r3
 113 0036 43F00103 		orr	r3, r3, #1
 114 003a DBB2     		uxtb	r3, r3
 115 003c 1370     		strb	r3, [r2]
 131:Generated_Source\PSoC5/PWM_Motor_L.c ****         #endif /* (PWM_Motor_L_Resolution == 8) */
 132:Generated_Source\PSoC5/PWM_Motor_L.c **** 
 133:Generated_Source\PSoC5/PWM_Motor_L.c ****         PWM_Motor_L_WriteCounter(PWM_Motor_L_INIT_PERIOD_VALUE);
 116              		.loc 1 133 0
 117 003e 41F28830 		movw	r0, #5000
 118 0042 FFF7FEFF 		bl	PWM_Motor_L_WriteCounter
 134:Generated_Source\PSoC5/PWM_Motor_L.c ****     #endif /* (!PWM_Motor_L_UsingFixedFunction) */
 135:Generated_Source\PSoC5/PWM_Motor_L.c **** 
 136:Generated_Source\PSoC5/PWM_Motor_L.c ****     PWM_Motor_L_WritePeriod(PWM_Motor_L_INIT_PERIOD_VALUE);
 119              		.loc 1 136 0
 120 0046 41F28830 		movw	r0, #5000
 121 004a FFF7FEFF 		bl	PWM_Motor_L_WritePeriod
 137:Generated_Source\PSoC5/PWM_Motor_L.c **** 
 138:Generated_Source\PSoC5/PWM_Motor_L.c ****         #if (PWM_Motor_L_UseOneCompareMode)
 139:Generated_Source\PSoC5/PWM_Motor_L.c ****             PWM_Motor_L_WriteCompare(PWM_Motor_L_INIT_COMPARE_VALUE1);
 140:Generated_Source\PSoC5/PWM_Motor_L.c ****         #else
 141:Generated_Source\PSoC5/PWM_Motor_L.c ****             PWM_Motor_L_WriteCompare1(PWM_Motor_L_INIT_COMPARE_VALUE1);
 122              		.loc 1 141 0
 123 004e 0020     		movs	r0, #0
 124 0050 FFF7FEFF 		bl	PWM_Motor_L_WriteCompare1
 142:Generated_Source\PSoC5/PWM_Motor_L.c ****             PWM_Motor_L_WriteCompare2(PWM_Motor_L_INIT_COMPARE_VALUE2);
 125              		.loc 1 142 0
 126 0054 0020     		movs	r0, #0
 127 0056 FFF7FEFF 		bl	PWM_Motor_L_WriteCompare2
 143:Generated_Source\PSoC5/PWM_Motor_L.c ****         #endif /* (PWM_Motor_L_UseOneCompareMode) */
 144:Generated_Source\PSoC5/PWM_Motor_L.c **** 
 145:Generated_Source\PSoC5/PWM_Motor_L.c ****         #if (PWM_Motor_L_KillModeMinTime)
 146:Generated_Source\PSoC5/PWM_Motor_L.c ****             PWM_Motor_L_WriteKillTime(PWM_Motor_L_MinimumKillTime);
 147:Generated_Source\PSoC5/PWM_Motor_L.c ****         #endif /* (PWM_Motor_L_KillModeMinTime) */
 148:Generated_Source\PSoC5/PWM_Motor_L.c **** 
 149:Generated_Source\PSoC5/PWM_Motor_L.c ****         #if (PWM_Motor_L_DeadBandUsed)
 150:Generated_Source\PSoC5/PWM_Motor_L.c ****             PWM_Motor_L_WriteDeadTime(PWM_Motor_L_INIT_DEAD_TIME);
 151:Generated_Source\PSoC5/PWM_Motor_L.c ****         #endif /* (PWM_Motor_L_DeadBandUsed) */
 152:Generated_Source\PSoC5/PWM_Motor_L.c **** 
 153:Generated_Source\PSoC5/PWM_Motor_L.c ****     #if (PWM_Motor_L_UseStatus || PWM_Motor_L_UsingFixedFunction)
 154:Generated_Source\PSoC5/PWM_Motor_L.c ****         PWM_Motor_L_SetInterruptMode(PWM_Motor_L_INIT_INTERRUPTS_MODE);
 128              		.loc 1 154 0
 129 005a 0020     		movs	r0, #0
 130 005c FFF7FEFF 		bl	PWM_Motor_L_SetInterruptMode
 155:Generated_Source\PSoC5/PWM_Motor_L.c ****     #endif /* (PWM_Motor_L_UseStatus || PWM_Motor_L_UsingFixedFunction) */
ARM GAS  C:\Users\jmspi\AppData\Local\Temp\ccYEMJgh.s 			page 6


 156:Generated_Source\PSoC5/PWM_Motor_L.c **** 
 157:Generated_Source\PSoC5/PWM_Motor_L.c ****     #if (PWM_Motor_L_UsingFixedFunction)
 158:Generated_Source\PSoC5/PWM_Motor_L.c ****         /* Globally Enable the Fixed Function Block chosen */
 159:Generated_Source\PSoC5/PWM_Motor_L.c ****         PWM_Motor_L_GLOBAL_ENABLE |= PWM_Motor_L_BLOCK_EN_MASK;
 160:Generated_Source\PSoC5/PWM_Motor_L.c ****         /* Set the Interrupt source to come from the status register */
 161:Generated_Source\PSoC5/PWM_Motor_L.c ****         PWM_Motor_L_CONTROL2 |= PWM_Motor_L_CTRL2_IRQ_SEL;
 162:Generated_Source\PSoC5/PWM_Motor_L.c ****     #else
 163:Generated_Source\PSoC5/PWM_Motor_L.c ****         #if(PWM_Motor_L_UseStatus)
 164:Generated_Source\PSoC5/PWM_Motor_L.c **** 
 165:Generated_Source\PSoC5/PWM_Motor_L.c ****             /* CyEnterCriticalRegion and CyExitCriticalRegion are used to mark following region cri
 166:Generated_Source\PSoC5/PWM_Motor_L.c ****             /* Enter Critical Region*/
 167:Generated_Source\PSoC5/PWM_Motor_L.c ****             PWM_Motor_L_interruptState = CyEnterCriticalSection();
 131              		.loc 1 167 0
 132 0060 FFF7FEFF 		bl	CyEnterCriticalSection
 133 0064 0346     		mov	r3, r0
 134 0066 BB71     		strb	r3, [r7, #6]
 168:Generated_Source\PSoC5/PWM_Motor_L.c ****             /* Use the interrupt output of the status register for IRQ output */
 169:Generated_Source\PSoC5/PWM_Motor_L.c ****             PWM_Motor_L_STATUS_AUX_CTRL |= PWM_Motor_L_STATUS_ACTL_INT_EN_MASK;
 135              		.loc 1 169 0
 136 0068 0B4A     		ldr	r2, .L6+12
 137 006a 0B4B     		ldr	r3, .L6+12
 138 006c 1B78     		ldrb	r3, [r3]
 139 006e DBB2     		uxtb	r3, r3
 140 0070 43F01003 		orr	r3, r3, #16
 141 0074 DBB2     		uxtb	r3, r3
 142 0076 1370     		strb	r3, [r2]
 170:Generated_Source\PSoC5/PWM_Motor_L.c **** 
 171:Generated_Source\PSoC5/PWM_Motor_L.c ****              /* Exit Critical Region*/
 172:Generated_Source\PSoC5/PWM_Motor_L.c ****             CyExitCriticalSection(PWM_Motor_L_interruptState);
 143              		.loc 1 172 0
 144 0078 BB79     		ldrb	r3, [r7, #6]	@ zero_extendqisi2
 145 007a 1846     		mov	r0, r3
 146 007c FFF7FEFF 		bl	CyExitCriticalSection
 173:Generated_Source\PSoC5/PWM_Motor_L.c **** 
 174:Generated_Source\PSoC5/PWM_Motor_L.c ****             /* Clear the FIFO to enable the PWM_Motor_L_STATUS_FIFOFULL
 175:Generated_Source\PSoC5/PWM_Motor_L.c ****                    bit to be set on FIFO full. */
 176:Generated_Source\PSoC5/PWM_Motor_L.c ****             PWM_Motor_L_ClearFIFO();
 147              		.loc 1 176 0
 148 0080 FFF7FEFF 		bl	PWM_Motor_L_ClearFIFO
 177:Generated_Source\PSoC5/PWM_Motor_L.c ****         #endif /* (PWM_Motor_L_UseStatus) */
 178:Generated_Source\PSoC5/PWM_Motor_L.c ****     #endif /* (PWM_Motor_L_UsingFixedFunction) */
 179:Generated_Source\PSoC5/PWM_Motor_L.c **** }
 149              		.loc 1 179 0
 150 0084 00BF     		nop
 151 0086 0837     		adds	r7, r7, #8
 152              		.cfi_def_cfa_offset 8
 153 0088 BD46     		mov	sp, r7
 154              		.cfi_def_cfa_register 13
 155              		@ sp needed
 156 008a 80BD     		pop	{r7, pc}
 157              	.L7:
 158              		.align	2
 159              	.L6:
 160 008c 7F640040 		.word	1073767551
 161 0090 9E640040 		.word	1073767582
 162 0094 9F640040 		.word	1073767583
 163 0098 90640040 		.word	1073767568
ARM GAS  C:\Users\jmspi\AppData\Local\Temp\ccYEMJgh.s 			page 7


 164              		.cfi_endproc
 165              	.LFE1:
 166              		.size	PWM_Motor_L_Init, .-PWM_Motor_L_Init
 167              		.section	.text.PWM_Motor_L_Enable,"ax",%progbits
 168              		.align	2
 169              		.global	PWM_Motor_L_Enable
 170              		.thumb
 171              		.thumb_func
 172              		.type	PWM_Motor_L_Enable, %function
 173              	PWM_Motor_L_Enable:
 174              	.LFB2:
 180:Generated_Source\PSoC5/PWM_Motor_L.c **** 
 181:Generated_Source\PSoC5/PWM_Motor_L.c **** 
 182:Generated_Source\PSoC5/PWM_Motor_L.c **** /*******************************************************************************
 183:Generated_Source\PSoC5/PWM_Motor_L.c **** * Function Name: PWM_Motor_L_Enable
 184:Generated_Source\PSoC5/PWM_Motor_L.c **** ********************************************************************************
 185:Generated_Source\PSoC5/PWM_Motor_L.c **** *
 186:Generated_Source\PSoC5/PWM_Motor_L.c **** * Summary:
 187:Generated_Source\PSoC5/PWM_Motor_L.c **** *  Enables the PWM block operation
 188:Generated_Source\PSoC5/PWM_Motor_L.c **** *
 189:Generated_Source\PSoC5/PWM_Motor_L.c **** * Parameters:
 190:Generated_Source\PSoC5/PWM_Motor_L.c **** *  None
 191:Generated_Source\PSoC5/PWM_Motor_L.c **** *
 192:Generated_Source\PSoC5/PWM_Motor_L.c **** * Return:
 193:Generated_Source\PSoC5/PWM_Motor_L.c **** *  None
 194:Generated_Source\PSoC5/PWM_Motor_L.c **** *
 195:Generated_Source\PSoC5/PWM_Motor_L.c **** * Side Effects:
 196:Generated_Source\PSoC5/PWM_Motor_L.c **** *  This works only if software enable mode is chosen
 197:Generated_Source\PSoC5/PWM_Motor_L.c **** *
 198:Generated_Source\PSoC5/PWM_Motor_L.c **** *******************************************************************************/
 199:Generated_Source\PSoC5/PWM_Motor_L.c **** void PWM_Motor_L_Enable(void) 
 200:Generated_Source\PSoC5/PWM_Motor_L.c **** {
 175              		.loc 1 200 0
 176              		.cfi_startproc
 177              		@ args = 0, pretend = 0, frame = 0
 178              		@ frame_needed = 1, uses_anonymous_args = 0
 179              		@ link register save eliminated.
 180 0000 80B4     		push	{r7}
 181              		.cfi_def_cfa_offset 4
 182              		.cfi_offset 7, -4
 183 0002 00AF     		add	r7, sp, #0
 184              		.cfi_def_cfa_register 7
 201:Generated_Source\PSoC5/PWM_Motor_L.c ****     /* Globally Enable the Fixed Function Block chosen */
 202:Generated_Source\PSoC5/PWM_Motor_L.c ****     #if (PWM_Motor_L_UsingFixedFunction)
 203:Generated_Source\PSoC5/PWM_Motor_L.c ****         PWM_Motor_L_GLOBAL_ENABLE |= PWM_Motor_L_BLOCK_EN_MASK;
 204:Generated_Source\PSoC5/PWM_Motor_L.c ****         PWM_Motor_L_GLOBAL_STBY_ENABLE |= PWM_Motor_L_BLOCK_STBY_EN_MASK;
 205:Generated_Source\PSoC5/PWM_Motor_L.c ****     #endif /* (PWM_Motor_L_UsingFixedFunction) */
 206:Generated_Source\PSoC5/PWM_Motor_L.c **** 
 207:Generated_Source\PSoC5/PWM_Motor_L.c ****     /* Enable the PWM from the control register  */
 208:Generated_Source\PSoC5/PWM_Motor_L.c ****     #if (PWM_Motor_L_UseControl || PWM_Motor_L_UsingFixedFunction)
 209:Generated_Source\PSoC5/PWM_Motor_L.c ****         PWM_Motor_L_CONTROL |= PWM_Motor_L_CTRL_ENABLE;
 185              		.loc 1 209 0
 186 0004 054A     		ldr	r2, .L9
 187 0006 054B     		ldr	r3, .L9
 188 0008 1B78     		ldrb	r3, [r3]
 189 000a DBB2     		uxtb	r3, r3
 190 000c 63F07F03 		orn	r3, r3, #127
ARM GAS  C:\Users\jmspi\AppData\Local\Temp\ccYEMJgh.s 			page 8


 191 0010 DBB2     		uxtb	r3, r3
 192 0012 1370     		strb	r3, [r2]
 210:Generated_Source\PSoC5/PWM_Motor_L.c ****     #endif /* (PWM_Motor_L_UseControl || PWM_Motor_L_UsingFixedFunction) */
 211:Generated_Source\PSoC5/PWM_Motor_L.c **** }
 193              		.loc 1 211 0
 194 0014 00BF     		nop
 195 0016 BD46     		mov	sp, r7
 196              		.cfi_def_cfa_register 13
 197              		@ sp needed
 198 0018 80BC     		pop	{r7}
 199              		.cfi_restore 7
 200              		.cfi_def_cfa_offset 0
 201 001a 7047     		bx	lr
 202              	.L10:
 203              		.align	2
 204              	.L9:
 205 001c 7F640040 		.word	1073767551
 206              		.cfi_endproc
 207              	.LFE2:
 208              		.size	PWM_Motor_L_Enable, .-PWM_Motor_L_Enable
 209              		.section	.text.PWM_Motor_L_Stop,"ax",%progbits
 210              		.align	2
 211              		.global	PWM_Motor_L_Stop
 212              		.thumb
 213              		.thumb_func
 214              		.type	PWM_Motor_L_Stop, %function
 215              	PWM_Motor_L_Stop:
 216              	.LFB3:
 212:Generated_Source\PSoC5/PWM_Motor_L.c **** 
 213:Generated_Source\PSoC5/PWM_Motor_L.c **** 
 214:Generated_Source\PSoC5/PWM_Motor_L.c **** /*******************************************************************************
 215:Generated_Source\PSoC5/PWM_Motor_L.c **** * Function Name: PWM_Motor_L_Stop
 216:Generated_Source\PSoC5/PWM_Motor_L.c **** ********************************************************************************
 217:Generated_Source\PSoC5/PWM_Motor_L.c **** *
 218:Generated_Source\PSoC5/PWM_Motor_L.c **** * Summary:
 219:Generated_Source\PSoC5/PWM_Motor_L.c **** *  The stop function halts the PWM, but does not change any modes or disable
 220:Generated_Source\PSoC5/PWM_Motor_L.c **** *  interrupts.
 221:Generated_Source\PSoC5/PWM_Motor_L.c **** *
 222:Generated_Source\PSoC5/PWM_Motor_L.c **** * Parameters:
 223:Generated_Source\PSoC5/PWM_Motor_L.c **** *  None
 224:Generated_Source\PSoC5/PWM_Motor_L.c **** *
 225:Generated_Source\PSoC5/PWM_Motor_L.c **** * Return:
 226:Generated_Source\PSoC5/PWM_Motor_L.c **** *  None
 227:Generated_Source\PSoC5/PWM_Motor_L.c **** *
 228:Generated_Source\PSoC5/PWM_Motor_L.c **** * Side Effects:
 229:Generated_Source\PSoC5/PWM_Motor_L.c **** *  If the Enable mode is set to Hardware only then this function
 230:Generated_Source\PSoC5/PWM_Motor_L.c **** *  has no effect on the operation of the PWM
 231:Generated_Source\PSoC5/PWM_Motor_L.c **** *
 232:Generated_Source\PSoC5/PWM_Motor_L.c **** *******************************************************************************/
 233:Generated_Source\PSoC5/PWM_Motor_L.c **** void PWM_Motor_L_Stop(void) 
 234:Generated_Source\PSoC5/PWM_Motor_L.c **** {
 217              		.loc 1 234 0
 218              		.cfi_startproc
 219              		@ args = 0, pretend = 0, frame = 0
 220              		@ frame_needed = 1, uses_anonymous_args = 0
 221              		@ link register save eliminated.
 222 0000 80B4     		push	{r7}
ARM GAS  C:\Users\jmspi\AppData\Local\Temp\ccYEMJgh.s 			page 9


 223              		.cfi_def_cfa_offset 4
 224              		.cfi_offset 7, -4
 225 0002 00AF     		add	r7, sp, #0
 226              		.cfi_def_cfa_register 7
 235:Generated_Source\PSoC5/PWM_Motor_L.c ****     #if (PWM_Motor_L_UseControl || PWM_Motor_L_UsingFixedFunction)
 236:Generated_Source\PSoC5/PWM_Motor_L.c ****         PWM_Motor_L_CONTROL &= ((uint8)(~PWM_Motor_L_CTRL_ENABLE));
 227              		.loc 1 236 0
 228 0004 054A     		ldr	r2, .L12
 229 0006 054B     		ldr	r3, .L12
 230 0008 1B78     		ldrb	r3, [r3]
 231 000a DBB2     		uxtb	r3, r3
 232 000c 03F07F03 		and	r3, r3, #127
 233 0010 DBB2     		uxtb	r3, r3
 234 0012 1370     		strb	r3, [r2]
 237:Generated_Source\PSoC5/PWM_Motor_L.c ****     #endif /* (PWM_Motor_L_UseControl || PWM_Motor_L_UsingFixedFunction) */
 238:Generated_Source\PSoC5/PWM_Motor_L.c **** 
 239:Generated_Source\PSoC5/PWM_Motor_L.c ****     /* Globally disable the Fixed Function Block chosen */
 240:Generated_Source\PSoC5/PWM_Motor_L.c ****     #if (PWM_Motor_L_UsingFixedFunction)
 241:Generated_Source\PSoC5/PWM_Motor_L.c ****         PWM_Motor_L_GLOBAL_ENABLE &= ((uint8)(~PWM_Motor_L_BLOCK_EN_MASK));
 242:Generated_Source\PSoC5/PWM_Motor_L.c ****         PWM_Motor_L_GLOBAL_STBY_ENABLE &= ((uint8)(~PWM_Motor_L_BLOCK_STBY_EN_MASK));
 243:Generated_Source\PSoC5/PWM_Motor_L.c ****     #endif /* (PWM_Motor_L_UsingFixedFunction) */
 244:Generated_Source\PSoC5/PWM_Motor_L.c **** }
 235              		.loc 1 244 0
 236 0014 00BF     		nop
 237 0016 BD46     		mov	sp, r7
 238              		.cfi_def_cfa_register 13
 239              		@ sp needed
 240 0018 80BC     		pop	{r7}
 241              		.cfi_restore 7
 242              		.cfi_def_cfa_offset 0
 243 001a 7047     		bx	lr
 244              	.L13:
 245              		.align	2
 246              	.L12:
 247 001c 7F640040 		.word	1073767551
 248              		.cfi_endproc
 249              	.LFE3:
 250              		.size	PWM_Motor_L_Stop, .-PWM_Motor_L_Stop
 251              		.section	.text.PWM_Motor_L_WriteCounter,"ax",%progbits
 252              		.align	2
 253              		.global	PWM_Motor_L_WriteCounter
 254              		.thumb
 255              		.thumb_func
 256              		.type	PWM_Motor_L_WriteCounter, %function
 257              	PWM_Motor_L_WriteCounter:
 258              	.LFB4:
 245:Generated_Source\PSoC5/PWM_Motor_L.c **** 
 246:Generated_Source\PSoC5/PWM_Motor_L.c **** #if (PWM_Motor_L_UseOneCompareMode)
 247:Generated_Source\PSoC5/PWM_Motor_L.c ****     #if (PWM_Motor_L_CompareMode1SW)
 248:Generated_Source\PSoC5/PWM_Motor_L.c **** 
 249:Generated_Source\PSoC5/PWM_Motor_L.c **** 
 250:Generated_Source\PSoC5/PWM_Motor_L.c ****         /*******************************************************************************
 251:Generated_Source\PSoC5/PWM_Motor_L.c ****         * Function Name: PWM_Motor_L_SetCompareMode
 252:Generated_Source\PSoC5/PWM_Motor_L.c ****         ********************************************************************************
 253:Generated_Source\PSoC5/PWM_Motor_L.c ****         *
 254:Generated_Source\PSoC5/PWM_Motor_L.c ****         * Summary:
 255:Generated_Source\PSoC5/PWM_Motor_L.c ****         *  This function writes the Compare Mode for the pwm output when in Dither mode,
ARM GAS  C:\Users\jmspi\AppData\Local\Temp\ccYEMJgh.s 			page 10


 256:Generated_Source\PSoC5/PWM_Motor_L.c ****         *  Center Align Mode or One Output Mode.
 257:Generated_Source\PSoC5/PWM_Motor_L.c ****         *
 258:Generated_Source\PSoC5/PWM_Motor_L.c ****         * Parameters:
 259:Generated_Source\PSoC5/PWM_Motor_L.c ****         *  comparemode:  The new compare mode for the PWM output. Use the compare types
 260:Generated_Source\PSoC5/PWM_Motor_L.c ****         *                defined in the H file as input arguments.
 261:Generated_Source\PSoC5/PWM_Motor_L.c ****         *
 262:Generated_Source\PSoC5/PWM_Motor_L.c ****         * Return:
 263:Generated_Source\PSoC5/PWM_Motor_L.c ****         *  None
 264:Generated_Source\PSoC5/PWM_Motor_L.c ****         *
 265:Generated_Source\PSoC5/PWM_Motor_L.c ****         *******************************************************************************/
 266:Generated_Source\PSoC5/PWM_Motor_L.c ****         void PWM_Motor_L_SetCompareMode(uint8 comparemode) 
 267:Generated_Source\PSoC5/PWM_Motor_L.c ****         {
 268:Generated_Source\PSoC5/PWM_Motor_L.c ****             #if(PWM_Motor_L_UsingFixedFunction)
 269:Generated_Source\PSoC5/PWM_Motor_L.c **** 
 270:Generated_Source\PSoC5/PWM_Motor_L.c ****                 #if(0 != PWM_Motor_L_CTRL_CMPMODE1_SHIFT)
 271:Generated_Source\PSoC5/PWM_Motor_L.c ****                     uint8 comparemodemasked = ((uint8)((uint8)comparemode << PWM_Motor_L_CTRL_CMPMO
 272:Generated_Source\PSoC5/PWM_Motor_L.c ****                 #else
 273:Generated_Source\PSoC5/PWM_Motor_L.c ****                     uint8 comparemodemasked = comparemode;
 274:Generated_Source\PSoC5/PWM_Motor_L.c ****                 #endif /* (0 != PWM_Motor_L_CTRL_CMPMODE1_SHIFT) */
 275:Generated_Source\PSoC5/PWM_Motor_L.c **** 
 276:Generated_Source\PSoC5/PWM_Motor_L.c ****                 PWM_Motor_L_CONTROL3 &= ((uint8)(~PWM_Motor_L_CTRL_CMPMODE1_MASK)); /*Clear Existin
 277:Generated_Source\PSoC5/PWM_Motor_L.c ****                 PWM_Motor_L_CONTROL3 |= comparemodemasked;
 278:Generated_Source\PSoC5/PWM_Motor_L.c **** 
 279:Generated_Source\PSoC5/PWM_Motor_L.c ****             #elif (PWM_Motor_L_UseControl)
 280:Generated_Source\PSoC5/PWM_Motor_L.c **** 
 281:Generated_Source\PSoC5/PWM_Motor_L.c ****                 #if(0 != PWM_Motor_L_CTRL_CMPMODE1_SHIFT)
 282:Generated_Source\PSoC5/PWM_Motor_L.c ****                     uint8 comparemode1masked = ((uint8)((uint8)comparemode << PWM_Motor_L_CTRL_CMPM
 283:Generated_Source\PSoC5/PWM_Motor_L.c ****                                                 PWM_Motor_L_CTRL_CMPMODE1_MASK;
 284:Generated_Source\PSoC5/PWM_Motor_L.c ****                 #else
 285:Generated_Source\PSoC5/PWM_Motor_L.c ****                     uint8 comparemode1masked = comparemode & PWM_Motor_L_CTRL_CMPMODE1_MASK;
 286:Generated_Source\PSoC5/PWM_Motor_L.c ****                 #endif /* (0 != PWM_Motor_L_CTRL_CMPMODE1_SHIFT) */
 287:Generated_Source\PSoC5/PWM_Motor_L.c **** 
 288:Generated_Source\PSoC5/PWM_Motor_L.c ****                 #if(0 != PWM_Motor_L_CTRL_CMPMODE2_SHIFT)
 289:Generated_Source\PSoC5/PWM_Motor_L.c ****                     uint8 comparemode2masked = ((uint8)((uint8)comparemode << PWM_Motor_L_CTRL_CMPM
 290:Generated_Source\PSoC5/PWM_Motor_L.c ****                                                PWM_Motor_L_CTRL_CMPMODE2_MASK;
 291:Generated_Source\PSoC5/PWM_Motor_L.c ****                 #else
 292:Generated_Source\PSoC5/PWM_Motor_L.c ****                     uint8 comparemode2masked = comparemode & PWM_Motor_L_CTRL_CMPMODE2_MASK;
 293:Generated_Source\PSoC5/PWM_Motor_L.c ****                 #endif /* (0 != PWM_Motor_L_CTRL_CMPMODE2_SHIFT) */
 294:Generated_Source\PSoC5/PWM_Motor_L.c **** 
 295:Generated_Source\PSoC5/PWM_Motor_L.c ****                 /*Clear existing mode */
 296:Generated_Source\PSoC5/PWM_Motor_L.c ****                 PWM_Motor_L_CONTROL &= ((uint8)(~(PWM_Motor_L_CTRL_CMPMODE1_MASK |
 297:Generated_Source\PSoC5/PWM_Motor_L.c ****                                             PWM_Motor_L_CTRL_CMPMODE2_MASK)));
 298:Generated_Source\PSoC5/PWM_Motor_L.c ****                 PWM_Motor_L_CONTROL |= (comparemode1masked | comparemode2masked);
 299:Generated_Source\PSoC5/PWM_Motor_L.c **** 
 300:Generated_Source\PSoC5/PWM_Motor_L.c ****             #else
 301:Generated_Source\PSoC5/PWM_Motor_L.c ****                 uint8 temp = comparemode;
 302:Generated_Source\PSoC5/PWM_Motor_L.c ****             #endif /* (PWM_Motor_L_UsingFixedFunction) */
 303:Generated_Source\PSoC5/PWM_Motor_L.c ****         }
 304:Generated_Source\PSoC5/PWM_Motor_L.c ****     #endif /* PWM_Motor_L_CompareMode1SW */
 305:Generated_Source\PSoC5/PWM_Motor_L.c **** 
 306:Generated_Source\PSoC5/PWM_Motor_L.c **** #else /* UseOneCompareMode */
 307:Generated_Source\PSoC5/PWM_Motor_L.c **** 
 308:Generated_Source\PSoC5/PWM_Motor_L.c ****     #if (PWM_Motor_L_CompareMode1SW)
 309:Generated_Source\PSoC5/PWM_Motor_L.c **** 
 310:Generated_Source\PSoC5/PWM_Motor_L.c **** 
 311:Generated_Source\PSoC5/PWM_Motor_L.c ****         /*******************************************************************************
 312:Generated_Source\PSoC5/PWM_Motor_L.c ****         * Function Name: PWM_Motor_L_SetCompareMode1
ARM GAS  C:\Users\jmspi\AppData\Local\Temp\ccYEMJgh.s 			page 11


 313:Generated_Source\PSoC5/PWM_Motor_L.c ****         ********************************************************************************
 314:Generated_Source\PSoC5/PWM_Motor_L.c ****         *
 315:Generated_Source\PSoC5/PWM_Motor_L.c ****         * Summary:
 316:Generated_Source\PSoC5/PWM_Motor_L.c ****         *  This function writes the Compare Mode for the pwm or pwm1 output
 317:Generated_Source\PSoC5/PWM_Motor_L.c ****         *
 318:Generated_Source\PSoC5/PWM_Motor_L.c ****         * Parameters:
 319:Generated_Source\PSoC5/PWM_Motor_L.c ****         *  comparemode:  The new compare mode for the PWM output. Use the compare types
 320:Generated_Source\PSoC5/PWM_Motor_L.c ****         *                defined in the H file as input arguments.
 321:Generated_Source\PSoC5/PWM_Motor_L.c ****         *
 322:Generated_Source\PSoC5/PWM_Motor_L.c ****         * Return:
 323:Generated_Source\PSoC5/PWM_Motor_L.c ****         *  None
 324:Generated_Source\PSoC5/PWM_Motor_L.c ****         *
 325:Generated_Source\PSoC5/PWM_Motor_L.c ****         *******************************************************************************/
 326:Generated_Source\PSoC5/PWM_Motor_L.c ****         void PWM_Motor_L_SetCompareMode1(uint8 comparemode) 
 327:Generated_Source\PSoC5/PWM_Motor_L.c ****         {
 328:Generated_Source\PSoC5/PWM_Motor_L.c ****             #if(0 != PWM_Motor_L_CTRL_CMPMODE1_SHIFT)
 329:Generated_Source\PSoC5/PWM_Motor_L.c ****                 uint8 comparemodemasked = ((uint8)((uint8)comparemode << PWM_Motor_L_CTRL_CMPMODE1_
 330:Generated_Source\PSoC5/PWM_Motor_L.c ****                                            PWM_Motor_L_CTRL_CMPMODE1_MASK;
 331:Generated_Source\PSoC5/PWM_Motor_L.c ****             #else
 332:Generated_Source\PSoC5/PWM_Motor_L.c ****                 uint8 comparemodemasked = comparemode & PWM_Motor_L_CTRL_CMPMODE1_MASK;
 333:Generated_Source\PSoC5/PWM_Motor_L.c ****             #endif /* (0 != PWM_Motor_L_CTRL_CMPMODE1_SHIFT) */
 334:Generated_Source\PSoC5/PWM_Motor_L.c **** 
 335:Generated_Source\PSoC5/PWM_Motor_L.c ****             #if (PWM_Motor_L_UseControl)
 336:Generated_Source\PSoC5/PWM_Motor_L.c ****                 PWM_Motor_L_CONTROL &= ((uint8)(~PWM_Motor_L_CTRL_CMPMODE1_MASK)); /*Clear existing
 337:Generated_Source\PSoC5/PWM_Motor_L.c ****                 PWM_Motor_L_CONTROL |= comparemodemasked;
 338:Generated_Source\PSoC5/PWM_Motor_L.c ****             #endif /* (PWM_Motor_L_UseControl) */
 339:Generated_Source\PSoC5/PWM_Motor_L.c ****         }
 340:Generated_Source\PSoC5/PWM_Motor_L.c ****     #endif /* PWM_Motor_L_CompareMode1SW */
 341:Generated_Source\PSoC5/PWM_Motor_L.c **** 
 342:Generated_Source\PSoC5/PWM_Motor_L.c **** #if (PWM_Motor_L_CompareMode2SW)
 343:Generated_Source\PSoC5/PWM_Motor_L.c **** 
 344:Generated_Source\PSoC5/PWM_Motor_L.c **** 
 345:Generated_Source\PSoC5/PWM_Motor_L.c ****     /*******************************************************************************
 346:Generated_Source\PSoC5/PWM_Motor_L.c ****     * Function Name: PWM_Motor_L_SetCompareMode2
 347:Generated_Source\PSoC5/PWM_Motor_L.c ****     ********************************************************************************
 348:Generated_Source\PSoC5/PWM_Motor_L.c ****     *
 349:Generated_Source\PSoC5/PWM_Motor_L.c ****     * Summary:
 350:Generated_Source\PSoC5/PWM_Motor_L.c ****     *  This function writes the Compare Mode for the pwm or pwm2 output
 351:Generated_Source\PSoC5/PWM_Motor_L.c ****     *
 352:Generated_Source\PSoC5/PWM_Motor_L.c ****     * Parameters:
 353:Generated_Source\PSoC5/PWM_Motor_L.c ****     *  comparemode:  The new compare mode for the PWM output. Use the compare types
 354:Generated_Source\PSoC5/PWM_Motor_L.c ****     *                defined in the H file as input arguments.
 355:Generated_Source\PSoC5/PWM_Motor_L.c ****     *
 356:Generated_Source\PSoC5/PWM_Motor_L.c ****     * Return:
 357:Generated_Source\PSoC5/PWM_Motor_L.c ****     *  None
 358:Generated_Source\PSoC5/PWM_Motor_L.c ****     *
 359:Generated_Source\PSoC5/PWM_Motor_L.c ****     *******************************************************************************/
 360:Generated_Source\PSoC5/PWM_Motor_L.c ****     void PWM_Motor_L_SetCompareMode2(uint8 comparemode) 
 361:Generated_Source\PSoC5/PWM_Motor_L.c ****     {
 362:Generated_Source\PSoC5/PWM_Motor_L.c **** 
 363:Generated_Source\PSoC5/PWM_Motor_L.c ****         #if(0 != PWM_Motor_L_CTRL_CMPMODE2_SHIFT)
 364:Generated_Source\PSoC5/PWM_Motor_L.c ****             uint8 comparemodemasked = ((uint8)((uint8)comparemode << PWM_Motor_L_CTRL_CMPMODE2_SHIF
 365:Generated_Source\PSoC5/PWM_Motor_L.c ****                                                  PWM_Motor_L_CTRL_CMPMODE2_MASK;
 366:Generated_Source\PSoC5/PWM_Motor_L.c ****         #else
 367:Generated_Source\PSoC5/PWM_Motor_L.c ****             uint8 comparemodemasked = comparemode & PWM_Motor_L_CTRL_CMPMODE2_MASK;
 368:Generated_Source\PSoC5/PWM_Motor_L.c ****         #endif /* (0 != PWM_Motor_L_CTRL_CMPMODE2_SHIFT) */
 369:Generated_Source\PSoC5/PWM_Motor_L.c **** 
ARM GAS  C:\Users\jmspi\AppData\Local\Temp\ccYEMJgh.s 			page 12


 370:Generated_Source\PSoC5/PWM_Motor_L.c ****         #if (PWM_Motor_L_UseControl)
 371:Generated_Source\PSoC5/PWM_Motor_L.c ****             PWM_Motor_L_CONTROL &= ((uint8)(~PWM_Motor_L_CTRL_CMPMODE2_MASK)); /*Clear existing mod
 372:Generated_Source\PSoC5/PWM_Motor_L.c ****             PWM_Motor_L_CONTROL |= comparemodemasked;
 373:Generated_Source\PSoC5/PWM_Motor_L.c ****         #endif /* (PWM_Motor_L_UseControl) */
 374:Generated_Source\PSoC5/PWM_Motor_L.c ****     }
 375:Generated_Source\PSoC5/PWM_Motor_L.c ****     #endif /*PWM_Motor_L_CompareMode2SW */
 376:Generated_Source\PSoC5/PWM_Motor_L.c **** 
 377:Generated_Source\PSoC5/PWM_Motor_L.c **** #endif /* UseOneCompareMode */
 378:Generated_Source\PSoC5/PWM_Motor_L.c **** 
 379:Generated_Source\PSoC5/PWM_Motor_L.c **** 
 380:Generated_Source\PSoC5/PWM_Motor_L.c **** #if (!PWM_Motor_L_UsingFixedFunction)
 381:Generated_Source\PSoC5/PWM_Motor_L.c **** 
 382:Generated_Source\PSoC5/PWM_Motor_L.c **** 
 383:Generated_Source\PSoC5/PWM_Motor_L.c ****     /*******************************************************************************
 384:Generated_Source\PSoC5/PWM_Motor_L.c ****     * Function Name: PWM_Motor_L_WriteCounter
 385:Generated_Source\PSoC5/PWM_Motor_L.c ****     ********************************************************************************
 386:Generated_Source\PSoC5/PWM_Motor_L.c ****     *
 387:Generated_Source\PSoC5/PWM_Motor_L.c ****     * Summary:
 388:Generated_Source\PSoC5/PWM_Motor_L.c ****     *  Writes a new counter value directly to the counter register. This will be
 389:Generated_Source\PSoC5/PWM_Motor_L.c ****     *  implemented for that currently running period and only that period. This API
 390:Generated_Source\PSoC5/PWM_Motor_L.c ****     *  is valid only for UDB implementation and not available for fixed function
 391:Generated_Source\PSoC5/PWM_Motor_L.c ****     *  PWM implementation.
 392:Generated_Source\PSoC5/PWM_Motor_L.c ****     *
 393:Generated_Source\PSoC5/PWM_Motor_L.c ****     * Parameters:
 394:Generated_Source\PSoC5/PWM_Motor_L.c ****     *  counter:  The period new period counter value.
 395:Generated_Source\PSoC5/PWM_Motor_L.c ****     *
 396:Generated_Source\PSoC5/PWM_Motor_L.c ****     * Return:
 397:Generated_Source\PSoC5/PWM_Motor_L.c ****     *  None
 398:Generated_Source\PSoC5/PWM_Motor_L.c ****     *
 399:Generated_Source\PSoC5/PWM_Motor_L.c ****     * Side Effects:
 400:Generated_Source\PSoC5/PWM_Motor_L.c ****     *  The PWM Period will be reloaded when a counter value will be a zero
 401:Generated_Source\PSoC5/PWM_Motor_L.c ****     *
 402:Generated_Source\PSoC5/PWM_Motor_L.c ****     *******************************************************************************/
 403:Generated_Source\PSoC5/PWM_Motor_L.c ****     void PWM_Motor_L_WriteCounter(uint16 counter) \
 404:Generated_Source\PSoC5/PWM_Motor_L.c ****                                        
 405:Generated_Source\PSoC5/PWM_Motor_L.c ****     {
 259              		.loc 1 405 0
 260              		.cfi_startproc
 261              		@ args = 0, pretend = 0, frame = 8
 262              		@ frame_needed = 1, uses_anonymous_args = 0
 263              		@ link register save eliminated.
 264 0000 80B4     		push	{r7}
 265              		.cfi_def_cfa_offset 4
 266              		.cfi_offset 7, -4
 267 0002 83B0     		sub	sp, sp, #12
 268              		.cfi_def_cfa_offset 16
 269 0004 00AF     		add	r7, sp, #0
 270              		.cfi_def_cfa_register 7
 271 0006 0346     		mov	r3, r0
 272 0008 FB80     		strh	r3, [r7, #6]	@ movhi
 406:Generated_Source\PSoC5/PWM_Motor_L.c ****         CY_SET_REG16(PWM_Motor_L_COUNTER_LSB_PTR, counter);
 273              		.loc 1 406 0
 274 000a 044A     		ldr	r2, .L15
 275 000c FB88     		ldrh	r3, [r7, #6]	@ movhi
 276 000e 1380     		strh	r3, [r2]	@ movhi
 407:Generated_Source\PSoC5/PWM_Motor_L.c ****     }
 277              		.loc 1 407 0
ARM GAS  C:\Users\jmspi\AppData\Local\Temp\ccYEMJgh.s 			page 13


 278 0010 00BF     		nop
 279 0012 0C37     		adds	r7, r7, #12
 280              		.cfi_def_cfa_offset 4
 281 0014 BD46     		mov	sp, r7
 282              		.cfi_def_cfa_register 13
 283              		@ sp needed
 284 0016 80BC     		pop	{r7}
 285              		.cfi_restore 7
 286              		.cfi_def_cfa_offset 0
 287 0018 7047     		bx	lr
 288              	.L16:
 289 001a 00BF     		.align	2
 290              	.L15:
 291 001c 1C680040 		.word	1073768476
 292              		.cfi_endproc
 293              	.LFE4:
 294              		.size	PWM_Motor_L_WriteCounter, .-PWM_Motor_L_WriteCounter
 295              		.section	.text.PWM_Motor_L_ReadCounter,"ax",%progbits
 296              		.align	2
 297              		.global	PWM_Motor_L_ReadCounter
 298              		.thumb
 299              		.thumb_func
 300              		.type	PWM_Motor_L_ReadCounter, %function
 301              	PWM_Motor_L_ReadCounter:
 302              	.LFB5:
 408:Generated_Source\PSoC5/PWM_Motor_L.c **** 
 409:Generated_Source\PSoC5/PWM_Motor_L.c **** 
 410:Generated_Source\PSoC5/PWM_Motor_L.c ****     /*******************************************************************************
 411:Generated_Source\PSoC5/PWM_Motor_L.c ****     * Function Name: PWM_Motor_L_ReadCounter
 412:Generated_Source\PSoC5/PWM_Motor_L.c ****     ********************************************************************************
 413:Generated_Source\PSoC5/PWM_Motor_L.c ****     *
 414:Generated_Source\PSoC5/PWM_Motor_L.c ****     * Summary:
 415:Generated_Source\PSoC5/PWM_Motor_L.c ****     *  This function returns the current value of the counter.  It doesn't matter
 416:Generated_Source\PSoC5/PWM_Motor_L.c ****     *  if the counter is enabled or running.
 417:Generated_Source\PSoC5/PWM_Motor_L.c ****     *
 418:Generated_Source\PSoC5/PWM_Motor_L.c ****     * Parameters:
 419:Generated_Source\PSoC5/PWM_Motor_L.c ****     *  None
 420:Generated_Source\PSoC5/PWM_Motor_L.c ****     *
 421:Generated_Source\PSoC5/PWM_Motor_L.c ****     * Return:
 422:Generated_Source\PSoC5/PWM_Motor_L.c ****     *  The current value of the counter.
 423:Generated_Source\PSoC5/PWM_Motor_L.c ****     *
 424:Generated_Source\PSoC5/PWM_Motor_L.c ****     *******************************************************************************/
 425:Generated_Source\PSoC5/PWM_Motor_L.c ****     uint16 PWM_Motor_L_ReadCounter(void) 
 426:Generated_Source\PSoC5/PWM_Motor_L.c ****     {
 303              		.loc 1 426 0
 304              		.cfi_startproc
 305              		@ args = 0, pretend = 0, frame = 0
 306              		@ frame_needed = 1, uses_anonymous_args = 0
 307              		@ link register save eliminated.
 308 0000 80B4     		push	{r7}
 309              		.cfi_def_cfa_offset 4
 310              		.cfi_offset 7, -4
 311 0002 00AF     		add	r7, sp, #0
 312              		.cfi_def_cfa_register 7
 427:Generated_Source\PSoC5/PWM_Motor_L.c ****         /* Force capture by reading Accumulator */
 428:Generated_Source\PSoC5/PWM_Motor_L.c ****         /* Must first do a software capture to be able to read the counter */
 429:Generated_Source\PSoC5/PWM_Motor_L.c ****         /* It is up to the user code to make sure there isn't already captured data in the FIFO */
ARM GAS  C:\Users\jmspi\AppData\Local\Temp\ccYEMJgh.s 			page 14


 430:Generated_Source\PSoC5/PWM_Motor_L.c ****           (void)CY_GET_REG8(PWM_Motor_L_COUNTERCAP_LSB_PTR_8BIT);
 313              		.loc 1 430 0
 314 0004 044B     		ldr	r3, .L19
 315 0006 1B78     		ldrb	r3, [r3]
 431:Generated_Source\PSoC5/PWM_Motor_L.c **** 
 432:Generated_Source\PSoC5/PWM_Motor_L.c ****         /* Read the data from the FIFO */
 433:Generated_Source\PSoC5/PWM_Motor_L.c ****         return (CY_GET_REG16(PWM_Motor_L_CAPTURE_LSB_PTR));
 316              		.loc 1 433 0
 317 0008 044B     		ldr	r3, .L19+4
 318 000a 1B88     		ldrh	r3, [r3]	@ movhi
 319 000c 9BB2     		uxth	r3, r3
 434:Generated_Source\PSoC5/PWM_Motor_L.c ****     }
 320              		.loc 1 434 0
 321 000e 1846     		mov	r0, r3
 322 0010 BD46     		mov	sp, r7
 323              		.cfi_def_cfa_register 13
 324              		@ sp needed
 325 0012 80BC     		pop	{r7}
 326              		.cfi_restore 7
 327              		.cfi_def_cfa_offset 0
 328 0014 7047     		bx	lr
 329              	.L20:
 330 0016 00BF     		.align	2
 331              	.L19:
 332 0018 1E640040 		.word	1073767454
 333 001c BC680040 		.word	1073768636
 334              		.cfi_endproc
 335              	.LFE5:
 336              		.size	PWM_Motor_L_ReadCounter, .-PWM_Motor_L_ReadCounter
 337              		.section	.text.PWM_Motor_L_ClearFIFO,"ax",%progbits
 338              		.align	2
 339              		.global	PWM_Motor_L_ClearFIFO
 340              		.thumb
 341              		.thumb_func
 342              		.type	PWM_Motor_L_ClearFIFO, %function
 343              	PWM_Motor_L_ClearFIFO:
 344              	.LFB6:
 435:Generated_Source\PSoC5/PWM_Motor_L.c **** 
 436:Generated_Source\PSoC5/PWM_Motor_L.c ****     #if (PWM_Motor_L_UseStatus)
 437:Generated_Source\PSoC5/PWM_Motor_L.c **** 
 438:Generated_Source\PSoC5/PWM_Motor_L.c **** 
 439:Generated_Source\PSoC5/PWM_Motor_L.c ****         /*******************************************************************************
 440:Generated_Source\PSoC5/PWM_Motor_L.c ****         * Function Name: PWM_Motor_L_ClearFIFO
 441:Generated_Source\PSoC5/PWM_Motor_L.c ****         ********************************************************************************
 442:Generated_Source\PSoC5/PWM_Motor_L.c ****         *
 443:Generated_Source\PSoC5/PWM_Motor_L.c ****         * Summary:
 444:Generated_Source\PSoC5/PWM_Motor_L.c ****         *  This function clears all capture data from the capture FIFO
 445:Generated_Source\PSoC5/PWM_Motor_L.c ****         *
 446:Generated_Source\PSoC5/PWM_Motor_L.c ****         * Parameters:
 447:Generated_Source\PSoC5/PWM_Motor_L.c ****         *  None
 448:Generated_Source\PSoC5/PWM_Motor_L.c ****         *
 449:Generated_Source\PSoC5/PWM_Motor_L.c ****         * Return:
 450:Generated_Source\PSoC5/PWM_Motor_L.c ****         *  None
 451:Generated_Source\PSoC5/PWM_Motor_L.c ****         *
 452:Generated_Source\PSoC5/PWM_Motor_L.c ****         *******************************************************************************/
 453:Generated_Source\PSoC5/PWM_Motor_L.c ****         void PWM_Motor_L_ClearFIFO(void) 
 454:Generated_Source\PSoC5/PWM_Motor_L.c ****         {
ARM GAS  C:\Users\jmspi\AppData\Local\Temp\ccYEMJgh.s 			page 15


 345              		.loc 1 454 0
 346              		.cfi_startproc
 347              		@ args = 0, pretend = 0, frame = 0
 348              		@ frame_needed = 1, uses_anonymous_args = 0
 349 0000 80B5     		push	{r7, lr}
 350              		.cfi_def_cfa_offset 8
 351              		.cfi_offset 7, -8
 352              		.cfi_offset 14, -4
 353 0002 00AF     		add	r7, sp, #0
 354              		.cfi_def_cfa_register 7
 455:Generated_Source\PSoC5/PWM_Motor_L.c ****             while(0u != (PWM_Motor_L_ReadStatusRegister() & PWM_Motor_L_STATUS_FIFONEMPTY))
 355              		.loc 1 455 0
 356 0004 01E0     		b	.L22
 357              	.L23:
 456:Generated_Source\PSoC5/PWM_Motor_L.c ****             {
 457:Generated_Source\PSoC5/PWM_Motor_L.c ****                 (void)PWM_Motor_L_ReadCapture();
 358              		.loc 1 457 0
 359 0006 FFF7FEFF 		bl	PWM_Motor_L_ReadCapture
 360              	.L22:
 455:Generated_Source\PSoC5/PWM_Motor_L.c ****             while(0u != (PWM_Motor_L_ReadStatusRegister() & PWM_Motor_L_STATUS_FIFONEMPTY))
 361              		.loc 1 455 0
 362 000a FFF7FEFF 		bl	PWM_Motor_L_ReadStatusRegister
 363 000e 0346     		mov	r3, r0
 364 0010 03F01003 		and	r3, r3, #16
 365 0014 002B     		cmp	r3, #0
 366 0016 F6D1     		bne	.L23
 458:Generated_Source\PSoC5/PWM_Motor_L.c ****             }
 459:Generated_Source\PSoC5/PWM_Motor_L.c ****         }
 367              		.loc 1 459 0
 368 0018 00BF     		nop
 369 001a 80BD     		pop	{r7, pc}
 370              		.cfi_endproc
 371              	.LFE6:
 372              		.size	PWM_Motor_L_ClearFIFO, .-PWM_Motor_L_ClearFIFO
 373              		.section	.text.PWM_Motor_L_WritePeriod,"ax",%progbits
 374              		.align	2
 375              		.global	PWM_Motor_L_WritePeriod
 376              		.thumb
 377              		.thumb_func
 378              		.type	PWM_Motor_L_WritePeriod, %function
 379              	PWM_Motor_L_WritePeriod:
 380              	.LFB7:
 460:Generated_Source\PSoC5/PWM_Motor_L.c **** 
 461:Generated_Source\PSoC5/PWM_Motor_L.c ****     #endif /* PWM_Motor_L_UseStatus */
 462:Generated_Source\PSoC5/PWM_Motor_L.c **** 
 463:Generated_Source\PSoC5/PWM_Motor_L.c **** #endif /* !PWM_Motor_L_UsingFixedFunction */
 464:Generated_Source\PSoC5/PWM_Motor_L.c **** 
 465:Generated_Source\PSoC5/PWM_Motor_L.c **** 
 466:Generated_Source\PSoC5/PWM_Motor_L.c **** /*******************************************************************************
 467:Generated_Source\PSoC5/PWM_Motor_L.c **** * Function Name: PWM_Motor_L_WritePeriod
 468:Generated_Source\PSoC5/PWM_Motor_L.c **** ********************************************************************************
 469:Generated_Source\PSoC5/PWM_Motor_L.c **** *
 470:Generated_Source\PSoC5/PWM_Motor_L.c **** * Summary:
 471:Generated_Source\PSoC5/PWM_Motor_L.c **** *  This function is used to change the period of the counter.  The new period
 472:Generated_Source\PSoC5/PWM_Motor_L.c **** *  will be loaded the next time terminal count is detected.
 473:Generated_Source\PSoC5/PWM_Motor_L.c **** *
 474:Generated_Source\PSoC5/PWM_Motor_L.c **** * Parameters:
ARM GAS  C:\Users\jmspi\AppData\Local\Temp\ccYEMJgh.s 			page 16


 475:Generated_Source\PSoC5/PWM_Motor_L.c **** *  period:  Period value. May be between 1 and (2^Resolution)-1.  A value of 0
 476:Generated_Source\PSoC5/PWM_Motor_L.c **** *           will result in the counter remaining at zero.
 477:Generated_Source\PSoC5/PWM_Motor_L.c **** *
 478:Generated_Source\PSoC5/PWM_Motor_L.c **** * Return:
 479:Generated_Source\PSoC5/PWM_Motor_L.c **** *  None
 480:Generated_Source\PSoC5/PWM_Motor_L.c **** *
 481:Generated_Source\PSoC5/PWM_Motor_L.c **** *******************************************************************************/
 482:Generated_Source\PSoC5/PWM_Motor_L.c **** void PWM_Motor_L_WritePeriod(uint16 period) 
 483:Generated_Source\PSoC5/PWM_Motor_L.c **** {
 381              		.loc 1 483 0
 382              		.cfi_startproc
 383              		@ args = 0, pretend = 0, frame = 8
 384              		@ frame_needed = 1, uses_anonymous_args = 0
 385              		@ link register save eliminated.
 386 0000 80B4     		push	{r7}
 387              		.cfi_def_cfa_offset 4
 388              		.cfi_offset 7, -4
 389 0002 83B0     		sub	sp, sp, #12
 390              		.cfi_def_cfa_offset 16
 391 0004 00AF     		add	r7, sp, #0
 392              		.cfi_def_cfa_register 7
 393 0006 0346     		mov	r3, r0
 394 0008 FB80     		strh	r3, [r7, #6]	@ movhi
 484:Generated_Source\PSoC5/PWM_Motor_L.c ****     #if(PWM_Motor_L_UsingFixedFunction)
 485:Generated_Source\PSoC5/PWM_Motor_L.c ****         CY_SET_REG16(PWM_Motor_L_PERIOD_LSB_PTR, (uint16)period);
 486:Generated_Source\PSoC5/PWM_Motor_L.c ****     #else
 487:Generated_Source\PSoC5/PWM_Motor_L.c ****         CY_SET_REG16(PWM_Motor_L_PERIOD_LSB_PTR, period);
 395              		.loc 1 487 0
 396 000a 044A     		ldr	r2, .L25
 397 000c FB88     		ldrh	r3, [r7, #6]	@ movhi
 398 000e 1380     		strh	r3, [r2]	@ movhi
 488:Generated_Source\PSoC5/PWM_Motor_L.c ****     #endif /* (PWM_Motor_L_UsingFixedFunction) */
 489:Generated_Source\PSoC5/PWM_Motor_L.c **** }
 399              		.loc 1 489 0
 400 0010 00BF     		nop
 401 0012 0C37     		adds	r7, r7, #12
 402              		.cfi_def_cfa_offset 4
 403 0014 BD46     		mov	sp, r7
 404              		.cfi_def_cfa_register 13
 405              		@ sp needed
 406 0016 80BC     		pop	{r7}
 407              		.cfi_restore 7
 408              		.cfi_def_cfa_offset 0
 409 0018 7047     		bx	lr
 410              	.L26:
 411 001a 00BF     		.align	2
 412              	.L25:
 413 001c 9C680040 		.word	1073768604
 414              		.cfi_endproc
 415              	.LFE7:
 416              		.size	PWM_Motor_L_WritePeriod, .-PWM_Motor_L_WritePeriod
 417              		.section	.text.PWM_Motor_L_WriteCompare1,"ax",%progbits
 418              		.align	2
 419              		.global	PWM_Motor_L_WriteCompare1
 420              		.thumb
 421              		.thumb_func
 422              		.type	PWM_Motor_L_WriteCompare1, %function
ARM GAS  C:\Users\jmspi\AppData\Local\Temp\ccYEMJgh.s 			page 17


 423              	PWM_Motor_L_WriteCompare1:
 424              	.LFB8:
 490:Generated_Source\PSoC5/PWM_Motor_L.c **** 
 491:Generated_Source\PSoC5/PWM_Motor_L.c **** #if (PWM_Motor_L_UseOneCompareMode)
 492:Generated_Source\PSoC5/PWM_Motor_L.c **** 
 493:Generated_Source\PSoC5/PWM_Motor_L.c **** 
 494:Generated_Source\PSoC5/PWM_Motor_L.c ****     /*******************************************************************************
 495:Generated_Source\PSoC5/PWM_Motor_L.c ****     * Function Name: PWM_Motor_L_WriteCompare
 496:Generated_Source\PSoC5/PWM_Motor_L.c ****     ********************************************************************************
 497:Generated_Source\PSoC5/PWM_Motor_L.c ****     *
 498:Generated_Source\PSoC5/PWM_Motor_L.c ****     * Summary:
 499:Generated_Source\PSoC5/PWM_Motor_L.c ****     *  This funtion is used to change the compare1 value when the PWM is in Dither
 500:Generated_Source\PSoC5/PWM_Motor_L.c ****     *  mode. The compare output will reflect the new value on the next UDB clock.
 501:Generated_Source\PSoC5/PWM_Motor_L.c ****     *  The compare output will be driven high when the present counter value is
 502:Generated_Source\PSoC5/PWM_Motor_L.c ****     *  compared to the compare value based on the compare mode defined in
 503:Generated_Source\PSoC5/PWM_Motor_L.c ****     *  Dither Mode.
 504:Generated_Source\PSoC5/PWM_Motor_L.c ****     *
 505:Generated_Source\PSoC5/PWM_Motor_L.c ****     * Parameters:
 506:Generated_Source\PSoC5/PWM_Motor_L.c ****     *  compare:  New compare value.
 507:Generated_Source\PSoC5/PWM_Motor_L.c ****     *
 508:Generated_Source\PSoC5/PWM_Motor_L.c ****     * Return:
 509:Generated_Source\PSoC5/PWM_Motor_L.c ****     *  None
 510:Generated_Source\PSoC5/PWM_Motor_L.c ****     *
 511:Generated_Source\PSoC5/PWM_Motor_L.c ****     * Side Effects:
 512:Generated_Source\PSoC5/PWM_Motor_L.c ****     *  This function is only available if the PWM mode parameter is set to
 513:Generated_Source\PSoC5/PWM_Motor_L.c ****     *  Dither Mode, Center Aligned Mode or One Output Mode
 514:Generated_Source\PSoC5/PWM_Motor_L.c ****     *
 515:Generated_Source\PSoC5/PWM_Motor_L.c ****     *******************************************************************************/
 516:Generated_Source\PSoC5/PWM_Motor_L.c ****     void PWM_Motor_L_WriteCompare(uint16 compare) \
 517:Generated_Source\PSoC5/PWM_Motor_L.c ****                                        
 518:Generated_Source\PSoC5/PWM_Motor_L.c ****     {
 519:Generated_Source\PSoC5/PWM_Motor_L.c ****         #if(PWM_Motor_L_UsingFixedFunction)
 520:Generated_Source\PSoC5/PWM_Motor_L.c ****             CY_SET_REG16(PWM_Motor_L_COMPARE1_LSB_PTR, (uint16)compare);
 521:Generated_Source\PSoC5/PWM_Motor_L.c ****         #else
 522:Generated_Source\PSoC5/PWM_Motor_L.c ****             CY_SET_REG16(PWM_Motor_L_COMPARE1_LSB_PTR, compare);
 523:Generated_Source\PSoC5/PWM_Motor_L.c ****         #endif /* (PWM_Motor_L_UsingFixedFunction) */
 524:Generated_Source\PSoC5/PWM_Motor_L.c **** 
 525:Generated_Source\PSoC5/PWM_Motor_L.c ****         #if (PWM_Motor_L_PWMMode == PWM_Motor_L__B_PWM__DITHER)
 526:Generated_Source\PSoC5/PWM_Motor_L.c ****             #if(PWM_Motor_L_UsingFixedFunction)
 527:Generated_Source\PSoC5/PWM_Motor_L.c ****                 CY_SET_REG16(PWM_Motor_L_COMPARE2_LSB_PTR, (uint16)(compare + 1u));
 528:Generated_Source\PSoC5/PWM_Motor_L.c ****             #else
 529:Generated_Source\PSoC5/PWM_Motor_L.c ****                 CY_SET_REG16(PWM_Motor_L_COMPARE2_LSB_PTR, (compare + 1u));
 530:Generated_Source\PSoC5/PWM_Motor_L.c ****             #endif /* (PWM_Motor_L_UsingFixedFunction) */
 531:Generated_Source\PSoC5/PWM_Motor_L.c ****         #endif /* (PWM_Motor_L_PWMMode == PWM_Motor_L__B_PWM__DITHER) */
 532:Generated_Source\PSoC5/PWM_Motor_L.c ****     }
 533:Generated_Source\PSoC5/PWM_Motor_L.c **** 
 534:Generated_Source\PSoC5/PWM_Motor_L.c **** 
 535:Generated_Source\PSoC5/PWM_Motor_L.c **** #else
 536:Generated_Source\PSoC5/PWM_Motor_L.c **** 
 537:Generated_Source\PSoC5/PWM_Motor_L.c **** 
 538:Generated_Source\PSoC5/PWM_Motor_L.c ****     /*******************************************************************************
 539:Generated_Source\PSoC5/PWM_Motor_L.c ****     * Function Name: PWM_Motor_L_WriteCompare1
 540:Generated_Source\PSoC5/PWM_Motor_L.c ****     ********************************************************************************
 541:Generated_Source\PSoC5/PWM_Motor_L.c ****     *
 542:Generated_Source\PSoC5/PWM_Motor_L.c ****     * Summary:
 543:Generated_Source\PSoC5/PWM_Motor_L.c ****     *  This funtion is used to change the compare1 value.  The compare output will
 544:Generated_Source\PSoC5/PWM_Motor_L.c ****     *  reflect the new value on the next UDB clock.  The compare output will be
ARM GAS  C:\Users\jmspi\AppData\Local\Temp\ccYEMJgh.s 			page 18


 545:Generated_Source\PSoC5/PWM_Motor_L.c ****     *  driven high when the present counter value is less than or less than or
 546:Generated_Source\PSoC5/PWM_Motor_L.c ****     *  equal to the compare register, depending on the mode.
 547:Generated_Source\PSoC5/PWM_Motor_L.c ****     *
 548:Generated_Source\PSoC5/PWM_Motor_L.c ****     * Parameters:
 549:Generated_Source\PSoC5/PWM_Motor_L.c ****     *  compare:  New compare value.
 550:Generated_Source\PSoC5/PWM_Motor_L.c ****     *
 551:Generated_Source\PSoC5/PWM_Motor_L.c ****     * Return:
 552:Generated_Source\PSoC5/PWM_Motor_L.c ****     *  None
 553:Generated_Source\PSoC5/PWM_Motor_L.c ****     *
 554:Generated_Source\PSoC5/PWM_Motor_L.c ****     *******************************************************************************/
 555:Generated_Source\PSoC5/PWM_Motor_L.c ****     void PWM_Motor_L_WriteCompare1(uint16 compare) \
 556:Generated_Source\PSoC5/PWM_Motor_L.c ****                                         
 557:Generated_Source\PSoC5/PWM_Motor_L.c ****     {
 425              		.loc 1 557 0
 426              		.cfi_startproc
 427              		@ args = 0, pretend = 0, frame = 8
 428              		@ frame_needed = 1, uses_anonymous_args = 0
 429              		@ link register save eliminated.
 430 0000 80B4     		push	{r7}
 431              		.cfi_def_cfa_offset 4
 432              		.cfi_offset 7, -4
 433 0002 83B0     		sub	sp, sp, #12
 434              		.cfi_def_cfa_offset 16
 435 0004 00AF     		add	r7, sp, #0
 436              		.cfi_def_cfa_register 7
 437 0006 0346     		mov	r3, r0
 438 0008 FB80     		strh	r3, [r7, #6]	@ movhi
 558:Generated_Source\PSoC5/PWM_Motor_L.c ****         #if(PWM_Motor_L_UsingFixedFunction)
 559:Generated_Source\PSoC5/PWM_Motor_L.c ****             CY_SET_REG16(PWM_Motor_L_COMPARE1_LSB_PTR, (uint16)compare);
 560:Generated_Source\PSoC5/PWM_Motor_L.c ****         #else
 561:Generated_Source\PSoC5/PWM_Motor_L.c ****             CY_SET_REG16(PWM_Motor_L_COMPARE1_LSB_PTR, compare);
 439              		.loc 1 561 0
 440 000a 044A     		ldr	r2, .L28
 441 000c FB88     		ldrh	r3, [r7, #6]	@ movhi
 442 000e 1380     		strh	r3, [r2]	@ movhi
 562:Generated_Source\PSoC5/PWM_Motor_L.c ****         #endif /* (PWM_Motor_L_UsingFixedFunction) */
 563:Generated_Source\PSoC5/PWM_Motor_L.c ****     }
 443              		.loc 1 563 0
 444 0010 00BF     		nop
 445 0012 0C37     		adds	r7, r7, #12
 446              		.cfi_def_cfa_offset 4
 447 0014 BD46     		mov	sp, r7
 448              		.cfi_def_cfa_register 13
 449              		@ sp needed
 450 0016 80BC     		pop	{r7}
 451              		.cfi_restore 7
 452              		.cfi_def_cfa_offset 0
 453 0018 7047     		bx	lr
 454              	.L29:
 455 001a 00BF     		.align	2
 456              	.L28:
 457 001c 5C680040 		.word	1073768540
 458              		.cfi_endproc
 459              	.LFE8:
 460              		.size	PWM_Motor_L_WriteCompare1, .-PWM_Motor_L_WriteCompare1
 461              		.section	.text.PWM_Motor_L_WriteCompare2,"ax",%progbits
 462              		.align	2
ARM GAS  C:\Users\jmspi\AppData\Local\Temp\ccYEMJgh.s 			page 19


 463              		.global	PWM_Motor_L_WriteCompare2
 464              		.thumb
 465              		.thumb_func
 466              		.type	PWM_Motor_L_WriteCompare2, %function
 467              	PWM_Motor_L_WriteCompare2:
 468              	.LFB9:
 564:Generated_Source\PSoC5/PWM_Motor_L.c **** 
 565:Generated_Source\PSoC5/PWM_Motor_L.c **** 
 566:Generated_Source\PSoC5/PWM_Motor_L.c ****     /*******************************************************************************
 567:Generated_Source\PSoC5/PWM_Motor_L.c ****     * Function Name: PWM_Motor_L_WriteCompare2
 568:Generated_Source\PSoC5/PWM_Motor_L.c ****     ********************************************************************************
 569:Generated_Source\PSoC5/PWM_Motor_L.c ****     *
 570:Generated_Source\PSoC5/PWM_Motor_L.c ****     * Summary:
 571:Generated_Source\PSoC5/PWM_Motor_L.c ****     *  This funtion is used to change the compare value, for compare1 output.
 572:Generated_Source\PSoC5/PWM_Motor_L.c ****     *  The compare output will reflect the new value on the next UDB clock.
 573:Generated_Source\PSoC5/PWM_Motor_L.c ****     *  The compare output will be driven high when the present counter value is
 574:Generated_Source\PSoC5/PWM_Motor_L.c ****     *  less than or less than or equal to the compare register, depending on the
 575:Generated_Source\PSoC5/PWM_Motor_L.c ****     *  mode.
 576:Generated_Source\PSoC5/PWM_Motor_L.c ****     *
 577:Generated_Source\PSoC5/PWM_Motor_L.c ****     * Parameters:
 578:Generated_Source\PSoC5/PWM_Motor_L.c ****     *  compare:  New compare value.
 579:Generated_Source\PSoC5/PWM_Motor_L.c ****     *
 580:Generated_Source\PSoC5/PWM_Motor_L.c ****     * Return:
 581:Generated_Source\PSoC5/PWM_Motor_L.c ****     *  None
 582:Generated_Source\PSoC5/PWM_Motor_L.c ****     *
 583:Generated_Source\PSoC5/PWM_Motor_L.c ****     *******************************************************************************/
 584:Generated_Source\PSoC5/PWM_Motor_L.c ****     void PWM_Motor_L_WriteCompare2(uint16 compare) \
 585:Generated_Source\PSoC5/PWM_Motor_L.c ****                                         
 586:Generated_Source\PSoC5/PWM_Motor_L.c ****     {
 469              		.loc 1 586 0
 470              		.cfi_startproc
 471              		@ args = 0, pretend = 0, frame = 8
 472              		@ frame_needed = 1, uses_anonymous_args = 0
 473              		@ link register save eliminated.
 474 0000 80B4     		push	{r7}
 475              		.cfi_def_cfa_offset 4
 476              		.cfi_offset 7, -4
 477 0002 83B0     		sub	sp, sp, #12
 478              		.cfi_def_cfa_offset 16
 479 0004 00AF     		add	r7, sp, #0
 480              		.cfi_def_cfa_register 7
 481 0006 0346     		mov	r3, r0
 482 0008 FB80     		strh	r3, [r7, #6]	@ movhi
 587:Generated_Source\PSoC5/PWM_Motor_L.c ****         #if(PWM_Motor_L_UsingFixedFunction)
 588:Generated_Source\PSoC5/PWM_Motor_L.c ****             CY_SET_REG16(PWM_Motor_L_COMPARE2_LSB_PTR, compare);
 589:Generated_Source\PSoC5/PWM_Motor_L.c ****         #else
 590:Generated_Source\PSoC5/PWM_Motor_L.c ****             CY_SET_REG16(PWM_Motor_L_COMPARE2_LSB_PTR, compare);
 483              		.loc 1 590 0
 484 000a 044A     		ldr	r2, .L31
 485 000c FB88     		ldrh	r3, [r7, #6]	@ movhi
 486 000e 1380     		strh	r3, [r2]	@ movhi
 591:Generated_Source\PSoC5/PWM_Motor_L.c ****         #endif /* (PWM_Motor_L_UsingFixedFunction) */
 592:Generated_Source\PSoC5/PWM_Motor_L.c ****     }
 487              		.loc 1 592 0
 488 0010 00BF     		nop
 489 0012 0C37     		adds	r7, r7, #12
 490              		.cfi_def_cfa_offset 4
ARM GAS  C:\Users\jmspi\AppData\Local\Temp\ccYEMJgh.s 			page 20


 491 0014 BD46     		mov	sp, r7
 492              		.cfi_def_cfa_register 13
 493              		@ sp needed
 494 0016 80BC     		pop	{r7}
 495              		.cfi_restore 7
 496              		.cfi_def_cfa_offset 0
 497 0018 7047     		bx	lr
 498              	.L32:
 499 001a 00BF     		.align	2
 500              	.L31:
 501 001c 7C680040 		.word	1073768572
 502              		.cfi_endproc
 503              	.LFE9:
 504              		.size	PWM_Motor_L_WriteCompare2, .-PWM_Motor_L_WriteCompare2
 505              		.section	.text.PWM_Motor_L_SetInterruptMode,"ax",%progbits
 506              		.align	2
 507              		.global	PWM_Motor_L_SetInterruptMode
 508              		.thumb
 509              		.thumb_func
 510              		.type	PWM_Motor_L_SetInterruptMode, %function
 511              	PWM_Motor_L_SetInterruptMode:
 512              	.LFB10:
 593:Generated_Source\PSoC5/PWM_Motor_L.c **** #endif /* UseOneCompareMode */
 594:Generated_Source\PSoC5/PWM_Motor_L.c **** 
 595:Generated_Source\PSoC5/PWM_Motor_L.c **** #if (PWM_Motor_L_DeadBandUsed)
 596:Generated_Source\PSoC5/PWM_Motor_L.c **** 
 597:Generated_Source\PSoC5/PWM_Motor_L.c **** 
 598:Generated_Source\PSoC5/PWM_Motor_L.c ****     /*******************************************************************************
 599:Generated_Source\PSoC5/PWM_Motor_L.c ****     * Function Name: PWM_Motor_L_WriteDeadTime
 600:Generated_Source\PSoC5/PWM_Motor_L.c ****     ********************************************************************************
 601:Generated_Source\PSoC5/PWM_Motor_L.c ****     *
 602:Generated_Source\PSoC5/PWM_Motor_L.c ****     * Summary:
 603:Generated_Source\PSoC5/PWM_Motor_L.c ****     *  This function writes the dead-band counts to the corresponding register
 604:Generated_Source\PSoC5/PWM_Motor_L.c ****     *
 605:Generated_Source\PSoC5/PWM_Motor_L.c ****     * Parameters:
 606:Generated_Source\PSoC5/PWM_Motor_L.c ****     *  deadtime:  Number of counts for dead time
 607:Generated_Source\PSoC5/PWM_Motor_L.c ****     *
 608:Generated_Source\PSoC5/PWM_Motor_L.c ****     * Return:
 609:Generated_Source\PSoC5/PWM_Motor_L.c ****     *  None
 610:Generated_Source\PSoC5/PWM_Motor_L.c ****     *
 611:Generated_Source\PSoC5/PWM_Motor_L.c ****     *******************************************************************************/
 612:Generated_Source\PSoC5/PWM_Motor_L.c ****     void PWM_Motor_L_WriteDeadTime(uint8 deadtime) 
 613:Generated_Source\PSoC5/PWM_Motor_L.c ****     {
 614:Generated_Source\PSoC5/PWM_Motor_L.c ****         /* If using the Dead Band 1-255 mode then just write the register */
 615:Generated_Source\PSoC5/PWM_Motor_L.c ****         #if(!PWM_Motor_L_DeadBand2_4)
 616:Generated_Source\PSoC5/PWM_Motor_L.c ****             CY_SET_REG8(PWM_Motor_L_DEADBAND_COUNT_PTR, deadtime);
 617:Generated_Source\PSoC5/PWM_Motor_L.c ****         #else
 618:Generated_Source\PSoC5/PWM_Motor_L.c ****             /* Otherwise the data has to be masked and offset */
 619:Generated_Source\PSoC5/PWM_Motor_L.c ****             /* Clear existing data */
 620:Generated_Source\PSoC5/PWM_Motor_L.c ****             PWM_Motor_L_DEADBAND_COUNT &= ((uint8)(~PWM_Motor_L_DEADBAND_COUNT_MASK));
 621:Generated_Source\PSoC5/PWM_Motor_L.c **** 
 622:Generated_Source\PSoC5/PWM_Motor_L.c ****             /* Set new dead time */
 623:Generated_Source\PSoC5/PWM_Motor_L.c ****             #if(PWM_Motor_L_DEADBAND_COUNT_SHIFT)
 624:Generated_Source\PSoC5/PWM_Motor_L.c ****                 PWM_Motor_L_DEADBAND_COUNT |= ((uint8)((uint8)deadtime << PWM_Motor_L_DEADBAND_COUN
 625:Generated_Source\PSoC5/PWM_Motor_L.c ****                                                     PWM_Motor_L_DEADBAND_COUNT_MASK;
 626:Generated_Source\PSoC5/PWM_Motor_L.c ****             #else
 627:Generated_Source\PSoC5/PWM_Motor_L.c ****                 PWM_Motor_L_DEADBAND_COUNT |= deadtime & PWM_Motor_L_DEADBAND_COUNT_MASK;
ARM GAS  C:\Users\jmspi\AppData\Local\Temp\ccYEMJgh.s 			page 21


 628:Generated_Source\PSoC5/PWM_Motor_L.c ****             #endif /* (PWM_Motor_L_DEADBAND_COUNT_SHIFT) */
 629:Generated_Source\PSoC5/PWM_Motor_L.c **** 
 630:Generated_Source\PSoC5/PWM_Motor_L.c ****         #endif /* (!PWM_Motor_L_DeadBand2_4) */
 631:Generated_Source\PSoC5/PWM_Motor_L.c ****     }
 632:Generated_Source\PSoC5/PWM_Motor_L.c **** 
 633:Generated_Source\PSoC5/PWM_Motor_L.c **** 
 634:Generated_Source\PSoC5/PWM_Motor_L.c ****     /*******************************************************************************
 635:Generated_Source\PSoC5/PWM_Motor_L.c ****     * Function Name: PWM_Motor_L_ReadDeadTime
 636:Generated_Source\PSoC5/PWM_Motor_L.c ****     ********************************************************************************
 637:Generated_Source\PSoC5/PWM_Motor_L.c ****     *
 638:Generated_Source\PSoC5/PWM_Motor_L.c ****     * Summary:
 639:Generated_Source\PSoC5/PWM_Motor_L.c ****     *  This function reads the dead-band counts from the corresponding register
 640:Generated_Source\PSoC5/PWM_Motor_L.c ****     *
 641:Generated_Source\PSoC5/PWM_Motor_L.c ****     * Parameters:
 642:Generated_Source\PSoC5/PWM_Motor_L.c ****     *  None
 643:Generated_Source\PSoC5/PWM_Motor_L.c ****     *
 644:Generated_Source\PSoC5/PWM_Motor_L.c ****     * Return:
 645:Generated_Source\PSoC5/PWM_Motor_L.c ****     *  Dead Band Counts
 646:Generated_Source\PSoC5/PWM_Motor_L.c ****     *
 647:Generated_Source\PSoC5/PWM_Motor_L.c ****     *******************************************************************************/
 648:Generated_Source\PSoC5/PWM_Motor_L.c ****     uint8 PWM_Motor_L_ReadDeadTime(void) 
 649:Generated_Source\PSoC5/PWM_Motor_L.c ****     {
 650:Generated_Source\PSoC5/PWM_Motor_L.c ****         /* If using the Dead Band 1-255 mode then just read the register */
 651:Generated_Source\PSoC5/PWM_Motor_L.c ****         #if(!PWM_Motor_L_DeadBand2_4)
 652:Generated_Source\PSoC5/PWM_Motor_L.c ****             return (CY_GET_REG8(PWM_Motor_L_DEADBAND_COUNT_PTR));
 653:Generated_Source\PSoC5/PWM_Motor_L.c ****         #else
 654:Generated_Source\PSoC5/PWM_Motor_L.c **** 
 655:Generated_Source\PSoC5/PWM_Motor_L.c ****             /* Otherwise the data has to be masked and offset */
 656:Generated_Source\PSoC5/PWM_Motor_L.c ****             #if(PWM_Motor_L_DEADBAND_COUNT_SHIFT)
 657:Generated_Source\PSoC5/PWM_Motor_L.c ****                 return ((uint8)(((uint8)(PWM_Motor_L_DEADBAND_COUNT & PWM_Motor_L_DEADBAND_COUNT_MA
 658:Generated_Source\PSoC5/PWM_Motor_L.c ****                                                                            PWM_Motor_L_DEADBAND_COU
 659:Generated_Source\PSoC5/PWM_Motor_L.c ****             #else
 660:Generated_Source\PSoC5/PWM_Motor_L.c ****                 return (PWM_Motor_L_DEADBAND_COUNT & PWM_Motor_L_DEADBAND_COUNT_MASK);
 661:Generated_Source\PSoC5/PWM_Motor_L.c ****             #endif /* (PWM_Motor_L_DEADBAND_COUNT_SHIFT) */
 662:Generated_Source\PSoC5/PWM_Motor_L.c ****         #endif /* (!PWM_Motor_L_DeadBand2_4) */
 663:Generated_Source\PSoC5/PWM_Motor_L.c ****     }
 664:Generated_Source\PSoC5/PWM_Motor_L.c **** #endif /* DeadBandUsed */
 665:Generated_Source\PSoC5/PWM_Motor_L.c **** 
 666:Generated_Source\PSoC5/PWM_Motor_L.c **** #if (PWM_Motor_L_UseStatus || PWM_Motor_L_UsingFixedFunction)
 667:Generated_Source\PSoC5/PWM_Motor_L.c **** 
 668:Generated_Source\PSoC5/PWM_Motor_L.c **** 
 669:Generated_Source\PSoC5/PWM_Motor_L.c ****     /*******************************************************************************
 670:Generated_Source\PSoC5/PWM_Motor_L.c ****     * Function Name: PWM_Motor_L_SetInterruptMode
 671:Generated_Source\PSoC5/PWM_Motor_L.c ****     ********************************************************************************
 672:Generated_Source\PSoC5/PWM_Motor_L.c ****     *
 673:Generated_Source\PSoC5/PWM_Motor_L.c ****     * Summary:
 674:Generated_Source\PSoC5/PWM_Motor_L.c ****     *  This function configures the interrupts mask control of theinterrupt
 675:Generated_Source\PSoC5/PWM_Motor_L.c ****     *  source status register.
 676:Generated_Source\PSoC5/PWM_Motor_L.c ****     *
 677:Generated_Source\PSoC5/PWM_Motor_L.c ****     * Parameters:
 678:Generated_Source\PSoC5/PWM_Motor_L.c ****     *  uint8 interruptMode: Bit field containing the interrupt sources enabled
 679:Generated_Source\PSoC5/PWM_Motor_L.c ****     *
 680:Generated_Source\PSoC5/PWM_Motor_L.c ****     * Return:
 681:Generated_Source\PSoC5/PWM_Motor_L.c ****     *  None
 682:Generated_Source\PSoC5/PWM_Motor_L.c ****     *
 683:Generated_Source\PSoC5/PWM_Motor_L.c ****     *******************************************************************************/
 684:Generated_Source\PSoC5/PWM_Motor_L.c ****     void PWM_Motor_L_SetInterruptMode(uint8 interruptMode) 
ARM GAS  C:\Users\jmspi\AppData\Local\Temp\ccYEMJgh.s 			page 22


 685:Generated_Source\PSoC5/PWM_Motor_L.c ****     {
 513              		.loc 1 685 0
 514              		.cfi_startproc
 515              		@ args = 0, pretend = 0, frame = 8
 516              		@ frame_needed = 1, uses_anonymous_args = 0
 517              		@ link register save eliminated.
 518 0000 80B4     		push	{r7}
 519              		.cfi_def_cfa_offset 4
 520              		.cfi_offset 7, -4
 521 0002 83B0     		sub	sp, sp, #12
 522              		.cfi_def_cfa_offset 16
 523 0004 00AF     		add	r7, sp, #0
 524              		.cfi_def_cfa_register 7
 525 0006 0346     		mov	r3, r0
 526 0008 FB71     		strb	r3, [r7, #7]
 686:Generated_Source\PSoC5/PWM_Motor_L.c ****         CY_SET_REG8(PWM_Motor_L_STATUS_MASK_PTR, interruptMode);
 527              		.loc 1 686 0
 528 000a 044A     		ldr	r2, .L34
 529 000c FB79     		ldrb	r3, [r7, #7]
 530 000e 1370     		strb	r3, [r2]
 687:Generated_Source\PSoC5/PWM_Motor_L.c ****     }
 531              		.loc 1 687 0
 532 0010 00BF     		nop
 533 0012 0C37     		adds	r7, r7, #12
 534              		.cfi_def_cfa_offset 4
 535 0014 BD46     		mov	sp, r7
 536              		.cfi_def_cfa_register 13
 537              		@ sp needed
 538 0016 80BC     		pop	{r7}
 539              		.cfi_restore 7
 540              		.cfi_def_cfa_offset 0
 541 0018 7047     		bx	lr
 542              	.L35:
 543 001a 00BF     		.align	2
 544              	.L34:
 545 001c 80640040 		.word	1073767552
 546              		.cfi_endproc
 547              	.LFE10:
 548              		.size	PWM_Motor_L_SetInterruptMode, .-PWM_Motor_L_SetInterruptMode
 549              		.section	.text.PWM_Motor_L_ReadStatusRegister,"ax",%progbits
 550              		.align	2
 551              		.global	PWM_Motor_L_ReadStatusRegister
 552              		.thumb
 553              		.thumb_func
 554              		.type	PWM_Motor_L_ReadStatusRegister, %function
 555              	PWM_Motor_L_ReadStatusRegister:
 556              	.LFB11:
 688:Generated_Source\PSoC5/PWM_Motor_L.c **** 
 689:Generated_Source\PSoC5/PWM_Motor_L.c **** 
 690:Generated_Source\PSoC5/PWM_Motor_L.c ****     /*******************************************************************************
 691:Generated_Source\PSoC5/PWM_Motor_L.c ****     * Function Name: PWM_Motor_L_ReadStatusRegister
 692:Generated_Source\PSoC5/PWM_Motor_L.c ****     ********************************************************************************
 693:Generated_Source\PSoC5/PWM_Motor_L.c ****     *
 694:Generated_Source\PSoC5/PWM_Motor_L.c ****     * Summary:
 695:Generated_Source\PSoC5/PWM_Motor_L.c ****     *  This function returns the current state of the status register.
 696:Generated_Source\PSoC5/PWM_Motor_L.c ****     *
 697:Generated_Source\PSoC5/PWM_Motor_L.c ****     * Parameters:
ARM GAS  C:\Users\jmspi\AppData\Local\Temp\ccYEMJgh.s 			page 23


 698:Generated_Source\PSoC5/PWM_Motor_L.c ****     *  None
 699:Generated_Source\PSoC5/PWM_Motor_L.c ****     *
 700:Generated_Source\PSoC5/PWM_Motor_L.c ****     * Return:
 701:Generated_Source\PSoC5/PWM_Motor_L.c ****     *  uint8 : Current status register value. The status register bits are:
 702:Generated_Source\PSoC5/PWM_Motor_L.c ****     *  [7:6] : Unused(0)
 703:Generated_Source\PSoC5/PWM_Motor_L.c ****     *  [5]   : Kill event output
 704:Generated_Source\PSoC5/PWM_Motor_L.c ****     *  [4]   : FIFO not empty
 705:Generated_Source\PSoC5/PWM_Motor_L.c ****     *  [3]   : FIFO full
 706:Generated_Source\PSoC5/PWM_Motor_L.c ****     *  [2]   : Terminal count
 707:Generated_Source\PSoC5/PWM_Motor_L.c ****     *  [1]   : Compare output 2
 708:Generated_Source\PSoC5/PWM_Motor_L.c ****     *  [0]   : Compare output 1
 709:Generated_Source\PSoC5/PWM_Motor_L.c ****     *
 710:Generated_Source\PSoC5/PWM_Motor_L.c ****     *******************************************************************************/
 711:Generated_Source\PSoC5/PWM_Motor_L.c ****     uint8 PWM_Motor_L_ReadStatusRegister(void) 
 712:Generated_Source\PSoC5/PWM_Motor_L.c ****     {
 557              		.loc 1 712 0
 558              		.cfi_startproc
 559              		@ args = 0, pretend = 0, frame = 0
 560              		@ frame_needed = 1, uses_anonymous_args = 0
 561              		@ link register save eliminated.
 562 0000 80B4     		push	{r7}
 563              		.cfi_def_cfa_offset 4
 564              		.cfi_offset 7, -4
 565 0002 00AF     		add	r7, sp, #0
 566              		.cfi_def_cfa_register 7
 713:Generated_Source\PSoC5/PWM_Motor_L.c ****         return (CY_GET_REG8(PWM_Motor_L_STATUS_PTR));
 567              		.loc 1 713 0
 568 0004 034B     		ldr	r3, .L38
 569 0006 1B78     		ldrb	r3, [r3]
 570 0008 DBB2     		uxtb	r3, r3
 714:Generated_Source\PSoC5/PWM_Motor_L.c ****     }
 571              		.loc 1 714 0
 572 000a 1846     		mov	r0, r3
 573 000c BD46     		mov	sp, r7
 574              		.cfi_def_cfa_register 13
 575              		@ sp needed
 576 000e 80BC     		pop	{r7}
 577              		.cfi_restore 7
 578              		.cfi_def_cfa_offset 0
 579 0010 7047     		bx	lr
 580              	.L39:
 581 0012 00BF     		.align	2
 582              	.L38:
 583 0014 60640040 		.word	1073767520
 584              		.cfi_endproc
 585              	.LFE11:
 586              		.size	PWM_Motor_L_ReadStatusRegister, .-PWM_Motor_L_ReadStatusRegister
 587              		.section	.text.PWM_Motor_L_ReadControlRegister,"ax",%progbits
 588              		.align	2
 589              		.global	PWM_Motor_L_ReadControlRegister
 590              		.thumb
 591              		.thumb_func
 592              		.type	PWM_Motor_L_ReadControlRegister, %function
 593              	PWM_Motor_L_ReadControlRegister:
 594              	.LFB12:
 715:Generated_Source\PSoC5/PWM_Motor_L.c **** 
 716:Generated_Source\PSoC5/PWM_Motor_L.c **** #endif /* (PWM_Motor_L_UseStatus || PWM_Motor_L_UsingFixedFunction) */
ARM GAS  C:\Users\jmspi\AppData\Local\Temp\ccYEMJgh.s 			page 24


 717:Generated_Source\PSoC5/PWM_Motor_L.c **** 
 718:Generated_Source\PSoC5/PWM_Motor_L.c **** 
 719:Generated_Source\PSoC5/PWM_Motor_L.c **** #if (PWM_Motor_L_UseControl)
 720:Generated_Source\PSoC5/PWM_Motor_L.c **** 
 721:Generated_Source\PSoC5/PWM_Motor_L.c **** 
 722:Generated_Source\PSoC5/PWM_Motor_L.c ****     /*******************************************************************************
 723:Generated_Source\PSoC5/PWM_Motor_L.c ****     * Function Name: PWM_Motor_L_ReadControlRegister
 724:Generated_Source\PSoC5/PWM_Motor_L.c ****     ********************************************************************************
 725:Generated_Source\PSoC5/PWM_Motor_L.c ****     *
 726:Generated_Source\PSoC5/PWM_Motor_L.c ****     * Summary:
 727:Generated_Source\PSoC5/PWM_Motor_L.c ****     *  Returns the current state of the control register. This API is available
 728:Generated_Source\PSoC5/PWM_Motor_L.c ****     *  only if the control register is not removed.
 729:Generated_Source\PSoC5/PWM_Motor_L.c ****     *
 730:Generated_Source\PSoC5/PWM_Motor_L.c ****     * Parameters:
 731:Generated_Source\PSoC5/PWM_Motor_L.c ****     *  None
 732:Generated_Source\PSoC5/PWM_Motor_L.c ****     *
 733:Generated_Source\PSoC5/PWM_Motor_L.c ****     * Return:
 734:Generated_Source\PSoC5/PWM_Motor_L.c ****     *  uint8 : Current control register value
 735:Generated_Source\PSoC5/PWM_Motor_L.c ****     *
 736:Generated_Source\PSoC5/PWM_Motor_L.c ****     *******************************************************************************/
 737:Generated_Source\PSoC5/PWM_Motor_L.c ****     uint8 PWM_Motor_L_ReadControlRegister(void) 
 738:Generated_Source\PSoC5/PWM_Motor_L.c ****     {
 595              		.loc 1 738 0
 596              		.cfi_startproc
 597              		@ args = 0, pretend = 0, frame = 8
 598              		@ frame_needed = 1, uses_anonymous_args = 0
 599              		@ link register save eliminated.
 600 0000 80B4     		push	{r7}
 601              		.cfi_def_cfa_offset 4
 602              		.cfi_offset 7, -4
 603 0002 83B0     		sub	sp, sp, #12
 604              		.cfi_def_cfa_offset 16
 605 0004 00AF     		add	r7, sp, #0
 606              		.cfi_def_cfa_register 7
 739:Generated_Source\PSoC5/PWM_Motor_L.c ****         uint8 result;
 740:Generated_Source\PSoC5/PWM_Motor_L.c **** 
 741:Generated_Source\PSoC5/PWM_Motor_L.c ****         result = CY_GET_REG8(PWM_Motor_L_CONTROL_PTR);
 607              		.loc 1 741 0
 608 0006 044B     		ldr	r3, .L42
 609 0008 1B78     		ldrb	r3, [r3]
 610 000a FB71     		strb	r3, [r7, #7]
 742:Generated_Source\PSoC5/PWM_Motor_L.c ****         return (result);
 611              		.loc 1 742 0
 612 000c FB79     		ldrb	r3, [r7, #7]	@ zero_extendqisi2
 743:Generated_Source\PSoC5/PWM_Motor_L.c ****     }
 613              		.loc 1 743 0
 614 000e 1846     		mov	r0, r3
 615 0010 0C37     		adds	r7, r7, #12
 616              		.cfi_def_cfa_offset 4
 617 0012 BD46     		mov	sp, r7
 618              		.cfi_def_cfa_register 13
 619              		@ sp needed
 620 0014 80BC     		pop	{r7}
 621              		.cfi_restore 7
 622              		.cfi_def_cfa_offset 0
 623 0016 7047     		bx	lr
 624              	.L43:
ARM GAS  C:\Users\jmspi\AppData\Local\Temp\ccYEMJgh.s 			page 25


 625              		.align	2
 626              	.L42:
 627 0018 7F640040 		.word	1073767551
 628              		.cfi_endproc
 629              	.LFE12:
 630              		.size	PWM_Motor_L_ReadControlRegister, .-PWM_Motor_L_ReadControlRegister
 631              		.section	.text.PWM_Motor_L_WriteControlRegister,"ax",%progbits
 632              		.align	2
 633              		.global	PWM_Motor_L_WriteControlRegister
 634              		.thumb
 635              		.thumb_func
 636              		.type	PWM_Motor_L_WriteControlRegister, %function
 637              	PWM_Motor_L_WriteControlRegister:
 638              	.LFB13:
 744:Generated_Source\PSoC5/PWM_Motor_L.c **** 
 745:Generated_Source\PSoC5/PWM_Motor_L.c **** 
 746:Generated_Source\PSoC5/PWM_Motor_L.c ****     /*******************************************************************************
 747:Generated_Source\PSoC5/PWM_Motor_L.c ****     * Function Name: PWM_Motor_L_WriteControlRegister
 748:Generated_Source\PSoC5/PWM_Motor_L.c ****     ********************************************************************************
 749:Generated_Source\PSoC5/PWM_Motor_L.c ****     *
 750:Generated_Source\PSoC5/PWM_Motor_L.c ****     * Summary:
 751:Generated_Source\PSoC5/PWM_Motor_L.c ****     *  Sets the bit field of the control register. This API is available only if
 752:Generated_Source\PSoC5/PWM_Motor_L.c ****     *  the control register is not removed.
 753:Generated_Source\PSoC5/PWM_Motor_L.c ****     *
 754:Generated_Source\PSoC5/PWM_Motor_L.c ****     * Parameters:
 755:Generated_Source\PSoC5/PWM_Motor_L.c ****     *  uint8 control: Control register bit field, The status register bits are:
 756:Generated_Source\PSoC5/PWM_Motor_L.c ****     *  [7]   : PWM Enable
 757:Generated_Source\PSoC5/PWM_Motor_L.c ****     *  [6]   : Reset
 758:Generated_Source\PSoC5/PWM_Motor_L.c ****     *  [5:3] : Compare Mode2
 759:Generated_Source\PSoC5/PWM_Motor_L.c ****     *  [2:0] : Compare Mode2
 760:Generated_Source\PSoC5/PWM_Motor_L.c ****     *
 761:Generated_Source\PSoC5/PWM_Motor_L.c ****     * Return:
 762:Generated_Source\PSoC5/PWM_Motor_L.c ****     *  None
 763:Generated_Source\PSoC5/PWM_Motor_L.c ****     *
 764:Generated_Source\PSoC5/PWM_Motor_L.c ****     *******************************************************************************/
 765:Generated_Source\PSoC5/PWM_Motor_L.c ****     void PWM_Motor_L_WriteControlRegister(uint8 control) 
 766:Generated_Source\PSoC5/PWM_Motor_L.c ****     {
 639              		.loc 1 766 0
 640              		.cfi_startproc
 641              		@ args = 0, pretend = 0, frame = 8
 642              		@ frame_needed = 1, uses_anonymous_args = 0
 643              		@ link register save eliminated.
 644 0000 80B4     		push	{r7}
 645              		.cfi_def_cfa_offset 4
 646              		.cfi_offset 7, -4
 647 0002 83B0     		sub	sp, sp, #12
 648              		.cfi_def_cfa_offset 16
 649 0004 00AF     		add	r7, sp, #0
 650              		.cfi_def_cfa_register 7
 651 0006 0346     		mov	r3, r0
 652 0008 FB71     		strb	r3, [r7, #7]
 767:Generated_Source\PSoC5/PWM_Motor_L.c ****         CY_SET_REG8(PWM_Motor_L_CONTROL_PTR, control);
 653              		.loc 1 767 0
 654 000a 044A     		ldr	r2, .L45
 655 000c FB79     		ldrb	r3, [r7, #7]
 656 000e 1370     		strb	r3, [r2]
 768:Generated_Source\PSoC5/PWM_Motor_L.c ****     }
ARM GAS  C:\Users\jmspi\AppData\Local\Temp\ccYEMJgh.s 			page 26


 657              		.loc 1 768 0
 658 0010 00BF     		nop
 659 0012 0C37     		adds	r7, r7, #12
 660              		.cfi_def_cfa_offset 4
 661 0014 BD46     		mov	sp, r7
 662              		.cfi_def_cfa_register 13
 663              		@ sp needed
 664 0016 80BC     		pop	{r7}
 665              		.cfi_restore 7
 666              		.cfi_def_cfa_offset 0
 667 0018 7047     		bx	lr
 668              	.L46:
 669 001a 00BF     		.align	2
 670              	.L45:
 671 001c 7F640040 		.word	1073767551
 672              		.cfi_endproc
 673              	.LFE13:
 674              		.size	PWM_Motor_L_WriteControlRegister, .-PWM_Motor_L_WriteControlRegister
 675              		.section	.text.PWM_Motor_L_ReadCapture,"ax",%progbits
 676              		.align	2
 677              		.global	PWM_Motor_L_ReadCapture
 678              		.thumb
 679              		.thumb_func
 680              		.type	PWM_Motor_L_ReadCapture, %function
 681              	PWM_Motor_L_ReadCapture:
 682              	.LFB14:
 769:Generated_Source\PSoC5/PWM_Motor_L.c **** 
 770:Generated_Source\PSoC5/PWM_Motor_L.c **** #endif /* (PWM_Motor_L_UseControl) */
 771:Generated_Source\PSoC5/PWM_Motor_L.c **** 
 772:Generated_Source\PSoC5/PWM_Motor_L.c **** 
 773:Generated_Source\PSoC5/PWM_Motor_L.c **** #if (!PWM_Motor_L_UsingFixedFunction)
 774:Generated_Source\PSoC5/PWM_Motor_L.c **** 
 775:Generated_Source\PSoC5/PWM_Motor_L.c **** 
 776:Generated_Source\PSoC5/PWM_Motor_L.c ****     /*******************************************************************************
 777:Generated_Source\PSoC5/PWM_Motor_L.c ****     * Function Name: PWM_Motor_L_ReadCapture
 778:Generated_Source\PSoC5/PWM_Motor_L.c ****     ********************************************************************************
 779:Generated_Source\PSoC5/PWM_Motor_L.c ****     *
 780:Generated_Source\PSoC5/PWM_Motor_L.c ****     * Summary:
 781:Generated_Source\PSoC5/PWM_Motor_L.c ****     *  Reads the capture value from the capture FIFO.
 782:Generated_Source\PSoC5/PWM_Motor_L.c ****     *
 783:Generated_Source\PSoC5/PWM_Motor_L.c ****     * Parameters:
 784:Generated_Source\PSoC5/PWM_Motor_L.c ****     *  None
 785:Generated_Source\PSoC5/PWM_Motor_L.c ****     *
 786:Generated_Source\PSoC5/PWM_Motor_L.c ****     * Return:
 787:Generated_Source\PSoC5/PWM_Motor_L.c ****     *  uint8/uint16: The current capture value
 788:Generated_Source\PSoC5/PWM_Motor_L.c ****     *
 789:Generated_Source\PSoC5/PWM_Motor_L.c ****     *******************************************************************************/
 790:Generated_Source\PSoC5/PWM_Motor_L.c ****     uint16 PWM_Motor_L_ReadCapture(void) 
 791:Generated_Source\PSoC5/PWM_Motor_L.c ****     {
 683              		.loc 1 791 0
 684              		.cfi_startproc
 685              		@ args = 0, pretend = 0, frame = 0
 686              		@ frame_needed = 1, uses_anonymous_args = 0
 687              		@ link register save eliminated.
 688 0000 80B4     		push	{r7}
 689              		.cfi_def_cfa_offset 4
 690              		.cfi_offset 7, -4
ARM GAS  C:\Users\jmspi\AppData\Local\Temp\ccYEMJgh.s 			page 27


 691 0002 00AF     		add	r7, sp, #0
 692              		.cfi_def_cfa_register 7
 792:Generated_Source\PSoC5/PWM_Motor_L.c ****         return (CY_GET_REG16(PWM_Motor_L_CAPTURE_LSB_PTR));
 693              		.loc 1 792 0
 694 0004 034B     		ldr	r3, .L49
 695 0006 1B88     		ldrh	r3, [r3]	@ movhi
 696 0008 9BB2     		uxth	r3, r3
 793:Generated_Source\PSoC5/PWM_Motor_L.c ****     }
 697              		.loc 1 793 0
 698 000a 1846     		mov	r0, r3
 699 000c BD46     		mov	sp, r7
 700              		.cfi_def_cfa_register 13
 701              		@ sp needed
 702 000e 80BC     		pop	{r7}
 703              		.cfi_restore 7
 704              		.cfi_def_cfa_offset 0
 705 0010 7047     		bx	lr
 706              	.L50:
 707 0012 00BF     		.align	2
 708              	.L49:
 709 0014 BC680040 		.word	1073768636
 710              		.cfi_endproc
 711              	.LFE14:
 712              		.size	PWM_Motor_L_ReadCapture, .-PWM_Motor_L_ReadCapture
 713              		.section	.text.PWM_Motor_L_ReadCompare1,"ax",%progbits
 714              		.align	2
 715              		.global	PWM_Motor_L_ReadCompare1
 716              		.thumb
 717              		.thumb_func
 718              		.type	PWM_Motor_L_ReadCompare1, %function
 719              	PWM_Motor_L_ReadCompare1:
 720              	.LFB15:
 794:Generated_Source\PSoC5/PWM_Motor_L.c **** 
 795:Generated_Source\PSoC5/PWM_Motor_L.c **** #endif /* (!PWM_Motor_L_UsingFixedFunction) */
 796:Generated_Source\PSoC5/PWM_Motor_L.c **** 
 797:Generated_Source\PSoC5/PWM_Motor_L.c **** 
 798:Generated_Source\PSoC5/PWM_Motor_L.c **** #if (PWM_Motor_L_UseOneCompareMode)
 799:Generated_Source\PSoC5/PWM_Motor_L.c **** 
 800:Generated_Source\PSoC5/PWM_Motor_L.c **** 
 801:Generated_Source\PSoC5/PWM_Motor_L.c ****     /*******************************************************************************
 802:Generated_Source\PSoC5/PWM_Motor_L.c ****     * Function Name: PWM_Motor_L_ReadCompare
 803:Generated_Source\PSoC5/PWM_Motor_L.c ****     ********************************************************************************
 804:Generated_Source\PSoC5/PWM_Motor_L.c ****     *
 805:Generated_Source\PSoC5/PWM_Motor_L.c ****     * Summary:
 806:Generated_Source\PSoC5/PWM_Motor_L.c ****     *  Reads the compare value for the compare output when the PWM Mode parameter is
 807:Generated_Source\PSoC5/PWM_Motor_L.c ****     *  set to Dither mode, Center Aligned mode, or One Output mode.
 808:Generated_Source\PSoC5/PWM_Motor_L.c ****     *
 809:Generated_Source\PSoC5/PWM_Motor_L.c ****     * Parameters:
 810:Generated_Source\PSoC5/PWM_Motor_L.c ****     *  None
 811:Generated_Source\PSoC5/PWM_Motor_L.c ****     *
 812:Generated_Source\PSoC5/PWM_Motor_L.c ****     * Return:
 813:Generated_Source\PSoC5/PWM_Motor_L.c ****     *  uint8/uint16: Current compare value
 814:Generated_Source\PSoC5/PWM_Motor_L.c ****     *
 815:Generated_Source\PSoC5/PWM_Motor_L.c ****     *******************************************************************************/
 816:Generated_Source\PSoC5/PWM_Motor_L.c ****     uint16 PWM_Motor_L_ReadCompare(void) 
 817:Generated_Source\PSoC5/PWM_Motor_L.c ****     {
 818:Generated_Source\PSoC5/PWM_Motor_L.c ****         #if(PWM_Motor_L_UsingFixedFunction)
ARM GAS  C:\Users\jmspi\AppData\Local\Temp\ccYEMJgh.s 			page 28


 819:Generated_Source\PSoC5/PWM_Motor_L.c ****             return ((uint16)CY_GET_REG16(PWM_Motor_L_COMPARE1_LSB_PTR));
 820:Generated_Source\PSoC5/PWM_Motor_L.c ****         #else
 821:Generated_Source\PSoC5/PWM_Motor_L.c ****             return (CY_GET_REG16(PWM_Motor_L_COMPARE1_LSB_PTR));
 822:Generated_Source\PSoC5/PWM_Motor_L.c ****         #endif /* (PWM_Motor_L_UsingFixedFunction) */
 823:Generated_Source\PSoC5/PWM_Motor_L.c ****     }
 824:Generated_Source\PSoC5/PWM_Motor_L.c **** 
 825:Generated_Source\PSoC5/PWM_Motor_L.c **** #else
 826:Generated_Source\PSoC5/PWM_Motor_L.c **** 
 827:Generated_Source\PSoC5/PWM_Motor_L.c **** 
 828:Generated_Source\PSoC5/PWM_Motor_L.c ****     /*******************************************************************************
 829:Generated_Source\PSoC5/PWM_Motor_L.c ****     * Function Name: PWM_Motor_L_ReadCompare1
 830:Generated_Source\PSoC5/PWM_Motor_L.c ****     ********************************************************************************
 831:Generated_Source\PSoC5/PWM_Motor_L.c ****     *
 832:Generated_Source\PSoC5/PWM_Motor_L.c ****     * Summary:
 833:Generated_Source\PSoC5/PWM_Motor_L.c ****     *  Reads the compare value for the compare1 output.
 834:Generated_Source\PSoC5/PWM_Motor_L.c ****     *
 835:Generated_Source\PSoC5/PWM_Motor_L.c ****     * Parameters:
 836:Generated_Source\PSoC5/PWM_Motor_L.c ****     *  None
 837:Generated_Source\PSoC5/PWM_Motor_L.c ****     *
 838:Generated_Source\PSoC5/PWM_Motor_L.c ****     * Return:
 839:Generated_Source\PSoC5/PWM_Motor_L.c ****     *  uint8/uint16: Current compare value.
 840:Generated_Source\PSoC5/PWM_Motor_L.c ****     *
 841:Generated_Source\PSoC5/PWM_Motor_L.c ****     *******************************************************************************/
 842:Generated_Source\PSoC5/PWM_Motor_L.c ****     uint16 PWM_Motor_L_ReadCompare1(void) 
 843:Generated_Source\PSoC5/PWM_Motor_L.c ****     {
 721              		.loc 1 843 0
 722              		.cfi_startproc
 723              		@ args = 0, pretend = 0, frame = 0
 724              		@ frame_needed = 1, uses_anonymous_args = 0
 725              		@ link register save eliminated.
 726 0000 80B4     		push	{r7}
 727              		.cfi_def_cfa_offset 4
 728              		.cfi_offset 7, -4
 729 0002 00AF     		add	r7, sp, #0
 730              		.cfi_def_cfa_register 7
 844:Generated_Source\PSoC5/PWM_Motor_L.c ****         return (CY_GET_REG16(PWM_Motor_L_COMPARE1_LSB_PTR));
 731              		.loc 1 844 0
 732 0004 034B     		ldr	r3, .L53
 733 0006 1B88     		ldrh	r3, [r3]	@ movhi
 734 0008 9BB2     		uxth	r3, r3
 845:Generated_Source\PSoC5/PWM_Motor_L.c ****     }
 735              		.loc 1 845 0
 736 000a 1846     		mov	r0, r3
 737 000c BD46     		mov	sp, r7
 738              		.cfi_def_cfa_register 13
 739              		@ sp needed
 740 000e 80BC     		pop	{r7}
 741              		.cfi_restore 7
 742              		.cfi_def_cfa_offset 0
 743 0010 7047     		bx	lr
 744              	.L54:
 745 0012 00BF     		.align	2
 746              	.L53:
 747 0014 5C680040 		.word	1073768540
 748              		.cfi_endproc
 749              	.LFE15:
 750              		.size	PWM_Motor_L_ReadCompare1, .-PWM_Motor_L_ReadCompare1
ARM GAS  C:\Users\jmspi\AppData\Local\Temp\ccYEMJgh.s 			page 29


 751              		.section	.text.PWM_Motor_L_ReadCompare2,"ax",%progbits
 752              		.align	2
 753              		.global	PWM_Motor_L_ReadCompare2
 754              		.thumb
 755              		.thumb_func
 756              		.type	PWM_Motor_L_ReadCompare2, %function
 757              	PWM_Motor_L_ReadCompare2:
 758              	.LFB16:
 846:Generated_Source\PSoC5/PWM_Motor_L.c **** 
 847:Generated_Source\PSoC5/PWM_Motor_L.c **** 
 848:Generated_Source\PSoC5/PWM_Motor_L.c ****     /*******************************************************************************
 849:Generated_Source\PSoC5/PWM_Motor_L.c ****     * Function Name: PWM_Motor_L_ReadCompare2
 850:Generated_Source\PSoC5/PWM_Motor_L.c ****     ********************************************************************************
 851:Generated_Source\PSoC5/PWM_Motor_L.c ****     *
 852:Generated_Source\PSoC5/PWM_Motor_L.c ****     * Summary:
 853:Generated_Source\PSoC5/PWM_Motor_L.c ****     *  Reads the compare value for the compare2 output.
 854:Generated_Source\PSoC5/PWM_Motor_L.c ****     *
 855:Generated_Source\PSoC5/PWM_Motor_L.c ****     * Parameters:
 856:Generated_Source\PSoC5/PWM_Motor_L.c ****     *  None
 857:Generated_Source\PSoC5/PWM_Motor_L.c ****     *
 858:Generated_Source\PSoC5/PWM_Motor_L.c ****     * Return:
 859:Generated_Source\PSoC5/PWM_Motor_L.c ****     *  uint8/uint16: Current compare value.
 860:Generated_Source\PSoC5/PWM_Motor_L.c ****     *
 861:Generated_Source\PSoC5/PWM_Motor_L.c ****     *******************************************************************************/
 862:Generated_Source\PSoC5/PWM_Motor_L.c ****     uint16 PWM_Motor_L_ReadCompare2(void) 
 863:Generated_Source\PSoC5/PWM_Motor_L.c ****     {
 759              		.loc 1 863 0
 760              		.cfi_startproc
 761              		@ args = 0, pretend = 0, frame = 0
 762              		@ frame_needed = 1, uses_anonymous_args = 0
 763              		@ link register save eliminated.
 764 0000 80B4     		push	{r7}
 765              		.cfi_def_cfa_offset 4
 766              		.cfi_offset 7, -4
 767 0002 00AF     		add	r7, sp, #0
 768              		.cfi_def_cfa_register 7
 864:Generated_Source\PSoC5/PWM_Motor_L.c ****         return (CY_GET_REG16(PWM_Motor_L_COMPARE2_LSB_PTR));
 769              		.loc 1 864 0
 770 0004 034B     		ldr	r3, .L57
 771 0006 1B88     		ldrh	r3, [r3]	@ movhi
 772 0008 9BB2     		uxth	r3, r3
 865:Generated_Source\PSoC5/PWM_Motor_L.c ****     }
 773              		.loc 1 865 0
 774 000a 1846     		mov	r0, r3
 775 000c BD46     		mov	sp, r7
 776              		.cfi_def_cfa_register 13
 777              		@ sp needed
 778 000e 80BC     		pop	{r7}
 779              		.cfi_restore 7
 780              		.cfi_def_cfa_offset 0
 781 0010 7047     		bx	lr
 782              	.L58:
 783 0012 00BF     		.align	2
 784              	.L57:
 785 0014 7C680040 		.word	1073768572
 786              		.cfi_endproc
 787              	.LFE16:
ARM GAS  C:\Users\jmspi\AppData\Local\Temp\ccYEMJgh.s 			page 30


 788              		.size	PWM_Motor_L_ReadCompare2, .-PWM_Motor_L_ReadCompare2
 789              		.section	.text.PWM_Motor_L_ReadPeriod,"ax",%progbits
 790              		.align	2
 791              		.global	PWM_Motor_L_ReadPeriod
 792              		.thumb
 793              		.thumb_func
 794              		.type	PWM_Motor_L_ReadPeriod, %function
 795              	PWM_Motor_L_ReadPeriod:
 796              	.LFB17:
 866:Generated_Source\PSoC5/PWM_Motor_L.c **** 
 867:Generated_Source\PSoC5/PWM_Motor_L.c **** #endif /* (PWM_Motor_L_UseOneCompareMode) */
 868:Generated_Source\PSoC5/PWM_Motor_L.c **** 
 869:Generated_Source\PSoC5/PWM_Motor_L.c **** 
 870:Generated_Source\PSoC5/PWM_Motor_L.c **** /*******************************************************************************
 871:Generated_Source\PSoC5/PWM_Motor_L.c **** * Function Name: PWM_Motor_L_ReadPeriod
 872:Generated_Source\PSoC5/PWM_Motor_L.c **** ********************************************************************************
 873:Generated_Source\PSoC5/PWM_Motor_L.c **** *
 874:Generated_Source\PSoC5/PWM_Motor_L.c **** * Summary:
 875:Generated_Source\PSoC5/PWM_Motor_L.c **** *  Reads the period value used by the PWM hardware.
 876:Generated_Source\PSoC5/PWM_Motor_L.c **** *
 877:Generated_Source\PSoC5/PWM_Motor_L.c **** * Parameters:
 878:Generated_Source\PSoC5/PWM_Motor_L.c **** *  None
 879:Generated_Source\PSoC5/PWM_Motor_L.c **** *
 880:Generated_Source\PSoC5/PWM_Motor_L.c **** * Return:
 881:Generated_Source\PSoC5/PWM_Motor_L.c **** *  uint8/16: Period value
 882:Generated_Source\PSoC5/PWM_Motor_L.c **** *
 883:Generated_Source\PSoC5/PWM_Motor_L.c **** *******************************************************************************/
 884:Generated_Source\PSoC5/PWM_Motor_L.c **** uint16 PWM_Motor_L_ReadPeriod(void) 
 885:Generated_Source\PSoC5/PWM_Motor_L.c **** {
 797              		.loc 1 885 0
 798              		.cfi_startproc
 799              		@ args = 0, pretend = 0, frame = 0
 800              		@ frame_needed = 1, uses_anonymous_args = 0
 801              		@ link register save eliminated.
 802 0000 80B4     		push	{r7}
 803              		.cfi_def_cfa_offset 4
 804              		.cfi_offset 7, -4
 805 0002 00AF     		add	r7, sp, #0
 806              		.cfi_def_cfa_register 7
 886:Generated_Source\PSoC5/PWM_Motor_L.c ****     #if(PWM_Motor_L_UsingFixedFunction)
 887:Generated_Source\PSoC5/PWM_Motor_L.c ****         return ((uint16)CY_GET_REG16(PWM_Motor_L_PERIOD_LSB_PTR));
 888:Generated_Source\PSoC5/PWM_Motor_L.c ****     #else
 889:Generated_Source\PSoC5/PWM_Motor_L.c ****         return (CY_GET_REG16(PWM_Motor_L_PERIOD_LSB_PTR));
 807              		.loc 1 889 0
 808 0004 034B     		ldr	r3, .L61
 809 0006 1B88     		ldrh	r3, [r3]	@ movhi
 810 0008 9BB2     		uxth	r3, r3
 890:Generated_Source\PSoC5/PWM_Motor_L.c ****     #endif /* (PWM_Motor_L_UsingFixedFunction) */
 891:Generated_Source\PSoC5/PWM_Motor_L.c **** }
 811              		.loc 1 891 0
 812 000a 1846     		mov	r0, r3
 813 000c BD46     		mov	sp, r7
 814              		.cfi_def_cfa_register 13
 815              		@ sp needed
 816 000e 80BC     		pop	{r7}
 817              		.cfi_restore 7
 818              		.cfi_def_cfa_offset 0
ARM GAS  C:\Users\jmspi\AppData\Local\Temp\ccYEMJgh.s 			page 31


 819 0010 7047     		bx	lr
 820              	.L62:
 821 0012 00BF     		.align	2
 822              	.L61:
 823 0014 9C680040 		.word	1073768604
 824              		.cfi_endproc
 825              	.LFE17:
 826              		.size	PWM_Motor_L_ReadPeriod, .-PWM_Motor_L_ReadPeriod
 827              		.text
 828              	.Letext0:
 829              		.file 2 "Generated_Source\\PSoC5\\cytypes.h"