ARM GAS  C:\Users\jmspi\AppData\Local\Temp\ccXKD8XC.s 			page 1


   1              		.syntax unified
   2              		.cpu cortex-m3
   3              		.fpu softvfp
   4              		.eabi_attribute 20, 1
   5              		.eabi_attribute 21, 1
   6              		.eabi_attribute 23, 3
   7              		.eabi_attribute 24, 1
   8              		.eabi_attribute 25, 1
   9              		.eabi_attribute 26, 1
  10              		.eabi_attribute 30, 4
  11              		.eabi_attribute 34, 1
  12              		.eabi_attribute 18, 4
  13              		.thumb
  14              		.syntax unified
  15              		.file	"PWM_Trigger.c"
  16              		.text
  17              	.Ltext0:
  18              		.cfi_sections	.debug_frame
  19              		.section	.text.PWM_Trigger_Init,"ax",%progbits
  20              		.align	1
  21              		.global	PWM_Trigger_Init
  22              		.thumb
  23              		.thumb_func
  24              		.type	PWM_Trigger_Init, %function
  25              	PWM_Trigger_Init:
  26              	.LFB1:
  27              		.file 1 "Generated_Source\\PSoC5\\PWM_Trigger.c"
   1:Generated_Source\PSoC5/PWM_Trigger.c **** /*******************************************************************************
   2:Generated_Source\PSoC5/PWM_Trigger.c **** * File Name: PWM_Trigger.c
   3:Generated_Source\PSoC5/PWM_Trigger.c **** * Version 3.30
   4:Generated_Source\PSoC5/PWM_Trigger.c **** *
   5:Generated_Source\PSoC5/PWM_Trigger.c **** * Description:
   6:Generated_Source\PSoC5/PWM_Trigger.c **** *  The PWM User Module consist of an 8 or 16-bit counter with two 8 or 16-bit
   7:Generated_Source\PSoC5/PWM_Trigger.c **** *  comparitors. Each instance of this user module is capable of generating
   8:Generated_Source\PSoC5/PWM_Trigger.c **** *  two PWM outputs with the same period. The pulse width is selectable between
   9:Generated_Source\PSoC5/PWM_Trigger.c **** *  1 and 255/65535. The period is selectable between 2 and 255/65536 clocks.
  10:Generated_Source\PSoC5/PWM_Trigger.c **** *  The compare value output may be configured to be active when the present
  11:Generated_Source\PSoC5/PWM_Trigger.c **** *  counter is less than or less than/equal to the compare value.
  12:Generated_Source\PSoC5/PWM_Trigger.c **** *  A terminal count output is also provided. It generates a pulse one clock
  13:Generated_Source\PSoC5/PWM_Trigger.c **** *  width wide when the counter is equal to zero.
  14:Generated_Source\PSoC5/PWM_Trigger.c **** *
  15:Generated_Source\PSoC5/PWM_Trigger.c **** * Note:
  16:Generated_Source\PSoC5/PWM_Trigger.c **** *
  17:Generated_Source\PSoC5/PWM_Trigger.c **** *******************************************************************************
  18:Generated_Source\PSoC5/PWM_Trigger.c **** * Copyright 2008-2014, Cypress Semiconductor Corporation.  All rights reserved.
  19:Generated_Source\PSoC5/PWM_Trigger.c **** * You may use this file only in accordance with the license, terms, conditions,
  20:Generated_Source\PSoC5/PWM_Trigger.c **** * disclaimers, and limitations in the end user license agreement accompanying
  21:Generated_Source\PSoC5/PWM_Trigger.c **** * the software package with which this file was provided.
  22:Generated_Source\PSoC5/PWM_Trigger.c **** ********************************************************************************/
  23:Generated_Source\PSoC5/PWM_Trigger.c **** 
  24:Generated_Source\PSoC5/PWM_Trigger.c **** #include "PWM_Trigger.h"
  25:Generated_Source\PSoC5/PWM_Trigger.c **** 
  26:Generated_Source\PSoC5/PWM_Trigger.c **** /* Error message for removed <resource> through optimization */
  27:Generated_Source\PSoC5/PWM_Trigger.c **** #ifdef PWM_Trigger_PWMUDB_genblk1_ctrlreg__REMOVED
  28:Generated_Source\PSoC5/PWM_Trigger.c ****     #error PWM_v3_30 detected with a constant 0 for the enable or \
  29:Generated_Source\PSoC5/PWM_Trigger.c ****          constant 1 for reset. This will prevent the component from operating.
  30:Generated_Source\PSoC5/PWM_Trigger.c **** #endif /* PWM_Trigger_PWMUDB_genblk1_ctrlreg__REMOVED */
ARM GAS  C:\Users\jmspi\AppData\Local\Temp\ccXKD8XC.s 			page 2


  31:Generated_Source\PSoC5/PWM_Trigger.c **** 
  32:Generated_Source\PSoC5/PWM_Trigger.c **** uint8 PWM_Trigger_initVar = 0u;
  33:Generated_Source\PSoC5/PWM_Trigger.c **** 
  34:Generated_Source\PSoC5/PWM_Trigger.c **** 
  35:Generated_Source\PSoC5/PWM_Trigger.c **** /*******************************************************************************
  36:Generated_Source\PSoC5/PWM_Trigger.c **** * Function Name: PWM_Trigger_Start
  37:Generated_Source\PSoC5/PWM_Trigger.c **** ********************************************************************************
  38:Generated_Source\PSoC5/PWM_Trigger.c **** *
  39:Generated_Source\PSoC5/PWM_Trigger.c **** * Summary:
  40:Generated_Source\PSoC5/PWM_Trigger.c **** *  The start function initializes the pwm with the default values, the
  41:Generated_Source\PSoC5/PWM_Trigger.c **** *  enables the counter to begin counting.  It does not enable interrupts,
  42:Generated_Source\PSoC5/PWM_Trigger.c **** *  the EnableInt command should be called if interrupt generation is required.
  43:Generated_Source\PSoC5/PWM_Trigger.c **** *
  44:Generated_Source\PSoC5/PWM_Trigger.c **** * Parameters:
  45:Generated_Source\PSoC5/PWM_Trigger.c **** *  None
  46:Generated_Source\PSoC5/PWM_Trigger.c **** *
  47:Generated_Source\PSoC5/PWM_Trigger.c **** * Return:
  48:Generated_Source\PSoC5/PWM_Trigger.c **** *  None
  49:Generated_Source\PSoC5/PWM_Trigger.c **** *
  50:Generated_Source\PSoC5/PWM_Trigger.c **** * Global variables:
  51:Generated_Source\PSoC5/PWM_Trigger.c **** *  PWM_Trigger_initVar: Is modified when this function is called for the
  52:Generated_Source\PSoC5/PWM_Trigger.c **** *   first time. Is used to ensure that initialization happens only once.
  53:Generated_Source\PSoC5/PWM_Trigger.c **** *
  54:Generated_Source\PSoC5/PWM_Trigger.c **** *******************************************************************************/
  55:Generated_Source\PSoC5/PWM_Trigger.c **** void PWM_Trigger_Start(void) 
  56:Generated_Source\PSoC5/PWM_Trigger.c **** {
  57:Generated_Source\PSoC5/PWM_Trigger.c ****     /* If not Initialized then initialize all required hardware and software */
  58:Generated_Source\PSoC5/PWM_Trigger.c ****     if(PWM_Trigger_initVar == 0u)
  59:Generated_Source\PSoC5/PWM_Trigger.c ****     {
  60:Generated_Source\PSoC5/PWM_Trigger.c ****         PWM_Trigger_Init();
  61:Generated_Source\PSoC5/PWM_Trigger.c ****         PWM_Trigger_initVar = 1u;
  62:Generated_Source\PSoC5/PWM_Trigger.c ****     }
  63:Generated_Source\PSoC5/PWM_Trigger.c ****     PWM_Trigger_Enable();
  64:Generated_Source\PSoC5/PWM_Trigger.c **** 
  65:Generated_Source\PSoC5/PWM_Trigger.c **** }
  66:Generated_Source\PSoC5/PWM_Trigger.c **** 
  67:Generated_Source\PSoC5/PWM_Trigger.c **** 
  68:Generated_Source\PSoC5/PWM_Trigger.c **** /*******************************************************************************
  69:Generated_Source\PSoC5/PWM_Trigger.c **** * Function Name: PWM_Trigger_Init
  70:Generated_Source\PSoC5/PWM_Trigger.c **** ********************************************************************************
  71:Generated_Source\PSoC5/PWM_Trigger.c **** *
  72:Generated_Source\PSoC5/PWM_Trigger.c **** * Summary:
  73:Generated_Source\PSoC5/PWM_Trigger.c **** *  Initialize component's parameters to the parameters set by user in the
  74:Generated_Source\PSoC5/PWM_Trigger.c **** *  customizer of the component placed onto schematic. Usually called in
  75:Generated_Source\PSoC5/PWM_Trigger.c **** *  PWM_Trigger_Start().
  76:Generated_Source\PSoC5/PWM_Trigger.c **** *
  77:Generated_Source\PSoC5/PWM_Trigger.c **** * Parameters:
  78:Generated_Source\PSoC5/PWM_Trigger.c **** *  None
  79:Generated_Source\PSoC5/PWM_Trigger.c **** *
  80:Generated_Source\PSoC5/PWM_Trigger.c **** * Return:
  81:Generated_Source\PSoC5/PWM_Trigger.c **** *  None
  82:Generated_Source\PSoC5/PWM_Trigger.c **** *
  83:Generated_Source\PSoC5/PWM_Trigger.c **** *******************************************************************************/
  84:Generated_Source\PSoC5/PWM_Trigger.c **** void PWM_Trigger_Init(void) 
  85:Generated_Source\PSoC5/PWM_Trigger.c **** {
  28              		.loc 1 85 0
  29              		.cfi_startproc
ARM GAS  C:\Users\jmspi\AppData\Local\Temp\ccXKD8XC.s 			page 3


  30              		@ args = 0, pretend = 0, frame = 0
  31              		@ frame_needed = 0, uses_anonymous_args = 0
  32              		@ link register save eliminated.
  86:Generated_Source\PSoC5/PWM_Trigger.c ****     #if (PWM_Trigger_UsingFixedFunction || PWM_Trigger_UseControl)
  87:Generated_Source\PSoC5/PWM_Trigger.c ****         uint8 ctrl;
  88:Generated_Source\PSoC5/PWM_Trigger.c ****     #endif /* (PWM_Trigger_UsingFixedFunction || PWM_Trigger_UseControl) */
  89:Generated_Source\PSoC5/PWM_Trigger.c **** 
  90:Generated_Source\PSoC5/PWM_Trigger.c ****     #if(!PWM_Trigger_UsingFixedFunction)
  91:Generated_Source\PSoC5/PWM_Trigger.c ****         #if(PWM_Trigger_UseStatus)
  92:Generated_Source\PSoC5/PWM_Trigger.c ****             /* Interrupt State Backup for Critical Region*/
  93:Generated_Source\PSoC5/PWM_Trigger.c ****             uint8 PWM_Trigger_interruptState;
  94:Generated_Source\PSoC5/PWM_Trigger.c ****         #endif /* (PWM_Trigger_UseStatus) */
  95:Generated_Source\PSoC5/PWM_Trigger.c ****     #endif /* (!PWM_Trigger_UsingFixedFunction) */
  96:Generated_Source\PSoC5/PWM_Trigger.c **** 
  97:Generated_Source\PSoC5/PWM_Trigger.c ****     #if (PWM_Trigger_UsingFixedFunction)
  98:Generated_Source\PSoC5/PWM_Trigger.c ****         /* You are allowed to write the compare value (FF only) */
  99:Generated_Source\PSoC5/PWM_Trigger.c ****         PWM_Trigger_CONTROL |= PWM_Trigger_CFG0_MODE;
 100:Generated_Source\PSoC5/PWM_Trigger.c ****         #if (PWM_Trigger_DeadBand2_4)
 101:Generated_Source\PSoC5/PWM_Trigger.c ****             PWM_Trigger_CONTROL |= PWM_Trigger_CFG0_DB;
 102:Generated_Source\PSoC5/PWM_Trigger.c ****         #endif /* (PWM_Trigger_DeadBand2_4) */
 103:Generated_Source\PSoC5/PWM_Trigger.c **** 
 104:Generated_Source\PSoC5/PWM_Trigger.c ****         ctrl = PWM_Trigger_CONTROL3 & ((uint8 )(~PWM_Trigger_CTRL_CMPMODE1_MASK));
 105:Generated_Source\PSoC5/PWM_Trigger.c ****         PWM_Trigger_CONTROL3 = ctrl | PWM_Trigger_DEFAULT_COMPARE1_MODE;
 106:Generated_Source\PSoC5/PWM_Trigger.c **** 
 107:Generated_Source\PSoC5/PWM_Trigger.c ****          /* Clear and Set SYNCTC and SYNCCMP bits of RT1 register */
 108:Generated_Source\PSoC5/PWM_Trigger.c ****         PWM_Trigger_RT1 &= ((uint8)(~PWM_Trigger_RT1_MASK));
 109:Generated_Source\PSoC5/PWM_Trigger.c ****         PWM_Trigger_RT1 |= PWM_Trigger_SYNC;
 110:Generated_Source\PSoC5/PWM_Trigger.c **** 
 111:Generated_Source\PSoC5/PWM_Trigger.c ****         /*Enable DSI Sync all all inputs of the PWM*/
 112:Generated_Source\PSoC5/PWM_Trigger.c ****         PWM_Trigger_RT1 &= ((uint8)(~PWM_Trigger_SYNCDSI_MASK));
 113:Generated_Source\PSoC5/PWM_Trigger.c ****         PWM_Trigger_RT1 |= PWM_Trigger_SYNCDSI_EN;
 114:Generated_Source\PSoC5/PWM_Trigger.c **** 
 115:Generated_Source\PSoC5/PWM_Trigger.c ****     #elif (PWM_Trigger_UseControl)
 116:Generated_Source\PSoC5/PWM_Trigger.c ****         /* Set the default compare mode defined in the parameter */
 117:Generated_Source\PSoC5/PWM_Trigger.c ****         ctrl = PWM_Trigger_CONTROL & ((uint8)(~PWM_Trigger_CTRL_CMPMODE2_MASK)) &
  33              		.loc 1 117 0
  34 0000 0E4A     		ldr	r2, .L2
  35 0002 1378     		ldrb	r3, [r2]	@ zero_extendqisi2
  36              	.LVL0:
 118:Generated_Source\PSoC5/PWM_Trigger.c ****                 ((uint8)(~PWM_Trigger_CTRL_CMPMODE1_MASK));
 119:Generated_Source\PSoC5/PWM_Trigger.c ****         PWM_Trigger_CONTROL = ctrl | PWM_Trigger_DEFAULT_COMPARE2_MODE |
  37              		.loc 1 119 0
  38 0004 03F0C003 		and	r3, r3, #192
  39              	.LVL1:
  40 0008 43F02103 		orr	r3, r3, #33
  41 000c 1370     		strb	r3, [r2]
 120:Generated_Source\PSoC5/PWM_Trigger.c ****                                    PWM_Trigger_DEFAULT_COMPARE1_MODE;
 121:Generated_Source\PSoC5/PWM_Trigger.c ****     #endif /* (PWM_Trigger_UsingFixedFunction) */
 122:Generated_Source\PSoC5/PWM_Trigger.c **** 
 123:Generated_Source\PSoC5/PWM_Trigger.c ****     #if (!PWM_Trigger_UsingFixedFunction)
 124:Generated_Source\PSoC5/PWM_Trigger.c ****         #if (PWM_Trigger_Resolution == 8)
 125:Generated_Source\PSoC5/PWM_Trigger.c ****             /* Set FIFO 0 to 1 byte register for period*/
 126:Generated_Source\PSoC5/PWM_Trigger.c ****             PWM_Trigger_AUX_CONTROLDP0 |= (PWM_Trigger_AUX_CTRL_FIFO0_CLR);
 127:Generated_Source\PSoC5/PWM_Trigger.c ****         #else /* (PWM_Trigger_Resolution == 16)*/
 128:Generated_Source\PSoC5/PWM_Trigger.c ****             /* Set FIFO 0 to 1 byte register for period */
 129:Generated_Source\PSoC5/PWM_Trigger.c ****             PWM_Trigger_AUX_CONTROLDP0 |= (PWM_Trigger_AUX_CTRL_FIFO0_CLR);
  42              		.loc 1 129 0
ARM GAS  C:\Users\jmspi\AppData\Local\Temp\ccXKD8XC.s 			page 4


  43 000e 92F82831 		ldrb	r3, [r2, #296]	@ zero_extendqisi2
  44 0012 43F00103 		orr	r3, r3, #1
  45 0016 82F82831 		strb	r3, [r2, #296]
 130:Generated_Source\PSoC5/PWM_Trigger.c ****             PWM_Trigger_AUX_CONTROLDP1 |= (PWM_Trigger_AUX_CTRL_FIFO0_CLR);
  46              		.loc 1 130 0
  47 001a 92F82931 		ldrb	r3, [r2, #297]	@ zero_extendqisi2
  48 001e 43F00103 		orr	r3, r3, #1
  49 0022 82F82931 		strb	r3, [r2, #297]
  50              	.LVL2:
  51              	.LBB8:
  52              	.LBB9:
 131:Generated_Source\PSoC5/PWM_Trigger.c ****         #endif /* (PWM_Trigger_Resolution == 8) */
 132:Generated_Source\PSoC5/PWM_Trigger.c **** 
 133:Generated_Source\PSoC5/PWM_Trigger.c ****         PWM_Trigger_WriteCounter(PWM_Trigger_INIT_PERIOD_VALUE);
 134:Generated_Source\PSoC5/PWM_Trigger.c ****     #endif /* (!PWM_Trigger_UsingFixedFunction) */
 135:Generated_Source\PSoC5/PWM_Trigger.c **** 
 136:Generated_Source\PSoC5/PWM_Trigger.c ****     PWM_Trigger_WritePeriod(PWM_Trigger_INIT_PERIOD_VALUE);
 137:Generated_Source\PSoC5/PWM_Trigger.c **** 
 138:Generated_Source\PSoC5/PWM_Trigger.c ****         #if (PWM_Trigger_UseOneCompareMode)
 139:Generated_Source\PSoC5/PWM_Trigger.c ****             PWM_Trigger_WriteCompare(PWM_Trigger_INIT_COMPARE_VALUE1);
 140:Generated_Source\PSoC5/PWM_Trigger.c ****         #else
 141:Generated_Source\PSoC5/PWM_Trigger.c ****             PWM_Trigger_WriteCompare1(PWM_Trigger_INIT_COMPARE_VALUE1);
 142:Generated_Source\PSoC5/PWM_Trigger.c ****             PWM_Trigger_WriteCompare2(PWM_Trigger_INIT_COMPARE_VALUE2);
 143:Generated_Source\PSoC5/PWM_Trigger.c ****         #endif /* (PWM_Trigger_UseOneCompareMode) */
 144:Generated_Source\PSoC5/PWM_Trigger.c **** 
 145:Generated_Source\PSoC5/PWM_Trigger.c ****         #if (PWM_Trigger_KillModeMinTime)
 146:Generated_Source\PSoC5/PWM_Trigger.c ****             PWM_Trigger_WriteKillTime(PWM_Trigger_MinimumKillTime);
 147:Generated_Source\PSoC5/PWM_Trigger.c ****         #endif /* (PWM_Trigger_KillModeMinTime) */
 148:Generated_Source\PSoC5/PWM_Trigger.c **** 
 149:Generated_Source\PSoC5/PWM_Trigger.c ****         #if (PWM_Trigger_DeadBandUsed)
 150:Generated_Source\PSoC5/PWM_Trigger.c ****             PWM_Trigger_WriteDeadTime(PWM_Trigger_INIT_DEAD_TIME);
 151:Generated_Source\PSoC5/PWM_Trigger.c ****         #endif /* (PWM_Trigger_DeadBandUsed) */
 152:Generated_Source\PSoC5/PWM_Trigger.c **** 
 153:Generated_Source\PSoC5/PWM_Trigger.c ****     #if (PWM_Trigger_UseStatus || PWM_Trigger_UsingFixedFunction)
 154:Generated_Source\PSoC5/PWM_Trigger.c ****         PWM_Trigger_SetInterruptMode(PWM_Trigger_INIT_INTERRUPTS_MODE);
 155:Generated_Source\PSoC5/PWM_Trigger.c ****     #endif /* (PWM_Trigger_UseStatus || PWM_Trigger_UsingFixedFunction) */
 156:Generated_Source\PSoC5/PWM_Trigger.c **** 
 157:Generated_Source\PSoC5/PWM_Trigger.c ****     #if (PWM_Trigger_UsingFixedFunction)
 158:Generated_Source\PSoC5/PWM_Trigger.c ****         /* Globally Enable the Fixed Function Block chosen */
 159:Generated_Source\PSoC5/PWM_Trigger.c ****         PWM_Trigger_GLOBAL_ENABLE |= PWM_Trigger_BLOCK_EN_MASK;
 160:Generated_Source\PSoC5/PWM_Trigger.c ****         /* Set the Interrupt source to come from the status register */
 161:Generated_Source\PSoC5/PWM_Trigger.c ****         PWM_Trigger_CONTROL2 |= PWM_Trigger_CTRL2_IRQ_SEL;
 162:Generated_Source\PSoC5/PWM_Trigger.c ****     #else
 163:Generated_Source\PSoC5/PWM_Trigger.c ****         #if(PWM_Trigger_UseStatus)
 164:Generated_Source\PSoC5/PWM_Trigger.c **** 
 165:Generated_Source\PSoC5/PWM_Trigger.c ****             /* CyEnterCriticalRegion and CyExitCriticalRegion are used to mark following region cri
 166:Generated_Source\PSoC5/PWM_Trigger.c ****             /* Enter Critical Region*/
 167:Generated_Source\PSoC5/PWM_Trigger.c ****             PWM_Trigger_interruptState = CyEnterCriticalSection();
 168:Generated_Source\PSoC5/PWM_Trigger.c ****             /* Use the interrupt output of the status register for IRQ output */
 169:Generated_Source\PSoC5/PWM_Trigger.c ****             PWM_Trigger_STATUS_AUX_CTRL |= PWM_Trigger_STATUS_ACTL_INT_EN_MASK;
 170:Generated_Source\PSoC5/PWM_Trigger.c **** 
 171:Generated_Source\PSoC5/PWM_Trigger.c ****              /* Exit Critical Region*/
 172:Generated_Source\PSoC5/PWM_Trigger.c ****             CyExitCriticalSection(PWM_Trigger_interruptState);
 173:Generated_Source\PSoC5/PWM_Trigger.c **** 
 174:Generated_Source\PSoC5/PWM_Trigger.c ****             /* Clear the FIFO to enable the PWM_Trigger_STATUS_FIFOFULL
 175:Generated_Source\PSoC5/PWM_Trigger.c ****                    bit to be set on FIFO full. */
 176:Generated_Source\PSoC5/PWM_Trigger.c ****             PWM_Trigger_ClearFIFO();
ARM GAS  C:\Users\jmspi\AppData\Local\Temp\ccXKD8XC.s 			page 5


 177:Generated_Source\PSoC5/PWM_Trigger.c ****         #endif /* (PWM_Trigger_UseStatus) */
 178:Generated_Source\PSoC5/PWM_Trigger.c ****     #endif /* (PWM_Trigger_UsingFixedFunction) */
 179:Generated_Source\PSoC5/PWM_Trigger.c **** }
 180:Generated_Source\PSoC5/PWM_Trigger.c **** 
 181:Generated_Source\PSoC5/PWM_Trigger.c **** 
 182:Generated_Source\PSoC5/PWM_Trigger.c **** /*******************************************************************************
 183:Generated_Source\PSoC5/PWM_Trigger.c **** * Function Name: PWM_Trigger_Enable
 184:Generated_Source\PSoC5/PWM_Trigger.c **** ********************************************************************************
 185:Generated_Source\PSoC5/PWM_Trigger.c **** *
 186:Generated_Source\PSoC5/PWM_Trigger.c **** * Summary:
 187:Generated_Source\PSoC5/PWM_Trigger.c **** *  Enables the PWM block operation
 188:Generated_Source\PSoC5/PWM_Trigger.c **** *
 189:Generated_Source\PSoC5/PWM_Trigger.c **** * Parameters:
 190:Generated_Source\PSoC5/PWM_Trigger.c **** *  None
 191:Generated_Source\PSoC5/PWM_Trigger.c **** *
 192:Generated_Source\PSoC5/PWM_Trigger.c **** * Return:
 193:Generated_Source\PSoC5/PWM_Trigger.c **** *  None
 194:Generated_Source\PSoC5/PWM_Trigger.c **** *
 195:Generated_Source\PSoC5/PWM_Trigger.c **** * Side Effects:
 196:Generated_Source\PSoC5/PWM_Trigger.c **** *  This works only if software enable mode is chosen
 197:Generated_Source\PSoC5/PWM_Trigger.c **** *
 198:Generated_Source\PSoC5/PWM_Trigger.c **** *******************************************************************************/
 199:Generated_Source\PSoC5/PWM_Trigger.c **** void PWM_Trigger_Enable(void) 
 200:Generated_Source\PSoC5/PWM_Trigger.c **** {
 201:Generated_Source\PSoC5/PWM_Trigger.c ****     /* Globally Enable the Fixed Function Block chosen */
 202:Generated_Source\PSoC5/PWM_Trigger.c ****     #if (PWM_Trigger_UsingFixedFunction)
 203:Generated_Source\PSoC5/PWM_Trigger.c ****         PWM_Trigger_GLOBAL_ENABLE |= PWM_Trigger_BLOCK_EN_MASK;
 204:Generated_Source\PSoC5/PWM_Trigger.c ****         PWM_Trigger_GLOBAL_STBY_ENABLE |= PWM_Trigger_BLOCK_STBY_EN_MASK;
 205:Generated_Source\PSoC5/PWM_Trigger.c ****     #endif /* (PWM_Trigger_UsingFixedFunction) */
 206:Generated_Source\PSoC5/PWM_Trigger.c **** 
 207:Generated_Source\PSoC5/PWM_Trigger.c ****     /* Enable the PWM from the control register  */
 208:Generated_Source\PSoC5/PWM_Trigger.c ****     #if (PWM_Trigger_UseControl || PWM_Trigger_UsingFixedFunction)
 209:Generated_Source\PSoC5/PWM_Trigger.c ****         PWM_Trigger_CONTROL |= PWM_Trigger_CTRL_ENABLE;
 210:Generated_Source\PSoC5/PWM_Trigger.c ****     #endif /* (PWM_Trigger_UseControl || PWM_Trigger_UsingFixedFunction) */
 211:Generated_Source\PSoC5/PWM_Trigger.c **** }
 212:Generated_Source\PSoC5/PWM_Trigger.c **** 
 213:Generated_Source\PSoC5/PWM_Trigger.c **** 
 214:Generated_Source\PSoC5/PWM_Trigger.c **** /*******************************************************************************
 215:Generated_Source\PSoC5/PWM_Trigger.c **** * Function Name: PWM_Trigger_Stop
 216:Generated_Source\PSoC5/PWM_Trigger.c **** ********************************************************************************
 217:Generated_Source\PSoC5/PWM_Trigger.c **** *
 218:Generated_Source\PSoC5/PWM_Trigger.c **** * Summary:
 219:Generated_Source\PSoC5/PWM_Trigger.c **** *  The stop function halts the PWM, but does not change any modes or disable
 220:Generated_Source\PSoC5/PWM_Trigger.c **** *  interrupts.
 221:Generated_Source\PSoC5/PWM_Trigger.c **** *
 222:Generated_Source\PSoC5/PWM_Trigger.c **** * Parameters:
 223:Generated_Source\PSoC5/PWM_Trigger.c **** *  None
 224:Generated_Source\PSoC5/PWM_Trigger.c **** *
 225:Generated_Source\PSoC5/PWM_Trigger.c **** * Return:
 226:Generated_Source\PSoC5/PWM_Trigger.c **** *  None
 227:Generated_Source\PSoC5/PWM_Trigger.c **** *
 228:Generated_Source\PSoC5/PWM_Trigger.c **** * Side Effects:
 229:Generated_Source\PSoC5/PWM_Trigger.c **** *  If the Enable mode is set to Hardware only then this function
 230:Generated_Source\PSoC5/PWM_Trigger.c **** *  has no effect on the operation of the PWM
 231:Generated_Source\PSoC5/PWM_Trigger.c **** *
 232:Generated_Source\PSoC5/PWM_Trigger.c **** *******************************************************************************/
 233:Generated_Source\PSoC5/PWM_Trigger.c **** void PWM_Trigger_Stop(void) 
ARM GAS  C:\Users\jmspi\AppData\Local\Temp\ccXKD8XC.s 			page 6


 234:Generated_Source\PSoC5/PWM_Trigger.c **** {
 235:Generated_Source\PSoC5/PWM_Trigger.c ****     #if (PWM_Trigger_UseControl || PWM_Trigger_UsingFixedFunction)
 236:Generated_Source\PSoC5/PWM_Trigger.c ****         PWM_Trigger_CONTROL &= ((uint8)(~PWM_Trigger_CTRL_ENABLE));
 237:Generated_Source\PSoC5/PWM_Trigger.c ****     #endif /* (PWM_Trigger_UseControl || PWM_Trigger_UsingFixedFunction) */
 238:Generated_Source\PSoC5/PWM_Trigger.c **** 
 239:Generated_Source\PSoC5/PWM_Trigger.c ****     /* Globally disable the Fixed Function Block chosen */
 240:Generated_Source\PSoC5/PWM_Trigger.c ****     #if (PWM_Trigger_UsingFixedFunction)
 241:Generated_Source\PSoC5/PWM_Trigger.c ****         PWM_Trigger_GLOBAL_ENABLE &= ((uint8)(~PWM_Trigger_BLOCK_EN_MASK));
 242:Generated_Source\PSoC5/PWM_Trigger.c ****         PWM_Trigger_GLOBAL_STBY_ENABLE &= ((uint8)(~PWM_Trigger_BLOCK_STBY_EN_MASK));
 243:Generated_Source\PSoC5/PWM_Trigger.c ****     #endif /* (PWM_Trigger_UsingFixedFunction) */
 244:Generated_Source\PSoC5/PWM_Trigger.c **** }
 245:Generated_Source\PSoC5/PWM_Trigger.c **** 
 246:Generated_Source\PSoC5/PWM_Trigger.c **** #if (PWM_Trigger_UseOneCompareMode)
 247:Generated_Source\PSoC5/PWM_Trigger.c ****     #if (PWM_Trigger_CompareMode1SW)
 248:Generated_Source\PSoC5/PWM_Trigger.c **** 
 249:Generated_Source\PSoC5/PWM_Trigger.c **** 
 250:Generated_Source\PSoC5/PWM_Trigger.c ****         /*******************************************************************************
 251:Generated_Source\PSoC5/PWM_Trigger.c ****         * Function Name: PWM_Trigger_SetCompareMode
 252:Generated_Source\PSoC5/PWM_Trigger.c ****         ********************************************************************************
 253:Generated_Source\PSoC5/PWM_Trigger.c ****         *
 254:Generated_Source\PSoC5/PWM_Trigger.c ****         * Summary:
 255:Generated_Source\PSoC5/PWM_Trigger.c ****         *  This function writes the Compare Mode for the pwm output when in Dither mode,
 256:Generated_Source\PSoC5/PWM_Trigger.c ****         *  Center Align Mode or One Output Mode.
 257:Generated_Source\PSoC5/PWM_Trigger.c ****         *
 258:Generated_Source\PSoC5/PWM_Trigger.c ****         * Parameters:
 259:Generated_Source\PSoC5/PWM_Trigger.c ****         *  comparemode:  The new compare mode for the PWM output. Use the compare types
 260:Generated_Source\PSoC5/PWM_Trigger.c ****         *                defined in the H file as input arguments.
 261:Generated_Source\PSoC5/PWM_Trigger.c ****         *
 262:Generated_Source\PSoC5/PWM_Trigger.c ****         * Return:
 263:Generated_Source\PSoC5/PWM_Trigger.c ****         *  None
 264:Generated_Source\PSoC5/PWM_Trigger.c ****         *
 265:Generated_Source\PSoC5/PWM_Trigger.c ****         *******************************************************************************/
 266:Generated_Source\PSoC5/PWM_Trigger.c ****         void PWM_Trigger_SetCompareMode(uint8 comparemode) 
 267:Generated_Source\PSoC5/PWM_Trigger.c ****         {
 268:Generated_Source\PSoC5/PWM_Trigger.c ****             #if(PWM_Trigger_UsingFixedFunction)
 269:Generated_Source\PSoC5/PWM_Trigger.c **** 
 270:Generated_Source\PSoC5/PWM_Trigger.c ****                 #if(0 != PWM_Trigger_CTRL_CMPMODE1_SHIFT)
 271:Generated_Source\PSoC5/PWM_Trigger.c ****                     uint8 comparemodemasked = ((uint8)((uint8)comparemode << PWM_Trigger_CTRL_CMPMO
 272:Generated_Source\PSoC5/PWM_Trigger.c ****                 #else
 273:Generated_Source\PSoC5/PWM_Trigger.c ****                     uint8 comparemodemasked = comparemode;
 274:Generated_Source\PSoC5/PWM_Trigger.c ****                 #endif /* (0 != PWM_Trigger_CTRL_CMPMODE1_SHIFT) */
 275:Generated_Source\PSoC5/PWM_Trigger.c **** 
 276:Generated_Source\PSoC5/PWM_Trigger.c ****                 PWM_Trigger_CONTROL3 &= ((uint8)(~PWM_Trigger_CTRL_CMPMODE1_MASK)); /*Clear Existin
 277:Generated_Source\PSoC5/PWM_Trigger.c ****                 PWM_Trigger_CONTROL3 |= comparemodemasked;
 278:Generated_Source\PSoC5/PWM_Trigger.c **** 
 279:Generated_Source\PSoC5/PWM_Trigger.c ****             #elif (PWM_Trigger_UseControl)
 280:Generated_Source\PSoC5/PWM_Trigger.c **** 
 281:Generated_Source\PSoC5/PWM_Trigger.c ****                 #if(0 != PWM_Trigger_CTRL_CMPMODE1_SHIFT)
 282:Generated_Source\PSoC5/PWM_Trigger.c ****                     uint8 comparemode1masked = ((uint8)((uint8)comparemode << PWM_Trigger_CTRL_CMPM
 283:Generated_Source\PSoC5/PWM_Trigger.c ****                                                 PWM_Trigger_CTRL_CMPMODE1_MASK;
 284:Generated_Source\PSoC5/PWM_Trigger.c ****                 #else
 285:Generated_Source\PSoC5/PWM_Trigger.c ****                     uint8 comparemode1masked = comparemode & PWM_Trigger_CTRL_CMPMODE1_MASK;
 286:Generated_Source\PSoC5/PWM_Trigger.c ****                 #endif /* (0 != PWM_Trigger_CTRL_CMPMODE1_SHIFT) */
 287:Generated_Source\PSoC5/PWM_Trigger.c **** 
 288:Generated_Source\PSoC5/PWM_Trigger.c ****                 #if(0 != PWM_Trigger_CTRL_CMPMODE2_SHIFT)
 289:Generated_Source\PSoC5/PWM_Trigger.c ****                     uint8 comparemode2masked = ((uint8)((uint8)comparemode << PWM_Trigger_CTRL_CMPM
 290:Generated_Source\PSoC5/PWM_Trigger.c ****                                                PWM_Trigger_CTRL_CMPMODE2_MASK;
ARM GAS  C:\Users\jmspi\AppData\Local\Temp\ccXKD8XC.s 			page 7


 291:Generated_Source\PSoC5/PWM_Trigger.c ****                 #else
 292:Generated_Source\PSoC5/PWM_Trigger.c ****                     uint8 comparemode2masked = comparemode & PWM_Trigger_CTRL_CMPMODE2_MASK;
 293:Generated_Source\PSoC5/PWM_Trigger.c ****                 #endif /* (0 != PWM_Trigger_CTRL_CMPMODE2_SHIFT) */
 294:Generated_Source\PSoC5/PWM_Trigger.c **** 
 295:Generated_Source\PSoC5/PWM_Trigger.c ****                 /*Clear existing mode */
 296:Generated_Source\PSoC5/PWM_Trigger.c ****                 PWM_Trigger_CONTROL &= ((uint8)(~(PWM_Trigger_CTRL_CMPMODE1_MASK |
 297:Generated_Source\PSoC5/PWM_Trigger.c ****                                             PWM_Trigger_CTRL_CMPMODE2_MASK)));
 298:Generated_Source\PSoC5/PWM_Trigger.c ****                 PWM_Trigger_CONTROL |= (comparemode1masked | comparemode2masked);
 299:Generated_Source\PSoC5/PWM_Trigger.c **** 
 300:Generated_Source\PSoC5/PWM_Trigger.c ****             #else
 301:Generated_Source\PSoC5/PWM_Trigger.c ****                 uint8 temp = comparemode;
 302:Generated_Source\PSoC5/PWM_Trigger.c ****             #endif /* (PWM_Trigger_UsingFixedFunction) */
 303:Generated_Source\PSoC5/PWM_Trigger.c ****         }
 304:Generated_Source\PSoC5/PWM_Trigger.c ****     #endif /* PWM_Trigger_CompareMode1SW */
 305:Generated_Source\PSoC5/PWM_Trigger.c **** 
 306:Generated_Source\PSoC5/PWM_Trigger.c **** #else /* UseOneCompareMode */
 307:Generated_Source\PSoC5/PWM_Trigger.c **** 
 308:Generated_Source\PSoC5/PWM_Trigger.c ****     #if (PWM_Trigger_CompareMode1SW)
 309:Generated_Source\PSoC5/PWM_Trigger.c **** 
 310:Generated_Source\PSoC5/PWM_Trigger.c **** 
 311:Generated_Source\PSoC5/PWM_Trigger.c ****         /*******************************************************************************
 312:Generated_Source\PSoC5/PWM_Trigger.c ****         * Function Name: PWM_Trigger_SetCompareMode1
 313:Generated_Source\PSoC5/PWM_Trigger.c ****         ********************************************************************************
 314:Generated_Source\PSoC5/PWM_Trigger.c ****         *
 315:Generated_Source\PSoC5/PWM_Trigger.c ****         * Summary:
 316:Generated_Source\PSoC5/PWM_Trigger.c ****         *  This function writes the Compare Mode for the pwm or pwm1 output
 317:Generated_Source\PSoC5/PWM_Trigger.c ****         *
 318:Generated_Source\PSoC5/PWM_Trigger.c ****         * Parameters:
 319:Generated_Source\PSoC5/PWM_Trigger.c ****         *  comparemode:  The new compare mode for the PWM output. Use the compare types
 320:Generated_Source\PSoC5/PWM_Trigger.c ****         *                defined in the H file as input arguments.
 321:Generated_Source\PSoC5/PWM_Trigger.c ****         *
 322:Generated_Source\PSoC5/PWM_Trigger.c ****         * Return:
 323:Generated_Source\PSoC5/PWM_Trigger.c ****         *  None
 324:Generated_Source\PSoC5/PWM_Trigger.c ****         *
 325:Generated_Source\PSoC5/PWM_Trigger.c ****         *******************************************************************************/
 326:Generated_Source\PSoC5/PWM_Trigger.c ****         void PWM_Trigger_SetCompareMode1(uint8 comparemode) 
 327:Generated_Source\PSoC5/PWM_Trigger.c ****         {
 328:Generated_Source\PSoC5/PWM_Trigger.c ****             #if(0 != PWM_Trigger_CTRL_CMPMODE1_SHIFT)
 329:Generated_Source\PSoC5/PWM_Trigger.c ****                 uint8 comparemodemasked = ((uint8)((uint8)comparemode << PWM_Trigger_CTRL_CMPMODE1_
 330:Generated_Source\PSoC5/PWM_Trigger.c ****                                            PWM_Trigger_CTRL_CMPMODE1_MASK;
 331:Generated_Source\PSoC5/PWM_Trigger.c ****             #else
 332:Generated_Source\PSoC5/PWM_Trigger.c ****                 uint8 comparemodemasked = comparemode & PWM_Trigger_CTRL_CMPMODE1_MASK;
 333:Generated_Source\PSoC5/PWM_Trigger.c ****             #endif /* (0 != PWM_Trigger_CTRL_CMPMODE1_SHIFT) */
 334:Generated_Source\PSoC5/PWM_Trigger.c **** 
 335:Generated_Source\PSoC5/PWM_Trigger.c ****             #if (PWM_Trigger_UseControl)
 336:Generated_Source\PSoC5/PWM_Trigger.c ****                 PWM_Trigger_CONTROL &= ((uint8)(~PWM_Trigger_CTRL_CMPMODE1_MASK)); /*Clear existing
 337:Generated_Source\PSoC5/PWM_Trigger.c ****                 PWM_Trigger_CONTROL |= comparemodemasked;
 338:Generated_Source\PSoC5/PWM_Trigger.c ****             #endif /* (PWM_Trigger_UseControl) */
 339:Generated_Source\PSoC5/PWM_Trigger.c ****         }
 340:Generated_Source\PSoC5/PWM_Trigger.c ****     #endif /* PWM_Trigger_CompareMode1SW */
 341:Generated_Source\PSoC5/PWM_Trigger.c **** 
 342:Generated_Source\PSoC5/PWM_Trigger.c **** #if (PWM_Trigger_CompareMode2SW)
 343:Generated_Source\PSoC5/PWM_Trigger.c **** 
 344:Generated_Source\PSoC5/PWM_Trigger.c **** 
 345:Generated_Source\PSoC5/PWM_Trigger.c ****     /*******************************************************************************
 346:Generated_Source\PSoC5/PWM_Trigger.c ****     * Function Name: PWM_Trigger_SetCompareMode2
 347:Generated_Source\PSoC5/PWM_Trigger.c ****     ********************************************************************************
ARM GAS  C:\Users\jmspi\AppData\Local\Temp\ccXKD8XC.s 			page 8


 348:Generated_Source\PSoC5/PWM_Trigger.c ****     *
 349:Generated_Source\PSoC5/PWM_Trigger.c ****     * Summary:
 350:Generated_Source\PSoC5/PWM_Trigger.c ****     *  This function writes the Compare Mode for the pwm or pwm2 output
 351:Generated_Source\PSoC5/PWM_Trigger.c ****     *
 352:Generated_Source\PSoC5/PWM_Trigger.c ****     * Parameters:
 353:Generated_Source\PSoC5/PWM_Trigger.c ****     *  comparemode:  The new compare mode for the PWM output. Use the compare types
 354:Generated_Source\PSoC5/PWM_Trigger.c ****     *                defined in the H file as input arguments.
 355:Generated_Source\PSoC5/PWM_Trigger.c ****     *
 356:Generated_Source\PSoC5/PWM_Trigger.c ****     * Return:
 357:Generated_Source\PSoC5/PWM_Trigger.c ****     *  None
 358:Generated_Source\PSoC5/PWM_Trigger.c ****     *
 359:Generated_Source\PSoC5/PWM_Trigger.c ****     *******************************************************************************/
 360:Generated_Source\PSoC5/PWM_Trigger.c ****     void PWM_Trigger_SetCompareMode2(uint8 comparemode) 
 361:Generated_Source\PSoC5/PWM_Trigger.c ****     {
 362:Generated_Source\PSoC5/PWM_Trigger.c **** 
 363:Generated_Source\PSoC5/PWM_Trigger.c ****         #if(0 != PWM_Trigger_CTRL_CMPMODE2_SHIFT)
 364:Generated_Source\PSoC5/PWM_Trigger.c ****             uint8 comparemodemasked = ((uint8)((uint8)comparemode << PWM_Trigger_CTRL_CMPMODE2_SHIF
 365:Generated_Source\PSoC5/PWM_Trigger.c ****                                                  PWM_Trigger_CTRL_CMPMODE2_MASK;
 366:Generated_Source\PSoC5/PWM_Trigger.c ****         #else
 367:Generated_Source\PSoC5/PWM_Trigger.c ****             uint8 comparemodemasked = comparemode & PWM_Trigger_CTRL_CMPMODE2_MASK;
 368:Generated_Source\PSoC5/PWM_Trigger.c ****         #endif /* (0 != PWM_Trigger_CTRL_CMPMODE2_SHIFT) */
 369:Generated_Source\PSoC5/PWM_Trigger.c **** 
 370:Generated_Source\PSoC5/PWM_Trigger.c ****         #if (PWM_Trigger_UseControl)
 371:Generated_Source\PSoC5/PWM_Trigger.c ****             PWM_Trigger_CONTROL &= ((uint8)(~PWM_Trigger_CTRL_CMPMODE2_MASK)); /*Clear existing mod
 372:Generated_Source\PSoC5/PWM_Trigger.c ****             PWM_Trigger_CONTROL |= comparemodemasked;
 373:Generated_Source\PSoC5/PWM_Trigger.c ****         #endif /* (PWM_Trigger_UseControl) */
 374:Generated_Source\PSoC5/PWM_Trigger.c ****     }
 375:Generated_Source\PSoC5/PWM_Trigger.c ****     #endif /*PWM_Trigger_CompareMode2SW */
 376:Generated_Source\PSoC5/PWM_Trigger.c **** 
 377:Generated_Source\PSoC5/PWM_Trigger.c **** #endif /* UseOneCompareMode */
 378:Generated_Source\PSoC5/PWM_Trigger.c **** 
 379:Generated_Source\PSoC5/PWM_Trigger.c **** 
 380:Generated_Source\PSoC5/PWM_Trigger.c **** #if (!PWM_Trigger_UsingFixedFunction)
 381:Generated_Source\PSoC5/PWM_Trigger.c **** 
 382:Generated_Source\PSoC5/PWM_Trigger.c **** 
 383:Generated_Source\PSoC5/PWM_Trigger.c ****     /*******************************************************************************
 384:Generated_Source\PSoC5/PWM_Trigger.c ****     * Function Name: PWM_Trigger_WriteCounter
 385:Generated_Source\PSoC5/PWM_Trigger.c ****     ********************************************************************************
 386:Generated_Source\PSoC5/PWM_Trigger.c ****     *
 387:Generated_Source\PSoC5/PWM_Trigger.c ****     * Summary:
 388:Generated_Source\PSoC5/PWM_Trigger.c ****     *  Writes a new counter value directly to the counter register. This will be
 389:Generated_Source\PSoC5/PWM_Trigger.c ****     *  implemented for that currently running period and only that period. This API
 390:Generated_Source\PSoC5/PWM_Trigger.c ****     *  is valid only for UDB implementation and not available for fixed function
 391:Generated_Source\PSoC5/PWM_Trigger.c ****     *  PWM implementation.
 392:Generated_Source\PSoC5/PWM_Trigger.c ****     *
 393:Generated_Source\PSoC5/PWM_Trigger.c ****     * Parameters:
 394:Generated_Source\PSoC5/PWM_Trigger.c ****     *  counter:  The period new period counter value.
 395:Generated_Source\PSoC5/PWM_Trigger.c ****     *
 396:Generated_Source\PSoC5/PWM_Trigger.c ****     * Return:
 397:Generated_Source\PSoC5/PWM_Trigger.c ****     *  None
 398:Generated_Source\PSoC5/PWM_Trigger.c ****     *
 399:Generated_Source\PSoC5/PWM_Trigger.c ****     * Side Effects:
 400:Generated_Source\PSoC5/PWM_Trigger.c ****     *  The PWM Period will be reloaded when a counter value will be a zero
 401:Generated_Source\PSoC5/PWM_Trigger.c ****     *
 402:Generated_Source\PSoC5/PWM_Trigger.c ****     *******************************************************************************/
 403:Generated_Source\PSoC5/PWM_Trigger.c ****     void PWM_Trigger_WriteCounter(uint16 counter) \
 404:Generated_Source\PSoC5/PWM_Trigger.c ****                                        
ARM GAS  C:\Users\jmspi\AppData\Local\Temp\ccXKD8XC.s 			page 9


 405:Generated_Source\PSoC5/PWM_Trigger.c ****     {
 406:Generated_Source\PSoC5/PWM_Trigger.c ****         CY_SET_REG16(PWM_Trigger_COUNTER_LSB_PTR, counter);
  53              		.loc 1 406 0
  54 0026 4FF47A73 		mov	r3, #1000
  55 002a A2F8A235 		strh	r3, [r2, #1442]	@ movhi
  56              	.LVL3:
  57              	.LBE9:
  58              	.LBE8:
  59              	.LBB10:
  60              	.LBB11:
 407:Generated_Source\PSoC5/PWM_Trigger.c ****     }
 408:Generated_Source\PSoC5/PWM_Trigger.c **** 
 409:Generated_Source\PSoC5/PWM_Trigger.c **** 
 410:Generated_Source\PSoC5/PWM_Trigger.c ****     /*******************************************************************************
 411:Generated_Source\PSoC5/PWM_Trigger.c ****     * Function Name: PWM_Trigger_ReadCounter
 412:Generated_Source\PSoC5/PWM_Trigger.c ****     ********************************************************************************
 413:Generated_Source\PSoC5/PWM_Trigger.c ****     *
 414:Generated_Source\PSoC5/PWM_Trigger.c ****     * Summary:
 415:Generated_Source\PSoC5/PWM_Trigger.c ****     *  This function returns the current value of the counter.  It doesn't matter
 416:Generated_Source\PSoC5/PWM_Trigger.c ****     *  if the counter is enabled or running.
 417:Generated_Source\PSoC5/PWM_Trigger.c ****     *
 418:Generated_Source\PSoC5/PWM_Trigger.c ****     * Parameters:
 419:Generated_Source\PSoC5/PWM_Trigger.c ****     *  None
 420:Generated_Source\PSoC5/PWM_Trigger.c ****     *
 421:Generated_Source\PSoC5/PWM_Trigger.c ****     * Return:
 422:Generated_Source\PSoC5/PWM_Trigger.c ****     *  The current value of the counter.
 423:Generated_Source\PSoC5/PWM_Trigger.c ****     *
 424:Generated_Source\PSoC5/PWM_Trigger.c ****     *******************************************************************************/
 425:Generated_Source\PSoC5/PWM_Trigger.c ****     uint16 PWM_Trigger_ReadCounter(void) 
 426:Generated_Source\PSoC5/PWM_Trigger.c ****     {
 427:Generated_Source\PSoC5/PWM_Trigger.c ****         /* Force capture by reading Accumulator */
 428:Generated_Source\PSoC5/PWM_Trigger.c ****         /* Must first do a software capture to be able to read the counter */
 429:Generated_Source\PSoC5/PWM_Trigger.c ****         /* It is up to the user code to make sure there isn't already captured data in the FIFO */
 430:Generated_Source\PSoC5/PWM_Trigger.c ****           (void)CY_GET_REG8(PWM_Trigger_COUNTERCAP_LSB_PTR_8BIT);
 431:Generated_Source\PSoC5/PWM_Trigger.c **** 
 432:Generated_Source\PSoC5/PWM_Trigger.c ****         /* Read the data from the FIFO */
 433:Generated_Source\PSoC5/PWM_Trigger.c ****         return (CY_GET_REG16(PWM_Trigger_CAPTURE_LSB_PTR));
 434:Generated_Source\PSoC5/PWM_Trigger.c ****     }
 435:Generated_Source\PSoC5/PWM_Trigger.c **** 
 436:Generated_Source\PSoC5/PWM_Trigger.c ****     #if (PWM_Trigger_UseStatus)
 437:Generated_Source\PSoC5/PWM_Trigger.c **** 
 438:Generated_Source\PSoC5/PWM_Trigger.c **** 
 439:Generated_Source\PSoC5/PWM_Trigger.c ****         /*******************************************************************************
 440:Generated_Source\PSoC5/PWM_Trigger.c ****         * Function Name: PWM_Trigger_ClearFIFO
 441:Generated_Source\PSoC5/PWM_Trigger.c ****         ********************************************************************************
 442:Generated_Source\PSoC5/PWM_Trigger.c ****         *
 443:Generated_Source\PSoC5/PWM_Trigger.c ****         * Summary:
 444:Generated_Source\PSoC5/PWM_Trigger.c ****         *  This function clears all capture data from the capture FIFO
 445:Generated_Source\PSoC5/PWM_Trigger.c ****         *
 446:Generated_Source\PSoC5/PWM_Trigger.c ****         * Parameters:
 447:Generated_Source\PSoC5/PWM_Trigger.c ****         *  None
 448:Generated_Source\PSoC5/PWM_Trigger.c ****         *
 449:Generated_Source\PSoC5/PWM_Trigger.c ****         * Return:
 450:Generated_Source\PSoC5/PWM_Trigger.c ****         *  None
 451:Generated_Source\PSoC5/PWM_Trigger.c ****         *
 452:Generated_Source\PSoC5/PWM_Trigger.c ****         *******************************************************************************/
 453:Generated_Source\PSoC5/PWM_Trigger.c ****         void PWM_Trigger_ClearFIFO(void) 
ARM GAS  C:\Users\jmspi\AppData\Local\Temp\ccXKD8XC.s 			page 10


 454:Generated_Source\PSoC5/PWM_Trigger.c ****         {
 455:Generated_Source\PSoC5/PWM_Trigger.c ****             while(0u != (PWM_Trigger_ReadStatusRegister() & PWM_Trigger_STATUS_FIFONEMPTY))
 456:Generated_Source\PSoC5/PWM_Trigger.c ****             {
 457:Generated_Source\PSoC5/PWM_Trigger.c ****                 (void)PWM_Trigger_ReadCapture();
 458:Generated_Source\PSoC5/PWM_Trigger.c ****             }
 459:Generated_Source\PSoC5/PWM_Trigger.c ****         }
 460:Generated_Source\PSoC5/PWM_Trigger.c **** 
 461:Generated_Source\PSoC5/PWM_Trigger.c ****     #endif /* PWM_Trigger_UseStatus */
 462:Generated_Source\PSoC5/PWM_Trigger.c **** 
 463:Generated_Source\PSoC5/PWM_Trigger.c **** #endif /* !PWM_Trigger_UsingFixedFunction */
 464:Generated_Source\PSoC5/PWM_Trigger.c **** 
 465:Generated_Source\PSoC5/PWM_Trigger.c **** 
 466:Generated_Source\PSoC5/PWM_Trigger.c **** /*******************************************************************************
 467:Generated_Source\PSoC5/PWM_Trigger.c **** * Function Name: PWM_Trigger_WritePeriod
 468:Generated_Source\PSoC5/PWM_Trigger.c **** ********************************************************************************
 469:Generated_Source\PSoC5/PWM_Trigger.c **** *
 470:Generated_Source\PSoC5/PWM_Trigger.c **** * Summary:
 471:Generated_Source\PSoC5/PWM_Trigger.c **** *  This function is used to change the period of the counter.  The new period
 472:Generated_Source\PSoC5/PWM_Trigger.c **** *  will be loaded the next time terminal count is detected.
 473:Generated_Source\PSoC5/PWM_Trigger.c **** *
 474:Generated_Source\PSoC5/PWM_Trigger.c **** * Parameters:
 475:Generated_Source\PSoC5/PWM_Trigger.c **** *  period:  Period value. May be between 1 and (2^Resolution)-1.  A value of 0
 476:Generated_Source\PSoC5/PWM_Trigger.c **** *           will result in the counter remaining at zero.
 477:Generated_Source\PSoC5/PWM_Trigger.c **** *
 478:Generated_Source\PSoC5/PWM_Trigger.c **** * Return:
 479:Generated_Source\PSoC5/PWM_Trigger.c **** *  None
 480:Generated_Source\PSoC5/PWM_Trigger.c **** *
 481:Generated_Source\PSoC5/PWM_Trigger.c **** *******************************************************************************/
 482:Generated_Source\PSoC5/PWM_Trigger.c **** void PWM_Trigger_WritePeriod(uint16 period) 
 483:Generated_Source\PSoC5/PWM_Trigger.c **** {
 484:Generated_Source\PSoC5/PWM_Trigger.c ****     #if(PWM_Trigger_UsingFixedFunction)
 485:Generated_Source\PSoC5/PWM_Trigger.c ****         CY_SET_REG16(PWM_Trigger_PERIOD_LSB_PTR, (uint16)period);
 486:Generated_Source\PSoC5/PWM_Trigger.c ****     #else
 487:Generated_Source\PSoC5/PWM_Trigger.c ****         CY_SET_REG16(PWM_Trigger_PERIOD_LSB_PTR, period);
  61              		.loc 1 487 0
  62 002e A2F82236 		strh	r3, [r2, #1570]	@ movhi
  63              	.LVL4:
  64              	.LBE11:
  65              	.LBE10:
  66              	.LBB12:
  67              	.LBB13:
 488:Generated_Source\PSoC5/PWM_Trigger.c ****     #endif /* (PWM_Trigger_UsingFixedFunction) */
 489:Generated_Source\PSoC5/PWM_Trigger.c **** }
 490:Generated_Source\PSoC5/PWM_Trigger.c **** 
 491:Generated_Source\PSoC5/PWM_Trigger.c **** #if (PWM_Trigger_UseOneCompareMode)
 492:Generated_Source\PSoC5/PWM_Trigger.c **** 
 493:Generated_Source\PSoC5/PWM_Trigger.c **** 
 494:Generated_Source\PSoC5/PWM_Trigger.c ****     /*******************************************************************************
 495:Generated_Source\PSoC5/PWM_Trigger.c ****     * Function Name: PWM_Trigger_WriteCompare
 496:Generated_Source\PSoC5/PWM_Trigger.c ****     ********************************************************************************
 497:Generated_Source\PSoC5/PWM_Trigger.c ****     *
 498:Generated_Source\PSoC5/PWM_Trigger.c ****     * Summary:
 499:Generated_Source\PSoC5/PWM_Trigger.c ****     *  This funtion is used to change the compare1 value when the PWM is in Dither
 500:Generated_Source\PSoC5/PWM_Trigger.c ****     *  mode. The compare output will reflect the new value on the next UDB clock.
 501:Generated_Source\PSoC5/PWM_Trigger.c ****     *  The compare output will be driven high when the present counter value is
 502:Generated_Source\PSoC5/PWM_Trigger.c ****     *  compared to the compare value based on the compare mode defined in
 503:Generated_Source\PSoC5/PWM_Trigger.c ****     *  Dither Mode.
ARM GAS  C:\Users\jmspi\AppData\Local\Temp\ccXKD8XC.s 			page 11


 504:Generated_Source\PSoC5/PWM_Trigger.c ****     *
 505:Generated_Source\PSoC5/PWM_Trigger.c ****     * Parameters:
 506:Generated_Source\PSoC5/PWM_Trigger.c ****     *  compare:  New compare value.
 507:Generated_Source\PSoC5/PWM_Trigger.c ****     *
 508:Generated_Source\PSoC5/PWM_Trigger.c ****     * Return:
 509:Generated_Source\PSoC5/PWM_Trigger.c ****     *  None
 510:Generated_Source\PSoC5/PWM_Trigger.c ****     *
 511:Generated_Source\PSoC5/PWM_Trigger.c ****     * Side Effects:
 512:Generated_Source\PSoC5/PWM_Trigger.c ****     *  This function is only available if the PWM mode parameter is set to
 513:Generated_Source\PSoC5/PWM_Trigger.c ****     *  Dither Mode, Center Aligned Mode or One Output Mode
 514:Generated_Source\PSoC5/PWM_Trigger.c ****     *
 515:Generated_Source\PSoC5/PWM_Trigger.c ****     *******************************************************************************/
 516:Generated_Source\PSoC5/PWM_Trigger.c ****     void PWM_Trigger_WriteCompare(uint16 compare) \
 517:Generated_Source\PSoC5/PWM_Trigger.c ****                                        
 518:Generated_Source\PSoC5/PWM_Trigger.c ****     {
 519:Generated_Source\PSoC5/PWM_Trigger.c ****         #if(PWM_Trigger_UsingFixedFunction)
 520:Generated_Source\PSoC5/PWM_Trigger.c ****             CY_SET_REG16(PWM_Trigger_COMPARE1_LSB_PTR, (uint16)compare);
 521:Generated_Source\PSoC5/PWM_Trigger.c ****         #else
 522:Generated_Source\PSoC5/PWM_Trigger.c ****             CY_SET_REG16(PWM_Trigger_COMPARE1_LSB_PTR, compare);
  68              		.loc 1 522 0
  69 0032 034B     		ldr	r3, .L2+4
  70 0034 0122     		movs	r2, #1
  71 0036 1A80     		strh	r2, [r3]	@ movhi
  72              	.LVL5:
  73 0038 7047     		bx	lr
  74              	.L3:
  75 003a 00BF     		.align	2
  76              	.L2:
  77 003c 72640040 		.word	1073767538
  78 0040 546A0040 		.word	1073769044
  79              	.LBE13:
  80              	.LBE12:
  81              		.cfi_endproc
  82              	.LFE1:
  83              		.size	PWM_Trigger_Init, .-PWM_Trigger_Init
  84              		.section	.text.PWM_Trigger_Enable,"ax",%progbits
  85              		.align	1
  86              		.global	PWM_Trigger_Enable
  87              		.thumb
  88              		.thumb_func
  89              		.type	PWM_Trigger_Enable, %function
  90              	PWM_Trigger_Enable:
  91              	.LFB2:
 200:Generated_Source\PSoC5/PWM_Trigger.c ****     /* Globally Enable the Fixed Function Block chosen */
  92              		.loc 1 200 0
  93              		.cfi_startproc
  94              		@ args = 0, pretend = 0, frame = 0
  95              		@ frame_needed = 0, uses_anonymous_args = 0
  96              		@ link register save eliminated.
 209:Generated_Source\PSoC5/PWM_Trigger.c ****     #endif /* (PWM_Trigger_UseControl || PWM_Trigger_UsingFixedFunction) */
  97              		.loc 1 209 0
  98 0000 024A     		ldr	r2, .L5
  99 0002 1378     		ldrb	r3, [r2]	@ zero_extendqisi2
 100 0004 43F08003 		orr	r3, r3, #128
 101 0008 1370     		strb	r3, [r2]
 102 000a 7047     		bx	lr
 103              	.L6:
ARM GAS  C:\Users\jmspi\AppData\Local\Temp\ccXKD8XC.s 			page 12


 104              		.align	2
 105              	.L5:
 106 000c 72640040 		.word	1073767538
 107              		.cfi_endproc
 108              	.LFE2:
 109              		.size	PWM_Trigger_Enable, .-PWM_Trigger_Enable
 110              		.section	.text.PWM_Trigger_Start,"ax",%progbits
 111              		.align	1
 112              		.global	PWM_Trigger_Start
 113              		.thumb
 114              		.thumb_func
 115              		.type	PWM_Trigger_Start, %function
 116              	PWM_Trigger_Start:
 117              	.LFB0:
  56:Generated_Source\PSoC5/PWM_Trigger.c ****     /* If not Initialized then initialize all required hardware and software */
 118              		.loc 1 56 0
 119              		.cfi_startproc
 120              		@ args = 0, pretend = 0, frame = 0
 121              		@ frame_needed = 0, uses_anonymous_args = 0
 122 0000 08B5     		push	{r3, lr}
 123              		.cfi_def_cfa_offset 8
 124              		.cfi_offset 3, -8
 125              		.cfi_offset 14, -4
  58:Generated_Source\PSoC5/PWM_Trigger.c ****     {
 126              		.loc 1 58 0
 127 0002 0549     		ldr	r1, .L10
 128 0004 0B78     		ldrb	r3, [r1]	@ zero_extendqisi2
 129 0006 1BB9     		cbnz	r3, .L8
  60:Generated_Source\PSoC5/PWM_Trigger.c ****         PWM_Trigger_initVar = 1u;
 130              		.loc 1 60 0
 131 0008 FFF7FEFF 		bl	PWM_Trigger_Init
 132              	.LVL6:
  61:Generated_Source\PSoC5/PWM_Trigger.c ****     }
 133              		.loc 1 61 0
 134 000c 0123     		movs	r3, #1
 135 000e 0B70     		strb	r3, [r1]
 136              	.L8:
  65:Generated_Source\PSoC5/PWM_Trigger.c **** 
 137              		.loc 1 65 0
 138 0010 BDE80840 		pop	{r3, lr}
 139              		.cfi_restore 14
 140              		.cfi_restore 3
 141              		.cfi_def_cfa_offset 0
  63:Generated_Source\PSoC5/PWM_Trigger.c **** 
 142              		.loc 1 63 0
 143 0014 FFF7FEBF 		b	PWM_Trigger_Enable
 144              	.LVL7:
 145              	.L11:
 146              		.align	2
 147              	.L10:
 148 0018 00000000 		.word	.LANCHOR0
 149              		.cfi_endproc
 150              	.LFE0:
 151              		.size	PWM_Trigger_Start, .-PWM_Trigger_Start
 152              		.section	.text.PWM_Trigger_Stop,"ax",%progbits
 153              		.align	1
 154              		.global	PWM_Trigger_Stop
ARM GAS  C:\Users\jmspi\AppData\Local\Temp\ccXKD8XC.s 			page 13


 155              		.thumb
 156              		.thumb_func
 157              		.type	PWM_Trigger_Stop, %function
 158              	PWM_Trigger_Stop:
 159              	.LFB3:
 234:Generated_Source\PSoC5/PWM_Trigger.c ****     #if (PWM_Trigger_UseControl || PWM_Trigger_UsingFixedFunction)
 160              		.loc 1 234 0
 161              		.cfi_startproc
 162              		@ args = 0, pretend = 0, frame = 0
 163              		@ frame_needed = 0, uses_anonymous_args = 0
 164              		@ link register save eliminated.
 236:Generated_Source\PSoC5/PWM_Trigger.c ****     #endif /* (PWM_Trigger_UseControl || PWM_Trigger_UsingFixedFunction) */
 165              		.loc 1 236 0
 166 0000 024A     		ldr	r2, .L13
 167 0002 1378     		ldrb	r3, [r2]	@ zero_extendqisi2
 168 0004 03F07F03 		and	r3, r3, #127
 169 0008 1370     		strb	r3, [r2]
 170 000a 7047     		bx	lr
 171              	.L14:
 172              		.align	2
 173              	.L13:
 174 000c 72640040 		.word	1073767538
 175              		.cfi_endproc
 176              	.LFE3:
 177              		.size	PWM_Trigger_Stop, .-PWM_Trigger_Stop
 178              		.section	.text.PWM_Trigger_WriteCounter,"ax",%progbits
 179              		.align	1
 180              		.global	PWM_Trigger_WriteCounter
 181              		.thumb
 182              		.thumb_func
 183              		.type	PWM_Trigger_WriteCounter, %function
 184              	PWM_Trigger_WriteCounter:
 185              	.LFB4:
 405:Generated_Source\PSoC5/PWM_Trigger.c ****         CY_SET_REG16(PWM_Trigger_COUNTER_LSB_PTR, counter);
 186              		.loc 1 405 0
 187              		.cfi_startproc
 188              		@ args = 0, pretend = 0, frame = 0
 189              		@ frame_needed = 0, uses_anonymous_args = 0
 190              		@ link register save eliminated.
 191              	.LVL8:
 406:Generated_Source\PSoC5/PWM_Trigger.c ****     }
 192              		.loc 1 406 0
 193 0000 014B     		ldr	r3, .L16
 194 0002 1880     		strh	r0, [r3]	@ movhi
 195 0004 7047     		bx	lr
 196              	.L17:
 197 0006 00BF     		.align	2
 198              	.L16:
 199 0008 146A0040 		.word	1073768980
 200              		.cfi_endproc
 201              	.LFE4:
 202              		.size	PWM_Trigger_WriteCounter, .-PWM_Trigger_WriteCounter
 203              		.section	.text.PWM_Trigger_ReadCounter,"ax",%progbits
 204              		.align	1
 205              		.global	PWM_Trigger_ReadCounter
 206              		.thumb
 207              		.thumb_func
ARM GAS  C:\Users\jmspi\AppData\Local\Temp\ccXKD8XC.s 			page 14


 208              		.type	PWM_Trigger_ReadCounter, %function
 209              	PWM_Trigger_ReadCounter:
 210              	.LFB5:
 426:Generated_Source\PSoC5/PWM_Trigger.c ****         /* Force capture by reading Accumulator */
 211              		.loc 1 426 0
 212              		.cfi_startproc
 213              		@ args = 0, pretend = 0, frame = 0
 214              		@ frame_needed = 0, uses_anonymous_args = 0
 215              		@ link register save eliminated.
 430:Generated_Source\PSoC5/PWM_Trigger.c **** 
 216              		.loc 1 430 0
 217 0000 024B     		ldr	r3, .L19
 218 0002 1B78     		ldrb	r3, [r3]	@ zero_extendqisi2
 433:Generated_Source\PSoC5/PWM_Trigger.c ****     }
 219              		.loc 1 433 0
 220 0004 024B     		ldr	r3, .L19+4
 221 0006 1888     		ldrh	r0, [r3]
 434:Generated_Source\PSoC5/PWM_Trigger.c **** 
 222              		.loc 1 434 0
 223 0008 80B2     		uxth	r0, r0
 224 000a 7047     		bx	lr
 225              	.L20:
 226              		.align	2
 227              	.L19:
 228 000c 1A650040 		.word	1073767706
 229 0010 B46A0040 		.word	1073769140
 230              		.cfi_endproc
 231              	.LFE5:
 232              		.size	PWM_Trigger_ReadCounter, .-PWM_Trigger_ReadCounter
 233              		.section	.text.PWM_Trigger_WritePeriod,"ax",%progbits
 234              		.align	1
 235              		.global	PWM_Trigger_WritePeriod
 236              		.thumb
 237              		.thumb_func
 238              		.type	PWM_Trigger_WritePeriod, %function
 239              	PWM_Trigger_WritePeriod:
 240              	.LFB6:
 483:Generated_Source\PSoC5/PWM_Trigger.c ****     #if(PWM_Trigger_UsingFixedFunction)
 241              		.loc 1 483 0
 242              		.cfi_startproc
 243              		@ args = 0, pretend = 0, frame = 0
 244              		@ frame_needed = 0, uses_anonymous_args = 0
 245              		@ link register save eliminated.
 246              	.LVL9:
 487:Generated_Source\PSoC5/PWM_Trigger.c ****     #endif /* (PWM_Trigger_UsingFixedFunction) */
 247              		.loc 1 487 0
 248 0000 014B     		ldr	r3, .L22
 249 0002 1880     		strh	r0, [r3]	@ movhi
 250 0004 7047     		bx	lr
 251              	.L23:
 252 0006 00BF     		.align	2
 253              	.L22:
 254 0008 946A0040 		.word	1073769108
 255              		.cfi_endproc
 256              	.LFE6:
 257              		.size	PWM_Trigger_WritePeriod, .-PWM_Trigger_WritePeriod
 258              		.section	.text.PWM_Trigger_WriteCompare,"ax",%progbits
ARM GAS  C:\Users\jmspi\AppData\Local\Temp\ccXKD8XC.s 			page 15


 259              		.align	1
 260              		.global	PWM_Trigger_WriteCompare
 261              		.thumb
 262              		.thumb_func
 263              		.type	PWM_Trigger_WriteCompare, %function
 264              	PWM_Trigger_WriteCompare:
 265              	.LFB7:
 518:Generated_Source\PSoC5/PWM_Trigger.c ****         #if(PWM_Trigger_UsingFixedFunction)
 266              		.loc 1 518 0
 267              		.cfi_startproc
 268              		@ args = 0, pretend = 0, frame = 0
 269              		@ frame_needed = 0, uses_anonymous_args = 0
 270              		@ link register save eliminated.
 271              	.LVL10:
 272              		.loc 1 522 0
 273 0000 014B     		ldr	r3, .L25
 274 0002 1880     		strh	r0, [r3]	@ movhi
 275 0004 7047     		bx	lr
 276              	.L26:
 277 0006 00BF     		.align	2
 278              	.L25:
 279 0008 546A0040 		.word	1073769044
 280              		.cfi_endproc
 281              	.LFE7:
 282              		.size	PWM_Trigger_WriteCompare, .-PWM_Trigger_WriteCompare
 283              		.section	.text.PWM_Trigger_ReadControlRegister,"ax",%progbits
 284              		.align	1
 285              		.global	PWM_Trigger_ReadControlRegister
 286              		.thumb
 287              		.thumb_func
 288              		.type	PWM_Trigger_ReadControlRegister, %function
 289              	PWM_Trigger_ReadControlRegister:
 290              	.LFB8:
 523:Generated_Source\PSoC5/PWM_Trigger.c ****         #endif /* (PWM_Trigger_UsingFixedFunction) */
 524:Generated_Source\PSoC5/PWM_Trigger.c **** 
 525:Generated_Source\PSoC5/PWM_Trigger.c ****         #if (PWM_Trigger_PWMMode == PWM_Trigger__B_PWM__DITHER)
 526:Generated_Source\PSoC5/PWM_Trigger.c ****             #if(PWM_Trigger_UsingFixedFunction)
 527:Generated_Source\PSoC5/PWM_Trigger.c ****                 CY_SET_REG16(PWM_Trigger_COMPARE2_LSB_PTR, (uint16)(compare + 1u));
 528:Generated_Source\PSoC5/PWM_Trigger.c ****             #else
 529:Generated_Source\PSoC5/PWM_Trigger.c ****                 CY_SET_REG16(PWM_Trigger_COMPARE2_LSB_PTR, (compare + 1u));
 530:Generated_Source\PSoC5/PWM_Trigger.c ****             #endif /* (PWM_Trigger_UsingFixedFunction) */
 531:Generated_Source\PSoC5/PWM_Trigger.c ****         #endif /* (PWM_Trigger_PWMMode == PWM_Trigger__B_PWM__DITHER) */
 532:Generated_Source\PSoC5/PWM_Trigger.c ****     }
 533:Generated_Source\PSoC5/PWM_Trigger.c **** 
 534:Generated_Source\PSoC5/PWM_Trigger.c **** 
 535:Generated_Source\PSoC5/PWM_Trigger.c **** #else
 536:Generated_Source\PSoC5/PWM_Trigger.c **** 
 537:Generated_Source\PSoC5/PWM_Trigger.c **** 
 538:Generated_Source\PSoC5/PWM_Trigger.c ****     /*******************************************************************************
 539:Generated_Source\PSoC5/PWM_Trigger.c ****     * Function Name: PWM_Trigger_WriteCompare1
 540:Generated_Source\PSoC5/PWM_Trigger.c ****     ********************************************************************************
 541:Generated_Source\PSoC5/PWM_Trigger.c ****     *
 542:Generated_Source\PSoC5/PWM_Trigger.c ****     * Summary:
 543:Generated_Source\PSoC5/PWM_Trigger.c ****     *  This funtion is used to change the compare1 value.  The compare output will
 544:Generated_Source\PSoC5/PWM_Trigger.c ****     *  reflect the new value on the next UDB clock.  The compare output will be
 545:Generated_Source\PSoC5/PWM_Trigger.c ****     *  driven high when the present counter value is less than or less than or
 546:Generated_Source\PSoC5/PWM_Trigger.c ****     *  equal to the compare register, depending on the mode.
ARM GAS  C:\Users\jmspi\AppData\Local\Temp\ccXKD8XC.s 			page 16


 547:Generated_Source\PSoC5/PWM_Trigger.c ****     *
 548:Generated_Source\PSoC5/PWM_Trigger.c ****     * Parameters:
 549:Generated_Source\PSoC5/PWM_Trigger.c ****     *  compare:  New compare value.
 550:Generated_Source\PSoC5/PWM_Trigger.c ****     *
 551:Generated_Source\PSoC5/PWM_Trigger.c ****     * Return:
 552:Generated_Source\PSoC5/PWM_Trigger.c ****     *  None
 553:Generated_Source\PSoC5/PWM_Trigger.c ****     *
 554:Generated_Source\PSoC5/PWM_Trigger.c ****     *******************************************************************************/
 555:Generated_Source\PSoC5/PWM_Trigger.c ****     void PWM_Trigger_WriteCompare1(uint16 compare) \
 556:Generated_Source\PSoC5/PWM_Trigger.c ****                                         
 557:Generated_Source\PSoC5/PWM_Trigger.c ****     {
 558:Generated_Source\PSoC5/PWM_Trigger.c ****         #if(PWM_Trigger_UsingFixedFunction)
 559:Generated_Source\PSoC5/PWM_Trigger.c ****             CY_SET_REG16(PWM_Trigger_COMPARE1_LSB_PTR, (uint16)compare);
 560:Generated_Source\PSoC5/PWM_Trigger.c ****         #else
 561:Generated_Source\PSoC5/PWM_Trigger.c ****             CY_SET_REG16(PWM_Trigger_COMPARE1_LSB_PTR, compare);
 562:Generated_Source\PSoC5/PWM_Trigger.c ****         #endif /* (PWM_Trigger_UsingFixedFunction) */
 563:Generated_Source\PSoC5/PWM_Trigger.c ****     }
 564:Generated_Source\PSoC5/PWM_Trigger.c **** 
 565:Generated_Source\PSoC5/PWM_Trigger.c **** 
 566:Generated_Source\PSoC5/PWM_Trigger.c ****     /*******************************************************************************
 567:Generated_Source\PSoC5/PWM_Trigger.c ****     * Function Name: PWM_Trigger_WriteCompare2
 568:Generated_Source\PSoC5/PWM_Trigger.c ****     ********************************************************************************
 569:Generated_Source\PSoC5/PWM_Trigger.c ****     *
 570:Generated_Source\PSoC5/PWM_Trigger.c ****     * Summary:
 571:Generated_Source\PSoC5/PWM_Trigger.c ****     *  This funtion is used to change the compare value, for compare1 output.
 572:Generated_Source\PSoC5/PWM_Trigger.c ****     *  The compare output will reflect the new value on the next UDB clock.
 573:Generated_Source\PSoC5/PWM_Trigger.c ****     *  The compare output will be driven high when the present counter value is
 574:Generated_Source\PSoC5/PWM_Trigger.c ****     *  less than or less than or equal to the compare register, depending on the
 575:Generated_Source\PSoC5/PWM_Trigger.c ****     *  mode.
 576:Generated_Source\PSoC5/PWM_Trigger.c ****     *
 577:Generated_Source\PSoC5/PWM_Trigger.c ****     * Parameters:
 578:Generated_Source\PSoC5/PWM_Trigger.c ****     *  compare:  New compare value.
 579:Generated_Source\PSoC5/PWM_Trigger.c ****     *
 580:Generated_Source\PSoC5/PWM_Trigger.c ****     * Return:
 581:Generated_Source\PSoC5/PWM_Trigger.c ****     *  None
 582:Generated_Source\PSoC5/PWM_Trigger.c ****     *
 583:Generated_Source\PSoC5/PWM_Trigger.c ****     *******************************************************************************/
 584:Generated_Source\PSoC5/PWM_Trigger.c ****     void PWM_Trigger_WriteCompare2(uint16 compare) \
 585:Generated_Source\PSoC5/PWM_Trigger.c ****                                         
 586:Generated_Source\PSoC5/PWM_Trigger.c ****     {
 587:Generated_Source\PSoC5/PWM_Trigger.c ****         #if(PWM_Trigger_UsingFixedFunction)
 588:Generated_Source\PSoC5/PWM_Trigger.c ****             CY_SET_REG16(PWM_Trigger_COMPARE2_LSB_PTR, compare);
 589:Generated_Source\PSoC5/PWM_Trigger.c ****         #else
 590:Generated_Source\PSoC5/PWM_Trigger.c ****             CY_SET_REG16(PWM_Trigger_COMPARE2_LSB_PTR, compare);
 591:Generated_Source\PSoC5/PWM_Trigger.c ****         #endif /* (PWM_Trigger_UsingFixedFunction) */
 592:Generated_Source\PSoC5/PWM_Trigger.c ****     }
 593:Generated_Source\PSoC5/PWM_Trigger.c **** #endif /* UseOneCompareMode */
 594:Generated_Source\PSoC5/PWM_Trigger.c **** 
 595:Generated_Source\PSoC5/PWM_Trigger.c **** #if (PWM_Trigger_DeadBandUsed)
 596:Generated_Source\PSoC5/PWM_Trigger.c **** 
 597:Generated_Source\PSoC5/PWM_Trigger.c **** 
 598:Generated_Source\PSoC5/PWM_Trigger.c ****     /*******************************************************************************
 599:Generated_Source\PSoC5/PWM_Trigger.c ****     * Function Name: PWM_Trigger_WriteDeadTime
 600:Generated_Source\PSoC5/PWM_Trigger.c ****     ********************************************************************************
 601:Generated_Source\PSoC5/PWM_Trigger.c ****     *
 602:Generated_Source\PSoC5/PWM_Trigger.c ****     * Summary:
 603:Generated_Source\PSoC5/PWM_Trigger.c ****     *  This function writes the dead-band counts to the corresponding register
ARM GAS  C:\Users\jmspi\AppData\Local\Temp\ccXKD8XC.s 			page 17


 604:Generated_Source\PSoC5/PWM_Trigger.c ****     *
 605:Generated_Source\PSoC5/PWM_Trigger.c ****     * Parameters:
 606:Generated_Source\PSoC5/PWM_Trigger.c ****     *  deadtime:  Number of counts for dead time
 607:Generated_Source\PSoC5/PWM_Trigger.c ****     *
 608:Generated_Source\PSoC5/PWM_Trigger.c ****     * Return:
 609:Generated_Source\PSoC5/PWM_Trigger.c ****     *  None
 610:Generated_Source\PSoC5/PWM_Trigger.c ****     *
 611:Generated_Source\PSoC5/PWM_Trigger.c ****     *******************************************************************************/
 612:Generated_Source\PSoC5/PWM_Trigger.c ****     void PWM_Trigger_WriteDeadTime(uint8 deadtime) 
 613:Generated_Source\PSoC5/PWM_Trigger.c ****     {
 614:Generated_Source\PSoC5/PWM_Trigger.c ****         /* If using the Dead Band 1-255 mode then just write the register */
 615:Generated_Source\PSoC5/PWM_Trigger.c ****         #if(!PWM_Trigger_DeadBand2_4)
 616:Generated_Source\PSoC5/PWM_Trigger.c ****             CY_SET_REG8(PWM_Trigger_DEADBAND_COUNT_PTR, deadtime);
 617:Generated_Source\PSoC5/PWM_Trigger.c ****         #else
 618:Generated_Source\PSoC5/PWM_Trigger.c ****             /* Otherwise the data has to be masked and offset */
 619:Generated_Source\PSoC5/PWM_Trigger.c ****             /* Clear existing data */
 620:Generated_Source\PSoC5/PWM_Trigger.c ****             PWM_Trigger_DEADBAND_COUNT &= ((uint8)(~PWM_Trigger_DEADBAND_COUNT_MASK));
 621:Generated_Source\PSoC5/PWM_Trigger.c **** 
 622:Generated_Source\PSoC5/PWM_Trigger.c ****             /* Set new dead time */
 623:Generated_Source\PSoC5/PWM_Trigger.c ****             #if(PWM_Trigger_DEADBAND_COUNT_SHIFT)
 624:Generated_Source\PSoC5/PWM_Trigger.c ****                 PWM_Trigger_DEADBAND_COUNT |= ((uint8)((uint8)deadtime << PWM_Trigger_DEADBAND_COUN
 625:Generated_Source\PSoC5/PWM_Trigger.c ****                                                     PWM_Trigger_DEADBAND_COUNT_MASK;
 626:Generated_Source\PSoC5/PWM_Trigger.c ****             #else
 627:Generated_Source\PSoC5/PWM_Trigger.c ****                 PWM_Trigger_DEADBAND_COUNT |= deadtime & PWM_Trigger_DEADBAND_COUNT_MASK;
 628:Generated_Source\PSoC5/PWM_Trigger.c ****             #endif /* (PWM_Trigger_DEADBAND_COUNT_SHIFT) */
 629:Generated_Source\PSoC5/PWM_Trigger.c **** 
 630:Generated_Source\PSoC5/PWM_Trigger.c ****         #endif /* (!PWM_Trigger_DeadBand2_4) */
 631:Generated_Source\PSoC5/PWM_Trigger.c ****     }
 632:Generated_Source\PSoC5/PWM_Trigger.c **** 
 633:Generated_Source\PSoC5/PWM_Trigger.c **** 
 634:Generated_Source\PSoC5/PWM_Trigger.c ****     /*******************************************************************************
 635:Generated_Source\PSoC5/PWM_Trigger.c ****     * Function Name: PWM_Trigger_ReadDeadTime
 636:Generated_Source\PSoC5/PWM_Trigger.c ****     ********************************************************************************
 637:Generated_Source\PSoC5/PWM_Trigger.c ****     *
 638:Generated_Source\PSoC5/PWM_Trigger.c ****     * Summary:
 639:Generated_Source\PSoC5/PWM_Trigger.c ****     *  This function reads the dead-band counts from the corresponding register
 640:Generated_Source\PSoC5/PWM_Trigger.c ****     *
 641:Generated_Source\PSoC5/PWM_Trigger.c ****     * Parameters:
 642:Generated_Source\PSoC5/PWM_Trigger.c ****     *  None
 643:Generated_Source\PSoC5/PWM_Trigger.c ****     *
 644:Generated_Source\PSoC5/PWM_Trigger.c ****     * Return:
 645:Generated_Source\PSoC5/PWM_Trigger.c ****     *  Dead Band Counts
 646:Generated_Source\PSoC5/PWM_Trigger.c ****     *
 647:Generated_Source\PSoC5/PWM_Trigger.c ****     *******************************************************************************/
 648:Generated_Source\PSoC5/PWM_Trigger.c ****     uint8 PWM_Trigger_ReadDeadTime(void) 
 649:Generated_Source\PSoC5/PWM_Trigger.c ****     {
 650:Generated_Source\PSoC5/PWM_Trigger.c ****         /* If using the Dead Band 1-255 mode then just read the register */
 651:Generated_Source\PSoC5/PWM_Trigger.c ****         #if(!PWM_Trigger_DeadBand2_4)
 652:Generated_Source\PSoC5/PWM_Trigger.c ****             return (CY_GET_REG8(PWM_Trigger_DEADBAND_COUNT_PTR));
 653:Generated_Source\PSoC5/PWM_Trigger.c ****         #else
 654:Generated_Source\PSoC5/PWM_Trigger.c **** 
 655:Generated_Source\PSoC5/PWM_Trigger.c ****             /* Otherwise the data has to be masked and offset */
 656:Generated_Source\PSoC5/PWM_Trigger.c ****             #if(PWM_Trigger_DEADBAND_COUNT_SHIFT)
 657:Generated_Source\PSoC5/PWM_Trigger.c ****                 return ((uint8)(((uint8)(PWM_Trigger_DEADBAND_COUNT & PWM_Trigger_DEADBAND_COUNT_MA
 658:Generated_Source\PSoC5/PWM_Trigger.c ****                                                                            PWM_Trigger_DEADBAND_COU
 659:Generated_Source\PSoC5/PWM_Trigger.c ****             #else
 660:Generated_Source\PSoC5/PWM_Trigger.c ****                 return (PWM_Trigger_DEADBAND_COUNT & PWM_Trigger_DEADBAND_COUNT_MASK);
ARM GAS  C:\Users\jmspi\AppData\Local\Temp\ccXKD8XC.s 			page 18


 661:Generated_Source\PSoC5/PWM_Trigger.c ****             #endif /* (PWM_Trigger_DEADBAND_COUNT_SHIFT) */
 662:Generated_Source\PSoC5/PWM_Trigger.c ****         #endif /* (!PWM_Trigger_DeadBand2_4) */
 663:Generated_Source\PSoC5/PWM_Trigger.c ****     }
 664:Generated_Source\PSoC5/PWM_Trigger.c **** #endif /* DeadBandUsed */
 665:Generated_Source\PSoC5/PWM_Trigger.c **** 
 666:Generated_Source\PSoC5/PWM_Trigger.c **** #if (PWM_Trigger_UseStatus || PWM_Trigger_UsingFixedFunction)
 667:Generated_Source\PSoC5/PWM_Trigger.c **** 
 668:Generated_Source\PSoC5/PWM_Trigger.c **** 
 669:Generated_Source\PSoC5/PWM_Trigger.c ****     /*******************************************************************************
 670:Generated_Source\PSoC5/PWM_Trigger.c ****     * Function Name: PWM_Trigger_SetInterruptMode
 671:Generated_Source\PSoC5/PWM_Trigger.c ****     ********************************************************************************
 672:Generated_Source\PSoC5/PWM_Trigger.c ****     *
 673:Generated_Source\PSoC5/PWM_Trigger.c ****     * Summary:
 674:Generated_Source\PSoC5/PWM_Trigger.c ****     *  This function configures the interrupts mask control of theinterrupt
 675:Generated_Source\PSoC5/PWM_Trigger.c ****     *  source status register.
 676:Generated_Source\PSoC5/PWM_Trigger.c ****     *
 677:Generated_Source\PSoC5/PWM_Trigger.c ****     * Parameters:
 678:Generated_Source\PSoC5/PWM_Trigger.c ****     *  uint8 interruptMode: Bit field containing the interrupt sources enabled
 679:Generated_Source\PSoC5/PWM_Trigger.c ****     *
 680:Generated_Source\PSoC5/PWM_Trigger.c ****     * Return:
 681:Generated_Source\PSoC5/PWM_Trigger.c ****     *  None
 682:Generated_Source\PSoC5/PWM_Trigger.c ****     *
 683:Generated_Source\PSoC5/PWM_Trigger.c ****     *******************************************************************************/
 684:Generated_Source\PSoC5/PWM_Trigger.c ****     void PWM_Trigger_SetInterruptMode(uint8 interruptMode) 
 685:Generated_Source\PSoC5/PWM_Trigger.c ****     {
 686:Generated_Source\PSoC5/PWM_Trigger.c ****         CY_SET_REG8(PWM_Trigger_STATUS_MASK_PTR, interruptMode);
 687:Generated_Source\PSoC5/PWM_Trigger.c ****     }
 688:Generated_Source\PSoC5/PWM_Trigger.c **** 
 689:Generated_Source\PSoC5/PWM_Trigger.c **** 
 690:Generated_Source\PSoC5/PWM_Trigger.c ****     /*******************************************************************************
 691:Generated_Source\PSoC5/PWM_Trigger.c ****     * Function Name: PWM_Trigger_ReadStatusRegister
 692:Generated_Source\PSoC5/PWM_Trigger.c ****     ********************************************************************************
 693:Generated_Source\PSoC5/PWM_Trigger.c ****     *
 694:Generated_Source\PSoC5/PWM_Trigger.c ****     * Summary:
 695:Generated_Source\PSoC5/PWM_Trigger.c ****     *  This function returns the current state of the status register.
 696:Generated_Source\PSoC5/PWM_Trigger.c ****     *
 697:Generated_Source\PSoC5/PWM_Trigger.c ****     * Parameters:
 698:Generated_Source\PSoC5/PWM_Trigger.c ****     *  None
 699:Generated_Source\PSoC5/PWM_Trigger.c ****     *
 700:Generated_Source\PSoC5/PWM_Trigger.c ****     * Return:
 701:Generated_Source\PSoC5/PWM_Trigger.c ****     *  uint8 : Current status register value. The status register bits are:
 702:Generated_Source\PSoC5/PWM_Trigger.c ****     *  [7:6] : Unused(0)
 703:Generated_Source\PSoC5/PWM_Trigger.c ****     *  [5]   : Kill event output
 704:Generated_Source\PSoC5/PWM_Trigger.c ****     *  [4]   : FIFO not empty
 705:Generated_Source\PSoC5/PWM_Trigger.c ****     *  [3]   : FIFO full
 706:Generated_Source\PSoC5/PWM_Trigger.c ****     *  [2]   : Terminal count
 707:Generated_Source\PSoC5/PWM_Trigger.c ****     *  [1]   : Compare output 2
 708:Generated_Source\PSoC5/PWM_Trigger.c ****     *  [0]   : Compare output 1
 709:Generated_Source\PSoC5/PWM_Trigger.c ****     *
 710:Generated_Source\PSoC5/PWM_Trigger.c ****     *******************************************************************************/
 711:Generated_Source\PSoC5/PWM_Trigger.c ****     uint8 PWM_Trigger_ReadStatusRegister(void) 
 712:Generated_Source\PSoC5/PWM_Trigger.c ****     {
 713:Generated_Source\PSoC5/PWM_Trigger.c ****         return (CY_GET_REG8(PWM_Trigger_STATUS_PTR));
 714:Generated_Source\PSoC5/PWM_Trigger.c ****     }
 715:Generated_Source\PSoC5/PWM_Trigger.c **** 
 716:Generated_Source\PSoC5/PWM_Trigger.c **** #endif /* (PWM_Trigger_UseStatus || PWM_Trigger_UsingFixedFunction) */
 717:Generated_Source\PSoC5/PWM_Trigger.c **** 
ARM GAS  C:\Users\jmspi\AppData\Local\Temp\ccXKD8XC.s 			page 19


 718:Generated_Source\PSoC5/PWM_Trigger.c **** 
 719:Generated_Source\PSoC5/PWM_Trigger.c **** #if (PWM_Trigger_UseControl)
 720:Generated_Source\PSoC5/PWM_Trigger.c **** 
 721:Generated_Source\PSoC5/PWM_Trigger.c **** 
 722:Generated_Source\PSoC5/PWM_Trigger.c ****     /*******************************************************************************
 723:Generated_Source\PSoC5/PWM_Trigger.c ****     * Function Name: PWM_Trigger_ReadControlRegister
 724:Generated_Source\PSoC5/PWM_Trigger.c ****     ********************************************************************************
 725:Generated_Source\PSoC5/PWM_Trigger.c ****     *
 726:Generated_Source\PSoC5/PWM_Trigger.c ****     * Summary:
 727:Generated_Source\PSoC5/PWM_Trigger.c ****     *  Returns the current state of the control register. This API is available
 728:Generated_Source\PSoC5/PWM_Trigger.c ****     *  only if the control register is not removed.
 729:Generated_Source\PSoC5/PWM_Trigger.c ****     *
 730:Generated_Source\PSoC5/PWM_Trigger.c ****     * Parameters:
 731:Generated_Source\PSoC5/PWM_Trigger.c ****     *  None
 732:Generated_Source\PSoC5/PWM_Trigger.c ****     *
 733:Generated_Source\PSoC5/PWM_Trigger.c ****     * Return:
 734:Generated_Source\PSoC5/PWM_Trigger.c ****     *  uint8 : Current control register value
 735:Generated_Source\PSoC5/PWM_Trigger.c ****     *
 736:Generated_Source\PSoC5/PWM_Trigger.c ****     *******************************************************************************/
 737:Generated_Source\PSoC5/PWM_Trigger.c ****     uint8 PWM_Trigger_ReadControlRegister(void) 
 738:Generated_Source\PSoC5/PWM_Trigger.c ****     {
 291              		.loc 1 738 0
 292              		.cfi_startproc
 293              		@ args = 0, pretend = 0, frame = 0
 294              		@ frame_needed = 0, uses_anonymous_args = 0
 295              		@ link register save eliminated.
 739:Generated_Source\PSoC5/PWM_Trigger.c ****         uint8 result;
 740:Generated_Source\PSoC5/PWM_Trigger.c **** 
 741:Generated_Source\PSoC5/PWM_Trigger.c ****         result = CY_GET_REG8(PWM_Trigger_CONTROL_PTR);
 296              		.loc 1 741 0
 297 0000 014B     		ldr	r3, .L28
 298 0002 1878     		ldrb	r0, [r3]	@ zero_extendqisi2
 299              	.LVL11:
 742:Generated_Source\PSoC5/PWM_Trigger.c ****         return (result);
 743:Generated_Source\PSoC5/PWM_Trigger.c ****     }
 300              		.loc 1 743 0
 301 0004 7047     		bx	lr
 302              	.L29:
 303 0006 00BF     		.align	2
 304              	.L28:
 305 0008 72640040 		.word	1073767538
 306              		.cfi_endproc
 307              	.LFE8:
 308              		.size	PWM_Trigger_ReadControlRegister, .-PWM_Trigger_ReadControlRegister
 309              		.section	.text.PWM_Trigger_WriteControlRegister,"ax",%progbits
 310              		.align	1
 311              		.global	PWM_Trigger_WriteControlRegister
 312              		.thumb
 313              		.thumb_func
 314              		.type	PWM_Trigger_WriteControlRegister, %function
 315              	PWM_Trigger_WriteControlRegister:
 316              	.LFB9:
 744:Generated_Source\PSoC5/PWM_Trigger.c **** 
 745:Generated_Source\PSoC5/PWM_Trigger.c **** 
 746:Generated_Source\PSoC5/PWM_Trigger.c ****     /*******************************************************************************
 747:Generated_Source\PSoC5/PWM_Trigger.c ****     * Function Name: PWM_Trigger_WriteControlRegister
 748:Generated_Source\PSoC5/PWM_Trigger.c ****     ********************************************************************************
ARM GAS  C:\Users\jmspi\AppData\Local\Temp\ccXKD8XC.s 			page 20


 749:Generated_Source\PSoC5/PWM_Trigger.c ****     *
 750:Generated_Source\PSoC5/PWM_Trigger.c ****     * Summary:
 751:Generated_Source\PSoC5/PWM_Trigger.c ****     *  Sets the bit field of the control register. This API is available only if
 752:Generated_Source\PSoC5/PWM_Trigger.c ****     *  the control register is not removed.
 753:Generated_Source\PSoC5/PWM_Trigger.c ****     *
 754:Generated_Source\PSoC5/PWM_Trigger.c ****     * Parameters:
 755:Generated_Source\PSoC5/PWM_Trigger.c ****     *  uint8 control: Control register bit field, The status register bits are:
 756:Generated_Source\PSoC5/PWM_Trigger.c ****     *  [7]   : PWM Enable
 757:Generated_Source\PSoC5/PWM_Trigger.c ****     *  [6]   : Reset
 758:Generated_Source\PSoC5/PWM_Trigger.c ****     *  [5:3] : Compare Mode2
 759:Generated_Source\PSoC5/PWM_Trigger.c ****     *  [2:0] : Compare Mode2
 760:Generated_Source\PSoC5/PWM_Trigger.c ****     *
 761:Generated_Source\PSoC5/PWM_Trigger.c ****     * Return:
 762:Generated_Source\PSoC5/PWM_Trigger.c ****     *  None
 763:Generated_Source\PSoC5/PWM_Trigger.c ****     *
 764:Generated_Source\PSoC5/PWM_Trigger.c ****     *******************************************************************************/
 765:Generated_Source\PSoC5/PWM_Trigger.c ****     void PWM_Trigger_WriteControlRegister(uint8 control) 
 766:Generated_Source\PSoC5/PWM_Trigger.c ****     {
 317              		.loc 1 766 0
 318              		.cfi_startproc
 319              		@ args = 0, pretend = 0, frame = 0
 320              		@ frame_needed = 0, uses_anonymous_args = 0
 321              		@ link register save eliminated.
 322              	.LVL12:
 767:Generated_Source\PSoC5/PWM_Trigger.c ****         CY_SET_REG8(PWM_Trigger_CONTROL_PTR, control);
 323              		.loc 1 767 0
 324 0000 014B     		ldr	r3, .L31
 325 0002 1870     		strb	r0, [r3]
 326 0004 7047     		bx	lr
 327              	.L32:
 328 0006 00BF     		.align	2
 329              	.L31:
 330 0008 72640040 		.word	1073767538
 331              		.cfi_endproc
 332              	.LFE9:
 333              		.size	PWM_Trigger_WriteControlRegister, .-PWM_Trigger_WriteControlRegister
 334              		.section	.text.PWM_Trigger_ReadCapture,"ax",%progbits
 335              		.align	1
 336              		.global	PWM_Trigger_ReadCapture
 337              		.thumb
 338              		.thumb_func
 339              		.type	PWM_Trigger_ReadCapture, %function
 340              	PWM_Trigger_ReadCapture:
 341              	.LFB10:
 768:Generated_Source\PSoC5/PWM_Trigger.c ****     }
 769:Generated_Source\PSoC5/PWM_Trigger.c **** 
 770:Generated_Source\PSoC5/PWM_Trigger.c **** #endif /* (PWM_Trigger_UseControl) */
 771:Generated_Source\PSoC5/PWM_Trigger.c **** 
 772:Generated_Source\PSoC5/PWM_Trigger.c **** 
 773:Generated_Source\PSoC5/PWM_Trigger.c **** #if (!PWM_Trigger_UsingFixedFunction)
 774:Generated_Source\PSoC5/PWM_Trigger.c **** 
 775:Generated_Source\PSoC5/PWM_Trigger.c **** 
 776:Generated_Source\PSoC5/PWM_Trigger.c ****     /*******************************************************************************
 777:Generated_Source\PSoC5/PWM_Trigger.c ****     * Function Name: PWM_Trigger_ReadCapture
 778:Generated_Source\PSoC5/PWM_Trigger.c ****     ********************************************************************************
 779:Generated_Source\PSoC5/PWM_Trigger.c ****     *
 780:Generated_Source\PSoC5/PWM_Trigger.c ****     * Summary:
ARM GAS  C:\Users\jmspi\AppData\Local\Temp\ccXKD8XC.s 			page 21


 781:Generated_Source\PSoC5/PWM_Trigger.c ****     *  Reads the capture value from the capture FIFO.
 782:Generated_Source\PSoC5/PWM_Trigger.c ****     *
 783:Generated_Source\PSoC5/PWM_Trigger.c ****     * Parameters:
 784:Generated_Source\PSoC5/PWM_Trigger.c ****     *  None
 785:Generated_Source\PSoC5/PWM_Trigger.c ****     *
 786:Generated_Source\PSoC5/PWM_Trigger.c ****     * Return:
 787:Generated_Source\PSoC5/PWM_Trigger.c ****     *  uint8/uint16: The current capture value
 788:Generated_Source\PSoC5/PWM_Trigger.c ****     *
 789:Generated_Source\PSoC5/PWM_Trigger.c ****     *******************************************************************************/
 790:Generated_Source\PSoC5/PWM_Trigger.c ****     uint16 PWM_Trigger_ReadCapture(void) 
 791:Generated_Source\PSoC5/PWM_Trigger.c ****     {
 342              		.loc 1 791 0
 343              		.cfi_startproc
 344              		@ args = 0, pretend = 0, frame = 0
 345              		@ frame_needed = 0, uses_anonymous_args = 0
 346              		@ link register save eliminated.
 792:Generated_Source\PSoC5/PWM_Trigger.c ****         return (CY_GET_REG16(PWM_Trigger_CAPTURE_LSB_PTR));
 347              		.loc 1 792 0
 348 0000 014B     		ldr	r3, .L34
 349 0002 1888     		ldrh	r0, [r3]
 793:Generated_Source\PSoC5/PWM_Trigger.c ****     }
 350              		.loc 1 793 0
 351 0004 80B2     		uxth	r0, r0
 352 0006 7047     		bx	lr
 353              	.L35:
 354              		.align	2
 355              	.L34:
 356 0008 B46A0040 		.word	1073769140
 357              		.cfi_endproc
 358              	.LFE10:
 359              		.size	PWM_Trigger_ReadCapture, .-PWM_Trigger_ReadCapture
 360              		.section	.text.PWM_Trigger_ReadCompare,"ax",%progbits
 361              		.align	1
 362              		.global	PWM_Trigger_ReadCompare
 363              		.thumb
 364              		.thumb_func
 365              		.type	PWM_Trigger_ReadCompare, %function
 366              	PWM_Trigger_ReadCompare:
 367              	.LFB11:
 794:Generated_Source\PSoC5/PWM_Trigger.c **** 
 795:Generated_Source\PSoC5/PWM_Trigger.c **** #endif /* (!PWM_Trigger_UsingFixedFunction) */
 796:Generated_Source\PSoC5/PWM_Trigger.c **** 
 797:Generated_Source\PSoC5/PWM_Trigger.c **** 
 798:Generated_Source\PSoC5/PWM_Trigger.c **** #if (PWM_Trigger_UseOneCompareMode)
 799:Generated_Source\PSoC5/PWM_Trigger.c **** 
 800:Generated_Source\PSoC5/PWM_Trigger.c **** 
 801:Generated_Source\PSoC5/PWM_Trigger.c ****     /*******************************************************************************
 802:Generated_Source\PSoC5/PWM_Trigger.c ****     * Function Name: PWM_Trigger_ReadCompare
 803:Generated_Source\PSoC5/PWM_Trigger.c ****     ********************************************************************************
 804:Generated_Source\PSoC5/PWM_Trigger.c ****     *
 805:Generated_Source\PSoC5/PWM_Trigger.c ****     * Summary:
 806:Generated_Source\PSoC5/PWM_Trigger.c ****     *  Reads the compare value for the compare output when the PWM Mode parameter is
 807:Generated_Source\PSoC5/PWM_Trigger.c ****     *  set to Dither mode, Center Aligned mode, or One Output mode.
 808:Generated_Source\PSoC5/PWM_Trigger.c ****     *
 809:Generated_Source\PSoC5/PWM_Trigger.c ****     * Parameters:
 810:Generated_Source\PSoC5/PWM_Trigger.c ****     *  None
 811:Generated_Source\PSoC5/PWM_Trigger.c ****     *
ARM GAS  C:\Users\jmspi\AppData\Local\Temp\ccXKD8XC.s 			page 22


 812:Generated_Source\PSoC5/PWM_Trigger.c ****     * Return:
 813:Generated_Source\PSoC5/PWM_Trigger.c ****     *  uint8/uint16: Current compare value
 814:Generated_Source\PSoC5/PWM_Trigger.c ****     *
 815:Generated_Source\PSoC5/PWM_Trigger.c ****     *******************************************************************************/
 816:Generated_Source\PSoC5/PWM_Trigger.c ****     uint16 PWM_Trigger_ReadCompare(void) 
 817:Generated_Source\PSoC5/PWM_Trigger.c ****     {
 368              		.loc 1 817 0
 369              		.cfi_startproc
 370              		@ args = 0, pretend = 0, frame = 0
 371              		@ frame_needed = 0, uses_anonymous_args = 0
 372              		@ link register save eliminated.
 818:Generated_Source\PSoC5/PWM_Trigger.c ****         #if(PWM_Trigger_UsingFixedFunction)
 819:Generated_Source\PSoC5/PWM_Trigger.c ****             return ((uint16)CY_GET_REG16(PWM_Trigger_COMPARE1_LSB_PTR));
 820:Generated_Source\PSoC5/PWM_Trigger.c ****         #else
 821:Generated_Source\PSoC5/PWM_Trigger.c ****             return (CY_GET_REG16(PWM_Trigger_COMPARE1_LSB_PTR));
 373              		.loc 1 821 0
 374 0000 014B     		ldr	r3, .L37
 375 0002 1888     		ldrh	r0, [r3]
 822:Generated_Source\PSoC5/PWM_Trigger.c ****         #endif /* (PWM_Trigger_UsingFixedFunction) */
 823:Generated_Source\PSoC5/PWM_Trigger.c ****     }
 376              		.loc 1 823 0
 377 0004 80B2     		uxth	r0, r0
 378 0006 7047     		bx	lr
 379              	.L38:
 380              		.align	2
 381              	.L37:
 382 0008 546A0040 		.word	1073769044
 383              		.cfi_endproc
 384              	.LFE11:
 385              		.size	PWM_Trigger_ReadCompare, .-PWM_Trigger_ReadCompare
 386              		.section	.text.PWM_Trigger_ReadPeriod,"ax",%progbits
 387              		.align	1
 388              		.global	PWM_Trigger_ReadPeriod
 389              		.thumb
 390              		.thumb_func
 391              		.type	PWM_Trigger_ReadPeriod, %function
 392              	PWM_Trigger_ReadPeriod:
 393              	.LFB12:
 824:Generated_Source\PSoC5/PWM_Trigger.c **** 
 825:Generated_Source\PSoC5/PWM_Trigger.c **** #else
 826:Generated_Source\PSoC5/PWM_Trigger.c **** 
 827:Generated_Source\PSoC5/PWM_Trigger.c **** 
 828:Generated_Source\PSoC5/PWM_Trigger.c ****     /*******************************************************************************
 829:Generated_Source\PSoC5/PWM_Trigger.c ****     * Function Name: PWM_Trigger_ReadCompare1
 830:Generated_Source\PSoC5/PWM_Trigger.c ****     ********************************************************************************
 831:Generated_Source\PSoC5/PWM_Trigger.c ****     *
 832:Generated_Source\PSoC5/PWM_Trigger.c ****     * Summary:
 833:Generated_Source\PSoC5/PWM_Trigger.c ****     *  Reads the compare value for the compare1 output.
 834:Generated_Source\PSoC5/PWM_Trigger.c ****     *
 835:Generated_Source\PSoC5/PWM_Trigger.c ****     * Parameters:
 836:Generated_Source\PSoC5/PWM_Trigger.c ****     *  None
 837:Generated_Source\PSoC5/PWM_Trigger.c ****     *
 838:Generated_Source\PSoC5/PWM_Trigger.c ****     * Return:
 839:Generated_Source\PSoC5/PWM_Trigger.c ****     *  uint8/uint16: Current compare value.
 840:Generated_Source\PSoC5/PWM_Trigger.c ****     *
 841:Generated_Source\PSoC5/PWM_Trigger.c ****     *******************************************************************************/
 842:Generated_Source\PSoC5/PWM_Trigger.c ****     uint16 PWM_Trigger_ReadCompare1(void) 
ARM GAS  C:\Users\jmspi\AppData\Local\Temp\ccXKD8XC.s 			page 23


 843:Generated_Source\PSoC5/PWM_Trigger.c ****     {
 844:Generated_Source\PSoC5/PWM_Trigger.c ****         return (CY_GET_REG16(PWM_Trigger_COMPARE1_LSB_PTR));
 845:Generated_Source\PSoC5/PWM_Trigger.c ****     }
 846:Generated_Source\PSoC5/PWM_Trigger.c **** 
 847:Generated_Source\PSoC5/PWM_Trigger.c **** 
 848:Generated_Source\PSoC5/PWM_Trigger.c ****     /*******************************************************************************
 849:Generated_Source\PSoC5/PWM_Trigger.c ****     * Function Name: PWM_Trigger_ReadCompare2
 850:Generated_Source\PSoC5/PWM_Trigger.c ****     ********************************************************************************
 851:Generated_Source\PSoC5/PWM_Trigger.c ****     *
 852:Generated_Source\PSoC5/PWM_Trigger.c ****     * Summary:
 853:Generated_Source\PSoC5/PWM_Trigger.c ****     *  Reads the compare value for the compare2 output.
 854:Generated_Source\PSoC5/PWM_Trigger.c ****     *
 855:Generated_Source\PSoC5/PWM_Trigger.c ****     * Parameters:
 856:Generated_Source\PSoC5/PWM_Trigger.c ****     *  None
 857:Generated_Source\PSoC5/PWM_Trigger.c ****     *
 858:Generated_Source\PSoC5/PWM_Trigger.c ****     * Return:
 859:Generated_Source\PSoC5/PWM_Trigger.c ****     *  uint8/uint16: Current compare value.
 860:Generated_Source\PSoC5/PWM_Trigger.c ****     *
 861:Generated_Source\PSoC5/PWM_Trigger.c ****     *******************************************************************************/
 862:Generated_Source\PSoC5/PWM_Trigger.c ****     uint16 PWM_Trigger_ReadCompare2(void) 
 863:Generated_Source\PSoC5/PWM_Trigger.c ****     {
 864:Generated_Source\PSoC5/PWM_Trigger.c ****         return (CY_GET_REG16(PWM_Trigger_COMPARE2_LSB_PTR));
 865:Generated_Source\PSoC5/PWM_Trigger.c ****     }
 866:Generated_Source\PSoC5/PWM_Trigger.c **** 
 867:Generated_Source\PSoC5/PWM_Trigger.c **** #endif /* (PWM_Trigger_UseOneCompareMode) */
 868:Generated_Source\PSoC5/PWM_Trigger.c **** 
 869:Generated_Source\PSoC5/PWM_Trigger.c **** 
 870:Generated_Source\PSoC5/PWM_Trigger.c **** /*******************************************************************************
 871:Generated_Source\PSoC5/PWM_Trigger.c **** * Function Name: PWM_Trigger_ReadPeriod
 872:Generated_Source\PSoC5/PWM_Trigger.c **** ********************************************************************************
 873:Generated_Source\PSoC5/PWM_Trigger.c **** *
 874:Generated_Source\PSoC5/PWM_Trigger.c **** * Summary:
 875:Generated_Source\PSoC5/PWM_Trigger.c **** *  Reads the period value used by the PWM hardware.
 876:Generated_Source\PSoC5/PWM_Trigger.c **** *
 877:Generated_Source\PSoC5/PWM_Trigger.c **** * Parameters:
 878:Generated_Source\PSoC5/PWM_Trigger.c **** *  None
 879:Generated_Source\PSoC5/PWM_Trigger.c **** *
 880:Generated_Source\PSoC5/PWM_Trigger.c **** * Return:
 881:Generated_Source\PSoC5/PWM_Trigger.c **** *  uint8/16: Period value
 882:Generated_Source\PSoC5/PWM_Trigger.c **** *
 883:Generated_Source\PSoC5/PWM_Trigger.c **** *******************************************************************************/
 884:Generated_Source\PSoC5/PWM_Trigger.c **** uint16 PWM_Trigger_ReadPeriod(void) 
 885:Generated_Source\PSoC5/PWM_Trigger.c **** {
 394              		.loc 1 885 0
 395              		.cfi_startproc
 396              		@ args = 0, pretend = 0, frame = 0
 397              		@ frame_needed = 0, uses_anonymous_args = 0
 398              		@ link register save eliminated.
 886:Generated_Source\PSoC5/PWM_Trigger.c ****     #if(PWM_Trigger_UsingFixedFunction)
 887:Generated_Source\PSoC5/PWM_Trigger.c ****         return ((uint16)CY_GET_REG16(PWM_Trigger_PERIOD_LSB_PTR));
 888:Generated_Source\PSoC5/PWM_Trigger.c ****     #else
 889:Generated_Source\PSoC5/PWM_Trigger.c ****         return (CY_GET_REG16(PWM_Trigger_PERIOD_LSB_PTR));
 399              		.loc 1 889 0
 400 0000 014B     		ldr	r3, .L40
 401 0002 1888     		ldrh	r0, [r3]
 890:Generated_Source\PSoC5/PWM_Trigger.c ****     #endif /* (PWM_Trigger_UsingFixedFunction) */
 891:Generated_Source\PSoC5/PWM_Trigger.c **** }
ARM GAS  C:\Users\jmspi\AppData\Local\Temp\ccXKD8XC.s 			page 24


 402              		.loc 1 891 0
 403 0004 80B2     		uxth	r0, r0
 404 0006 7047     		bx	lr
 405              	.L41:
 406              		.align	2
 407              	.L40:
 408 0008 946A0040 		.word	1073769108
 409              		.cfi_endproc
 410              	.LFE12:
 411              		.size	PWM_Trigger_ReadPeriod, .-PWM_Trigger_ReadPeriod
 412              		.global	PWM_Trigger_initVar
 413              		.bss
 414              		.set	.LANCHOR0,. + 0
 415              		.type	PWM_Trigger_initVar, %object
 416              		.size	PWM_Trigger_initVar, 1
 417              	PWM_Trigger_initVar:
 418 0000 00       		.space	1
 419              		.text
 420              	.Letext0:
 421              		.file 2 "Generated_Source\\PSoC5\\cytypes.h"