ARM GAS  C:\Users\jmspi\AppData\Local\Temp\ccGFvthk.s 			page 1


   1              		.syntax unified
   2              		.cpu cortex-m3
   3              		.fpu softvfp
   4              		.eabi_attribute 20, 1
   5              		.eabi_attribute 21, 1
   6              		.eabi_attribute 23, 3
   7              		.eabi_attribute 24, 1
   8              		.eabi_attribute 25, 1
   9              		.eabi_attribute 26, 1
  10              		.eabi_attribute 30, 4
  11              		.eabi_attribute 34, 1
  12              		.eabi_attribute 18, 4
  13              		.thumb
  14              		.syntax unified
  15              		.file	"QuadDec_L.c"
  16              		.text
  17              	.Ltext0:
  18              		.cfi_sections	.debug_frame
  19              		.section	.text.QuadDec_L_Init,"ax",%progbits
  20              		.align	1
  21              		.global	QuadDec_L_Init
  22              		.thumb
  23              		.thumb_func
  24              		.type	QuadDec_L_Init, %function
  25              	QuadDec_L_Init:
  26              	.LFB0:
  27              		.file 1 "Generated_Source\\PSoC5\\QuadDec_L.c"
   1:Generated_Source\PSoC5/QuadDec_L.c **** /*******************************************************************************
   2:Generated_Source\PSoC5/QuadDec_L.c **** * File Name: QuadDec_L.c  
   3:Generated_Source\PSoC5/QuadDec_L.c **** * Version 3.0
   4:Generated_Source\PSoC5/QuadDec_L.c **** *
   5:Generated_Source\PSoC5/QuadDec_L.c **** * Description:
   6:Generated_Source\PSoC5/QuadDec_L.c **** *  This file provides the source code to the API for the Quadrature Decoder
   7:Generated_Source\PSoC5/QuadDec_L.c **** *  component.
   8:Generated_Source\PSoC5/QuadDec_L.c **** *
   9:Generated_Source\PSoC5/QuadDec_L.c **** * Note:
  10:Generated_Source\PSoC5/QuadDec_L.c **** *  None.
  11:Generated_Source\PSoC5/QuadDec_L.c **** *   
  12:Generated_Source\PSoC5/QuadDec_L.c **** ********************************************************************************
  13:Generated_Source\PSoC5/QuadDec_L.c **** * Copyright 2008-2014, Cypress Semiconductor Corporation.  All rights reserved.
  14:Generated_Source\PSoC5/QuadDec_L.c **** * You may use this file only in accordance with the license, terms, conditions, 
  15:Generated_Source\PSoC5/QuadDec_L.c **** * disclaimers, and limitations in the end user license agreement accompanying 
  16:Generated_Source\PSoC5/QuadDec_L.c **** * the software package with which this file was provided.
  17:Generated_Source\PSoC5/QuadDec_L.c **** *******************************************************************************/
  18:Generated_Source\PSoC5/QuadDec_L.c **** 
  19:Generated_Source\PSoC5/QuadDec_L.c **** #include "QuadDec_L.h"
  20:Generated_Source\PSoC5/QuadDec_L.c **** 
  21:Generated_Source\PSoC5/QuadDec_L.c **** #if (QuadDec_L_COUNTER_SIZE == QuadDec_L_COUNTER_SIZE_32_BIT)
  22:Generated_Source\PSoC5/QuadDec_L.c ****     #include "QuadDec_L_PVT.h"
  23:Generated_Source\PSoC5/QuadDec_L.c **** #endif /* QuadDec_L_COUNTER_SIZE == QuadDec_L_COUNTER_SIZE_32_BIT */
  24:Generated_Source\PSoC5/QuadDec_L.c **** 
  25:Generated_Source\PSoC5/QuadDec_L.c **** uint8 QuadDec_L_initVar = 0u;
  26:Generated_Source\PSoC5/QuadDec_L.c **** 
  27:Generated_Source\PSoC5/QuadDec_L.c **** 
  28:Generated_Source\PSoC5/QuadDec_L.c **** /*******************************************************************************
  29:Generated_Source\PSoC5/QuadDec_L.c **** * Function Name: QuadDec_L_Init
  30:Generated_Source\PSoC5/QuadDec_L.c **** ********************************************************************************
ARM GAS  C:\Users\jmspi\AppData\Local\Temp\ccGFvthk.s 			page 2


  31:Generated_Source\PSoC5/QuadDec_L.c **** *
  32:Generated_Source\PSoC5/QuadDec_L.c **** * Summary:
  33:Generated_Source\PSoC5/QuadDec_L.c **** *  Inits/Restores default QuadDec configuration provided with customizer.
  34:Generated_Source\PSoC5/QuadDec_L.c **** *
  35:Generated_Source\PSoC5/QuadDec_L.c **** * Parameters:
  36:Generated_Source\PSoC5/QuadDec_L.c **** *  None.
  37:Generated_Source\PSoC5/QuadDec_L.c **** *
  38:Generated_Source\PSoC5/QuadDec_L.c **** * Return:
  39:Generated_Source\PSoC5/QuadDec_L.c **** *  None.
  40:Generated_Source\PSoC5/QuadDec_L.c **** *
  41:Generated_Source\PSoC5/QuadDec_L.c **** *******************************************************************************/
  42:Generated_Source\PSoC5/QuadDec_L.c **** void QuadDec_L_Init(void) 
  43:Generated_Source\PSoC5/QuadDec_L.c **** {
  28              		.loc 1 43 0
  29              		.cfi_startproc
  30              		@ args = 0, pretend = 0, frame = 0
  31              		@ frame_needed = 0, uses_anonymous_args = 0
  32 0000 08B5     		push	{r3, lr}
  33              		.cfi_def_cfa_offset 8
  34              		.cfi_offset 3, -8
  35              		.cfi_offset 14, -4
  44:Generated_Source\PSoC5/QuadDec_L.c ****     #if (QuadDec_L_COUNTER_SIZE == QuadDec_L_COUNTER_SIZE_32_BIT)
  45:Generated_Source\PSoC5/QuadDec_L.c ****         /* Disable Interrupt. */
  46:Generated_Source\PSoC5/QuadDec_L.c ****         CyIntDisable(QuadDec_L_ISR_NUMBER);
  36              		.loc 1 46 0
  37 0002 064B     		ldr	r3, .L2
  38 0004 1022     		movs	r2, #16
  39 0006 1A60     		str	r2, [r3]
  47:Generated_Source\PSoC5/QuadDec_L.c ****         /* Set the ISR to point to the QuadDec_L_isr Interrupt. */
  48:Generated_Source\PSoC5/QuadDec_L.c ****         (void) CyIntSetVector(QuadDec_L_ISR_NUMBER, & QuadDec_L_ISR);
  40              		.loc 1 48 0
  41 0008 0549     		ldr	r1, .L2+4
  42 000a 0420     		movs	r0, #4
  43 000c FFF7FEFF 		bl	CyIntSetVector
  44              	.LVL0:
  49:Generated_Source\PSoC5/QuadDec_L.c ****         /* Set the priority. */
  50:Generated_Source\PSoC5/QuadDec_L.c ****         CyIntSetPriority(QuadDec_L_ISR_NUMBER, QuadDec_L_ISR_PRIORITY);
  51:Generated_Source\PSoC5/QuadDec_L.c ****     #endif /* QuadDec_L_COUNTER_SIZE == QuadDec_L_COUNTER_SIZE_32_BIT */
  52:Generated_Source\PSoC5/QuadDec_L.c **** }
  45              		.loc 1 52 0
  46 0010 BDE80840 		pop	{r3, lr}
  47              		.cfi_restore 14
  48              		.cfi_restore 3
  49              		.cfi_def_cfa_offset 0
  50:Generated_Source\PSoC5/QuadDec_L.c ****     #endif /* QuadDec_L_COUNTER_SIZE == QuadDec_L_COUNTER_SIZE_32_BIT */
  50              		.loc 1 50 0
  51 0014 0721     		movs	r1, #7
  52 0016 0420     		movs	r0, #4
  53 0018 FFF7FEBF 		b	CyIntSetPriority
  54              	.LVL1:
  55              	.L3:
  56              		.align	2
  57              	.L2:
  58 001c 80E100E0 		.word	-536813184
  59 0020 00000000 		.word	QuadDec_L_ISR
  60              		.cfi_endproc
  61              	.LFE0:
ARM GAS  C:\Users\jmspi\AppData\Local\Temp\ccGFvthk.s 			page 3


  62              		.size	QuadDec_L_Init, .-QuadDec_L_Init
  63              		.section	.text.QuadDec_L_Stop,"ax",%progbits
  64              		.align	1
  65              		.global	QuadDec_L_Stop
  66              		.thumb
  67              		.thumb_func
  68              		.type	QuadDec_L_Stop, %function
  69              	QuadDec_L_Stop:
  70              	.LFB3:
  53:Generated_Source\PSoC5/QuadDec_L.c **** 
  54:Generated_Source\PSoC5/QuadDec_L.c **** 
  55:Generated_Source\PSoC5/QuadDec_L.c **** /*******************************************************************************
  56:Generated_Source\PSoC5/QuadDec_L.c **** * Function Name: QuadDec_L_Enable
  57:Generated_Source\PSoC5/QuadDec_L.c **** ********************************************************************************
  58:Generated_Source\PSoC5/QuadDec_L.c **** *
  59:Generated_Source\PSoC5/QuadDec_L.c **** * Summary:
  60:Generated_Source\PSoC5/QuadDec_L.c **** *  This function enable interrupts from Component and also enable Component's
  61:Generated_Source\PSoC5/QuadDec_L.c **** *  ISR in case of 32-bit counter.
  62:Generated_Source\PSoC5/QuadDec_L.c **** *
  63:Generated_Source\PSoC5/QuadDec_L.c **** * Parameters:
  64:Generated_Source\PSoC5/QuadDec_L.c **** *  None.
  65:Generated_Source\PSoC5/QuadDec_L.c **** *
  66:Generated_Source\PSoC5/QuadDec_L.c **** * Return:
  67:Generated_Source\PSoC5/QuadDec_L.c **** *  None.
  68:Generated_Source\PSoC5/QuadDec_L.c **** *
  69:Generated_Source\PSoC5/QuadDec_L.c **** *******************************************************************************/
  70:Generated_Source\PSoC5/QuadDec_L.c **** void QuadDec_L_Enable(void) 
  71:Generated_Source\PSoC5/QuadDec_L.c **** {
  72:Generated_Source\PSoC5/QuadDec_L.c ****     uint8 enableInterrupts;
  73:Generated_Source\PSoC5/QuadDec_L.c **** 
  74:Generated_Source\PSoC5/QuadDec_L.c ****     QuadDec_L_SetInterruptMask(QuadDec_L_INIT_INT_MASK);
  75:Generated_Source\PSoC5/QuadDec_L.c **** 
  76:Generated_Source\PSoC5/QuadDec_L.c ****     /* Clear pending interrupts. */
  77:Generated_Source\PSoC5/QuadDec_L.c ****     (void) QuadDec_L_GetEvents();
  78:Generated_Source\PSoC5/QuadDec_L.c ****     
  79:Generated_Source\PSoC5/QuadDec_L.c ****     enableInterrupts = CyEnterCriticalSection();
  80:Generated_Source\PSoC5/QuadDec_L.c **** 
  81:Generated_Source\PSoC5/QuadDec_L.c ****     /* Enable interrupts from Statusi register */
  82:Generated_Source\PSoC5/QuadDec_L.c ****     QuadDec_L_SR_AUX_CONTROL |= QuadDec_L_INTERRUPTS_ENABLE;
  83:Generated_Source\PSoC5/QuadDec_L.c **** 
  84:Generated_Source\PSoC5/QuadDec_L.c ****     CyExitCriticalSection(enableInterrupts);        
  85:Generated_Source\PSoC5/QuadDec_L.c **** 
  86:Generated_Source\PSoC5/QuadDec_L.c ****     #if (QuadDec_L_COUNTER_SIZE == QuadDec_L_COUNTER_SIZE_32_BIT)
  87:Generated_Source\PSoC5/QuadDec_L.c ****         /* Enable Component interrupts */
  88:Generated_Source\PSoC5/QuadDec_L.c ****         CyIntEnable(QuadDec_L_ISR_NUMBER);
  89:Generated_Source\PSoC5/QuadDec_L.c ****     #endif /* QuadDec_L_COUNTER_SIZE == QuadDec_L_COUNTER_SIZE_32_BIT */
  90:Generated_Source\PSoC5/QuadDec_L.c **** }
  91:Generated_Source\PSoC5/QuadDec_L.c **** 
  92:Generated_Source\PSoC5/QuadDec_L.c **** 
  93:Generated_Source\PSoC5/QuadDec_L.c **** /*******************************************************************************
  94:Generated_Source\PSoC5/QuadDec_L.c **** * Function Name: QuadDec_L_Start
  95:Generated_Source\PSoC5/QuadDec_L.c **** ********************************************************************************
  96:Generated_Source\PSoC5/QuadDec_L.c **** *
  97:Generated_Source\PSoC5/QuadDec_L.c **** * Summary:
  98:Generated_Source\PSoC5/QuadDec_L.c **** *  Initializes UDBs and other relevant hardware.
  99:Generated_Source\PSoC5/QuadDec_L.c **** *  Resets counter, enables or disables all relevant interrupts.
 100:Generated_Source\PSoC5/QuadDec_L.c **** *  Starts monitoring the inputs and counting.
ARM GAS  C:\Users\jmspi\AppData\Local\Temp\ccGFvthk.s 			page 4


 101:Generated_Source\PSoC5/QuadDec_L.c **** *
 102:Generated_Source\PSoC5/QuadDec_L.c **** * Parameters:
 103:Generated_Source\PSoC5/QuadDec_L.c **** *  None.
 104:Generated_Source\PSoC5/QuadDec_L.c **** *
 105:Generated_Source\PSoC5/QuadDec_L.c **** * Return:
 106:Generated_Source\PSoC5/QuadDec_L.c **** *  None.
 107:Generated_Source\PSoC5/QuadDec_L.c **** *
 108:Generated_Source\PSoC5/QuadDec_L.c **** * Global variables:
 109:Generated_Source\PSoC5/QuadDec_L.c **** *  QuadDec_L_initVar - used to check initial configuration, modified on
 110:Generated_Source\PSoC5/QuadDec_L.c **** *  first function call.
 111:Generated_Source\PSoC5/QuadDec_L.c **** *
 112:Generated_Source\PSoC5/QuadDec_L.c **** * Reentrant:
 113:Generated_Source\PSoC5/QuadDec_L.c **** *  No.
 114:Generated_Source\PSoC5/QuadDec_L.c **** *
 115:Generated_Source\PSoC5/QuadDec_L.c **** *******************************************************************************/
 116:Generated_Source\PSoC5/QuadDec_L.c **** void QuadDec_L_Start(void) 
 117:Generated_Source\PSoC5/QuadDec_L.c **** {
 118:Generated_Source\PSoC5/QuadDec_L.c ****     #if (QuadDec_L_COUNTER_SIZE == QuadDec_L_COUNTER_SIZE_8_BIT)
 119:Generated_Source\PSoC5/QuadDec_L.c ****         QuadDec_L_Cnt8_Start();
 120:Generated_Source\PSoC5/QuadDec_L.c ****         QuadDec_L_Cnt8_WriteCounter(QuadDec_L_COUNTER_INIT_VALUE);
 121:Generated_Source\PSoC5/QuadDec_L.c ****     #else
 122:Generated_Source\PSoC5/QuadDec_L.c ****         /* (QuadDec_L_COUNTER_SIZE == QuadDec_L_COUNTER_SIZE_16_BIT) || 
 123:Generated_Source\PSoC5/QuadDec_L.c ****         *  (QuadDec_L_COUNTER_SIZE == QuadDec_L_COUNTER_SIZE_32_BIT) 
 124:Generated_Source\PSoC5/QuadDec_L.c ****         */
 125:Generated_Source\PSoC5/QuadDec_L.c ****         QuadDec_L_Cnt16_Start();
 126:Generated_Source\PSoC5/QuadDec_L.c ****         QuadDec_L_Cnt16_WriteCounter(QuadDec_L_COUNTER_INIT_VALUE);
 127:Generated_Source\PSoC5/QuadDec_L.c ****     #endif /* QuadDec_L_COUNTER_SIZE == QuadDec_L_COUNTER_SIZE_8_BIT */
 128:Generated_Source\PSoC5/QuadDec_L.c ****     
 129:Generated_Source\PSoC5/QuadDec_L.c ****     #if (QuadDec_L_COUNTER_SIZE == QuadDec_L_COUNTER_SIZE_32_BIT)        
 130:Generated_Source\PSoC5/QuadDec_L.c ****        QuadDec_L_count32SoftPart = 0;
 131:Generated_Source\PSoC5/QuadDec_L.c ****     #endif /* QuadDec_L_COUNTER_SIZE == QuadDec_L_COUNTER_SIZE_32_BIT */
 132:Generated_Source\PSoC5/QuadDec_L.c **** 
 133:Generated_Source\PSoC5/QuadDec_L.c ****     if (QuadDec_L_initVar == 0u)
 134:Generated_Source\PSoC5/QuadDec_L.c ****     {
 135:Generated_Source\PSoC5/QuadDec_L.c ****         QuadDec_L_Init();
 136:Generated_Source\PSoC5/QuadDec_L.c ****         QuadDec_L_initVar = 1u;
 137:Generated_Source\PSoC5/QuadDec_L.c ****     }
 138:Generated_Source\PSoC5/QuadDec_L.c **** 
 139:Generated_Source\PSoC5/QuadDec_L.c ****     QuadDec_L_Enable();
 140:Generated_Source\PSoC5/QuadDec_L.c **** }
 141:Generated_Source\PSoC5/QuadDec_L.c **** 
 142:Generated_Source\PSoC5/QuadDec_L.c **** 
 143:Generated_Source\PSoC5/QuadDec_L.c **** /*******************************************************************************
 144:Generated_Source\PSoC5/QuadDec_L.c **** * Function Name: QuadDec_L_Stop
 145:Generated_Source\PSoC5/QuadDec_L.c **** ********************************************************************************
 146:Generated_Source\PSoC5/QuadDec_L.c **** *
 147:Generated_Source\PSoC5/QuadDec_L.c **** * Summary:
 148:Generated_Source\PSoC5/QuadDec_L.c **** *  Turns off UDBs and other relevant hardware.
 149:Generated_Source\PSoC5/QuadDec_L.c **** *
 150:Generated_Source\PSoC5/QuadDec_L.c **** * Parameters:
 151:Generated_Source\PSoC5/QuadDec_L.c **** *  None.
 152:Generated_Source\PSoC5/QuadDec_L.c **** *
 153:Generated_Source\PSoC5/QuadDec_L.c **** * Return:
 154:Generated_Source\PSoC5/QuadDec_L.c **** *  None.
 155:Generated_Source\PSoC5/QuadDec_L.c **** *
 156:Generated_Source\PSoC5/QuadDec_L.c **** *******************************************************************************/
 157:Generated_Source\PSoC5/QuadDec_L.c **** void QuadDec_L_Stop(void) 
ARM GAS  C:\Users\jmspi\AppData\Local\Temp\ccGFvthk.s 			page 5


 158:Generated_Source\PSoC5/QuadDec_L.c **** {
  71              		.loc 1 158 0
  72              		.cfi_startproc
  73              		@ args = 0, pretend = 0, frame = 0
  74              		@ frame_needed = 0, uses_anonymous_args = 0
  75 0000 08B5     		push	{r3, lr}
  76              		.cfi_def_cfa_offset 8
  77              		.cfi_offset 3, -8
  78              		.cfi_offset 14, -4
 159:Generated_Source\PSoC5/QuadDec_L.c ****     uint8 enableInterrupts;
 160:Generated_Source\PSoC5/QuadDec_L.c **** 
 161:Generated_Source\PSoC5/QuadDec_L.c ****     #if (QuadDec_L_COUNTER_SIZE == QuadDec_L_COUNTER_SIZE_8_BIT)
 162:Generated_Source\PSoC5/QuadDec_L.c ****         QuadDec_L_Cnt8_Stop();
 163:Generated_Source\PSoC5/QuadDec_L.c ****     #else 
 164:Generated_Source\PSoC5/QuadDec_L.c ****         /* (QuadDec_L_COUNTER_SIZE == QuadDec_L_COUNTER_SIZE_16_BIT) ||
 165:Generated_Source\PSoC5/QuadDec_L.c ****         *  (QuadDec_L_COUNTER_SIZE == QuadDec_L_COUNTER_SIZE_32_BIT)
 166:Generated_Source\PSoC5/QuadDec_L.c ****         */
 167:Generated_Source\PSoC5/QuadDec_L.c ****         QuadDec_L_Cnt16_Stop();    /* counter disable */
  79              		.loc 1 167 0
  80 0002 FFF7FEFF 		bl	QuadDec_L_Cnt16_Stop
  81              	.LVL2:
 168:Generated_Source\PSoC5/QuadDec_L.c ****     #endif /* (QuadDec_L_COUNTER_SIZE == QuadDec_L_COUNTER_SIZE_8_BIT) */
 169:Generated_Source\PSoC5/QuadDec_L.c ****  
 170:Generated_Source\PSoC5/QuadDec_L.c ****     enableInterrupts = CyEnterCriticalSection();
  82              		.loc 1 170 0
  83 0006 FFF7FEFF 		bl	CyEnterCriticalSection
  84              	.LVL3:
 171:Generated_Source\PSoC5/QuadDec_L.c **** 
 172:Generated_Source\PSoC5/QuadDec_L.c ****     /* Disable interrupts interrupts from Statusi register */
 173:Generated_Source\PSoC5/QuadDec_L.c ****     QuadDec_L_SR_AUX_CONTROL &= (uint8) (~QuadDec_L_INTERRUPTS_ENABLE);
  85              		.loc 1 173 0
  86 000a 054A     		ldr	r2, .L5
  87 000c 1378     		ldrb	r3, [r2]	@ zero_extendqisi2
  88 000e 03F0EF03 		and	r3, r3, #239
  89 0012 1370     		strb	r3, [r2]
 174:Generated_Source\PSoC5/QuadDec_L.c **** 
 175:Generated_Source\PSoC5/QuadDec_L.c ****     CyExitCriticalSection(enableInterrupts);
  90              		.loc 1 175 0
  91 0014 FFF7FEFF 		bl	CyExitCriticalSection
  92              	.LVL4:
 176:Generated_Source\PSoC5/QuadDec_L.c **** 
 177:Generated_Source\PSoC5/QuadDec_L.c ****     #if (QuadDec_L_COUNTER_SIZE == QuadDec_L_COUNTER_SIZE_32_BIT)
 178:Generated_Source\PSoC5/QuadDec_L.c ****         CyIntDisable(QuadDec_L_ISR_NUMBER);    /* interrupt disable */
  93              		.loc 1 178 0
  94 0018 024B     		ldr	r3, .L5+4
  95 001a 1022     		movs	r2, #16
  96 001c 1A60     		str	r2, [r3]
  97 001e 08BD     		pop	{r3, pc}
  98              	.L6:
  99              		.align	2
 100              	.L5:
 101 0020 97640040 		.word	1073767575
 102 0024 80E100E0 		.word	-536813184
 103              		.cfi_endproc
 104              	.LFE3:
 105              		.size	QuadDec_L_Stop, .-QuadDec_L_Stop
 106              		.section	.text.QuadDec_L_GetCounter,"ax",%progbits
ARM GAS  C:\Users\jmspi\AppData\Local\Temp\ccGFvthk.s 			page 6


 107              		.align	1
 108              		.global	QuadDec_L_GetCounter
 109              		.thumb
 110              		.thumb_func
 111              		.type	QuadDec_L_GetCounter, %function
 112              	QuadDec_L_GetCounter:
 113              	.LFB4:
 179:Generated_Source\PSoC5/QuadDec_L.c ****     #endif /* QuadDec_L_COUNTER_SIZE == QuadDec_L_COUNTER_SIZE_32_BIT */
 180:Generated_Source\PSoC5/QuadDec_L.c **** }
 181:Generated_Source\PSoC5/QuadDec_L.c **** 
 182:Generated_Source\PSoC5/QuadDec_L.c **** 
 183:Generated_Source\PSoC5/QuadDec_L.c **** /*******************************************************************************
 184:Generated_Source\PSoC5/QuadDec_L.c **** * Function Name: QuadDec_L_GetCounter
 185:Generated_Source\PSoC5/QuadDec_L.c **** ********************************************************************************
 186:Generated_Source\PSoC5/QuadDec_L.c **** *
 187:Generated_Source\PSoC5/QuadDec_L.c **** * Summary:
 188:Generated_Source\PSoC5/QuadDec_L.c **** *  Reports the current value of the counter.
 189:Generated_Source\PSoC5/QuadDec_L.c **** *
 190:Generated_Source\PSoC5/QuadDec_L.c **** * Parameters:
 191:Generated_Source\PSoC5/QuadDec_L.c **** *  None.
 192:Generated_Source\PSoC5/QuadDec_L.c **** *
 193:Generated_Source\PSoC5/QuadDec_L.c **** * Return:
 194:Generated_Source\PSoC5/QuadDec_L.c **** *  The counter value. Return type is signed and per the counter size setting.
 195:Generated_Source\PSoC5/QuadDec_L.c **** *  A positive value indicates clockwise movement (B before A).
 196:Generated_Source\PSoC5/QuadDec_L.c **** *
 197:Generated_Source\PSoC5/QuadDec_L.c **** * Global variables:
 198:Generated_Source\PSoC5/QuadDec_L.c **** *  QuadDec_L_count32SoftPart - used to get hi 16 bit for current value
 199:Generated_Source\PSoC5/QuadDec_L.c **** *  of the 32-bit counter, when Counter size equal 32-bit.
 200:Generated_Source\PSoC5/QuadDec_L.c **** *
 201:Generated_Source\PSoC5/QuadDec_L.c **** *******************************************************************************/
 202:Generated_Source\PSoC5/QuadDec_L.c **** int32 QuadDec_L_GetCounter(void) 
 203:Generated_Source\PSoC5/QuadDec_L.c **** {
 114              		.loc 1 203 0
 115              		.cfi_startproc
 116              		@ args = 0, pretend = 0, frame = 0
 117              		@ frame_needed = 0, uses_anonymous_args = 0
 204:Generated_Source\PSoC5/QuadDec_L.c ****     int32 count;
 205:Generated_Source\PSoC5/QuadDec_L.c ****     uint16 tmpCnt;
 206:Generated_Source\PSoC5/QuadDec_L.c **** 
 207:Generated_Source\PSoC5/QuadDec_L.c ****     #if (QuadDec_L_COUNTER_SIZE == QuadDec_L_COUNTER_SIZE_32_BIT)
 208:Generated_Source\PSoC5/QuadDec_L.c ****         int16 hwCount;
 209:Generated_Source\PSoC5/QuadDec_L.c **** 
 210:Generated_Source\PSoC5/QuadDec_L.c ****         CyIntDisable(QuadDec_L_ISR_NUMBER);
 118              		.loc 1 210 0
 119 0000 074B     		ldr	r3, .L8
 203:Generated_Source\PSoC5/QuadDec_L.c ****     int32 count;
 120              		.loc 1 203 0
 121 0002 10B5     		push	{r4, lr}
 122              		.cfi_def_cfa_offset 8
 123              		.cfi_offset 4, -8
 124              		.cfi_offset 14, -4
 125              		.loc 1 210 0
 126 0004 1024     		movs	r4, #16
 127 0006 1C60     		str	r4, [r3]
 211:Generated_Source\PSoC5/QuadDec_L.c **** 
 212:Generated_Source\PSoC5/QuadDec_L.c ****         tmpCnt = QuadDec_L_Cnt16_ReadCounter();
 128              		.loc 1 212 0
ARM GAS  C:\Users\jmspi\AppData\Local\Temp\ccGFvthk.s 			page 7


 129 0008 FFF7FEFF 		bl	QuadDec_L_Cnt16_ReadCounter
 130              	.LVL5:
 213:Generated_Source\PSoC5/QuadDec_L.c ****         hwCount = (int16) ((int32) tmpCnt - (int32) QuadDec_L_COUNTER_INIT_VALUE);
 214:Generated_Source\PSoC5/QuadDec_L.c ****         count = QuadDec_L_count32SoftPart + hwCount;
 131              		.loc 1 214 0
 132 000c 054B     		ldr	r3, .L8+4
 215:Generated_Source\PSoC5/QuadDec_L.c **** 
 216:Generated_Source\PSoC5/QuadDec_L.c ****         CyIntEnable(QuadDec_L_ISR_NUMBER);
 133              		.loc 1 216 0
 134 000e 064A     		ldr	r2, .L8+8
 214:Generated_Source\PSoC5/QuadDec_L.c **** 
 135              		.loc 1 214 0
 136 0010 1B68     		ldr	r3, [r3]
 137              	.LVL6:
 217:Generated_Source\PSoC5/QuadDec_L.c ****     #else 
 218:Generated_Source\PSoC5/QuadDec_L.c ****         /* (QuadDec_L_COUNTER_SIZE == QuadDec_L_COUNTER_SIZE_8_BIT) || 
 219:Generated_Source\PSoC5/QuadDec_L.c ****         *  (QuadDec_L_COUNTER_SIZE == QuadDec_L_COUNTER_SIZE_16_BIT)
 220:Generated_Source\PSoC5/QuadDec_L.c ****         */
 221:Generated_Source\PSoC5/QuadDec_L.c ****         #if (QuadDec_L_COUNTER_SIZE == QuadDec_L_COUNTER_SIZE_8_BIT)
 222:Generated_Source\PSoC5/QuadDec_L.c ****             tmpCnt = QuadDec_L_Cnt8_ReadCounter();
 223:Generated_Source\PSoC5/QuadDec_L.c ****         #else /* (QuadDec_L_COUNTER_SIZE == QuadDec_L_COUNTER_SIZE_16_BIT) */
 224:Generated_Source\PSoC5/QuadDec_L.c ****             tmpCnt = QuadDec_L_Cnt16_ReadCounter();
 225:Generated_Source\PSoC5/QuadDec_L.c ****         #endif  /* QuadDec_L_COUNTER_SIZE == QuadDec_L_COUNTER_SIZE_8_BIT */
 226:Generated_Source\PSoC5/QuadDec_L.c **** 
 227:Generated_Source\PSoC5/QuadDec_L.c ****         count = (int32) ((int32) tmpCnt -
 228:Generated_Source\PSoC5/QuadDec_L.c ****                 (int32) QuadDec_L_COUNTER_INIT_VALUE);
 229:Generated_Source\PSoC5/QuadDec_L.c **** 
 230:Generated_Source\PSoC5/QuadDec_L.c ****     #endif /* QuadDec_L_COUNTER_SIZE == QuadDec_L_COUNTER_SIZE_32_BIT */ 
 231:Generated_Source\PSoC5/QuadDec_L.c **** 
 232:Generated_Source\PSoC5/QuadDec_L.c ****     return (count);
 138              		.loc 1 232 0
 139 0012 A0F50040 		sub	r0, r0, #32768
 140              	.LVL7:
 141 0016 00B2     		sxth	r0, r0
 216:Generated_Source\PSoC5/QuadDec_L.c ****     #else 
 142              		.loc 1 216 0
 143 0018 1460     		str	r4, [r2]
 233:Generated_Source\PSoC5/QuadDec_L.c **** }
 144              		.loc 1 233 0
 145 001a 1844     		add	r0, r0, r3
 146 001c 10BD     		pop	{r4, pc}
 147              	.L9:
 148 001e 00BF     		.align	2
 149              	.L8:
 150 0020 80E100E0 		.word	-536813184
 151 0024 00000000 		.word	QuadDec_L_count32SoftPart
 152 0028 00E100E0 		.word	-536813312
 153              		.cfi_endproc
 154              	.LFE4:
 155              		.size	QuadDec_L_GetCounter, .-QuadDec_L_GetCounter
 156              		.section	.text.QuadDec_L_SetCounter,"ax",%progbits
 157              		.align	1
 158              		.global	QuadDec_L_SetCounter
 159              		.thumb
 160              		.thumb_func
 161              		.type	QuadDec_L_SetCounter, %function
 162              	QuadDec_L_SetCounter:
ARM GAS  C:\Users\jmspi\AppData\Local\Temp\ccGFvthk.s 			page 8


 163              	.LFB5:
 234:Generated_Source\PSoC5/QuadDec_L.c **** 
 235:Generated_Source\PSoC5/QuadDec_L.c **** 
 236:Generated_Source\PSoC5/QuadDec_L.c **** /*******************************************************************************
 237:Generated_Source\PSoC5/QuadDec_L.c **** * Function Name: QuadDec_L_SetCounter
 238:Generated_Source\PSoC5/QuadDec_L.c **** ********************************************************************************
 239:Generated_Source\PSoC5/QuadDec_L.c **** *
 240:Generated_Source\PSoC5/QuadDec_L.c **** * Summary:
 241:Generated_Source\PSoC5/QuadDec_L.c **** *  Sets the current value of the counter.
 242:Generated_Source\PSoC5/QuadDec_L.c **** *
 243:Generated_Source\PSoC5/QuadDec_L.c **** * Parameters:
 244:Generated_Source\PSoC5/QuadDec_L.c **** *  value:  The new value. Parameter type is signed and per the counter size
 245:Generated_Source\PSoC5/QuadDec_L.c **** *  setting.
 246:Generated_Source\PSoC5/QuadDec_L.c **** *
 247:Generated_Source\PSoC5/QuadDec_L.c **** * Return:
 248:Generated_Source\PSoC5/QuadDec_L.c **** *  None.
 249:Generated_Source\PSoC5/QuadDec_L.c **** *
 250:Generated_Source\PSoC5/QuadDec_L.c **** * Global variables:
 251:Generated_Source\PSoC5/QuadDec_L.c **** *  QuadDec_L_count32SoftPart - modified to set hi 16 bit for current
 252:Generated_Source\PSoC5/QuadDec_L.c **** *  value of the 32-bit counter, when Counter size equal 32-bit.
 253:Generated_Source\PSoC5/QuadDec_L.c **** *
 254:Generated_Source\PSoC5/QuadDec_L.c **** * Reentrant:
 255:Generated_Source\PSoC5/QuadDec_L.c **** *  No.
 256:Generated_Source\PSoC5/QuadDec_L.c **** *
 257:Generated_Source\PSoC5/QuadDec_L.c **** *******************************************************************************/
 258:Generated_Source\PSoC5/QuadDec_L.c **** void QuadDec_L_SetCounter(int32 value) 
 259:Generated_Source\PSoC5/QuadDec_L.c **** {
 164              		.loc 1 259 0
 165              		.cfi_startproc
 166              		@ args = 0, pretend = 0, frame = 0
 167              		@ frame_needed = 0, uses_anonymous_args = 0
 168              	.LVL8:
 169 0000 38B5     		push	{r3, r4, r5, lr}
 170              		.cfi_def_cfa_offset 16
 171              		.cfi_offset 3, -16
 172              		.cfi_offset 4, -12
 173              		.cfi_offset 5, -8
 174              		.cfi_offset 14, -4
 175              		.loc 1 259 0
 176 0002 0546     		mov	r5, r0
 260:Generated_Source\PSoC5/QuadDec_L.c ****     #if ((QuadDec_L_COUNTER_SIZE == QuadDec_L_COUNTER_SIZE_8_BIT) || \
 261:Generated_Source\PSoC5/QuadDec_L.c ****          (QuadDec_L_COUNTER_SIZE == QuadDec_L_COUNTER_SIZE_16_BIT))
 262:Generated_Source\PSoC5/QuadDec_L.c ****         uint16 count;
 263:Generated_Source\PSoC5/QuadDec_L.c ****         
 264:Generated_Source\PSoC5/QuadDec_L.c ****         if (value >= 0)
 265:Generated_Source\PSoC5/QuadDec_L.c ****         {
 266:Generated_Source\PSoC5/QuadDec_L.c ****             count = (uint16) value + QuadDec_L_COUNTER_INIT_VALUE;
 267:Generated_Source\PSoC5/QuadDec_L.c ****         }
 268:Generated_Source\PSoC5/QuadDec_L.c ****         else
 269:Generated_Source\PSoC5/QuadDec_L.c ****         {
 270:Generated_Source\PSoC5/QuadDec_L.c ****             count = QuadDec_L_COUNTER_INIT_VALUE - (uint16)(-value);
 271:Generated_Source\PSoC5/QuadDec_L.c ****         }
 272:Generated_Source\PSoC5/QuadDec_L.c ****         #if (QuadDec_L_COUNTER_SIZE == QuadDec_L_COUNTER_SIZE_8_BIT)
 273:Generated_Source\PSoC5/QuadDec_L.c ****             QuadDec_L_Cnt8_WriteCounter(count);
 274:Generated_Source\PSoC5/QuadDec_L.c ****         #else /* (QuadDec_L_COUNTER_SIZE == QuadDec_L_COUNTER_SIZE_16_BIT) */
 275:Generated_Source\PSoC5/QuadDec_L.c ****             QuadDec_L_Cnt16_WriteCounter(count);
 276:Generated_Source\PSoC5/QuadDec_L.c ****         #endif  /* QuadDec_L_COUNTER_SIZE == QuadDec_L_COUNTER_SIZE_8_BIT */
ARM GAS  C:\Users\jmspi\AppData\Local\Temp\ccGFvthk.s 			page 9


 277:Generated_Source\PSoC5/QuadDec_L.c ****     #else /* (QuadDec_L_COUNTER_SIZE == QuadDec_L_COUNTER_SIZE_32_BIT) */
 278:Generated_Source\PSoC5/QuadDec_L.c ****         CyIntDisable(QuadDec_L_ISR_NUMBER);
 177              		.loc 1 278 0
 178 0004 054B     		ldr	r3, .L11
 179 0006 1024     		movs	r4, #16
 180 0008 1C60     		str	r4, [r3]
 279:Generated_Source\PSoC5/QuadDec_L.c **** 
 280:Generated_Source\PSoC5/QuadDec_L.c ****         QuadDec_L_Cnt16_WriteCounter(QuadDec_L_COUNTER_INIT_VALUE);
 181              		.loc 1 280 0
 182 000a 4FF40040 		mov	r0, #32768
 183              	.LVL9:
 184 000e FFF7FEFF 		bl	QuadDec_L_Cnt16_WriteCounter
 185              	.LVL10:
 281:Generated_Source\PSoC5/QuadDec_L.c ****         QuadDec_L_count32SoftPart = value;
 186              		.loc 1 281 0
 187 0012 034B     		ldr	r3, .L11+4
 188 0014 1D60     		str	r5, [r3]
 282:Generated_Source\PSoC5/QuadDec_L.c **** 
 283:Generated_Source\PSoC5/QuadDec_L.c ****         CyIntEnable(QuadDec_L_ISR_NUMBER);
 189              		.loc 1 283 0
 190 0016 034B     		ldr	r3, .L11+8
 191 0018 1C60     		str	r4, [r3]
 192 001a 38BD     		pop	{r3, r4, r5, pc}
 193              	.LVL11:
 194              	.L12:
 195              		.align	2
 196              	.L11:
 197 001c 80E100E0 		.word	-536813184
 198 0020 00000000 		.word	QuadDec_L_count32SoftPart
 199 0024 00E100E0 		.word	-536813312
 200              		.cfi_endproc
 201              	.LFE5:
 202              		.size	QuadDec_L_SetCounter, .-QuadDec_L_SetCounter
 203              		.section	.text.QuadDec_L_GetEvents,"ax",%progbits
 204              		.align	1
 205              		.global	QuadDec_L_GetEvents
 206              		.thumb
 207              		.thumb_func
 208              		.type	QuadDec_L_GetEvents, %function
 209              	QuadDec_L_GetEvents:
 210              	.LFB6:
 284:Generated_Source\PSoC5/QuadDec_L.c ****     #endif  /* (QuadDec_L_COUNTER_SIZE == QuadDec_L_COUNTER_SIZE_8_BIT) ||
 285:Generated_Source\PSoC5/QuadDec_L.c ****              * (QuadDec_L_COUNTER_SIZE == QuadDec_L_COUNTER_SIZE_16_BIT)
 286:Generated_Source\PSoC5/QuadDec_L.c ****              */
 287:Generated_Source\PSoC5/QuadDec_L.c **** }
 288:Generated_Source\PSoC5/QuadDec_L.c **** 
 289:Generated_Source\PSoC5/QuadDec_L.c **** 
 290:Generated_Source\PSoC5/QuadDec_L.c **** /*******************************************************************************
 291:Generated_Source\PSoC5/QuadDec_L.c **** * Function Name: QuadDec_L_GetEvents
 292:Generated_Source\PSoC5/QuadDec_L.c **** ********************************************************************************
 293:Generated_Source\PSoC5/QuadDec_L.c **** * 
 294:Generated_Source\PSoC5/QuadDec_L.c **** * Summary:
 295:Generated_Source\PSoC5/QuadDec_L.c **** *   Reports the current status of events. This function clears the bits of the 
 296:Generated_Source\PSoC5/QuadDec_L.c **** *   status register.
 297:Generated_Source\PSoC5/QuadDec_L.c **** *
 298:Generated_Source\PSoC5/QuadDec_L.c **** * Parameters:
 299:Generated_Source\PSoC5/QuadDec_L.c **** *  None.
ARM GAS  C:\Users\jmspi\AppData\Local\Temp\ccGFvthk.s 			page 10


 300:Generated_Source\PSoC5/QuadDec_L.c **** *
 301:Generated_Source\PSoC5/QuadDec_L.c **** * Return:
 302:Generated_Source\PSoC5/QuadDec_L.c **** *  The events, as bits in an unsigned 8-bit value:
 303:Generated_Source\PSoC5/QuadDec_L.c **** *    Bit      Description
 304:Generated_Source\PSoC5/QuadDec_L.c **** *     0        Counter overflow.
 305:Generated_Source\PSoC5/QuadDec_L.c **** *     1        Counter underflow.
 306:Generated_Source\PSoC5/QuadDec_L.c **** *     2        Counter reset due to index, if index input is used.
 307:Generated_Source\PSoC5/QuadDec_L.c **** *     3        Invalid A, B inputs state transition.
 308:Generated_Source\PSoC5/QuadDec_L.c **** *
 309:Generated_Source\PSoC5/QuadDec_L.c **** *******************************************************************************/
 310:Generated_Source\PSoC5/QuadDec_L.c **** uint8 QuadDec_L_GetEvents(void) 
 311:Generated_Source\PSoC5/QuadDec_L.c **** {
 211              		.loc 1 311 0
 212              		.cfi_startproc
 213              		@ args = 0, pretend = 0, frame = 0
 214              		@ frame_needed = 0, uses_anonymous_args = 0
 215              		@ link register save eliminated.
 312:Generated_Source\PSoC5/QuadDec_L.c ****     return (QuadDec_L_STATUS_REG & QuadDec_L_INIT_INT_MASK);
 216              		.loc 1 312 0
 217 0000 024B     		ldr	r3, .L14
 218 0002 1878     		ldrb	r0, [r3]	@ zero_extendqisi2
 313:Generated_Source\PSoC5/QuadDec_L.c **** }
 219              		.loc 1 313 0
 220 0004 00F00F00 		and	r0, r0, #15
 221 0008 7047     		bx	lr
 222              	.L15:
 223 000a 00BF     		.align	2
 224              	.L14:
 225 000c 67640040 		.word	1073767527
 226              		.cfi_endproc
 227              	.LFE6:
 228              		.size	QuadDec_L_GetEvents, .-QuadDec_L_GetEvents
 229              		.section	.text.QuadDec_L_Enable,"ax",%progbits
 230              		.align	1
 231              		.global	QuadDec_L_Enable
 232              		.thumb
 233              		.thumb_func
 234              		.type	QuadDec_L_Enable, %function
 235              	QuadDec_L_Enable:
 236              	.LFB1:
  71:Generated_Source\PSoC5/QuadDec_L.c ****     uint8 enableInterrupts;
 237              		.loc 1 71 0
 238              		.cfi_startproc
 239              		@ args = 0, pretend = 0, frame = 0
 240              		@ frame_needed = 0, uses_anonymous_args = 0
 241              	.LVL12:
 242 0000 08B5     		push	{r3, lr}
 243              		.cfi_def_cfa_offset 8
 244              		.cfi_offset 3, -8
 245              		.cfi_offset 14, -4
 246              	.LBB4:
 247              	.LBB5:
 314:Generated_Source\PSoC5/QuadDec_L.c **** 
 315:Generated_Source\PSoC5/QuadDec_L.c **** 
 316:Generated_Source\PSoC5/QuadDec_L.c **** /*******************************************************************************
 317:Generated_Source\PSoC5/QuadDec_L.c **** * Function Name: QuadDec_L_SetInterruptMask
 318:Generated_Source\PSoC5/QuadDec_L.c **** ********************************************************************************
ARM GAS  C:\Users\jmspi\AppData\Local\Temp\ccGFvthk.s 			page 11


 319:Generated_Source\PSoC5/QuadDec_L.c **** *
 320:Generated_Source\PSoC5/QuadDec_L.c **** * Summary:
 321:Generated_Source\PSoC5/QuadDec_L.c **** *  Enables / disables interrupts due to the events.
 322:Generated_Source\PSoC5/QuadDec_L.c **** *  For the 32-bit counter, the overflow, underflow and reset interrupts cannot
 323:Generated_Source\PSoC5/QuadDec_L.c **** *  be disabled, these bits are ignored.
 324:Generated_Source\PSoC5/QuadDec_L.c **** *
 325:Generated_Source\PSoC5/QuadDec_L.c **** * Parameters:
 326:Generated_Source\PSoC5/QuadDec_L.c **** *  mask: Enable / disable bits in an 8-bit value, where 1 enables the interrupt.
 327:Generated_Source\PSoC5/QuadDec_L.c **** *
 328:Generated_Source\PSoC5/QuadDec_L.c **** * Return:
 329:Generated_Source\PSoC5/QuadDec_L.c **** *  None.
 330:Generated_Source\PSoC5/QuadDec_L.c **** *
 331:Generated_Source\PSoC5/QuadDec_L.c **** *******************************************************************************/
 332:Generated_Source\PSoC5/QuadDec_L.c **** void QuadDec_L_SetInterruptMask(uint8 mask) 
 333:Generated_Source\PSoC5/QuadDec_L.c **** {
 334:Generated_Source\PSoC5/QuadDec_L.c ****     #if (QuadDec_L_COUNTER_SIZE == QuadDec_L_COUNTER_SIZE_32_BIT)
 335:Generated_Source\PSoC5/QuadDec_L.c ****         /* Underflow, Overflow and Reset interrupts for 32-bit Counter are always enable */
 336:Generated_Source\PSoC5/QuadDec_L.c ****         mask |= (QuadDec_L_COUNTER_OVERFLOW | QuadDec_L_COUNTER_UNDERFLOW |
 337:Generated_Source\PSoC5/QuadDec_L.c ****                  QuadDec_L_COUNTER_RESET);
 338:Generated_Source\PSoC5/QuadDec_L.c ****     #endif /* QuadDec_L_COUNTER_SIZE == QuadDec_L_COUNTER_SIZE_32_BIT */
 339:Generated_Source\PSoC5/QuadDec_L.c **** 
 340:Generated_Source\PSoC5/QuadDec_L.c ****     QuadDec_L_STATUS_MASK = mask;
 248              		.loc 1 340 0
 249 0002 094B     		ldr	r3, .L17
 250 0004 0F22     		movs	r2, #15
 251 0006 1A70     		strb	r2, [r3]
 252              	.LVL13:
 253              	.LBE5:
 254              	.LBE4:
  77:Generated_Source\PSoC5/QuadDec_L.c ****     
 255              		.loc 1 77 0
 256 0008 FFF7FEFF 		bl	QuadDec_L_GetEvents
 257              	.LVL14:
  79:Generated_Source\PSoC5/QuadDec_L.c **** 
 258              		.loc 1 79 0
 259 000c FFF7FEFF 		bl	CyEnterCriticalSection
 260              	.LVL15:
  82:Generated_Source\PSoC5/QuadDec_L.c **** 
 261              		.loc 1 82 0
 262 0010 064A     		ldr	r2, .L17+4
 263 0012 1378     		ldrb	r3, [r2]	@ zero_extendqisi2
 264 0014 43F01003 		orr	r3, r3, #16
 265 0018 1370     		strb	r3, [r2]
  84:Generated_Source\PSoC5/QuadDec_L.c **** 
 266              		.loc 1 84 0
 267 001a FFF7FEFF 		bl	CyExitCriticalSection
 268              	.LVL16:
  88:Generated_Source\PSoC5/QuadDec_L.c ****     #endif /* QuadDec_L_COUNTER_SIZE == QuadDec_L_COUNTER_SIZE_32_BIT */
 269              		.loc 1 88 0
 270 001e 044B     		ldr	r3, .L17+8
 271 0020 1022     		movs	r2, #16
 272 0022 1A60     		str	r2, [r3]
 273 0024 08BD     		pop	{r3, pc}
 274              	.L18:
 275 0026 00BF     		.align	2
 276              	.L17:
 277 0028 87640040 		.word	1073767559
ARM GAS  C:\Users\jmspi\AppData\Local\Temp\ccGFvthk.s 			page 12


 278 002c 97640040 		.word	1073767575
 279 0030 00E100E0 		.word	-536813312
 280              		.cfi_endproc
 281              	.LFE1:
 282              		.size	QuadDec_L_Enable, .-QuadDec_L_Enable
 283              		.section	.text.QuadDec_L_Start,"ax",%progbits
 284              		.align	1
 285              		.global	QuadDec_L_Start
 286              		.thumb
 287              		.thumb_func
 288              		.type	QuadDec_L_Start, %function
 289              	QuadDec_L_Start:
 290              	.LFB2:
 117:Generated_Source\PSoC5/QuadDec_L.c ****     #if (QuadDec_L_COUNTER_SIZE == QuadDec_L_COUNTER_SIZE_8_BIT)
 291              		.loc 1 117 0
 292              		.cfi_startproc
 293              		@ args = 0, pretend = 0, frame = 0
 294              		@ frame_needed = 0, uses_anonymous_args = 0
 295 0000 10B5     		push	{r4, lr}
 296              		.cfi_def_cfa_offset 8
 297              		.cfi_offset 4, -8
 298              		.cfi_offset 14, -4
 125:Generated_Source\PSoC5/QuadDec_L.c ****         QuadDec_L_Cnt16_WriteCounter(QuadDec_L_COUNTER_INIT_VALUE);
 299              		.loc 1 125 0
 300 0002 FFF7FEFF 		bl	QuadDec_L_Cnt16_Start
 301              	.LVL17:
 126:Generated_Source\PSoC5/QuadDec_L.c ****     #endif /* QuadDec_L_COUNTER_SIZE == QuadDec_L_COUNTER_SIZE_8_BIT */
 302              		.loc 1 126 0
 303 0006 4FF40040 		mov	r0, #32768
 304 000a FFF7FEFF 		bl	QuadDec_L_Cnt16_WriteCounter
 305              	.LVL18:
 133:Generated_Source\PSoC5/QuadDec_L.c ****     {
 306              		.loc 1 133 0
 307 000e 074C     		ldr	r4, .L22
 130:Generated_Source\PSoC5/QuadDec_L.c ****     #endif /* QuadDec_L_COUNTER_SIZE == QuadDec_L_COUNTER_SIZE_32_BIT */
 308              		.loc 1 130 0
 309 0010 074B     		ldr	r3, .L22+4
 310 0012 0022     		movs	r2, #0
 311 0014 1A60     		str	r2, [r3]
 133:Generated_Source\PSoC5/QuadDec_L.c ****     {
 312              		.loc 1 133 0
 313 0016 2378     		ldrb	r3, [r4]	@ zero_extendqisi2
 314 0018 1BB9     		cbnz	r3, .L20
 135:Generated_Source\PSoC5/QuadDec_L.c ****         QuadDec_L_initVar = 1u;
 315              		.loc 1 135 0
 316 001a FFF7FEFF 		bl	QuadDec_L_Init
 317              	.LVL19:
 136:Generated_Source\PSoC5/QuadDec_L.c ****     }
 318              		.loc 1 136 0
 319 001e 0123     		movs	r3, #1
 320 0020 2370     		strb	r3, [r4]
 321              	.L20:
 140:Generated_Source\PSoC5/QuadDec_L.c **** 
 322              		.loc 1 140 0
 323 0022 BDE81040 		pop	{r4, lr}
 324              		.cfi_restore 14
 325              		.cfi_restore 4
ARM GAS  C:\Users\jmspi\AppData\Local\Temp\ccGFvthk.s 			page 13


 326              		.cfi_def_cfa_offset 0
 139:Generated_Source\PSoC5/QuadDec_L.c **** }
 327              		.loc 1 139 0
 328 0026 FFF7FEBF 		b	QuadDec_L_Enable
 329              	.LVL20:
 330              	.L23:
 331 002a 00BF     		.align	2
 332              	.L22:
 333 002c 00000000 		.word	.LANCHOR0
 334 0030 00000000 		.word	QuadDec_L_count32SoftPart
 335              		.cfi_endproc
 336              	.LFE2:
 337              		.size	QuadDec_L_Start, .-QuadDec_L_Start
 338              		.section	.text.QuadDec_L_SetInterruptMask,"ax",%progbits
 339              		.align	1
 340              		.global	QuadDec_L_SetInterruptMask
 341              		.thumb
 342              		.thumb_func
 343              		.type	QuadDec_L_SetInterruptMask, %function
 344              	QuadDec_L_SetInterruptMask:
 345              	.LFB7:
 333:Generated_Source\PSoC5/QuadDec_L.c ****     #if (QuadDec_L_COUNTER_SIZE == QuadDec_L_COUNTER_SIZE_32_BIT)
 346              		.loc 1 333 0
 347              		.cfi_startproc
 348              		@ args = 0, pretend = 0, frame = 0
 349              		@ frame_needed = 0, uses_anonymous_args = 0
 350              		@ link register save eliminated.
 351              	.LVL21:
 352              		.loc 1 340 0
 353 0000 024B     		ldr	r3, .L25
 336:Generated_Source\PSoC5/QuadDec_L.c ****                  QuadDec_L_COUNTER_RESET);
 354              		.loc 1 336 0
 355 0002 40F00700 		orr	r0, r0, #7
 356              	.LVL22:
 357              		.loc 1 340 0
 358 0006 1870     		strb	r0, [r3]
 359 0008 7047     		bx	lr
 360              	.L26:
 361 000a 00BF     		.align	2
 362              	.L25:
 363 000c 87640040 		.word	1073767559
 364              		.cfi_endproc
 365              	.LFE7:
 366              		.size	QuadDec_L_SetInterruptMask, .-QuadDec_L_SetInterruptMask
 367              		.section	.text.QuadDec_L_GetInterruptMask,"ax",%progbits
 368              		.align	1
 369              		.global	QuadDec_L_GetInterruptMask
 370              		.thumb
 371              		.thumb_func
 372              		.type	QuadDec_L_GetInterruptMask, %function
 373              	QuadDec_L_GetInterruptMask:
 374              	.LFB8:
 341:Generated_Source\PSoC5/QuadDec_L.c **** }
 342:Generated_Source\PSoC5/QuadDec_L.c **** 
 343:Generated_Source\PSoC5/QuadDec_L.c **** 
 344:Generated_Source\PSoC5/QuadDec_L.c **** /*******************************************************************************
 345:Generated_Source\PSoC5/QuadDec_L.c **** * Function Name: QuadDec_L_GetInterruptMask
ARM GAS  C:\Users\jmspi\AppData\Local\Temp\ccGFvthk.s 			page 14


 346:Generated_Source\PSoC5/QuadDec_L.c **** ********************************************************************************
 347:Generated_Source\PSoC5/QuadDec_L.c **** *
 348:Generated_Source\PSoC5/QuadDec_L.c **** * Summary:
 349:Generated_Source\PSoC5/QuadDec_L.c **** *  Reports the current interrupt mask settings.
 350:Generated_Source\PSoC5/QuadDec_L.c **** *
 351:Generated_Source\PSoC5/QuadDec_L.c **** * Parameters:
 352:Generated_Source\PSoC5/QuadDec_L.c **** *  None.
 353:Generated_Source\PSoC5/QuadDec_L.c **** *
 354:Generated_Source\PSoC5/QuadDec_L.c **** * Return:
 355:Generated_Source\PSoC5/QuadDec_L.c **** *  Enable / disable bits in an 8-bit value, where 1 enables the interrupt.
 356:Generated_Source\PSoC5/QuadDec_L.c **** *  For the 32-bit counter, the overflow, underflow and reset enable bits are
 357:Generated_Source\PSoC5/QuadDec_L.c **** *  always set.
 358:Generated_Source\PSoC5/QuadDec_L.c **** *
 359:Generated_Source\PSoC5/QuadDec_L.c **** *******************************************************************************/
 360:Generated_Source\PSoC5/QuadDec_L.c **** uint8 QuadDec_L_GetInterruptMask(void) 
 361:Generated_Source\PSoC5/QuadDec_L.c **** {
 375              		.loc 1 361 0
 376              		.cfi_startproc
 377              		@ args = 0, pretend = 0, frame = 0
 378              		@ frame_needed = 0, uses_anonymous_args = 0
 379              		@ link register save eliminated.
 362:Generated_Source\PSoC5/QuadDec_L.c ****     return (QuadDec_L_STATUS_MASK & QuadDec_L_INIT_INT_MASK);
 380              		.loc 1 362 0
 381 0000 024B     		ldr	r3, .L28
 382 0002 1878     		ldrb	r0, [r3]	@ zero_extendqisi2
 363:Generated_Source\PSoC5/QuadDec_L.c **** }
 383              		.loc 1 363 0
 384 0004 00F00F00 		and	r0, r0, #15
 385 0008 7047     		bx	lr
 386              	.L29:
 387 000a 00BF     		.align	2
 388              	.L28:
 389 000c 87640040 		.word	1073767559
 390              		.cfi_endproc
 391              	.LFE8:
 392              		.size	QuadDec_L_GetInterruptMask, .-QuadDec_L_GetInterruptMask
 393              		.global	QuadDec_L_initVar
 394              		.bss
 395              		.set	.LANCHOR0,. + 0
 396              		.type	QuadDec_L_initVar, %object
 397              		.size	QuadDec_L_initVar, 1
 398              	QuadDec_L_initVar:
 399 0000 00       		.space	1
 400              		.text
 401              	.Letext0:
 402              		.file 2 "Generated_Source\\PSoC5\\cytypes.h"
 403              		.file 3 "Generated_Source\\PSoC5\\QuadDec_L_PVT.h"
 404              		.file 4 "Generated_Source\\PSoC5\\CyLib.h"
 405              		.file 5 "Generated_Source\\PSoC5\\QuadDec_L_Cnt16.h"