ARM GAS  C:\Users\jmspi\AppData\Local\Temp\cc8GQICf.s 			page 1


   1              		.syntax unified
   2              		.cpu cortex-m3
   3              		.fpu softvfp
   4              		.eabi_attribute 20, 1
   5              		.eabi_attribute 21, 1
   6              		.eabi_attribute 23, 3
   7              		.eabi_attribute 24, 1
   8              		.eabi_attribute 25, 1
   9              		.eabi_attribute 26, 1
  10              		.eabi_attribute 30, 4
  11              		.eabi_attribute 34, 1
  12              		.eabi_attribute 18, 4
  13              		.thumb
  14              		.syntax unified
  15              		.file	"repmat.c"
  16              		.text
  17              	.Ltext0:
  18              		.cfi_sections	.debug_frame
  19              		.global	__aeabi_d2iz
  20              		.section	.text.repmat,"ax",%progbits
  21              		.align	1
  22              		.global	repmat
  23              		.thumb
  24              		.thumb_func
  25              		.type	repmat, %function
  26              	repmat:
  27              	.LFB0:
  28              		.file 1 "VFH+\\src\\repmat.c"
   1:VFH+\src/repmat.c **** /*
   2:VFH+\src/repmat.c ****  * Academic License - for use in teaching, academic research, and meeting
   3:VFH+\src/repmat.c ****  * course requirements at degree granting institutions only.  Not for
   4:VFH+\src/repmat.c ****  * government, commercial, or other organizational use.
   5:VFH+\src/repmat.c ****  * File: repmat.c
   6:VFH+\src/repmat.c ****  *
   7:VFH+\src/repmat.c ****  * MATLAB Coder version            : 5.3
   8:VFH+\src/repmat.c ****  * C/C++ source code generated on  : 30-Aug-2023 22:51:35
   9:VFH+\src/repmat.c ****  */
  10:VFH+\src/repmat.c **** 
  11:VFH+\src/repmat.c **** /* Include Files */
  12:VFH+\src/repmat.c **** #include "repmat.h"
  13:VFH+\src/repmat.c **** #include "rt_nonfinite.h"
  14:VFH+\src/repmat.c **** #include "vfhTest_emxutil.h"
  15:VFH+\src/repmat.c **** #include "vfhTest_types.h"
  16:VFH+\src/repmat.c **** 
  17:VFH+\src/repmat.c **** /* Function Definitions */
  18:VFH+\src/repmat.c **** /*
  19:VFH+\src/repmat.c ****  * Arguments    : const double a[3]
  20:VFH+\src/repmat.c ****  *                double varargin_1
  21:VFH+\src/repmat.c ****  *                emxArray_real_T *b
  22:VFH+\src/repmat.c ****  * Return Type  : void
  23:VFH+\src/repmat.c ****  */
  24:VFH+\src/repmat.c **** void repmat(const double a[3], double varargin_1, emxArray_real_T *b)
  25:VFH+\src/repmat.c **** {
  29              		.loc 1 25 0
  30              		.cfi_startproc
  31              		@ args = 4, pretend = 0, frame = 0
  32              		@ frame_needed = 0, uses_anonymous_args = 0
ARM GAS  C:\Users\jmspi\AppData\Local\Temp\cc8GQICf.s 			page 2


  33              	.LVL0:
  34 0000 2DE9F041 		push	{r4, r5, r6, r7, r8, lr}
  35              		.cfi_def_cfa_offset 24
  36              		.cfi_offset 4, -24
  37              		.cfi_offset 5, -20
  38              		.cfi_offset 6, -16
  39              		.cfi_offset 7, -12
  40              		.cfi_offset 8, -8
  41              		.cfi_offset 14, -4
  42              		.loc 1 25 0
  43 0004 069F     		ldr	r7, [sp, #24]
  44 0006 0446     		mov	r4, r0
  26:VFH+\src/repmat.c ****   double *b_data;
  27:VFH+\src/repmat.c ****   int ibmat;
  28:VFH+\src/repmat.c ****   int itilerow;
  29:VFH+\src/repmat.c ****   int jcol;
  30:VFH+\src/repmat.c ****   int ntilerows;
  31:VFH+\src/repmat.c ****   ntilerows = b->size[0] * b->size[1];
  45              		.loc 1 31 0
  46 0008 7D68     		ldr	r5, [r7, #4]
  47 000a 95E80300 		ldmia	r5, {r0, r1}
  48              	.LVL1:
  49 000e 01FB00F8 		mul	r8, r1, r0
  50              	.LVL2:
  32:VFH+\src/repmat.c ****   b->size[0] = (unsigned short)(int)varargin_1;
  51              		.loc 1 32 0
  52 0012 1946     		mov	r1, r3
  53 0014 1046     		mov	r0, r2
  54 0016 FFF7FEFF 		bl	__aeabi_d2iz
  55              	.LVL3:
  56 001a 83B2     		uxth	r3, r0
  57 001c 2B60     		str	r3, [r5]
  33:VFH+\src/repmat.c ****   b->size[1] = 3;
  58              		.loc 1 33 0
  59 001e 0323     		movs	r3, #3
  32:VFH+\src/repmat.c ****   b->size[0] = (unsigned short)(int)varargin_1;
  60              		.loc 1 32 0
  61 0020 0646     		mov	r6, r0
  62              		.loc 1 33 0
  63 0022 6B60     		str	r3, [r5, #4]
  34:VFH+\src/repmat.c ****   emxEnsureCapacity_real_T(b, ntilerows);
  64              		.loc 1 34 0
  65 0024 3846     		mov	r0, r7
  66 0026 4146     		mov	r1, r8
  67 0028 FFF7FEFF 		bl	emxEnsureCapacity_real_T
  68              	.LVL4:
  69 002c 2046     		mov	r0, r4
  70 002e 3B68     		ldr	r3, [r7]
  71 0030 4FEAC60E 		lsl	lr, r6, #3
  72 0034 04F11807 		add	r7, r4, #24
  73              	.LVL5:
  74              	.L4:
  35:VFH+\src/repmat.c ****   b_data = b->data;
  36:VFH+\src/repmat.c ****   ntilerows = (int)varargin_1;
  37:VFH+\src/repmat.c ****   for (jcol = 0; jcol < 3; jcol++) {
  38:VFH+\src/repmat.c ****     ibmat = jcol * (int)varargin_1;
  39:VFH+\src/repmat.c ****     for (itilerow = 0; itilerow < ntilerows; itilerow++) {
ARM GAS  C:\Users\jmspi\AppData\Local\Temp\cc8GQICf.s 			page 3


  75              		.loc 1 39 0
  76 0038 1946     		mov	r1, r3
  77 003a 0022     		movs	r2, #0
  78              	.LVL6:
  79              	.L2:
  80              		.loc 1 39 0 is_stmt 0 discriminator 1
  81 003c B242     		cmp	r2, r6
  82 003e 05DA     		bge	.L7
  40:VFH+\src/repmat.c ****       b_data[ibmat + itilerow] = a[jcol];
  83              		.loc 1 40 0 is_stmt 1 discriminator 3
  84 0040 D0E90045 		ldrd	r4, [r0]
  39:VFH+\src/repmat.c ****       b_data[ibmat + itilerow] = a[jcol];
  85              		.loc 1 39 0 discriminator 3
  86 0044 0132     		adds	r2, r2, #1
  87              	.LVL7:
  88              		.loc 1 40 0 discriminator 3
  89 0046 E1E80245 		strd	r4, [r1], #8
  90 004a F7E7     		b	.L2
  91              	.L7:
  92 004c 0830     		adds	r0, r0, #8
  37:VFH+\src/repmat.c ****     ibmat = jcol * (int)varargin_1;
  93              		.loc 1 37 0 discriminator 2
  94 004e B842     		cmp	r0, r7
  95 0050 7344     		add	r3, r3, lr
  96 0052 F1D1     		bne	.L4
  41:VFH+\src/repmat.c ****     }
  42:VFH+\src/repmat.c ****   }
  43:VFH+\src/repmat.c **** }
  97              		.loc 1 43 0
  98 0054 BDE8F081 		pop	{r4, r5, r6, r7, r8, pc}
  99              		.cfi_endproc
 100              	.LFE0:
 101              		.size	repmat, .-repmat
 102              		.text
 103              	.Letext0:
 104              		.file 2 ".\\VFH+\\include/vfhTest_types.h"
 105              		.file 3 ".\\VFH+\\include/vfhTest_emxutil.h"