ARM GAS  C:\Users\cyu13\AppData\Local\Temp\ccRBCQ1E.s 			page 1


   1              		.syntax unified
   2              		.cpu cortex-m3
   3              		.fpu softvfp
   4              		.eabi_attribute 20, 1
   5              		.eabi_attribute 21, 1
   6              		.eabi_attribute 23, 3
   7              		.eabi_attribute 24, 1
   8              		.eabi_attribute 25, 1
   9              		.eabi_attribute 26, 1
  10              		.eabi_attribute 30, 6
  11              		.eabi_attribute 34, 1
  12              		.eabi_attribute 18, 4
  13              		.thumb
  14              		.syntax unified
  15              		.file	"robot.c"
  16              		.text
  17              	.Ltext0:
  18              		.cfi_sections	.debug_frame
  19              		.global	__aeabi_dmul
  20              		.section	.text.motor_create,"ax",%progbits
  21              		.align	2
  22              		.global	motor_create
  23              		.thumb
  24              		.thumb_func
  25              		.type	motor_create, %function
  26              	motor_create:
  27              	.LFB1:
  28              		.file 1 "..\\Robot\\robot.c"
   1:..\Robot/robot.c **** #include "robot.h"
   2:..\Robot/robot.c **** 
   3:..\Robot/robot.c **** void *motor_create(Motor * motorola, long double wheel_r_scale, long double K_i, long double K_p) {
  29              		.loc 1 3 0
  30              		.cfi_startproc
  31              		@ args = 16, pretend = 0, frame = 16
  32              		@ frame_needed = 1, uses_anonymous_args = 0
  33 0000 90B5     		push	{r4, r7, lr}
  34              		.cfi_def_cfa_offset 12
  35              		.cfi_offset 4, -12
  36              		.cfi_offset 7, -8
  37              		.cfi_offset 14, -4
  38 0002 85B0     		sub	sp, sp, #20
  39              		.cfi_def_cfa_offset 32
  40 0004 00AF     		add	r7, sp, #0
  41              		.cfi_def_cfa_register 7
  42 0006 F860     		str	r0, [r7, #12]
  43 0008 C7E90023 		strd	r2, [r7]
   4:..\Robot/robot.c ****     motorola->duty_cycle = 0;
  44              		.loc 1 4 0
  45 000c FA68     		ldr	r2, [r7, #12]
  46 000e 4FF00003 		mov	r3, #0
  47 0012 4FF00004 		mov	r4, #0
  48 0016 C2E90034 		strd	r3, [r2]
   5:..\Robot/robot.c ****     motorola->int_error = 0;
  49              		.loc 1 5 0
  50 001a FA68     		ldr	r2, [r7, #12]
  51 001c 4FF00003 		mov	r3, #0
  52 0020 4FF00004 		mov	r4, #0
ARM GAS  C:\Users\cyu13\AppData\Local\Temp\ccRBCQ1E.s 			page 2


  53 0024 C2E90234 		strd	r3, [r2, #8]
   6:..\Robot/robot.c ****     motorola->desired_w = 0;
  54              		.loc 1 6 0
  55 0028 FA68     		ldr	r2, [r7, #12]
  56 002a 4FF00003 		mov	r3, #0
  57 002e 4FF00004 		mov	r4, #0
  58 0032 C2E90834 		strd	r3, [r2, #32]
   7:..\Robot/robot.c ****     motorola->wheel_radius = wheel_r_scale * 2.75;
  59              		.loc 1 7 0
  60 0036 4FF00002 		mov	r2, #0
  61 003a 0E4B     		ldr	r3, .L3
  62 003c D7E90001 		ldrd	r0, [r7]
  63 0040 FFF7FEFF 		bl	__aeabi_dmul
  64 0044 0346     		mov	r3, r0
  65 0046 0C46     		mov	r4, r1
  66 0048 FA68     		ldr	r2, [r7, #12]
  67 004a C2E90E34 		strd	r3, [r2, #56]
   8:..\Robot/robot.c ****     motorola->enc_count = 0;
  68              		.loc 1 8 0
  69 004e FB68     		ldr	r3, [r7, #12]
  70 0050 0022     		movs	r2, #0
  71 0052 1A64     		str	r2, [r3, #64]
   9:..\Robot/robot.c ****     motorola->Ki = K_i;  // TODO: determine good PI params
  72              		.loc 1 9 0
  73 0054 FA68     		ldr	r2, [r7, #12]
  74 0056 D7E90834 		ldrd	r3, [r7, #32]
  75 005a C2E90A34 		strd	r3, [r2, #40]
  10:..\Robot/robot.c ****     motorola->Kp = K_p;
  76              		.loc 1 10 0
  77 005e FA68     		ldr	r2, [r7, #12]
  78 0060 D7E90A34 		ldrd	r3, [r7, #40]
  79 0064 C2E90C34 		strd	r3, [r2, #48]
  11:..\Robot/robot.c ****     
  12:..\Robot/robot.c ****     return (motorola);
  80              		.loc 1 12 0
  81 0068 FB68     		ldr	r3, [r7, #12]
  13:..\Robot/robot.c **** }
  82              		.loc 1 13 0
  83 006a 1846     		mov	r0, r3
  84 006c 1437     		adds	r7, r7, #20
  85              		.cfi_def_cfa_offset 12
  86 006e BD46     		mov	sp, r7
  87              		.cfi_def_cfa_register 13
  88              		@ sp needed
  89 0070 90BD     		pop	{r4, r7, pc}
  90              	.L4:
  91 0072 00BF     		.align	2
  92              	.L3:
  93 0074 00000640 		.word	1074135040
  94              		.cfi_endproc
  95              	.LFE1:
  96              		.size	motor_create, .-motor_create
  97              		.section	.text.robot_create,"ax",%progbits
  98              		.align	2
  99              		.global	robot_create
 100              		.thumb
 101              		.thumb_func
ARM GAS  C:\Users\cyu13\AppData\Local\Temp\ccRBCQ1E.s 			page 3


 102              		.type	robot_create, %function
 103              	robot_create:
 104              	.LFB2:
  14:..\Robot/robot.c **** 
  15:..\Robot/robot.c **** void *robot_create(Robot * bender, long double robot_axle_width, long double K_i, long double K_p, 
 105              		.loc 1 15 0
 106              		.cfi_startproc
 107              		@ args = 40, pretend = 0, frame = 16
 108              		@ frame_needed = 1, uses_anonymous_args = 0
 109              		@ link register save eliminated.
 110 0000 90B4     		push	{r4, r7}
 111              		.cfi_def_cfa_offset 8
 112              		.cfi_offset 4, -8
 113              		.cfi_offset 7, -4
 114 0002 84B0     		sub	sp, sp, #16
 115              		.cfi_def_cfa_offset 24
 116 0004 00AF     		add	r7, sp, #0
 117              		.cfi_def_cfa_register 7
 118 0006 F860     		str	r0, [r7, #12]
 119 0008 C7E90023 		strd	r2, [r7]
  16:..\Robot/robot.c ****     bender->axle_width = robot_axle_width; 
 120              		.loc 1 16 0
 121 000c FA68     		ldr	r2, [r7, #12]
 122 000e D7E90034 		ldrd	r3, [r7]
 123 0012 C2E90034 		strd	r3, [r2]
  17:..\Robot/robot.c ****     bender->int_error = 0;
 124              		.loc 1 17 0
 125 0016 FA68     		ldr	r2, [r7, #12]
 126 0018 4FF00003 		mov	r3, #0
 127 001c 4FF00004 		mov	r4, #0
 128 0020 C2E91434 		strd	r3, [r2, #80]
  18:..\Robot/robot.c ****     bender->Ki = K_i;    // TODO: determine good PI values
 129              		.loc 1 18 0
 130 0024 FA68     		ldr	r2, [r7, #12]
 131 0026 D7E90634 		ldrd	r3, [r7, #24]
 132 002a C2E91034 		strd	r3, [r2, #64]
  19:..\Robot/robot.c ****     bender->Kp = K_p;
 133              		.loc 1 19 0
 134 002e FA68     		ldr	r2, [r7, #12]
 135 0030 D7E90834 		ldrd	r3, [r7, #32]
 136 0034 C2E91234 		strd	r3, [r2, #72]
  20:..\Robot/robot.c ****     bender->desired_v = 0;
 137              		.loc 1 20 0
 138 0038 FA68     		ldr	r2, [r7, #12]
 139 003a 4FF00003 		mov	r3, #0
 140 003e 4FF00004 		mov	r4, #0
 141 0042 C2E90C34 		strd	r3, [r2, #48]
  21:..\Robot/robot.c ****     bender->desired_theta = 0;
 142              		.loc 1 21 0
 143 0046 FA68     		ldr	r2, [r7, #12]
 144 0048 4FF00003 		mov	r3, #0
 145 004c 4FF00004 		mov	r4, #0
 146 0050 C2E90E34 		strd	r3, [r2, #56]
  22:..\Robot/robot.c ****     bender->theta = 0;
 147              		.loc 1 22 0
 148 0054 FA68     		ldr	r2, [r7, #12]
 149 0056 4FF00003 		mov	r3, #0
ARM GAS  C:\Users\cyu13\AppData\Local\Temp\ccRBCQ1E.s 			page 4


 150 005a 4FF00004 		mov	r4, #0
 151 005e C2E90234 		strd	r3, [r2, #8]
  23:..\Robot/robot.c ****     bender->x = x;
 152              		.loc 1 23 0
 153 0062 FA68     		ldr	r2, [r7, #12]
 154 0064 D7E90C34 		ldrd	r3, [r7, #48]
 155 0068 C2E90434 		strd	r3, [r2, #16]
  24:..\Robot/robot.c ****     bender->y = y;
 156              		.loc 1 24 0
 157 006c FA68     		ldr	r2, [r7, #12]
 158 006e D7E90E34 		ldrd	r3, [r7, #56]
 159 0072 C2E90634 		strd	r3, [r2, #24]
  25:..\Robot/robot.c ****     bender->goal_min_dist = minimum;
 160              		.loc 1 25 0
 161 0076 FA68     		ldr	r2, [r7, #12]
 162 0078 D7E90A34 		ldrd	r3, [r7, #40]
 163 007c C2E91A34 		strd	r3, [r2, #104]
  26:..\Robot/robot.c ****     bender->goal_x = 0;
 164              		.loc 1 26 0
 165 0080 FA68     		ldr	r2, [r7, #12]
 166 0082 4FF00003 		mov	r3, #0
 167 0086 4FF00004 		mov	r4, #0
 168 008a C2E91634 		strd	r3, [r2, #88]
  27:..\Robot/robot.c ****     bender->goal_y = 0;
 169              		.loc 1 27 0
 170 008e FA68     		ldr	r2, [r7, #12]
 171 0090 4FF00003 		mov	r3, #0
 172 0094 4FF00004 		mov	r4, #0
 173 0098 C2E91834 		strd	r3, [r2, #96]
  28:..\Robot/robot.c ****     
  29:..\Robot/robot.c ****     return (bender);
 174              		.loc 1 29 0
 175 009c FB68     		ldr	r3, [r7, #12]
  30:..\Robot/robot.c **** }...
 176              		.loc 1 30 0
 177 009e 1846     		mov	r0, r3
 178 00a0 1037     		adds	r7, r7, #16
 179              		.cfi_def_cfa_offset 8
 180 00a2 BD46     		mov	sp, r7
 181              		.cfi_def_cfa_register 13
 182              		@ sp needed
 183 00a4 90BC     		pop	{r4, r7}
 184              		.cfi_restore 7
 185              		.cfi_restore 4
 186              		.cfi_def_cfa_offset 0
 187 00a6 7047     		bx	lr
 188              		.cfi_endproc
 189              	.LFE2:
 190              		.size	robot_create, .-robot_create
 191              		.text
 192              	.Letext0:
 193              		.file 2 "..\\Robot\\robot.h"