ARM GAS  C:\Users\jmspi\AppData\Local\Temp\ccDcPoyi.s 			page 1


   1              		.syntax unified
   2              		.cpu cortex-m3
   3              		.fpu softvfp
   4              		.eabi_attribute 20, 1
   5              		.eabi_attribute 21, 1
   6              		.eabi_attribute 23, 3
   7              		.eabi_attribute 24, 1
   8              		.eabi_attribute 25, 1
   9              		.eabi_attribute 26, 1
  10              		.eabi_attribute 30, 4
  11              		.eabi_attribute 34, 1
  12              		.eabi_attribute 18, 4
  13              		.thumb
  14              		.syntax unified
  15              		.file	"rtGetInf.c"
  16              		.text
  17              	.Ltext0:
  18              		.cfi_sections	.debug_frame
  19              		.section	.text.rtGetInf,"ax",%progbits
  20              		.align	1
  21              		.global	rtGetInf
  22              		.thumb
  23              		.thumb_func
  24              		.type	rtGetInf, %function
  25              	rtGetInf:
  26              	.LFB0:
  27              		.file 1 "VFH+\\src\\rtGetInf.c"
   1:VFH+\src/rtGetInf.c **** /*
   2:VFH+\src/rtGetInf.c ****  * Academic License - for use in teaching, academic research, and meeting
   3:VFH+\src/rtGetInf.c ****  * course requirements at degree granting institutions only.  Not for
   4:VFH+\src/rtGetInf.c ****  * government, commercial, or other organizational use.
   5:VFH+\src/rtGetInf.c ****  * File: rtGetInf.c
   6:VFH+\src/rtGetInf.c ****  *
   7:VFH+\src/rtGetInf.c ****  * MATLAB Coder version            : 5.3
   8:VFH+\src/rtGetInf.c ****  * C/C++ source code generated on  : 30-Aug-2023 22:51:35
   9:VFH+\src/rtGetInf.c ****  */
  10:VFH+\src/rtGetInf.c **** 
  11:VFH+\src/rtGetInf.c **** /*
  12:VFH+\src/rtGetInf.c ****  * Abstract:
  13:VFH+\src/rtGetInf.c ****  *       MATLAB for code generation function to initialize non-finite, Inf and
  14:VFH+\src/rtGetInf.c ****  * MinusInf
  15:VFH+\src/rtGetInf.c ****  */
  16:VFH+\src/rtGetInf.c **** /* Include Files */
  17:VFH+\src/rtGetInf.c **** #include "rtGetInf.h"
  18:VFH+\src/rtGetInf.c **** #include "rt_nonfinite.h"
  19:VFH+\src/rtGetInf.c **** 
  20:VFH+\src/rtGetInf.c **** /*
  21:VFH+\src/rtGetInf.c ****  * Function: rtGetInf
  22:VFH+\src/rtGetInf.c ****  * ================================================================== Abstract:
  23:VFH+\src/rtGetInf.c ****  *  Initialize rtInf needed by the generated code.
  24:VFH+\src/rtGetInf.c ****  */
  25:VFH+\src/rtGetInf.c **** real_T rtGetInf(void)
  26:VFH+\src/rtGetInf.c **** {
  28              		.loc 1 26 0
  29              		.cfi_startproc
  30              		@ args = 0, pretend = 0, frame = 0
  31              		@ frame_needed = 0, uses_anonymous_args = 0
ARM GAS  C:\Users\jmspi\AppData\Local\Temp\ccDcPoyi.s 			page 2


  32              		@ link register save eliminated.
  27:VFH+\src/rtGetInf.c ****   return rtInf;
  28:VFH+\src/rtGetInf.c **** }
  33              		.loc 1 28 0
  34 0000 014B     		ldr	r3, .L2
  35 0002 D3E90001 		ldrd	r0, [r3]
  36 0006 7047     		bx	lr
  37              	.L3:
  38              		.align	2
  39              	.L2:
  40 0008 00000000 		.word	rtInf
  41              		.cfi_endproc
  42              	.LFE0:
  43              		.size	rtGetInf, .-rtGetInf
  44              		.section	.text.rtGetInfF,"ax",%progbits
  45              		.align	1
  46              		.global	rtGetInfF
  47              		.thumb
  48              		.thumb_func
  49              		.type	rtGetInfF, %function
  50              	rtGetInfF:
  51              	.LFB1:
  29:VFH+\src/rtGetInf.c **** 
  30:VFH+\src/rtGetInf.c **** /*
  31:VFH+\src/rtGetInf.c ****  * Function: rtGetInfF
  32:VFH+\src/rtGetInf.c ****  * ================================================================= Abstract:
  33:VFH+\src/rtGetInf.c ****  *  Initialize rtInfF needed by the generated code.
  34:VFH+\src/rtGetInf.c ****  */
  35:VFH+\src/rtGetInf.c **** real32_T rtGetInfF(void)
  36:VFH+\src/rtGetInf.c **** {
  52              		.loc 1 36 0
  53              		.cfi_startproc
  54              		@ args = 0, pretend = 0, frame = 0
  55              		@ frame_needed = 0, uses_anonymous_args = 0
  56              		@ link register save eliminated.
  37:VFH+\src/rtGetInf.c ****   return rtInfF;
  38:VFH+\src/rtGetInf.c **** }
  57              		.loc 1 38 0
  58 0000 014B     		ldr	r3, .L5
  59 0002 1868     		ldr	r0, [r3]	@ float
  60 0004 7047     		bx	lr
  61              	.L6:
  62 0006 00BF     		.align	2
  63              	.L5:
  64 0008 00000000 		.word	rtInfF
  65              		.cfi_endproc
  66              	.LFE1:
  67              		.size	rtGetInfF, .-rtGetInfF
  68              		.section	.text.rtGetMinusInf,"ax",%progbits
  69              		.align	1
  70              		.global	rtGetMinusInf
  71              		.thumb
  72              		.thumb_func
  73              		.type	rtGetMinusInf, %function
  74              	rtGetMinusInf:
  75              	.LFB2:
  39:VFH+\src/rtGetInf.c **** 
ARM GAS  C:\Users\jmspi\AppData\Local\Temp\ccDcPoyi.s 			page 3


  40:VFH+\src/rtGetInf.c **** /*
  41:VFH+\src/rtGetInf.c ****  * Function: rtGetMinusInf
  42:VFH+\src/rtGetInf.c ****  * ============================================================= Abstract:
  43:VFH+\src/rtGetInf.c ****  *  Initialize rtMinusInf needed by the generated code.
  44:VFH+\src/rtGetInf.c ****  */
  45:VFH+\src/rtGetInf.c **** real_T rtGetMinusInf(void)
  46:VFH+\src/rtGetInf.c **** {
  76              		.loc 1 46 0
  77              		.cfi_startproc
  78              		@ args = 0, pretend = 0, frame = 0
  79              		@ frame_needed = 0, uses_anonymous_args = 0
  80              		@ link register save eliminated.
  47:VFH+\src/rtGetInf.c ****   return rtMinusInf;
  48:VFH+\src/rtGetInf.c **** }
  81              		.loc 1 48 0
  82 0000 014B     		ldr	r3, .L8
  83 0002 D3E90001 		ldrd	r0, [r3]
  84 0006 7047     		bx	lr
  85              	.L9:
  86              		.align	2
  87              	.L8:
  88 0008 00000000 		.word	rtMinusInf
  89              		.cfi_endproc
  90              	.LFE2:
  91              		.size	rtGetMinusInf, .-rtGetMinusInf
  92              		.section	.text.rtGetMinusInfF,"ax",%progbits
  93              		.align	1
  94              		.global	rtGetMinusInfF
  95              		.thumb
  96              		.thumb_func
  97              		.type	rtGetMinusInfF, %function
  98              	rtGetMinusInfF:
  99              	.LFB3:
  49:VFH+\src/rtGetInf.c **** 
  50:VFH+\src/rtGetInf.c **** /*
  51:VFH+\src/rtGetInf.c ****  * Function: rtGetMinusInfF
  52:VFH+\src/rtGetInf.c ****  * ============================================================ Abstract:
  53:VFH+\src/rtGetInf.c ****  *  Initialize rtMinusInfF needed by the generated code.
  54:VFH+\src/rtGetInf.c ****  */
  55:VFH+\src/rtGetInf.c **** real32_T rtGetMinusInfF(void)
  56:VFH+\src/rtGetInf.c **** {
 100              		.loc 1 56 0
 101              		.cfi_startproc
 102              		@ args = 0, pretend = 0, frame = 0
 103              		@ frame_needed = 0, uses_anonymous_args = 0
 104              		@ link register save eliminated.
  57:VFH+\src/rtGetInf.c ****   return rtMinusInfF;
  58:VFH+\src/rtGetInf.c **** }
 105              		.loc 1 58 0
 106 0000 014B     		ldr	r3, .L11
 107 0002 1868     		ldr	r0, [r3]	@ float
 108 0004 7047     		bx	lr
 109              	.L12:
 110 0006 00BF     		.align	2
 111              	.L11:
 112 0008 00000000 		.word	rtMinusInfF
 113              		.cfi_endproc
ARM GAS  C:\Users\jmspi\AppData\Local\Temp\ccDcPoyi.s 			page 4


 114              	.LFE3:
 115              		.size	rtGetMinusInfF, .-rtGetMinusInfF
 116              		.text
 117              	.Letext0:
 118              		.file 2 ".\\VFH+\\include/rtwtypes.h"
 119              		.file 3 ".\\VFH+\\include/rt_nonfinite.h"