ARM GAS  C:\Users\jmspi\AppData\Local\Temp\ccTyTNst.s 			page 1


   1              		.syntax unified
   2              		.cpu cortex-m3
   3              		.fpu softvfp
   4              		.eabi_attribute 20, 1
   5              		.eabi_attribute 21, 1
   6              		.eabi_attribute 23, 3
   7              		.eabi_attribute 24, 1
   8              		.eabi_attribute 25, 1
   9              		.eabi_attribute 26, 1
  10              		.eabi_attribute 30, 4
  11              		.eabi_attribute 34, 1
  12              		.eabi_attribute 18, 4
  13              		.thumb
  14              		.syntax unified
  15              		.file	"sort.c"
  16              		.text
  17              	.Ltext0:
  18              		.cfi_sections	.debug_frame
  19              		.global	__aeabi_dcmple
  20              		.section	.text.sort,"ax",%progbits
  21              		.align	1
  22              		.global	sort
  23              		.thumb
  24              		.thumb_func
  25              		.type	sort, %function
  26              	sort:
  27              	.LFB0:
  28              		.file 1 "VFH+\\src\\sort.c"
   1:VFH+\src/sort.c **** /*
   2:VFH+\src/sort.c ****  * Academic License - for use in teaching, academic research, and meeting
   3:VFH+\src/sort.c ****  * course requirements at degree granting institutions only.  Not for
   4:VFH+\src/sort.c ****  * government, commercial, or other organizational use.
   5:VFH+\src/sort.c ****  * File: sort.c
   6:VFH+\src/sort.c ****  *
   7:VFH+\src/sort.c ****  * MATLAB Coder version            : 5.3
   8:VFH+\src/sort.c ****  * C/C++ source code generated on  : 30-Aug-2023 22:51:35
   9:VFH+\src/sort.c ****  */
  10:VFH+\src/sort.c **** 
  11:VFH+\src/sort.c **** /* Include Files */
  12:VFH+\src/sort.c **** #include "sort.h"
  13:VFH+\src/sort.c **** #include "rt_nonfinite.h"
  14:VFH+\src/sort.c **** #include "rt_nonfinite.h"
  15:VFH+\src/sort.c **** 
  16:VFH+\src/sort.c **** /* Function Definitions */
  17:VFH+\src/sort.c **** /*
  18:VFH+\src/sort.c ****  * Arguments    : double x[2]
  19:VFH+\src/sort.c ****  * Return Type  : void
  20:VFH+\src/sort.c ****  */
  21:VFH+\src/sort.c **** void sort(double x[2])
  22:VFH+\src/sort.c **** {
  29              		.loc 1 22 0
  30              		.cfi_startproc
  31              		@ args = 0, pretend = 0, frame = 0
  32              		@ frame_needed = 0, uses_anonymous_args = 0
  33              	.LVL0:
  34 0000 D0B5     		push	{r4, r6, r7, lr}
  35              		.cfi_def_cfa_offset 16
ARM GAS  C:\Users\jmspi\AppData\Local\Temp\ccTyTNst.s 			page 2


  36              		.cfi_offset 4, -16
  37              		.cfi_offset 6, -12
  38              		.cfi_offset 7, -8
  39              		.cfi_offset 14, -4
  23:VFH+\src/sort.c ****   double tmp;
  24:VFH+\src/sort.c ****   if ((!(x[0] <= x[1])) && (!rtIsNaN(x[1]))) {
  40              		.loc 1 24 0
  41 0002 D0E90267 		ldrd	r6, [r0, #8]
  22:VFH+\src/sort.c ****   double tmp;
  42              		.loc 1 22 0
  43 0006 0446     		mov	r4, r0
  44              		.loc 1 24 0
  45 0008 03C8     		ldmia	r0, {r0-r1}
  46              	.LVL1:
  47 000a 3246     		mov	r2, r6
  48 000c 3B46     		mov	r3, r7
  49 000e FFF7FEFF 		bl	__aeabi_dcmple
  50              	.LVL2:
  51 0012 60B9     		cbnz	r0, .L1
  52 0014 3046     		mov	r0, r6
  53 0016 3946     		mov	r1, r7
  54 0018 FFF7FEFF 		bl	rtIsNaN
  55              	.LVL3:
  56 001c 38B9     		cbnz	r0, .L1
  25:VFH+\src/sort.c ****     tmp = x[0];
  57              		.loc 1 25 0
  58 001e D4E90023 		ldrd	r2, [r4]
  59              	.LVL4:
  26:VFH+\src/sort.c ****     x[0] = x[1];
  60              		.loc 1 26 0
  61 0022 D4E90201 		ldrd	r0, [r4, #8]
  27:VFH+\src/sort.c ****     x[1] = tmp;
  62              		.loc 1 27 0
  63 0026 C4E90223 		strd	r2, [r4, #8]
  26:VFH+\src/sort.c ****     x[0] = x[1];
  64              		.loc 1 26 0
  65 002a C4E90001 		strd	r0, [r4]
  66              	.LVL5:
  67              	.L1:
  68 002e D0BD     		pop	{r4, r6, r7, pc}
  69              		.cfi_endproc
  70              	.LFE0:
  71              		.size	sort, .-sort
  72              		.text
  73              	.Letext0:
  74              		.file 2 ".\\VFH+\\include/rt_nonfinite.h"