ARM GAS  C:\Users\cyu13\AppData\Local\Temp\ccHCp0Lb.s 			page 1


   1              		.syntax unified
   2              		.cpu cortex-m3
   3              		.fpu softvfp
   4              		.eabi_attribute 20, 1
   5              		.eabi_attribute 21, 1
   6              		.eabi_attribute 23, 3
   7              		.eabi_attribute 24, 1
   8              		.eabi_attribute 25, 1
   9              		.eabi_attribute 26, 1
  10              		.eabi_attribute 30, 6
  11              		.eabi_attribute 34, 1
  12              		.eabi_attribute 18, 4
  13              		.thumb
  14              		.syntax unified
  15              		.file	"tentacles.c"
  16              		.text
  17              	.Ltext0:
  18              		.cfi_sections	.debug_frame
  19              		.global	__aeabi_i2d
  20              		.global	__aeabi_dcmplt
  21              		.global	__aeabi_dcmpgt
  22              		.section	.text.check_collision,"ax",%progbits
  23              		.align	2
  24              		.global	check_collision
  25              		.thumb
  26              		.thumb_func
  27              		.type	check_collision, %function
  28              	check_collision:
  29              	.LFB0:
  30              		.file 1 "..\\..\\..\\..\\Users\\cyu13\\Desktop\\ECE4191\\Tentacles\\tentacles.c"
   1:..\..\..\..\Users\cyu13\Desktop\ECE4191\Tentacles/tentacles.c **** #include <stdlib.h>
   2:..\..\..\..\Users\cyu13\Desktop\ECE4191\Tentacles/tentacles.c **** #include <math.h>
   3:..\..\..\..\Users\cyu13\Desktop\ECE4191\Tentacles/tentacles.c **** #include "..\Tentacles\tentacles.h"
   4:..\..\..\..\Users\cyu13\Desktop\ECE4191\Tentacles/tentacles.c **** 
   5:..\..\..\..\Users\cyu13\Desktop\ECE4191\Tentacles/tentacles.c **** _Bool check_collision(sensor_data * sensors) {
  31              		.loc 1 5 0
  32              		.cfi_startproc
  33              		@ args = 0, pretend = 0, frame = 24
  34              		@ frame_needed = 1, uses_anonymous_args = 0
  35 0000 90B5     		push	{r4, r7, lr}
  36              		.cfi_def_cfa_offset 12
  37              		.cfi_offset 4, -12
  38              		.cfi_offset 7, -8
  39              		.cfi_offset 14, -4
  40 0002 87B0     		sub	sp, sp, #28
  41              		.cfi_def_cfa_offset 40
  42 0004 00AF     		add	r7, sp, #0
  43              		.cfi_def_cfa_register 7
  44 0006 7860     		str	r0, [r7, #4]
   6:..\..\..\..\Users\cyu13\Desktop\ECE4191\Tentacles/tentacles.c ****     // Calculate whether or not the robot collides with obstacle based on ultrasonic reading
   7:..\..\..\..\Users\cyu13\Desktop\ECE4191\Tentacles/tentacles.c ****     int front_threshold = 10;
  45              		.loc 1 7 0
  46 0008 0A23     		movs	r3, #10
  47 000a 3B61     		str	r3, [r7, #16]
   8:..\..\..\..\Users\cyu13\Desktop\ECE4191\Tentacles/tentacles.c ****     double other_threshold = 0.1;
  48              		.loc 1 8 0
  49 000c 26A4     		adr	r4, .L13
ARM GAS  C:\Users\cyu13\AppData\Local\Temp\ccHCp0Lb.s 			page 2


  50 000e D4E90034 		ldrd	r3, [r4]
  51 0012 C7E90234 		strd	r3, [r7, #8]
  52              	.LBB2:
   9:..\..\..\..\Users\cyu13\Desktop\ECE4191\Tentacles/tentacles.c ****     for (int i=0; i < 5; i++) {
  53              		.loc 1 9 0
  54 0016 0023     		movs	r3, #0
  55 0018 7B61     		str	r3, [r7, #20]
  56 001a 3DE0     		b	.L2
  57              	.L10:
  10:..\..\..\..\Users\cyu13\Desktop\ECE4191\Tentacles/tentacles.c ****         if (sensors->direction[i] < M_PI || sensors->direction[i] > 3*M_PI / 4) {
  58              		.loc 1 10 0
  59 001c 7B68     		ldr	r3, [r7, #4]
  60 001e 7A69     		ldr	r2, [r7, #20]
  61 0020 53F82230 		ldr	r3, [r3, r2, lsl #2]
  62 0024 1846     		mov	r0, r3
  63 0026 FFF7FEFF 		bl	__aeabi_i2d
  64 002a 21A3     		adr	r3, .L13+8
  65 002c D3E90023 		ldrd	r2, [r3]
  66 0030 FFF7FEFF 		bl	__aeabi_dcmplt
  67 0034 0346     		mov	r3, r0
  68 0036 002B     		cmp	r3, #0
  69 0038 0ED1     		bne	.L3
  70              		.loc 1 10 0 is_stmt 0 discriminator 1
  71 003a 7B68     		ldr	r3, [r7, #4]
  72 003c 7A69     		ldr	r2, [r7, #20]
  73 003e 53F82230 		ldr	r3, [r3, r2, lsl #2]
  74 0042 1846     		mov	r0, r3
  75 0044 FFF7FEFF 		bl	__aeabi_i2d
  76 0048 1BA3     		adr	r3, .L13+16
  77 004a D3E90023 		ldrd	r2, [r3]
  78 004e FFF7FEFF 		bl	__aeabi_dcmpgt
  79 0052 0346     		mov	r3, r0
  80 0054 002B     		cmp	r3, #0
  81 0056 0AD0     		beq	.L12
  82              	.L3:
  11:..\..\..\..\Users\cyu13\Desktop\ECE4191\Tentacles/tentacles.c ****             if (sensors->distance[i] < front_threshold) {
  83              		.loc 1 11 0 is_stmt 1
  84 0058 7A68     		ldr	r2, [r7, #4]
  85 005a 7B69     		ldr	r3, [r7, #20]
  86 005c 0433     		adds	r3, r3, #4
  87 005e 9B00     		lsls	r3, r3, #2
  88 0060 1344     		add	r3, r3, r2
  89 0062 5A68     		ldr	r2, [r3, #4]
  90 0064 3B69     		ldr	r3, [r7, #16]
  91 0066 9A42     		cmp	r2, r3
  92 0068 13DA     		bge	.L8
  12:..\..\..\..\Users\cyu13\Desktop\ECE4191\Tentacles/tentacles.c ****                 return 1;
  93              		.loc 1 12 0
  94 006a 0123     		movs	r3, #1
  95 006c 18E0     		b	.L7
  96              	.L12:
  13:..\..\..\..\Users\cyu13\Desktop\ECE4191\Tentacles/tentacles.c ****             }
  14:..\..\..\..\Users\cyu13\Desktop\ECE4191\Tentacles/tentacles.c ****         } else {
  15:..\..\..\..\Users\cyu13\Desktop\ECE4191\Tentacles/tentacles.c ****             if (sensors->distance[i] < other_threshold) {
  97              		.loc 1 15 0
  98 006e 7A68     		ldr	r2, [r7, #4]
  99 0070 7B69     		ldr	r3, [r7, #20]
ARM GAS  C:\Users\cyu13\AppData\Local\Temp\ccHCp0Lb.s 			page 3


 100 0072 0433     		adds	r3, r3, #4
 101 0074 9B00     		lsls	r3, r3, #2
 102 0076 1344     		add	r3, r3, r2
 103 0078 5B68     		ldr	r3, [r3, #4]
 104 007a 1846     		mov	r0, r3
 105 007c FFF7FEFF 		bl	__aeabi_i2d
 106 0080 D7E90223 		ldrd	r2, [r7, #8]
 107 0084 FFF7FEFF 		bl	__aeabi_dcmplt
 108 0088 0346     		mov	r3, r0
 109 008a 002B     		cmp	r3, #0
 110 008c 01D0     		beq	.L8
  16:..\..\..\..\Users\cyu13\Desktop\ECE4191\Tentacles/tentacles.c ****                 return 1;
 111              		.loc 1 16 0
 112 008e 0123     		movs	r3, #1
 113 0090 06E0     		b	.L7
 114              	.L8:
   9:..\..\..\..\Users\cyu13\Desktop\ECE4191\Tentacles/tentacles.c ****         if (sensors->direction[i] < M_PI || sensors->direction[i] > 3*M_PI / 4) {
 115              		.loc 1 9 0 discriminator 2
 116 0092 7B69     		ldr	r3, [r7, #20]
 117 0094 0133     		adds	r3, r3, #1
 118 0096 7B61     		str	r3, [r7, #20]
 119              	.L2:
   9:..\..\..\..\Users\cyu13\Desktop\ECE4191\Tentacles/tentacles.c ****         if (sensors->direction[i] < M_PI || sensors->direction[i] > 3*M_PI / 4) {
 120              		.loc 1 9 0 is_stmt 0 discriminator 1
 121 0098 7B69     		ldr	r3, [r7, #20]
 122 009a 042B     		cmp	r3, #4
 123 009c BEDD     		ble	.L10
 124              	.LBE2:
  17:..\..\..\..\Users\cyu13\Desktop\ECE4191\Tentacles/tentacles.c ****             }
  18:..\..\..\..\Users\cyu13\Desktop\ECE4191\Tentacles/tentacles.c ****         }
  19:..\..\..\..\Users\cyu13\Desktop\ECE4191\Tentacles/tentacles.c ****         
  20:..\..\..\..\Users\cyu13\Desktop\ECE4191\Tentacles/tentacles.c ****     }
  21:..\..\..\..\Users\cyu13\Desktop\ECE4191\Tentacles/tentacles.c **** 
  22:..\..\..\..\Users\cyu13\Desktop\ECE4191\Tentacles/tentacles.c ****     return 0;
 125              		.loc 1 22 0 is_stmt 1
 126 009e 0023     		movs	r3, #0
 127              	.L7:
  23:..\..\..\..\Users\cyu13\Desktop\ECE4191\Tentacles/tentacles.c **** }
 128              		.loc 1 23 0
 129 00a0 1846     		mov	r0, r3
 130 00a2 1C37     		adds	r7, r7, #28
 131              		.cfi_def_cfa_offset 12
 132 00a4 BD46     		mov	sp, r7
 133              		.cfi_def_cfa_register 13
 134              		@ sp needed
 135 00a6 90BD     		pop	{r4, r7, pc}
 136              	.L14:
 137              		.align	3
 138              	.L13:
 139 00a8 9A999999 		.word	-1717986918
 140 00ac 9999B93F 		.word	1069128089
 141 00b0 182D4454 		.word	1413754136
 142 00b4 FB210940 		.word	1074340347
 143 00b8 D221337F 		.word	2134057426
 144 00bc 7CD90240 		.word	1073928572
 145              		.cfi_endproc
 146              	.LFE0:
ARM GAS  C:\Users\cyu13\AppData\Local\Temp\ccHCp0Lb.s 			page 4


 147              		.size	check_collision, .-check_collision
 148              		.global	__aeabi_dmul
 149              		.global	__aeabi_dadd
 150              		.global	__aeabi_d2iz
 151              		.global	__aeabi_dsub
 152              		.section	.text.cost_function,"ax",%progbits
 153              		.align	2
 154              		.global	cost_function
 155              		.thumb
 156              		.thumb_func
 157              		.type	cost_function, %function
 158              	cost_function:
 159              	.LFB1:
  24:..\..\..\..\Users\cyu13\Desktop\ECE4191\Tentacles/tentacles.c **** 
  25:..\..\..\..\Users\cyu13\Desktop\ECE4191\Tentacles/tentacles.c **** double cost_function(tentacles * octopussy, sensor_data * sensors, int v, int w, int goal_x, int go
 160              		.loc 1 25 0
 161              		.cfi_startproc
 162              		@ args = 28, pretend = 0, frame = 72
 163              		@ frame_needed = 1, uses_anonymous_args = 0
 164 0000 2DE9B043 		push	{r4, r5, r7, r8, r9, lr}
 165              		.cfi_def_cfa_offset 24
 166              		.cfi_offset 4, -24
 167              		.cfi_offset 5, -20
 168              		.cfi_offset 7, -16
 169              		.cfi_offset 8, -12
 170              		.cfi_offset 9, -8
 171              		.cfi_offset 14, -4
 172 0004 92B0     		sub	sp, sp, #72
 173              		.cfi_def_cfa_offset 96
 174 0006 00AF     		add	r7, sp, #0
 175              		.cfi_def_cfa_register 7
 176 0008 F860     		str	r0, [r7, #12]
 177 000a B960     		str	r1, [r7, #8]
 178 000c 7A60     		str	r2, [r7, #4]
 179 000e 3B60     		str	r3, [r7]
  26:..\..\..\..\Users\cyu13\Desktop\ECE4191\Tentacles/tentacles.c **** 
  27:..\..\..\..\Users\cyu13\Desktop\ECE4191\Tentacles/tentacles.c ****     // Extracting variables
  28:..\..\..\..\Users\cyu13\Desktop\ECE4191\Tentacles/tentacles.c ****     double dt = octopussy->dt;
 180              		.loc 1 28 0
 181 0010 FB68     		ldr	r3, [r7, #12]
 182 0012 18CB     		ldmia	r3, {r3-r4}
 183 0014 C7E90E34 		strd	r3, [r7, #56]
  29:..\..\..\..\Users\cyu13\Desktop\ECE4191\Tentacles/tentacles.c ****     double steps = octopussy->steps;
 184              		.loc 1 29 0
 185 0018 FB68     		ldr	r3, [r7, #12]
 186 001a 03F10804 		add	r4, r3, #8
 187 001e D4E90034 		ldrd	r3, [r4]
 188 0022 C7E90C34 		strd	r3, [r7, #48]
  30:..\..\..\..\Users\cyu13\Desktop\ECE4191\Tentacles/tentacles.c ****     double alpha = octopussy->alpha;
 189              		.loc 1 30 0
 190 0026 FB68     		ldr	r3, [r7, #12]
 191 0028 03F11004 		add	r4, r3, #16
 192 002c D4E90034 		ldrd	r3, [r4]
 193 0030 C7E90A34 		strd	r3, [r7, #40]
  31:..\..\..\..\Users\cyu13\Desktop\ECE4191\Tentacles/tentacles.c ****     double beta = octopussy->beta;
 194              		.loc 1 31 0
 195 0034 FB68     		ldr	r3, [r7, #12]
ARM GAS  C:\Users\cyu13\AppData\Local\Temp\ccHCp0Lb.s 			page 5


 196 0036 03F11804 		add	r4, r3, #24
 197 003a D4E90034 		ldrd	r3, [r4]
 198 003e C7E90834 		strd	r3, [r7, #32]
 199              	.LBB3:
  32:..\..\..\..\Users\cyu13\Desktop\ECE4191\Tentacles/tentacles.c **** 
  33:..\..\..\..\Users\cyu13\Desktop\ECE4191\Tentacles/tentacles.c ****     // Define variables
  34:..\..\..\..\Users\cyu13\Desktop\ECE4191\Tentacles/tentacles.c **** 
  35:..\..\..\..\Users\cyu13\Desktop\ECE4191\Tentacles/tentacles.c ****     // Allocate space for different trajectories
  36:..\..\..\..\Users\cyu13\Desktop\ECE4191\Tentacles/tentacles.c ****     for (int i=0; i < steps; i++) {
 200              		.loc 1 36 0
 201 0042 0023     		movs	r3, #0
 202 0044 7B64     		str	r3, [r7, #68]
 203 0046 80E0     		b	.L16
 204              	.L19:
  37:..\..\..\..\Users\cyu13\Desktop\ECE4191\Tentacles/tentacles.c ****         pos_x = pos_x + dt * v * cos(pos_theta);
 205              		.loc 1 37 0
 206 0048 386F     		ldr	r0, [r7, #112]
 207 004a FFF7FEFF 		bl	__aeabi_i2d
 208 004e 0446     		mov	r4, r0
 209 0050 0D46     		mov	r5, r1
 210 0052 7868     		ldr	r0, [r7, #4]
 211 0054 FFF7FEFF 		bl	__aeabi_i2d
 212 0058 D7E90E23 		ldrd	r2, [r7, #56]
 213 005c FFF7FEFF 		bl	__aeabi_dmul
 214 0060 0246     		mov	r2, r0
 215 0062 0B46     		mov	r3, r1
 216 0064 9046     		mov	r8, r2
 217 0066 9946     		mov	r9, r3
 218 0068 B86F     		ldr	r0, [r7, #120]
 219 006a FFF7FEFF 		bl	__aeabi_i2d
 220 006e 0246     		mov	r2, r0
 221 0070 0B46     		mov	r3, r1
 222 0072 1046     		mov	r0, r2
 223 0074 1946     		mov	r1, r3
 224 0076 FFF7FEFF 		bl	cos
 225 007a 0246     		mov	r2, r0
 226 007c 0B46     		mov	r3, r1
 227 007e 4046     		mov	r0, r8
 228 0080 4946     		mov	r1, r9
 229 0082 FFF7FEFF 		bl	__aeabi_dmul
 230 0086 0246     		mov	r2, r0
 231 0088 0B46     		mov	r3, r1
 232 008a 2046     		mov	r0, r4
 233 008c 2946     		mov	r1, r5
 234 008e FFF7FEFF 		bl	__aeabi_dadd
 235 0092 0346     		mov	r3, r0
 236 0094 0C46     		mov	r4, r1
 237 0096 1846     		mov	r0, r3
 238 0098 2146     		mov	r1, r4
 239 009a FFF7FEFF 		bl	__aeabi_d2iz
 240 009e 0346     		mov	r3, r0
 241 00a0 3B67     		str	r3, [r7, #112]
  38:..\..\..\..\Users\cyu13\Desktop\ECE4191\Tentacles/tentacles.c ****         pos_y = pos_y + dt * v * sin(pos_theta);
 242              		.loc 1 38 0
 243 00a2 786F     		ldr	r0, [r7, #116]
 244 00a4 FFF7FEFF 		bl	__aeabi_i2d
 245 00a8 0446     		mov	r4, r0
ARM GAS  C:\Users\cyu13\AppData\Local\Temp\ccHCp0Lb.s 			page 6


 246 00aa 0D46     		mov	r5, r1
 247 00ac 7868     		ldr	r0, [r7, #4]
 248 00ae FFF7FEFF 		bl	__aeabi_i2d
 249 00b2 D7E90E23 		ldrd	r2, [r7, #56]
 250 00b6 FFF7FEFF 		bl	__aeabi_dmul
 251 00ba 0246     		mov	r2, r0
 252 00bc 0B46     		mov	r3, r1
 253 00be 9046     		mov	r8, r2
 254 00c0 9946     		mov	r9, r3
 255 00c2 B86F     		ldr	r0, [r7, #120]
 256 00c4 FFF7FEFF 		bl	__aeabi_i2d
 257 00c8 0246     		mov	r2, r0
 258 00ca 0B46     		mov	r3, r1
 259 00cc 1046     		mov	r0, r2
 260 00ce 1946     		mov	r1, r3
 261 00d0 FFF7FEFF 		bl	sin
 262 00d4 0246     		mov	r2, r0
 263 00d6 0B46     		mov	r3, r1
 264 00d8 4046     		mov	r0, r8
 265 00da 4946     		mov	r1, r9
 266 00dc FFF7FEFF 		bl	__aeabi_dmul
 267 00e0 0246     		mov	r2, r0
 268 00e2 0B46     		mov	r3, r1
 269 00e4 2046     		mov	r0, r4
 270 00e6 2946     		mov	r1, r5
 271 00e8 FFF7FEFF 		bl	__aeabi_dadd
 272 00ec 0346     		mov	r3, r0
 273 00ee 0C46     		mov	r4, r1
 274 00f0 1846     		mov	r0, r3
 275 00f2 2146     		mov	r1, r4
 276 00f4 FFF7FEFF 		bl	__aeabi_d2iz
 277 00f8 0346     		mov	r3, r0
 278 00fa 7B67     		str	r3, [r7, #116]
  39:..\..\..\..\Users\cyu13\Desktop\ECE4191\Tentacles/tentacles.c ****         pos_theta = pos_theta + w * dt;
 279              		.loc 1 39 0
 280 00fc B86F     		ldr	r0, [r7, #120]
 281 00fe FFF7FEFF 		bl	__aeabi_i2d
 282 0102 0446     		mov	r4, r0
 283 0104 0D46     		mov	r5, r1
 284 0106 3868     		ldr	r0, [r7]
 285 0108 FFF7FEFF 		bl	__aeabi_i2d
 286 010c D7E90E23 		ldrd	r2, [r7, #56]
 287 0110 FFF7FEFF 		bl	__aeabi_dmul
 288 0114 0246     		mov	r2, r0
 289 0116 0B46     		mov	r3, r1
 290 0118 2046     		mov	r0, r4
 291 011a 2946     		mov	r1, r5
 292 011c FFF7FEFF 		bl	__aeabi_dadd
 293 0120 0346     		mov	r3, r0
 294 0122 0C46     		mov	r4, r1
 295 0124 1846     		mov	r0, r3
 296 0126 2146     		mov	r1, r4
 297 0128 FFF7FEFF 		bl	__aeabi_d2iz
 298 012c 0346     		mov	r3, r0
 299 012e BB67     		str	r3, [r7, #120]
  40:..\..\..\..\Users\cyu13\Desktop\ECE4191\Tentacles/tentacles.c **** 
  41:..\..\..\..\Users\cyu13\Desktop\ECE4191\Tentacles/tentacles.c ****         if (check_collision(sensors)) {
ARM GAS  C:\Users\cyu13\AppData\Local\Temp\ccHCp0Lb.s 			page 7


 300              		.loc 1 41 0
 301 0130 B868     		ldr	r0, [r7, #8]
 302 0132 FFF7FEFF 		bl	check_collision
 303 0136 0346     		mov	r3, r0
 304 0138 002B     		cmp	r3, #0
 305 013a 03D0     		beq	.L17
  42:..\..\..\..\Users\cyu13\Desktop\ECE4191\Tentacles/tentacles.c ****             return 10000000000;
 306              		.loc 1 42 0
 307 013c 3CA4     		adr	r4, .L20
 308 013e D4E90034 		ldrd	r3, [r4]
 309 0142 6CE0     		b	.L18
 310              	.L17:
  36:..\..\..\..\Users\cyu13\Desktop\ECE4191\Tentacles/tentacles.c ****         pos_x = pos_x + dt * v * cos(pos_theta);
 311              		.loc 1 36 0 discriminator 2
 312 0144 7B6C     		ldr	r3, [r7, #68]
 313 0146 0133     		adds	r3, r3, #1
 314 0148 7B64     		str	r3, [r7, #68]
 315              	.L16:
  36:..\..\..\..\Users\cyu13\Desktop\ECE4191\Tentacles/tentacles.c ****         pos_x = pos_x + dt * v * cos(pos_theta);
 316              		.loc 1 36 0 is_stmt 0 discriminator 1
 317 014a 786C     		ldr	r0, [r7, #68]
 318 014c FFF7FEFF 		bl	__aeabi_i2d
 319 0150 D7E90C23 		ldrd	r2, [r7, #48]
 320 0154 FFF7FEFF 		bl	__aeabi_dcmplt
 321 0158 0346     		mov	r3, r0
 322 015a 002B     		cmp	r3, #0
 323 015c 7FF474AF 		bne	.L19
 324              	.LBE3:
  43:..\..\..\..\Users\cyu13\Desktop\ECE4191\Tentacles/tentacles.c ****         }
  44:..\..\..\..\Users\cyu13\Desktop\ECE4191\Tentacles/tentacles.c ****     }
  45:..\..\..\..\Users\cyu13\Desktop\ECE4191\Tentacles/tentacles.c **** 
  46:..\..\..\..\Users\cyu13\Desktop\ECE4191\Tentacles/tentacles.c ****     // Wrap angle error -pi, pi
  47:..\..\..\..\Users\cyu13\Desktop\ECE4191\Tentacles/tentacles.c ****     double e_th = goal_th - pos_theta;
 325              		.loc 1 47 0 is_stmt 1
 326 0160 B86F     		ldr	r0, [r7, #120]
 327 0162 FFF7FEFF 		bl	__aeabi_i2d
 328 0166 0346     		mov	r3, r0
 329 0168 0C46     		mov	r4, r1
 330 016a 1A46     		mov	r2, r3
 331 016c 2346     		mov	r3, r4
 332 016e D7E91A01 		ldrd	r0, [r7, #104]
 333 0172 FFF7FEFF 		bl	__aeabi_dsub
 334 0176 0346     		mov	r3, r0
 335 0178 0C46     		mov	r4, r1
 336 017a C7E90634 		strd	r3, [r7, #24]
  48:..\..\..\..\Users\cyu13\Desktop\ECE4191\Tentacles/tentacles.c ****     e_th = atan2(sin(e_th), cos(e_th));
 337              		.loc 1 48 0
 338 017e D7E90601 		ldrd	r0, [r7, #24]
 339 0182 FFF7FEFF 		bl	sin
 340 0186 0446     		mov	r4, r0
 341 0188 0D46     		mov	r5, r1
 342 018a D7E90601 		ldrd	r0, [r7, #24]
 343 018e FFF7FEFF 		bl	cos
 344 0192 0246     		mov	r2, r0
 345 0194 0B46     		mov	r3, r1
 346 0196 2046     		mov	r0, r4
 347 0198 2946     		mov	r1, r5
ARM GAS  C:\Users\cyu13\AppData\Local\Temp\ccHCp0Lb.s 			page 8


 348 019a FFF7FEFF 		bl	atan2
 349 019e C7E90601 		strd	r0, [r7, #24]
  49:..\..\..\..\Users\cyu13\Desktop\ECE4191\Tentacles/tentacles.c **** 
  50:..\..\..\..\Users\cyu13\Desktop\ECE4191\Tentacles/tentacles.c ****     // Calculate cost
  51:..\..\..\..\Users\cyu13\Desktop\ECE4191\Tentacles/tentacles.c ****     double cost = alpha * ( pow(goal_x - pos_x, 2) + pow(goal_y - pos_y, 2)) + beta * (e_th);
 350              		.loc 1 51 0
 351 01a2 3A6E     		ldr	r2, [r7, #96]
 352 01a4 3B6F     		ldr	r3, [r7, #112]
 353 01a6 D31A     		subs	r3, r2, r3
 354 01a8 1846     		mov	r0, r3
 355 01aa FFF7FEFF 		bl	__aeabi_i2d
 356 01ae 4FF00002 		mov	r2, #0
 357 01b2 4FF08043 		mov	r3, #1073741824
 358 01b6 FFF7FEFF 		bl	pow
 359 01ba 0446     		mov	r4, r0
 360 01bc 0D46     		mov	r5, r1
 361 01be 7A6E     		ldr	r2, [r7, #100]
 362 01c0 7B6F     		ldr	r3, [r7, #116]
 363 01c2 D31A     		subs	r3, r2, r3
 364 01c4 1846     		mov	r0, r3
 365 01c6 FFF7FEFF 		bl	__aeabi_i2d
 366 01ca 4FF00002 		mov	r2, #0
 367 01ce 4FF08043 		mov	r3, #1073741824
 368 01d2 FFF7FEFF 		bl	pow
 369 01d6 0246     		mov	r2, r0
 370 01d8 0B46     		mov	r3, r1
 371 01da 2046     		mov	r0, r4
 372 01dc 2946     		mov	r1, r5
 373 01de FFF7FEFF 		bl	__aeabi_dadd
 374 01e2 0346     		mov	r3, r0
 375 01e4 0C46     		mov	r4, r1
 376 01e6 1846     		mov	r0, r3
 377 01e8 2146     		mov	r1, r4
 378 01ea D7E90A23 		ldrd	r2, [r7, #40]
 379 01ee FFF7FEFF 		bl	__aeabi_dmul
 380 01f2 0346     		mov	r3, r0
 381 01f4 0C46     		mov	r4, r1
 382 01f6 2546     		mov	r5, r4
 383 01f8 1C46     		mov	r4, r3
 384 01fa D7E90623 		ldrd	r2, [r7, #24]
 385 01fe D7E90801 		ldrd	r0, [r7, #32]
 386 0202 FFF7FEFF 		bl	__aeabi_dmul
 387 0206 0246     		mov	r2, r0
 388 0208 0B46     		mov	r3, r1
 389 020a 2046     		mov	r0, r4
 390 020c 2946     		mov	r1, r5
 391 020e FFF7FEFF 		bl	__aeabi_dadd
 392 0212 0346     		mov	r3, r0
 393 0214 0C46     		mov	r4, r1
 394 0216 C7E90434 		strd	r3, [r7, #16]
  52:..\..\..\..\Users\cyu13\Desktop\ECE4191\Tentacles/tentacles.c ****     return cost;
 395              		.loc 1 52 0
 396 021a D7E90434 		ldrd	r3, [r7, #16]
 397              	.L18:
  53:..\..\..\..\Users\cyu13\Desktop\ECE4191\Tentacles/tentacles.c **** }
 398              		.loc 1 53 0
 399 021e 1846     		mov	r0, r3
ARM GAS  C:\Users\cyu13\AppData\Local\Temp\ccHCp0Lb.s 			page 9


 400 0220 2146     		mov	r1, r4
 401 0222 4837     		adds	r7, r7, #72
 402              		.cfi_def_cfa_offset 24
 403 0224 BD46     		mov	sp, r7
 404              		.cfi_def_cfa_register 13
 405              		@ sp needed
 406 0226 BDE8B083 		pop	{r4, r5, r7, r8, r9, pc}
 407              	.L21:
 408 022a 00BFAFF3 		.align	3
 408      0080
 409              	.L20:
 410 0230 00000020 		.word	536870912
 411 0234 5FA00242 		.word	1107468383
 412              		.cfi_endproc
 413              	.LFE1:
 414              		.size	cost_function, .-cost_function
 415              		.section	.text.planner,"ax",%progbits
 416              		.align	2
 417              		.global	planner
 418              		.thumb
 419              		.thumb_func
 420              		.type	planner, %function
 421              	planner:
 422              	.LFB2:
  54:..\..\..\..\Users\cyu13\Desktop\ECE4191\Tentacles/tentacles.c **** 
  55:..\..\..\..\Users\cyu13\Desktop\ECE4191\Tentacles/tentacles.c **** double * planner(tentacles * octopussy, sensor_data * sensors, int goal_x, int goal_y, double goal_
 423              		.loc 1 55 0
 424              		.cfi_startproc
 425              		@ args = 20, pretend = 0, frame = 48
 426              		@ frame_needed = 1, uses_anonymous_args = 0
 427 0000 2DE9F043 		push	{r4, r5, r6, r7, r8, r9, lr}
 428              		.cfi_def_cfa_offset 28
 429              		.cfi_offset 4, -28
 430              		.cfi_offset 5, -24
 431              		.cfi_offset 6, -20
 432              		.cfi_offset 7, -16
 433              		.cfi_offset 8, -12
 434              		.cfi_offset 9, -8
 435              		.cfi_offset 14, -4
 436 0004 95B0     		sub	sp, sp, #84
 437              		.cfi_def_cfa_offset 112
 438 0006 08AF     		add	r7, sp, #32
 439              		.cfi_def_cfa 7, 80
 440 0008 F860     		str	r0, [r7, #12]
 441 000a B960     		str	r1, [r7, #8]
 442 000c 7A60     		str	r2, [r7, #4]
 443 000e 3B60     		str	r3, [r7]
 444              		.loc 1 55 0
 445 0010 6B46     		mov	r3, sp
 446 0012 1E46     		mov	r6, r3
  56:..\..\..\..\Users\cyu13\Desktop\ECE4191\Tentacles/tentacles.c ****     // Store cost values
  57:..\..\..\..\Users\cyu13\Desktop\ECE4191\Tentacles/tentacles.c ****     int cost[octopussy->ten_count];
 447              		.loc 1 57 0
 448 0014 FB68     		ldr	r3, [r7, #12]
 449 0016 196A     		ldr	r1, [r3, #32]
 450 0018 4B1E     		subs	r3, r1, #1
 451 001a BB61     		str	r3, [r7, #24]
ARM GAS  C:\Users\cyu13\AppData\Local\Temp\ccHCp0Lb.s 			page 10


 452 001c 0B46     		mov	r3, r1
 453 001e 1A46     		mov	r2, r3
 454 0020 4FF00003 		mov	r3, #0
 455 0024 4FEA4319 		lsl	r9, r3, #5
 456 0028 49EAD269 		orr	r9, r9, r2, lsr #27
 457 002c 4FEA4218 		lsl	r8, r2, #5
 458 0030 0B46     		mov	r3, r1
 459 0032 1A46     		mov	r2, r3
 460 0034 4FF00003 		mov	r3, #0
 461 0038 5D01     		lsls	r5, r3, #5
 462 003a 45EAD265 		orr	r5, r5, r2, lsr #27
 463 003e 5401     		lsls	r4, r2, #5
 464 0040 0B46     		mov	r3, r1
 465 0042 9B00     		lsls	r3, r3, #2
 466 0044 0333     		adds	r3, r3, #3
 467 0046 0733     		adds	r3, r3, #7
 468 0048 DB08     		lsrs	r3, r3, #3
 469 004a DB00     		lsls	r3, r3, #3
 470 004c ADEB030D 		sub	sp, sp, r3
 471 0050 08AB     		add	r3, sp, #32
 472 0052 0333     		adds	r3, r3, #3
 473 0054 9B08     		lsrs	r3, r3, #2
 474 0056 9B00     		lsls	r3, r3, #2
 475 0058 7B61     		str	r3, [r7, #20]
  58:..\..\..\..\Users\cyu13\Desktop\ECE4191\Tentacles/tentacles.c **** 
  59:..\..\..\..\Users\cyu13\Desktop\ECE4191\Tentacles/tentacles.c ****     // Tentacles oooooh lala
  60:..\..\..\..\Users\cyu13\Desktop\ECE4191\Tentacles/tentacles.c ****     int t_c = 0;
 476              		.loc 1 60 0
 477 005a 0023     		movs	r3, #0
 478 005c FB62     		str	r3, [r7, #44]
  61:..\..\..\..\Users\cyu13\Desktop\ECE4191\Tentacles/tentacles.c ****     int min_combo;
  62:..\..\..\..\Users\cyu13\Desktop\ECE4191\Tentacles/tentacles.c ****     int min_cost = 1000000;
 479              		.loc 1 62 0
 480 005e 3B4B     		ldr	r3, .L29
 481 0060 7B62     		str	r3, [r7, #36]
 482              	.LBB4:
  63:..\..\..\..\Users\cyu13\Desktop\ECE4191\Tentacles/tentacles.c **** 
  64:..\..\..\..\Users\cyu13\Desktop\ECE4191\Tentacles/tentacles.c ****     for (int i = 0; i < octopussy->ten_count; i++) {
 483              		.loc 1 64 0
 484 0062 0023     		movs	r3, #0
 485 0064 3B62     		str	r3, [r7, #32]
 486 0066 49E0     		b	.L23
 487              	.L25:
  65:..\..\..\..\Users\cyu13\Desktop\ECE4191\Tentacles/tentacles.c ****         cost[i] = cost_function(octopussy, sensors, octopussy->ten[t_c], octopussy->ten[t_c + 1], g
 488              		.loc 1 65 0
 489 0068 FA68     		ldr	r2, [r7, #12]
 490 006a FB6A     		ldr	r3, [r7, #44]
 491 006c 0533     		adds	r3, r3, #5
 492 006e DB00     		lsls	r3, r3, #3
 493 0070 1344     		add	r3, r3, r2
 494 0072 18CB     		ldmia	r3, {r3-r4}
 495 0074 1846     		mov	r0, r3
 496 0076 2146     		mov	r1, r4
 497 0078 FFF7FEFF 		bl	__aeabi_d2iz
 498 007c 0546     		mov	r5, r0
 499 007e FB6A     		ldr	r3, [r7, #44]
 500 0080 0133     		adds	r3, r3, #1
ARM GAS  C:\Users\cyu13\AppData\Local\Temp\ccHCp0Lb.s 			page 11


 501 0082 FA68     		ldr	r2, [r7, #12]
 502 0084 0533     		adds	r3, r3, #5
 503 0086 DB00     		lsls	r3, r3, #3
 504 0088 1344     		add	r3, r3, r2
 505 008a 18CB     		ldmia	r3, {r3-r4}
 506 008c 1846     		mov	r0, r3
 507 008e 2146     		mov	r1, r4
 508 0090 FFF7FEFF 		bl	__aeabi_d2iz
 509 0094 0246     		mov	r2, r0
 510 0096 3B6E     		ldr	r3, [r7, #96]
 511 0098 0693     		str	r3, [sp, #24]
 512 009a FB6D     		ldr	r3, [r7, #92]
 513 009c 0593     		str	r3, [sp, #20]
 514 009e BB6D     		ldr	r3, [r7, #88]
 515 00a0 0493     		str	r3, [sp, #16]
 516 00a2 D7E91434 		ldrd	r3, [r7, #80]
 517 00a6 CDE90234 		strd	r3, [sp, #8]
 518 00aa 3B68     		ldr	r3, [r7]
 519 00ac 0193     		str	r3, [sp, #4]
 520 00ae 7B68     		ldr	r3, [r7, #4]
 521 00b0 0093     		str	r3, [sp]
 522 00b2 1346     		mov	r3, r2
 523 00b4 2A46     		mov	r2, r5
 524 00b6 B968     		ldr	r1, [r7, #8]
 525 00b8 F868     		ldr	r0, [r7, #12]
 526 00ba FFF7FEFF 		bl	cost_function
 527 00be 0346     		mov	r3, r0
 528 00c0 0C46     		mov	r4, r1
 529 00c2 1846     		mov	r0, r3
 530 00c4 2146     		mov	r1, r4
 531 00c6 FFF7FEFF 		bl	__aeabi_d2iz
 532 00ca 0146     		mov	r1, r0
 533 00cc 7B69     		ldr	r3, [r7, #20]
 534 00ce 3A6A     		ldr	r2, [r7, #32]
 535 00d0 43F82210 		str	r1, [r3, r2, lsl #2]
  66:..\..\..\..\Users\cyu13\Desktop\ECE4191\Tentacles/tentacles.c ****         if (cost[i] < min_cost) {
 536              		.loc 1 66 0
 537 00d4 7B69     		ldr	r3, [r7, #20]
 538 00d6 3A6A     		ldr	r2, [r7, #32]
 539 00d8 53F82220 		ldr	r2, [r3, r2, lsl #2]
 540 00dc 7B6A     		ldr	r3, [r7, #36]
 541 00de 9A42     		cmp	r2, r3
 542 00e0 06DA     		bge	.L24
  67:..\..\..\..\Users\cyu13\Desktop\ECE4191\Tentacles/tentacles.c ****             min_cost = cost[i];
 543              		.loc 1 67 0
 544 00e2 7B69     		ldr	r3, [r7, #20]
 545 00e4 3A6A     		ldr	r2, [r7, #32]
 546 00e6 53F82230 		ldr	r3, [r3, r2, lsl #2]
 547 00ea 7B62     		str	r3, [r7, #36]
  68:..\..\..\..\Users\cyu13\Desktop\ECE4191\Tentacles/tentacles.c ****             min_combo = t_c;
 548              		.loc 1 68 0
 549 00ec FB6A     		ldr	r3, [r7, #44]
 550 00ee BB62     		str	r3, [r7, #40]
 551              	.L24:
  69:..\..\..\..\Users\cyu13\Desktop\ECE4191\Tentacles/tentacles.c ****         }
  70:..\..\..\..\Users\cyu13\Desktop\ECE4191\Tentacles/tentacles.c ****         t_c += 2;
 552              		.loc 1 70 0 discriminator 2
ARM GAS  C:\Users\cyu13\AppData\Local\Temp\ccHCp0Lb.s 			page 12


 553 00f0 FB6A     		ldr	r3, [r7, #44]
 554 00f2 0233     		adds	r3, r3, #2
 555 00f4 FB62     		str	r3, [r7, #44]
  64:..\..\..\..\Users\cyu13\Desktop\ECE4191\Tentacles/tentacles.c ****         cost[i] = cost_function(octopussy, sensors, octopussy->ten[t_c], octopussy->ten[t_c + 1], g
 556              		.loc 1 64 0 discriminator 2
 557 00f6 3B6A     		ldr	r3, [r7, #32]
 558 00f8 0133     		adds	r3, r3, #1
 559 00fa 3B62     		str	r3, [r7, #32]
 560              	.L23:
  64:..\..\..\..\Users\cyu13\Desktop\ECE4191\Tentacles/tentacles.c ****         cost[i] = cost_function(octopussy, sensors, octopussy->ten[t_c], octopussy->ten[t_c + 1], g
 561              		.loc 1 64 0 is_stmt 0 discriminator 1
 562 00fc FB68     		ldr	r3, [r7, #12]
 563 00fe 1A6A     		ldr	r2, [r3, #32]
 564 0100 3B6A     		ldr	r3, [r7, #32]
 565 0102 9A42     		cmp	r2, r3
 566 0104 B0DC     		bgt	.L25
 567              	.LBE4:
  71:..\..\..\..\Users\cyu13\Desktop\ECE4191\Tentacles/tentacles.c ****     }
  72:..\..\..\..\Users\cyu13\Desktop\ECE4191\Tentacles/tentacles.c **** 
  73:..\..\..\..\Users\cyu13\Desktop\ECE4191\Tentacles/tentacles.c ****     // Identify best tentacle SHEEEEEEEEEESH
  74:..\..\..\..\Users\cyu13\Desktop\ECE4191\Tentacles/tentacles.c ****     double *combo = malloc(2);
 568              		.loc 1 74 0 is_stmt 1
 569 0106 0220     		movs	r0, #2
 570 0108 FFF7FEFF 		bl	malloc
 571 010c 0346     		mov	r3, r0
 572 010e 3B61     		str	r3, [r7, #16]
 573              	.LBB5:
  75:..\..\..\..\Users\cyu13\Desktop\ECE4191\Tentacles/tentacles.c ****     for (int i = min_combo; i < min_combo + 2; i++) {
 574              		.loc 1 75 0
 575 0110 BB6A     		ldr	r3, [r7, #40]
 576 0112 FB61     		str	r3, [r7, #28]
 577 0114 0EE0     		b	.L26
 578              	.L27:
  76:..\..\..\..\Users\cyu13\Desktop\ECE4191\Tentacles/tentacles.c ****         combo[i] = octopussy->ten[i];
 579              		.loc 1 76 0 discriminator 3
 580 0116 FB69     		ldr	r3, [r7, #28]
 581 0118 DB00     		lsls	r3, r3, #3
 582 011a 3A69     		ldr	r2, [r7, #16]
 583 011c 1A44     		add	r2, r2, r3
 584 011e F968     		ldr	r1, [r7, #12]
 585 0120 FB69     		ldr	r3, [r7, #28]
 586 0122 0533     		adds	r3, r3, #5
 587 0124 DB00     		lsls	r3, r3, #3
 588 0126 0B44     		add	r3, r3, r1
 589 0128 18CB     		ldmia	r3, {r3-r4}
 590 012a C2E90034 		strd	r3, [r2]
  75:..\..\..\..\Users\cyu13\Desktop\ECE4191\Tentacles/tentacles.c ****     for (int i = min_combo; i < min_combo + 2; i++) {
 591              		.loc 1 75 0 discriminator 3
 592 012e FB69     		ldr	r3, [r7, #28]
 593 0130 0133     		adds	r3, r3, #1
 594 0132 FB61     		str	r3, [r7, #28]
 595              	.L26:
  75:..\..\..\..\Users\cyu13\Desktop\ECE4191\Tentacles/tentacles.c ****     for (int i = min_combo; i < min_combo + 2; i++) {
 596              		.loc 1 75 0 is_stmt 0 discriminator 1
 597 0134 BB6A     		ldr	r3, [r7, #40]
 598 0136 9A1C     		adds	r2, r3, #2
 599 0138 FB69     		ldr	r3, [r7, #28]
ARM GAS  C:\Users\cyu13\AppData\Local\Temp\ccHCp0Lb.s 			page 13


 600 013a 9A42     		cmp	r2, r3
 601 013c EBDC     		bgt	.L27
 602              	.LBE5:
  77:..\..\..\..\Users\cyu13\Desktop\ECE4191\Tentacles/tentacles.c ****     }
  78:..\..\..\..\Users\cyu13\Desktop\ECE4191\Tentacles/tentacles.c ****     return combo;
 603              		.loc 1 78 0 is_stmt 1
 604 013e 3B69     		ldr	r3, [r7, #16]
 605 0140 B546     		mov	sp, r6
  79:..\..\..\..\Users\cyu13\Desktop\ECE4191\Tentacles/tentacles.c **** }
 606              		.loc 1 79 0
 607 0142 1846     		mov	r0, r3
 608 0144 3437     		adds	r7, r7, #52
 609              		.cfi_def_cfa_offset 28
 610 0146 BD46     		mov	sp, r7
 611              		.cfi_def_cfa_register 13
 612              		@ sp needed
 613 0148 BDE8F083 		pop	{r4, r5, r6, r7, r8, r9, pc}
 614              	.L30:
 615              		.align	2
 616              	.L29:
 617 014c 40420F00 		.word	1000000
 618              		.cfi_endproc
 619              	.LFE2:
 620              		.size	planner, .-planner
 621              		.section	.text.calculate_distance_from_goal,"ax",%progbits
 622              		.align	2
 623              		.global	calculate_distance_from_goal
 624              		.thumb
 625              		.thumb_func
 626              		.type	calculate_distance_from_goal, %function
 627              	calculate_distance_from_goal:
 628              	.LFB3:
  80:..\..\..\..\Users\cyu13\Desktop\ECE4191\Tentacles/tentacles.c **** 
  81:..\..\..\..\Users\cyu13\Desktop\ECE4191\Tentacles/tentacles.c **** double calculate_distance_from_goal(double pos_x, double pos_y, double goal_x, double goal_y) {
 629              		.loc 1 81 0
 630              		.cfi_startproc
 631              		@ args = 16, pretend = 0, frame = 40
 632              		@ frame_needed = 1, uses_anonymous_args = 0
 633 0000 90B5     		push	{r4, r7, lr}
 634              		.cfi_def_cfa_offset 12
 635              		.cfi_offset 4, -12
 636              		.cfi_offset 7, -8
 637              		.cfi_offset 14, -4
 638 0002 8BB0     		sub	sp, sp, #44
 639              		.cfi_def_cfa_offset 56
 640 0004 00AF     		add	r7, sp, #0
 641              		.cfi_def_cfa_register 7
 642 0006 C7E90201 		strd	r0, [r7, #8]
 643 000a C7E90023 		strd	r2, [r7]
  82:..\..\..\..\Users\cyu13\Desktop\ECE4191\Tentacles/tentacles.c ****   // Calculate distance between current position and end goal
  83:..\..\..\..\Users\cyu13\Desktop\ECE4191\Tentacles/tentacles.c ****   double dist_x = pow(goal_x - pos_x, 2);
 644              		.loc 1 83 0
 645 000e D7E90223 		ldrd	r2, [r7, #8]
 646 0012 D7E90E01 		ldrd	r0, [r7, #56]
 647 0016 FFF7FEFF 		bl	__aeabi_dsub
 648 001a 0346     		mov	r3, r0
 649 001c 0C46     		mov	r4, r1
ARM GAS  C:\Users\cyu13\AppData\Local\Temp\ccHCp0Lb.s 			page 14


 650 001e 1846     		mov	r0, r3
 651 0020 2146     		mov	r1, r4
 652 0022 4FF00002 		mov	r2, #0
 653 0026 4FF08043 		mov	r3, #1073741824
 654 002a FFF7FEFF 		bl	pow
 655 002e C7E90801 		strd	r0, [r7, #32]
  84:..\..\..\..\Users\cyu13\Desktop\ECE4191\Tentacles/tentacles.c ****   double dist_y = pow( goal_y - pos_y, 2 ); 
 656              		.loc 1 84 0
 657 0032 D7E90023 		ldrd	r2, [r7]
 658 0036 D7E91001 		ldrd	r0, [r7, #64]
 659 003a FFF7FEFF 		bl	__aeabi_dsub
 660 003e 0346     		mov	r3, r0
 661 0040 0C46     		mov	r4, r1
 662 0042 1846     		mov	r0, r3
 663 0044 2146     		mov	r1, r4
 664 0046 4FF00002 		mov	r2, #0
 665 004a 4FF08043 		mov	r3, #1073741824
 666 004e FFF7FEFF 		bl	pow
 667 0052 C7E90601 		strd	r0, [r7, #24]
  85:..\..\..\..\Users\cyu13\Desktop\ECE4191\Tentacles/tentacles.c ****   
  86:..\..\..\..\Users\cyu13\Desktop\ECE4191\Tentacles/tentacles.c ****   double distance = sqrt(dist_x + dist_y);
 668              		.loc 1 86 0
 669 0056 D7E90623 		ldrd	r2, [r7, #24]
 670 005a D7E90801 		ldrd	r0, [r7, #32]
 671 005e FFF7FEFF 		bl	__aeabi_dadd
 672 0062 0346     		mov	r3, r0
 673 0064 0C46     		mov	r4, r1
 674 0066 1846     		mov	r0, r3
 675 0068 2146     		mov	r1, r4
 676 006a FFF7FEFF 		bl	sqrt
 677 006e C7E90401 		strd	r0, [r7, #16]
  87:..\..\..\..\Users\cyu13\Desktop\ECE4191\Tentacles/tentacles.c ****   return distance;
 678              		.loc 1 87 0
 679 0072 D7E90434 		ldrd	r3, [r7, #16]
  88:..\..\..\..\Users\cyu13\Desktop\ECE4191\Tentacles/tentacles.c **** }...
 680              		.loc 1 88 0
 681 0076 1846     		mov	r0, r3
 682 0078 2146     		mov	r1, r4
 683 007a 2C37     		adds	r7, r7, #44
 684              		.cfi_def_cfa_offset 12
 685 007c BD46     		mov	sp, r7
 686              		.cfi_def_cfa_register 13
 687              		@ sp needed
 688 007e 90BD     		pop	{r4, r7, pc}
 689              		.cfi_endproc
 690              	.LFE3:
 691              		.size	calculate_distance_from_goal, .-calculate_distance_from_goal
 692              		.text
 693              	.Letext0:
 694              		.file 2 "c:\\users\\cyu13\\desktop\\ece4191\\tentacles\\tentacles.h"