ARM GAS  C:\Users\cyu13\AppData\Local\Temp\ccOJn0nn.s 			page 1


   1              		.syntax unified
   2              		.cpu cortex-m3
   3              		.fpu softvfp
   4              		.eabi_attribute 20, 1
   5              		.eabi_attribute 21, 1
   6              		.eabi_attribute 23, 3
   7              		.eabi_attribute 24, 1
   8              		.eabi_attribute 25, 1
   9              		.eabi_attribute 26, 1
  10              		.eabi_attribute 30, 6
  11              		.eabi_attribute 34, 1
  12              		.eabi_attribute 18, 4
  13              		.thumb
  14              		.syntax unified
  15              		.file	"vfh.c"
  16              		.text
  17              	.Ltext0:
  18              		.cfi_sections	.debug_frame
  19              		.section	.text.grid_create,"ax",%progbits
  20              		.align	2
  21              		.global	grid_create
  22              		.thumb
  23              		.thumb_func
  24              		.type	grid_create, %function
  25              	grid_create:
  26              	.LFB0:
  27              		.file 1 "..\\VFH\\vfh.c"
   1:..\VFH/vfh.c  **** /*
   2:..\VFH/vfh.c  **** ** Vector Field Histogram Implementation
   3:..\VFH/vfh.c  **** **  
   4:..\VFH/vfh.c  **** **
   5:..\VFH/vfh.c  **** */
   6:..\VFH/vfh.c  **** 
   7:..\VFH/vfh.c  **** #include <stdlib.h>
   8:..\VFH/vfh.c  **** #include <math.h>
   9:..\VFH/vfh.c  **** #include <assert.h>
  10:..\VFH/vfh.c  **** 
  11:..\VFH/vfh.c  **** #include "vfh.h"
  12:..\VFH/vfh.c  **** 
  13:..\VFH/vfh.c  **** /*=======================================================================*/    
  14:..\VFH/vfh.c  **** // Histogram Grid Creation Code
  15:..\VFH/vfh.c  **** 
  16:..\VFH/vfh.c  **** grid * grid_create(int width, int height, int resolution) {
  28              		.loc 1 16 0
  29              		.cfi_startproc
  30              		@ args = 0, pretend = 0, frame = 32
  31              		@ frame_needed = 1, uses_anonymous_args = 0
  32 0000 80B5     		push	{r7, lr}
  33              		.cfi_def_cfa_offset 8
  34              		.cfi_offset 7, -8
  35              		.cfi_offset 14, -4
  36 0002 88B0     		sub	sp, sp, #32
  37              		.cfi_def_cfa_offset 40
  38 0004 00AF     		add	r7, sp, #0
  39              		.cfi_def_cfa_register 7
  40 0006 F860     		str	r0, [r7, #12]
  41 0008 B960     		str	r1, [r7, #8]
ARM GAS  C:\Users\cyu13\AppData\Local\Temp\ccOJn0nn.s 			page 2


  42 000a 7A60     		str	r2, [r7, #4]
  17:..\VFH/vfh.c  ****   /* Creates a map of our arena. */
  18:..\VFH/vfh.c  **** 
  19:..\VFH/vfh.c  ****   grid * map = malloc(sizeof(grid));  // Allocate memory for grid map
  43              		.loc 1 19 0
  44 000c 1020     		movs	r0, #16
  45 000e FFF7FEFF 		bl	malloc
  46 0012 0346     		mov	r3, r0
  47 0014 7B61     		str	r3, [r7, #20]
  20:..\VFH/vfh.c  **** 
  21:..\VFH/vfh.c  ****   // Return NULL if not enough memory
  22:..\VFH/vfh.c  ****   if (map == NULL) {
  48              		.loc 1 22 0
  49 0016 7B69     		ldr	r3, [r7, #20]
  50 0018 002B     		cmp	r3, #0
  51 001a 04D1     		bne	.L2
  23:..\VFH/vfh.c  ****     free(map);
  52              		.loc 1 23 0
  53 001c 7869     		ldr	r0, [r7, #20]
  54 001e FFF7FEFF 		bl	free
  24:..\VFH/vfh.c  ****     return NULL;
  55              		.loc 1 24 0
  56 0022 0023     		movs	r3, #0
  57 0024 43E0     		b	.L3
  58              	.L2:
  25:..\VFH/vfh.c  ****   }
  26:..\VFH/vfh.c  **** 
  27:..\VFH/vfh.c  ****   // Define variables
  28:..\VFH/vfh.c  ****   map->width = width;
  59              		.loc 1 28 0
  60 0026 7B69     		ldr	r3, [r7, #20]
  61 0028 FA68     		ldr	r2, [r7, #12]
  62 002a 1A60     		str	r2, [r3]
  29:..\VFH/vfh.c  ****   map->height = height;
  63              		.loc 1 29 0
  64 002c 7B69     		ldr	r3, [r7, #20]
  65 002e BA68     		ldr	r2, [r7, #8]
  66 0030 5A60     		str	r2, [r3, #4]
  30:..\VFH/vfh.c  ****   map->resolution = resolution;
  67              		.loc 1 30 0
  68 0032 7B69     		ldr	r3, [r7, #20]
  69 0034 7A68     		ldr	r2, [r7, #4]
  70 0036 9A60     		str	r2, [r3, #8]
  31:..\VFH/vfh.c  ****   map->cells = malloc(width * height * sizeof(int));
  71              		.loc 1 31 0
  72 0038 FB68     		ldr	r3, [r7, #12]
  73 003a BA68     		ldr	r2, [r7, #8]
  74 003c 02FB03F3 		mul	r3, r2, r3
  75 0040 9B00     		lsls	r3, r3, #2
  76 0042 1846     		mov	r0, r3
  77 0044 FFF7FEFF 		bl	malloc
  78 0048 0346     		mov	r3, r0
  79 004a 1A46     		mov	r2, r3
  80 004c 7B69     		ldr	r3, [r7, #20]
  81 004e DA60     		str	r2, [r3, #12]
  32:..\VFH/vfh.c  **** 
  33:..\VFH/vfh.c  ****   // Return NULL if not enough memory
ARM GAS  C:\Users\cyu13\AppData\Local\Temp\ccOJn0nn.s 			page 3


  34:..\VFH/vfh.c  ****   if (map->cells == NULL) {
  82              		.loc 1 34 0
  83 0050 7B69     		ldr	r3, [r7, #20]
  84 0052 DB68     		ldr	r3, [r3, #12]
  85 0054 002B     		cmp	r3, #0
  86 0056 09D1     		bne	.L4
  35:..\VFH/vfh.c  ****     free(map);
  87              		.loc 1 35 0
  88 0058 7869     		ldr	r0, [r7, #20]
  89 005a FFF7FEFF 		bl	free
  36:..\VFH/vfh.c  ****     free(map->cells);
  90              		.loc 1 36 0
  91 005e 7B69     		ldr	r3, [r7, #20]
  92 0060 DB68     		ldr	r3, [r3, #12]
  93 0062 1846     		mov	r0, r3
  94 0064 FFF7FEFF 		bl	free
  37:..\VFH/vfh.c  ****     return NULL;
  95              		.loc 1 37 0
  96 0068 0023     		movs	r3, #0
  97 006a 20E0     		b	.L3
  98              	.L4:
  99              	.LBB2:
  38:..\VFH/vfh.c  ****   }
  39:..\VFH/vfh.c  **** 
  40:..\VFH/vfh.c  ****   // Define all initial grid values to be 0 as there are no obstacles
  41:..\VFH/vfh.c  ****   for (int i = 0; i < width; ++i) {
 100              		.loc 1 41 0
 101 006c 0023     		movs	r3, #0
 102 006e FB61     		str	r3, [r7, #28]
 103 0070 18E0     		b	.L5
 104              	.L8:
 105              	.LBB3:
  42:..\VFH/vfh.c  ****     for (int j = 0; j < height; ++j) {
 106              		.loc 1 42 0
 107 0072 0023     		movs	r3, #0
 108 0074 BB61     		str	r3, [r7, #24]
 109 0076 0EE0     		b	.L6
 110              	.L7:
  43:..\VFH/vfh.c  ****       map->cells[i * width + j] = 0;    // Map grid is defined as a 1D array
 111              		.loc 1 43 0 discriminator 3
 112 0078 7B69     		ldr	r3, [r7, #20]
 113 007a DA68     		ldr	r2, [r3, #12]
 114 007c FB69     		ldr	r3, [r7, #28]
 115 007e F968     		ldr	r1, [r7, #12]
 116 0080 01FB03F1 		mul	r1, r1, r3
 117 0084 BB69     		ldr	r3, [r7, #24]
 118 0086 0B44     		add	r3, r3, r1
 119 0088 9B00     		lsls	r3, r3, #2
 120 008a 1344     		add	r3, r3, r2
 121 008c 0022     		movs	r2, #0
 122 008e 1A60     		str	r2, [r3]
  42:..\VFH/vfh.c  ****     for (int j = 0; j < height; ++j) {
 123              		.loc 1 42 0 discriminator 3
 124 0090 BB69     		ldr	r3, [r7, #24]
 125 0092 0133     		adds	r3, r3, #1
 126 0094 BB61     		str	r3, [r7, #24]
 127              	.L6:
ARM GAS  C:\Users\cyu13\AppData\Local\Temp\ccOJn0nn.s 			page 4


  42:..\VFH/vfh.c  ****     for (int j = 0; j < height; ++j) {
 128              		.loc 1 42 0 is_stmt 0 discriminator 1
 129 0096 BA69     		ldr	r2, [r7, #24]
 130 0098 BB68     		ldr	r3, [r7, #8]
 131 009a 9A42     		cmp	r2, r3
 132 009c ECDB     		blt	.L7
 133              	.LBE3:
  41:..\VFH/vfh.c  ****     for (int j = 0; j < height; ++j) {
 134              		.loc 1 41 0 is_stmt 1 discriminator 2
 135 009e FB69     		ldr	r3, [r7, #28]
 136 00a0 0133     		adds	r3, r3, #1
 137 00a2 FB61     		str	r3, [r7, #28]
 138              	.L5:
  41:..\VFH/vfh.c  ****     for (int j = 0; j < height; ++j) {
 139              		.loc 1 41 0 is_stmt 0 discriminator 1
 140 00a4 FA69     		ldr	r2, [r7, #28]
 141 00a6 FB68     		ldr	r3, [r7, #12]
 142 00a8 9A42     		cmp	r2, r3
 143 00aa E2DB     		blt	.L8
 144              	.LBE2:
  44:..\VFH/vfh.c  ****     }
  45:..\VFH/vfh.c  ****   }
  46:..\VFH/vfh.c  **** 
  47:..\VFH/vfh.c  ****   return map;
 145              		.loc 1 47 0 is_stmt 1
 146 00ac 7B69     		ldr	r3, [r7, #20]
 147              	.L3:
  48:..\VFH/vfh.c  **** }
 148              		.loc 1 48 0
 149 00ae 1846     		mov	r0, r3
 150 00b0 2037     		adds	r7, r7, #32
 151              		.cfi_def_cfa_offset 8
 152 00b2 BD46     		mov	sp, r7
 153              		.cfi_def_cfa_register 13
 154              		@ sp needed
 155 00b4 80BD     		pop	{r7, pc}
 156              		.cfi_endproc
 157              	.LFE0:
 158              		.size	grid_create, .-grid_create
 159              		.global	__aeabi_i2d
 160              		.global	__aeabi_dmul
 161              		.global	__aeabi_ddiv
 162              		.global	__aeabi_dadd
 163              		.global	__aeabi_dcmplt
 164              		.global	__aeabi_dcmpge
 165              		.global	__aeabi_dsub
 166              		.global	__aeabi_dcmpgt
 167              		.global	__aeabi_d2iz
 168 00b6 00BF     		.section	.text.grid_update,"ax",%progbits
 169              		.align	2
 170              		.global	grid_update
 171              		.thumb
 172              		.thumb_func
 173              		.type	grid_update, %function
 174              	grid_update:
 175              	.LFB1:
  49:..\VFH/vfh.c  **** 
ARM GAS  C:\Users\cyu13\AppData\Local\Temp\ccOJn0nn.s 			page 5


  50:..\VFH/vfh.c  **** int grid_update(grid * map, Sensor * sensors, Robot * robot) {
 176              		.loc 1 50 0
 177              		.cfi_startproc
 178              		@ args = 0, pretend = 0, frame = 128
 179              		@ frame_needed = 1, uses_anonymous_args = 0
 180 0000 2DE9F043 		push	{r4, r5, r6, r7, r8, r9, lr}
 181              		.cfi_def_cfa_offset 28
 182              		.cfi_offset 4, -28
 183              		.cfi_offset 5, -24
 184              		.cfi_offset 6, -20
 185              		.cfi_offset 7, -16
 186              		.cfi_offset 8, -12
 187              		.cfi_offset 9, -8
 188              		.cfi_offset 14, -4
 189 0004 A1B0     		sub	sp, sp, #132
 190              		.cfi_def_cfa_offset 160
 191 0006 00AF     		add	r7, sp, #0
 192              		.cfi_def_cfa_register 7
 193 0008 F860     		str	r0, [r7, #12]
 194 000a B960     		str	r1, [r7, #8]
 195 000c 7A60     		str	r2, [r7, #4]
  51:..\VFH/vfh.c  ****   /*
  52:..\VFH/vfh.c  ****    * Updates Histogram with detected obstacles.
  53:..\VFH/vfh.c  ****    * Takes robot positioning and sensor measurements to determine obstacles location.
  54:..\VFH/vfh.c  ****    *
  55:..\VFH/vfh.c  ****    * Remember that cos() and sin() expect angles in RADIANS, not DEGREES.
  56:..\VFH/vfh.c  ****   */
  57:..\VFH/vfh.c  **** 
  58:..\VFH/vfh.c  ****   // Check if grid map exists
  59:..\VFH/vfh.c  ****   if (map == NULL) return 0;
 196              		.loc 1 59 0
 197 000e FB68     		ldr	r3, [r7, #12]
 198 0010 002B     		cmp	r3, #0
 199 0012 01D1     		bne	.L10
 200              		.loc 1 59 0 is_stmt 0 discriminator 1
 201 0014 0023     		movs	r3, #0
 202 0016 88E1     		b	.L27
 203              	.L10:
  60:..\VFH/vfh.c  ****   if (map->cells == NULL) return 0;
 204              		.loc 1 60 0 is_stmt 1
 205 0018 FB68     		ldr	r3, [r7, #12]
 206 001a DB68     		ldr	r3, [r3, #12]
 207 001c 002B     		cmp	r3, #0
 208 001e 01D1     		bne	.L12
 209              		.loc 1 60 0 is_stmt 0 discriminator 1
 210 0020 0023     		movs	r3, #0
 211 0022 82E1     		b	.L27
 212              	.L12:
  61:..\VFH/vfh.c  **** 
  62:..\VFH/vfh.c  ****   // Extract needed variables from structure
  63:..\VFH/vfh.c  ****   double pos_x = robot->x;    // cm
 213              		.loc 1 63 0 is_stmt 1
 214 0024 7B68     		ldr	r3, [r7, #4]
 215 0026 03F11004 		add	r4, r3, #16
 216 002a D4E90034 		ldrd	r3, [r4]
 217 002e C7E91834 		strd	r3, [r7, #96]
  64:..\VFH/vfh.c  ****   double pos_y = robot->y;    // cm
ARM GAS  C:\Users\cyu13\AppData\Local\Temp\ccOJn0nn.s 			page 6


 218              		.loc 1 64 0
 219 0032 7B68     		ldr	r3, [r7, #4]
 220 0034 03F11804 		add	r4, r3, #24
 221 0038 D4E90034 		ldrd	r3, [r4]
 222 003c C7E91634 		strd	r3, [r7, #88]
  65:..\VFH/vfh.c  ****   double yaw = robot->theta;  // radians
 223              		.loc 1 65 0
 224 0040 7B68     		ldr	r3, [r7, #4]
 225 0042 03F10804 		add	r4, r3, #8
 226 0046 D4E90034 		ldrd	r3, [r4]
 227 004a C7E91434 		strd	r3, [r7, #80]
 228              	.LBB4:
  66:..\VFH/vfh.c  **** 
  67:..\VFH/vfh.c  ****   // Determine distance of returned ultrasonic signal and convert into grid 
  68:..\VFH/vfh.c  ****   double cell_distance[N_SENSORS];
  69:..\VFH/vfh.c  ****   for (int i = 0; i < N_SENSORS; ++i) {
 229              		.loc 1 69 0
 230 004e 0023     		movs	r3, #0
 231 0050 FB67     		str	r3, [r7, #124]
 232 0052 19E0     		b	.L13
 233              	.L14:
  70:..\VFH/vfh.c  ****     cell_distance[i] = sensors->distance[i] / map->resolution;
 234              		.loc 1 70 0 discriminator 3
 235 0054 BA68     		ldr	r2, [r7, #8]
 236 0056 FB6F     		ldr	r3, [r7, #124]
 237 0058 0433     		adds	r3, r3, #4
 238 005a 9B00     		lsls	r3, r3, #2
 239 005c 1344     		add	r3, r3, r2
 240 005e 5A68     		ldr	r2, [r3, #4]
 241 0060 FB68     		ldr	r3, [r7, #12]
 242 0062 9B68     		ldr	r3, [r3, #8]
 243 0064 92FBF3F3 		sdiv	r3, r2, r3
 244 0068 1846     		mov	r0, r3
 245 006a FFF7FEFF 		bl	__aeabi_i2d
 246 006e 0346     		mov	r3, r0
 247 0070 0C46     		mov	r4, r1
 248 0072 FA6F     		ldr	r2, [r7, #124]
 249 0074 D200     		lsls	r2, r2, #3
 250 0076 07F18001 		add	r1, r7, #128
 251 007a 0A44     		add	r2, r2, r1
 252 007c 703A     		subs	r2, r2, #112
 253 007e C2E90034 		strd	r3, [r2]
  69:..\VFH/vfh.c  ****     cell_distance[i] = sensors->distance[i] / map->resolution;
 254              		.loc 1 69 0 discriminator 3
 255 0082 FB6F     		ldr	r3, [r7, #124]
 256 0084 0133     		adds	r3, r3, #1
 257 0086 FB67     		str	r3, [r7, #124]
 258              	.L13:
  69:..\VFH/vfh.c  ****     cell_distance[i] = sensors->distance[i] / map->resolution;
 259              		.loc 1 69 0 is_stmt 0 discriminator 1
 260 0088 FB6F     		ldr	r3, [r7, #124]
 261 008a 042B     		cmp	r3, #4
 262 008c E2DD     		ble	.L14
 263              	.LBE4:
 264              	.LBB5:
  71:..\VFH/vfh.c  ****   }
  72:..\VFH/vfh.c  **** 
ARM GAS  C:\Users\cyu13\AppData\Local\Temp\ccOJn0nn.s 			page 7


  73:..\VFH/vfh.c  ****   // Determine cell location of obstacles
  74:..\VFH/vfh.c  ****   double theta; 
  75:..\VFH/vfh.c  ****   double sensor_radians;
  76:..\VFH/vfh.c  **** 
  77:..\VFH/vfh.c  ****   for (int i = 0; i < N_SENSORS; ++i){
 265              		.loc 1 77 0 is_stmt 1
 266 008e 0023     		movs	r3, #0
 267 0090 FB66     		str	r3, [r7, #108]
 268 0092 45E1     		b	.L15
 269              	.L26:
 270              	.LBB6:
  78:..\VFH/vfh.c  ****     // Convert sensor angle into radians
  79:..\VFH/vfh.c  ****     sensor_radians = M_PI * sensors->direction[i] / 180;
 271              		.loc 1 79 0
 272 0094 BB68     		ldr	r3, [r7, #8]
 273 0096 FA6E     		ldr	r2, [r7, #108]
 274 0098 53F82230 		ldr	r3, [r3, r2, lsl #2]
 275 009c 1846     		mov	r0, r3
 276 009e FFF7FEFF 		bl	__aeabi_i2d
 277 00a2 A5A3     		adr	r3, .L36
 278 00a4 D3E90023 		ldrd	r2, [r3]
 279 00a8 FFF7FEFF 		bl	__aeabi_dmul
 280 00ac 0346     		mov	r3, r0
 281 00ae 0C46     		mov	r4, r1
 282 00b0 1846     		mov	r0, r3
 283 00b2 2146     		mov	r1, r4
 284 00b4 4FF00002 		mov	r2, #0
 285 00b8 A34B     		ldr	r3, .L36+16
 286 00ba FFF7FEFF 		bl	__aeabi_ddiv
 287 00be 0346     		mov	r3, r0
 288 00c0 0C46     		mov	r4, r1
 289 00c2 C7E91234 		strd	r3, [r7, #72]
  80:..\VFH/vfh.c  ****     if (yaw + sensor_radians < 0) {
 290              		.loc 1 80 0
 291 00c6 D7E91223 		ldrd	r2, [r7, #72]
 292 00ca D7E91401 		ldrd	r0, [r7, #80]
 293 00ce FFF7FEFF 		bl	__aeabi_dadd
 294 00d2 0346     		mov	r3, r0
 295 00d4 0C46     		mov	r4, r1
 296 00d6 1846     		mov	r0, r3
 297 00d8 2146     		mov	r1, r4
 298 00da 4FF00002 		mov	r2, #0
 299 00de 4FF00003 		mov	r3, #0
 300 00e2 FFF7FEFF 		bl	__aeabi_dcmplt
 301 00e6 0346     		mov	r3, r0
 302 00e8 002B     		cmp	r3, #0
 303 00ea 13D0     		beq	.L34
  81:..\VFH/vfh.c  ****       theta = yaw + sensor_radians + M_TWOPI;
 304              		.loc 1 81 0
 305 00ec D7E91223 		ldrd	r2, [r7, #72]
 306 00f0 D7E91401 		ldrd	r0, [r7, #80]
 307 00f4 FFF7FEFF 		bl	__aeabi_dadd
 308 00f8 0346     		mov	r3, r0
 309 00fa 0C46     		mov	r4, r1
 310 00fc 1846     		mov	r0, r3
 311 00fe 2146     		mov	r1, r4
 312 0100 8FA3     		adr	r3, .L36+8
ARM GAS  C:\Users\cyu13\AppData\Local\Temp\ccOJn0nn.s 			page 8


 313 0102 D3E90023 		ldrd	r2, [r3]
 314 0106 FFF7FEFF 		bl	__aeabi_dadd
 315 010a 0346     		mov	r3, r0
 316 010c 0C46     		mov	r4, r1
 317 010e C7E91C34 		strd	r3, [r7, #112]
 318 0112 2FE0     		b	.L18
 319              	.L34:
  82:..\VFH/vfh.c  ****     } else if (yaw + sensor_radians >= M_TWOPI) {
 320              		.loc 1 82 0
 321 0114 D7E91223 		ldrd	r2, [r7, #72]
 322 0118 D7E91401 		ldrd	r0, [r7, #80]
 323 011c FFF7FEFF 		bl	__aeabi_dadd
 324 0120 0346     		mov	r3, r0
 325 0122 0C46     		mov	r4, r1
 326 0124 1846     		mov	r0, r3
 327 0126 2146     		mov	r1, r4
 328 0128 85A3     		adr	r3, .L36+8
 329 012a D3E90023 		ldrd	r2, [r3]
 330 012e FFF7FEFF 		bl	__aeabi_dcmpge
 331 0132 0346     		mov	r3, r0
 332 0134 002B     		cmp	r3, #0
 333 0136 13D0     		beq	.L35
  83:..\VFH/vfh.c  ****       theta = yaw + sensor_radians - M_TWOPI;
 334              		.loc 1 83 0
 335 0138 D7E91223 		ldrd	r2, [r7, #72]
 336 013c D7E91401 		ldrd	r0, [r7, #80]
 337 0140 FFF7FEFF 		bl	__aeabi_dadd
 338 0144 0346     		mov	r3, r0
 339 0146 0C46     		mov	r4, r1
 340 0148 1846     		mov	r0, r3
 341 014a 2146     		mov	r1, r4
 342 014c 7CA3     		adr	r3, .L36+8
 343 014e D3E90023 		ldrd	r2, [r3]
 344 0152 FFF7FEFF 		bl	__aeabi_dsub
 345 0156 0346     		mov	r3, r0
 346 0158 0C46     		mov	r4, r1
 347 015a C7E91C34 		strd	r3, [r7, #112]
 348 015e 09E0     		b	.L18
 349              	.L35:
  84:..\VFH/vfh.c  ****     } else {
  85:..\VFH/vfh.c  ****       theta = yaw + sensor_radians;
 350              		.loc 1 85 0
 351 0160 D7E91223 		ldrd	r2, [r7, #72]
 352 0164 D7E91401 		ldrd	r0, [r7, #80]
 353 0168 FFF7FEFF 		bl	__aeabi_dadd
 354 016c 0346     		mov	r3, r0
 355 016e 0C46     		mov	r4, r1
 356 0170 C7E91C34 		strd	r3, [r7, #112]
 357              	.L18:
  86:..\VFH/vfh.c  ****     }
  87:..\VFH/vfh.c  ****     
  88:..\VFH/vfh.c  ****     double new_x = (pos_x/map->resolution - 1) + floor(cell_distance[i] * cos(theta));
 358              		.loc 1 88 0
 359 0174 FB68     		ldr	r3, [r7, #12]
 360 0176 9B68     		ldr	r3, [r3, #8]
 361 0178 1846     		mov	r0, r3
 362 017a FFF7FEFF 		bl	__aeabi_i2d
ARM GAS  C:\Users\cyu13\AppData\Local\Temp\ccOJn0nn.s 			page 9


 363 017e 0346     		mov	r3, r0
 364 0180 0C46     		mov	r4, r1
 365 0182 1A46     		mov	r2, r3
 366 0184 2346     		mov	r3, r4
 367 0186 D7E91801 		ldrd	r0, [r7, #96]
 368 018a FFF7FEFF 		bl	__aeabi_ddiv
 369 018e 0346     		mov	r3, r0
 370 0190 0C46     		mov	r4, r1
 371 0192 1846     		mov	r0, r3
 372 0194 2146     		mov	r1, r4
 373 0196 4FF00002 		mov	r2, #0
 374 019a 6C4B     		ldr	r3, .L36+20
 375 019c FFF7FEFF 		bl	__aeabi_dsub
 376 01a0 0346     		mov	r3, r0
 377 01a2 0C46     		mov	r4, r1
 378 01a4 9846     		mov	r8, r3
 379 01a6 A146     		mov	r9, r4
 380 01a8 FB6E     		ldr	r3, [r7, #108]
 381 01aa DB00     		lsls	r3, r3, #3
 382 01ac 07F18002 		add	r2, r7, #128
 383 01b0 1344     		add	r3, r3, r2
 384 01b2 703B     		subs	r3, r3, #112
 385 01b4 D3E90045 		ldrd	r4, [r3]
 386 01b8 D7E91C01 		ldrd	r0, [r7, #112]
 387 01bc FFF7FEFF 		bl	cos
 388 01c0 0246     		mov	r2, r0
 389 01c2 0B46     		mov	r3, r1
 390 01c4 2046     		mov	r0, r4
 391 01c6 2946     		mov	r1, r5
 392 01c8 FFF7FEFF 		bl	__aeabi_dmul
 393 01cc 0346     		mov	r3, r0
 394 01ce 0C46     		mov	r4, r1
 395 01d0 1846     		mov	r0, r3
 396 01d2 2146     		mov	r1, r4
 397 01d4 FFF7FEFF 		bl	floor
 398 01d8 0346     		mov	r3, r0
 399 01da 0C46     		mov	r4, r1
 400 01dc 1A46     		mov	r2, r3
 401 01de 2346     		mov	r3, r4
 402 01e0 4046     		mov	r0, r8
 403 01e2 4946     		mov	r1, r9
 404 01e4 FFF7FEFF 		bl	__aeabi_dadd
 405 01e8 0346     		mov	r3, r0
 406 01ea 0C46     		mov	r4, r1
 407 01ec C7E91034 		strd	r3, [r7, #64]
  89:..\VFH/vfh.c  ****     double new_y = (pos_y/map->resolution - 1) + floor(cell_distance[i] * sin(theta));
 408              		.loc 1 89 0
 409 01f0 FB68     		ldr	r3, [r7, #12]
 410 01f2 9B68     		ldr	r3, [r3, #8]
 411 01f4 1846     		mov	r0, r3
 412 01f6 FFF7FEFF 		bl	__aeabi_i2d
 413 01fa 0346     		mov	r3, r0
 414 01fc 0C46     		mov	r4, r1
 415 01fe 1A46     		mov	r2, r3
 416 0200 2346     		mov	r3, r4
 417 0202 D7E91601 		ldrd	r0, [r7, #88]
 418 0206 FFF7FEFF 		bl	__aeabi_ddiv
ARM GAS  C:\Users\cyu13\AppData\Local\Temp\ccOJn0nn.s 			page 10


 419 020a 0346     		mov	r3, r0
 420 020c 0C46     		mov	r4, r1
 421 020e 1846     		mov	r0, r3
 422 0210 2146     		mov	r1, r4
 423 0212 4FF00002 		mov	r2, #0
 424 0216 4D4B     		ldr	r3, .L36+20
 425 0218 FFF7FEFF 		bl	__aeabi_dsub
 426 021c 0346     		mov	r3, r0
 427 021e 0C46     		mov	r4, r1
 428 0220 9846     		mov	r8, r3
 429 0222 A146     		mov	r9, r4
 430 0224 FB6E     		ldr	r3, [r7, #108]
 431 0226 DB00     		lsls	r3, r3, #3
 432 0228 07F18002 		add	r2, r7, #128
 433 022c 1344     		add	r3, r3, r2
 434 022e 703B     		subs	r3, r3, #112
 435 0230 D3E90045 		ldrd	r4, [r3]
 436 0234 D7E91C01 		ldrd	r0, [r7, #112]
 437 0238 FFF7FEFF 		bl	sin
 438 023c 0246     		mov	r2, r0
 439 023e 0B46     		mov	r3, r1
 440 0240 2046     		mov	r0, r4
 441 0242 2946     		mov	r1, r5
 442 0244 FFF7FEFF 		bl	__aeabi_dmul
 443 0248 0346     		mov	r3, r0
 444 024a 0C46     		mov	r4, r1
 445 024c 1846     		mov	r0, r3
 446 024e 2146     		mov	r1, r4
 447 0250 FFF7FEFF 		bl	floor
 448 0254 0346     		mov	r3, r0
 449 0256 0C46     		mov	r4, r1
 450 0258 1A46     		mov	r2, r3
 451 025a 2346     		mov	r3, r4
 452 025c 4046     		mov	r0, r8
 453 025e 4946     		mov	r1, r9
 454 0260 FFF7FEFF 		bl	__aeabi_dadd
 455 0264 0346     		mov	r3, r0
 456 0266 0C46     		mov	r4, r1
 457 0268 C7E90E34 		strd	r3, [r7, #56]
  90:..\VFH/vfh.c  ****     
  91:..\VFH/vfh.c  ****     //char out[60];
  92:..\VFH/vfh.c  ****     //sprintf(out, "new x: %lf, new y: %lf\n\n", new_x, new_y);
  93:..\VFH/vfh.c  ****     //UART_PutString(out);
  94:..\VFH/vfh.c  ****     
  95:..\VFH/vfh.c  ****     // Check if point is within grid to avoid overflow
  96:..\VFH/vfh.c  ****     if (new_x < map->width && new_y < map->height && new_x >= 0 && new_y >= 0) {
 458              		.loc 1 96 0
 459 026c FB68     		ldr	r3, [r7, #12]
 460 026e 1B68     		ldr	r3, [r3]
 461 0270 1846     		mov	r0, r3
 462 0272 FFF7FEFF 		bl	__aeabi_i2d
 463 0276 D7E91023 		ldrd	r2, [r7, #64]
 464 027a FFF7FEFF 		bl	__aeabi_dcmpgt
 465 027e 0346     		mov	r3, r0
 466 0280 002B     		cmp	r3, #0
 467 0282 4AD0     		beq	.L21
 468              		.loc 1 96 0 is_stmt 0 discriminator 1
ARM GAS  C:\Users\cyu13\AppData\Local\Temp\ccOJn0nn.s 			page 11


 469 0284 FB68     		ldr	r3, [r7, #12]
 470 0286 5B68     		ldr	r3, [r3, #4]
 471 0288 1846     		mov	r0, r3
 472 028a FFF7FEFF 		bl	__aeabi_i2d
 473 028e D7E90E23 		ldrd	r2, [r7, #56]
 474 0292 FFF7FEFF 		bl	__aeabi_dcmpgt
 475 0296 0346     		mov	r3, r0
 476 0298 002B     		cmp	r3, #0
 477 029a 3ED0     		beq	.L21
 478              		.loc 1 96 0 discriminator 2
 479 029c 4FF00002 		mov	r2, #0
 480 02a0 4FF00003 		mov	r3, #0
 481 02a4 D7E91001 		ldrd	r0, [r7, #64]
 482 02a8 FFF7FEFF 		bl	__aeabi_dcmpge
 483 02ac 0346     		mov	r3, r0
 484 02ae 002B     		cmp	r3, #0
 485 02b0 33D0     		beq	.L21
 486              		.loc 1 96 0 discriminator 3
 487 02b2 4FF00002 		mov	r2, #0
 488 02b6 4FF00003 		mov	r3, #0
 489 02ba D7E90E01 		ldrd	r0, [r7, #56]
 490 02be FFF7FEFF 		bl	__aeabi_dcmpge
 491 02c2 0346     		mov	r3, r0
 492 02c4 002B     		cmp	r3, #0
 493 02c6 28D0     		beq	.L21
  97:..\VFH/vfh.c  ****       map->cells[(int) new_x * map->width + (int) new_y] += 1;
 494              		.loc 1 97 0 is_stmt 1
 495 02c8 FB68     		ldr	r3, [r7, #12]
 496 02ca DC68     		ldr	r4, [r3, #12]
 497 02cc D7E91001 		ldrd	r0, [r7, #64]
 498 02d0 FFF7FEFF 		bl	__aeabi_d2iz
 499 02d4 0246     		mov	r2, r0
 500 02d6 FB68     		ldr	r3, [r7, #12]
 501 02d8 1B68     		ldr	r3, [r3]
 502 02da 03FB02F5 		mul	r5, r3, r2
 503 02de D7E90E01 		ldrd	r0, [r7, #56]
 504 02e2 FFF7FEFF 		bl	__aeabi_d2iz
 505 02e6 0346     		mov	r3, r0
 506 02e8 2B44     		add	r3, r3, r5
 507 02ea 9B00     		lsls	r3, r3, #2
 508 02ec 1C44     		add	r4, r4, r3
 509 02ee FB68     		ldr	r3, [r7, #12]
 510 02f0 DD68     		ldr	r5, [r3, #12]
 511 02f2 D7E91001 		ldrd	r0, [r7, #64]
 512 02f6 FFF7FEFF 		bl	__aeabi_d2iz
 513 02fa 0246     		mov	r2, r0
 514 02fc FB68     		ldr	r3, [r7, #12]
 515 02fe 1B68     		ldr	r3, [r3]
 516 0300 03FB02F6 		mul	r6, r3, r2
 517 0304 D7E90E01 		ldrd	r0, [r7, #56]
 518 0308 FFF7FEFF 		bl	__aeabi_d2iz
 519 030c 0346     		mov	r3, r0
 520 030e 3344     		add	r3, r3, r6
 521 0310 9B00     		lsls	r3, r3, #2
 522 0312 2B44     		add	r3, r3, r5
 523 0314 1B68     		ldr	r3, [r3]
 524 0316 0133     		adds	r3, r3, #1
ARM GAS  C:\Users\cyu13\AppData\Local\Temp\ccOJn0nn.s 			page 12


 525 0318 2360     		str	r3, [r4]
 526              	.L21:
 527              	.LBE6:
  77:..\VFH/vfh.c  ****     // Convert sensor angle into radians
 528              		.loc 1 77 0 discriminator 2
 529 031a FB6E     		ldr	r3, [r7, #108]
 530 031c 0133     		adds	r3, r3, #1
 531 031e FB66     		str	r3, [r7, #108]
 532              	.L15:
  77:..\VFH/vfh.c  ****     // Convert sensor angle into radians
 533              		.loc 1 77 0 is_stmt 0 discriminator 1
 534 0320 FB6E     		ldr	r3, [r7, #108]
 535 0322 042B     		cmp	r3, #4
 536 0324 7FF7B6AE 		ble	.L26
 537              	.LBE5:
  98:..\VFH/vfh.c  ****     } 
  99:..\VFH/vfh.c  ****   }
 100:..\VFH/vfh.c  **** 
 101:..\VFH/vfh.c  ****   return 1;
 538              		.loc 1 101 0 is_stmt 1
 539 0328 0123     		movs	r3, #1
 540              	.L27:
 102:..\VFH/vfh.c  **** }
 541              		.loc 1 102 0 discriminator 1
 542 032a 1846     		mov	r0, r3
 543 032c 8437     		adds	r7, r7, #132
 544              		.cfi_def_cfa_offset 28
 545 032e BD46     		mov	sp, r7
 546              		.cfi_def_cfa_register 13
 547              		@ sp needed
 548 0330 BDE8F083 		pop	{r4, r5, r6, r7, r8, r9, pc}
 549              	.L37:
 550 0334 AFF30080 		.align	3
 551              	.L36:
 552 0338 182D4454 		.word	1413754136
 553 033c FB210940 		.word	1074340347
 554 0340 182D4454 		.word	1413754136
 555 0344 FB211940 		.word	1075388923
 556 0348 00806640 		.word	1080459264
 557 034c 0000F03F 		.word	1072693248
 558              		.cfi_endproc
 559              	.LFE1:
 560              		.size	grid_update, .-grid_update
 561              		.section	.text.active_window,"ax",%progbits
 562              		.align	2
 563              		.global	active_window
 564              		.thumb
 565              		.thumb_func
 566              		.type	active_window, %function
 567              	active_window:
 568              	.LFB2:
 103:..\VFH/vfh.c  **** 
 104:..\VFH/vfh.c  **** void active_window(grid * map, grid * active, Robot * robot) {
 569              		.loc 1 104 0
 570              		.cfi_startproc
 571              		@ args = 0, pretend = 0, frame = 40
 572              		@ frame_needed = 1, uses_anonymous_args = 0
ARM GAS  C:\Users\cyu13\AppData\Local\Temp\ccOJn0nn.s 			page 13


 573 0000 90B5     		push	{r4, r7, lr}
 574              		.cfi_def_cfa_offset 12
 575              		.cfi_offset 4, -12
 576              		.cfi_offset 7, -8
 577              		.cfi_offset 14, -4
 578 0002 8BB0     		sub	sp, sp, #44
 579              		.cfi_def_cfa_offset 56
 580 0004 00AF     		add	r7, sp, #0
 581              		.cfi_def_cfa_register 7
 582 0006 F860     		str	r0, [r7, #12]
 583 0008 B960     		str	r1, [r7, #8]
 584 000a 7A60     		str	r2, [r7, #4]
 105:..\VFH/vfh.c  ****   /*
 106:..\VFH/vfh.c  ****   * Creates an active window surrounding robot.
 107:..\VFH/vfh.c  ****   */
 108:..\VFH/vfh.c  **** 
 109:..\VFH/vfh.c  ****   // Robot variables
 110:..\VFH/vfh.c  ****   int x = robot->x;
 585              		.loc 1 110 0
 586 000c 7B68     		ldr	r3, [r7, #4]
 587 000e 03F11004 		add	r4, r3, #16
 588 0012 D4E90034 		ldrd	r3, [r4]
 589 0016 1846     		mov	r0, r3
 590 0018 2146     		mov	r1, r4
 591 001a FFF7FEFF 		bl	__aeabi_d2iz
 592 001e 0346     		mov	r3, r0
 593 0020 FB61     		str	r3, [r7, #28]
 111:..\VFH/vfh.c  ****   int y = robot->y;
 594              		.loc 1 111 0
 595 0022 7B68     		ldr	r3, [r7, #4]
 596 0024 03F11804 		add	r4, r3, #24
 597 0028 D4E90034 		ldrd	r3, [r4]
 598 002c 1846     		mov	r0, r3
 599 002e 2146     		mov	r1, r4
 600 0030 FFF7FEFF 		bl	__aeabi_d2iz
 601 0034 0346     		mov	r3, r0
 602 0036 BB61     		str	r3, [r7, #24]
 603              	.LBB7:
 112:..\VFH/vfh.c  **** 
 113:..\VFH/vfh.c  ****   // Create active window based on generated map
 114:..\VFH/vfh.c  ****   for (int i = 0; i < active->width; ++i) {
 604              		.loc 1 114 0
 605 0038 0023     		movs	r3, #0
 606 003a 7B62     		str	r3, [r7, #36]
 607 003c 53E0     		b	.L39
 608              	.L43:
 609              	.LBB8:
 115:..\VFH/vfh.c  ****       for (int j = 0; j < active->height; ++j) {
 610              		.loc 1 115 0
 611 003e 0023     		movs	r3, #0
 612 0040 3B62     		str	r3, [r7, #32]
 613 0042 48E0     		b	.L40
 614              	.L42:
 615              	.LBB9:
 116:..\VFH/vfh.c  **** 
 117:..\VFH/vfh.c  ****         /* x and y are the center coordinates of the body with sensors. */
 118:..\VFH/vfh.c  ****         int grid_i = i + x/map->resolution - (active->width - 1) / 2;
ARM GAS  C:\Users\cyu13\AppData\Local\Temp\ccOJn0nn.s 			page 14


 616              		.loc 1 118 0
 617 0044 FB68     		ldr	r3, [r7, #12]
 618 0046 9B68     		ldr	r3, [r3, #8]
 619 0048 FA69     		ldr	r2, [r7, #28]
 620 004a 92FBF3F2 		sdiv	r2, r2, r3
 621 004e 7B6A     		ldr	r3, [r7, #36]
 622 0050 1A44     		add	r2, r2, r3
 623 0052 BB68     		ldr	r3, [r7, #8]
 624 0054 1B68     		ldr	r3, [r3]
 625 0056 013B     		subs	r3, r3, #1
 626 0058 D90F     		lsrs	r1, r3, #31
 627 005a 0B44     		add	r3, r3, r1
 628 005c 5B10     		asrs	r3, r3, #1
 629 005e D31A     		subs	r3, r2, r3
 630 0060 7B61     		str	r3, [r7, #20]
 119:..\VFH/vfh.c  ****         int grid_j = j + y/map->resolution - (active->height - 1) / 2;
 631              		.loc 1 119 0
 632 0062 FB68     		ldr	r3, [r7, #12]
 633 0064 9B68     		ldr	r3, [r3, #8]
 634 0066 BA69     		ldr	r2, [r7, #24]
 635 0068 92FBF3F2 		sdiv	r2, r2, r3
 636 006c 3B6A     		ldr	r3, [r7, #32]
 637 006e 1A44     		add	r2, r2, r3
 638 0070 BB68     		ldr	r3, [r7, #8]
 639 0072 5B68     		ldr	r3, [r3, #4]
 640 0074 013B     		subs	r3, r3, #1
 641 0076 D90F     		lsrs	r1, r3, #31
 642 0078 0B44     		add	r3, r3, r1
 643 007a 5B10     		asrs	r3, r3, #1
 644 007c D31A     		subs	r3, r2, r3
 645 007e 3B61     		str	r3, [r7, #16]
 120:..\VFH/vfh.c  **** 
 121:..\VFH/vfh.c  ****         /* Copy the information from the grid to the moving window. */
 122:..\VFH/vfh.c  ****         if (grid_i < map->width && grid_j < map->height && grid_i >= 0 && grid_j >= 0) {
 646              		.loc 1 122 0
 647 0080 FB68     		ldr	r3, [r7, #12]
 648 0082 1A68     		ldr	r2, [r3]
 649 0084 7B69     		ldr	r3, [r7, #20]
 650 0086 9A42     		cmp	r2, r3
 651 0088 22DD     		ble	.L41
 652              		.loc 1 122 0 is_stmt 0 discriminator 1
 653 008a FB68     		ldr	r3, [r7, #12]
 654 008c 5A68     		ldr	r2, [r3, #4]
 655 008e 3B69     		ldr	r3, [r7, #16]
 656 0090 9A42     		cmp	r2, r3
 657 0092 1DDD     		ble	.L41
 658              		.loc 1 122 0 discriminator 2
 659 0094 7B69     		ldr	r3, [r7, #20]
 660 0096 002B     		cmp	r3, #0
 661 0098 1ADB     		blt	.L41
 662              		.loc 1 122 0 discriminator 3
 663 009a 3B69     		ldr	r3, [r7, #16]
 664 009c 002B     		cmp	r3, #0
 665 009e 17DB     		blt	.L41
 123:..\VFH/vfh.c  ****           active->cells[i * active->width + j] = map->cells[grid_i * map->width + grid_j];
 666              		.loc 1 123 0 is_stmt 1
 667 00a0 BB68     		ldr	r3, [r7, #8]
ARM GAS  C:\Users\cyu13\AppData\Local\Temp\ccOJn0nn.s 			page 15


 668 00a2 DA68     		ldr	r2, [r3, #12]
 669 00a4 BB68     		ldr	r3, [r7, #8]
 670 00a6 1B68     		ldr	r3, [r3]
 671 00a8 796A     		ldr	r1, [r7, #36]
 672 00aa 01FB03F1 		mul	r1, r1, r3
 673 00ae 3B6A     		ldr	r3, [r7, #32]
 674 00b0 0B44     		add	r3, r3, r1
 675 00b2 9B00     		lsls	r3, r3, #2
 676 00b4 1344     		add	r3, r3, r2
 677 00b6 FA68     		ldr	r2, [r7, #12]
 678 00b8 D168     		ldr	r1, [r2, #12]
 679 00ba FA68     		ldr	r2, [r7, #12]
 680 00bc 1268     		ldr	r2, [r2]
 681 00be 7869     		ldr	r0, [r7, #20]
 682 00c0 00FB02F0 		mul	r0, r0, r2
 683 00c4 3A69     		ldr	r2, [r7, #16]
 684 00c6 0244     		add	r2, r2, r0
 685 00c8 9200     		lsls	r2, r2, #2
 686 00ca 0A44     		add	r2, r2, r1
 687 00cc 1268     		ldr	r2, [r2]
 688 00ce 1A60     		str	r2, [r3]
 689              	.L41:
 690              	.LBE9:
 115:..\VFH/vfh.c  **** 
 691              		.loc 1 115 0 discriminator 2
 692 00d0 3B6A     		ldr	r3, [r7, #32]
 693 00d2 0133     		adds	r3, r3, #1
 694 00d4 3B62     		str	r3, [r7, #32]
 695              	.L40:
 115:..\VFH/vfh.c  **** 
 696              		.loc 1 115 0 is_stmt 0 discriminator 1
 697 00d6 BB68     		ldr	r3, [r7, #8]
 698 00d8 5A68     		ldr	r2, [r3, #4]
 699 00da 3B6A     		ldr	r3, [r7, #32]
 700 00dc 9A42     		cmp	r2, r3
 701 00de B1DC     		bgt	.L42
 702              	.LBE8:
 114:..\VFH/vfh.c  ****       for (int j = 0; j < active->height; ++j) {
 703              		.loc 1 114 0 is_stmt 1 discriminator 2
 704 00e0 7B6A     		ldr	r3, [r7, #36]
 705 00e2 0133     		adds	r3, r3, #1
 706 00e4 7B62     		str	r3, [r7, #36]
 707              	.L39:
 114:..\VFH/vfh.c  ****       for (int j = 0; j < active->height; ++j) {
 708              		.loc 1 114 0 is_stmt 0 discriminator 1
 709 00e6 BB68     		ldr	r3, [r7, #8]
 710 00e8 1A68     		ldr	r2, [r3]
 711 00ea 7B6A     		ldr	r3, [r7, #36]
 712 00ec 9A42     		cmp	r2, r3
 713 00ee A6DC     		bgt	.L43
 714              	.LBE7:
 124:..\VFH/vfh.c  ****         }
 125:..\VFH/vfh.c  ****       }
 126:..\VFH/vfh.c  ****     }
 127:..\VFH/vfh.c  **** }
 715              		.loc 1 127 0 is_stmt 1
 716 00f0 00BF     		nop
ARM GAS  C:\Users\cyu13\AppData\Local\Temp\ccOJn0nn.s 			page 16


 717 00f2 2C37     		adds	r7, r7, #44
 718              		.cfi_def_cfa_offset 12
 719 00f4 BD46     		mov	sp, r7
 720              		.cfi_def_cfa_register 13
 721              		@ sp needed
 722 00f6 90BD     		pop	{r4, r7, pc}
 723              		.cfi_endproc
 724              	.LFE2:
 725              		.size	active_window, .-active_window
 726              		.global	__aeabi_d2uiz
 727              		.section	.text.pod_create,"ax",%progbits
 728              		.align	2
 729              		.global	pod_create
 730              		.thumb
 731              		.thumb_func
 732              		.type	pod_create, %function
 733              	pod_create:
 734              	.LFB3:
 128:..\VFH/vfh.c  **** 
 129:..\VFH/vfh.c  **** /*=======================================================================*/
 130:..\VFH/vfh.c  **** /*                             END OF GRID                               */
 131:..\VFH/vfh.c  **** /*=======================================================================*/
 132:..\VFH/vfh.c  **** // Polar Histogram
 133:..\VFH/vfh.c  **** 
 134:..\VFH/vfh.c  **** POD * pod_create(double alpha) {
 735              		.loc 1 134 0
 736              		.cfi_startproc
 737              		@ args = 0, pretend = 0, frame = 16
 738              		@ frame_needed = 1, uses_anonymous_args = 0
 739 0000 90B5     		push	{r4, r7, lr}
 740              		.cfi_def_cfa_offset 12
 741              		.cfi_offset 4, -12
 742              		.cfi_offset 7, -8
 743              		.cfi_offset 14, -4
 744 0002 85B0     		sub	sp, sp, #20
 745              		.cfi_def_cfa_offset 32
 746 0004 00AF     		add	r7, sp, #0
 747              		.cfi_def_cfa_register 7
 748 0006 C7E90001 		strd	r0, [r7]
 135:..\VFH/vfh.c  ****   POD * pod = malloc(sizeof(POD));  // Allocate memory for grid map
 749              		.loc 1 135 0
 750 000a 0820     		movs	r0, #8
 751 000c FFF7FEFF 		bl	malloc
 752 0010 0346     		mov	r3, r0
 753 0012 BB60     		str	r3, [r7, #8]
 136:..\VFH/vfh.c  **** 
 137:..\VFH/vfh.c  ****   // Return NULL if not enough memory
 138:..\VFH/vfh.c  ****   if (pod == NULL) {
 754              		.loc 1 138 0
 755 0014 BB68     		ldr	r3, [r7, #8]
 756 0016 002B     		cmp	r3, #0
 757 0018 04D1     		bne	.L45
 139:..\VFH/vfh.c  ****     free(pod);
 758              		.loc 1 139 0
 759 001a B868     		ldr	r0, [r7, #8]
 760 001c FFF7FEFF 		bl	free
 140:..\VFH/vfh.c  ****     return NULL;
ARM GAS  C:\Users\cyu13\AppData\Local\Temp\ccOJn0nn.s 			page 17


 761              		.loc 1 140 0
 762 0020 0023     		movs	r3, #0
 763 0022 52E0     		b	.L46
 764              	.L45:
 141:..\VFH/vfh.c  ****   }
 142:..\VFH/vfh.c  **** 
 143:..\VFH/vfh.c  ****   // Define variables
 144:..\VFH/vfh.c  ****   pod->nsectors = 360 / alpha;
 765              		.loc 1 144 0
 766 0024 D7E90023 		ldrd	r2, [r7]
 767 0028 4FF00000 		mov	r0, #0
 768 002c 2949     		ldr	r1, .L50
 769 002e FFF7FEFF 		bl	__aeabi_ddiv
 770 0032 0346     		mov	r3, r0
 771 0034 0C46     		mov	r4, r1
 772 0036 1846     		mov	r0, r3
 773 0038 2146     		mov	r1, r4
 774 003a FFF7FEFF 		bl	__aeabi_d2iz
 775 003e 0246     		mov	r2, r0
 776 0040 BB68     		ldr	r3, [r7, #8]
 777 0042 1A60     		str	r2, [r3]
 145:..\VFH/vfh.c  ****   pod->density = malloc((360 / alpha) * sizeof(double));
 778              		.loc 1 145 0
 779 0044 D7E90023 		ldrd	r2, [r7]
 780 0048 4FF00000 		mov	r0, #0
 781 004c 2149     		ldr	r1, .L50
 782 004e FFF7FEFF 		bl	__aeabi_ddiv
 783 0052 0346     		mov	r3, r0
 784 0054 0C46     		mov	r4, r1
 785 0056 1846     		mov	r0, r3
 786 0058 2146     		mov	r1, r4
 787 005a 4FF00002 		mov	r2, #0
 788 005e 1E4B     		ldr	r3, .L50+4
 789 0060 FFF7FEFF 		bl	__aeabi_dmul
 790 0064 0346     		mov	r3, r0
 791 0066 0C46     		mov	r4, r1
 792 0068 1846     		mov	r0, r3
 793 006a 2146     		mov	r1, r4
 794 006c FFF7FEFF 		bl	__aeabi_d2uiz
 795 0070 0346     		mov	r3, r0
 796 0072 1846     		mov	r0, r3
 797 0074 FFF7FEFF 		bl	malloc
 798 0078 0346     		mov	r3, r0
 799 007a 1A46     		mov	r2, r3
 800 007c BB68     		ldr	r3, [r7, #8]
 801 007e 5A60     		str	r2, [r3, #4]
 146:..\VFH/vfh.c  **** 
 147:..\VFH/vfh.c  ****   // Return NULL if not enough memory
 148:..\VFH/vfh.c  ****   if (pod->density == NULL) {
 802              		.loc 1 148 0
 803 0080 BB68     		ldr	r3, [r7, #8]
 804 0082 5B68     		ldr	r3, [r3, #4]
 805 0084 002B     		cmp	r3, #0
 806 0086 09D1     		bne	.L47
 149:..\VFH/vfh.c  ****     free(pod);
 807              		.loc 1 149 0
 808 0088 B868     		ldr	r0, [r7, #8]
ARM GAS  C:\Users\cyu13\AppData\Local\Temp\ccOJn0nn.s 			page 18


 809 008a FFF7FEFF 		bl	free
 150:..\VFH/vfh.c  ****     free(pod->density);
 810              		.loc 1 150 0
 811 008e BB68     		ldr	r3, [r7, #8]
 812 0090 5B68     		ldr	r3, [r3, #4]
 813 0092 1846     		mov	r0, r3
 814 0094 FFF7FEFF 		bl	free
 151:..\VFH/vfh.c  ****     return NULL;
 815              		.loc 1 151 0
 816 0098 0023     		movs	r3, #0
 817 009a 16E0     		b	.L46
 818              	.L47:
 819              	.LBB10:
 152:..\VFH/vfh.c  ****   }
 153:..\VFH/vfh.c  **** 
 154:..\VFH/vfh.c  ****   // Define all initial grid values to be 0 as there are no obstacles
 155:..\VFH/vfh.c  ****   for (int i = 0; i < pod->nsectors; ++i) {
 820              		.loc 1 155 0
 821 009c 0023     		movs	r3, #0
 822 009e FB60     		str	r3, [r7, #12]
 823 00a0 0DE0     		b	.L48
 824              	.L49:
 156:..\VFH/vfh.c  ****     pod->density[i] = 0;    // Map grid is defined as a 1D array
 825              		.loc 1 156 0 discriminator 3
 826 00a2 BB68     		ldr	r3, [r7, #8]
 827 00a4 5A68     		ldr	r2, [r3, #4]
 828 00a6 FB68     		ldr	r3, [r7, #12]
 829 00a8 DB00     		lsls	r3, r3, #3
 830 00aa 1A44     		add	r2, r2, r3
 831 00ac 4FF00003 		mov	r3, #0
 832 00b0 4FF00004 		mov	r4, #0
 833 00b4 C2E90034 		strd	r3, [r2]
 155:..\VFH/vfh.c  ****     pod->density[i] = 0;    // Map grid is defined as a 1D array
 834              		.loc 1 155 0 discriminator 3
 835 00b8 FB68     		ldr	r3, [r7, #12]
 836 00ba 0133     		adds	r3, r3, #1
 837 00bc FB60     		str	r3, [r7, #12]
 838              	.L48:
 155:..\VFH/vfh.c  ****     pod->density[i] = 0;    // Map grid is defined as a 1D array
 839              		.loc 1 155 0 is_stmt 0 discriminator 1
 840 00be BB68     		ldr	r3, [r7, #8]
 841 00c0 1A68     		ldr	r2, [r3]
 842 00c2 FB68     		ldr	r3, [r7, #12]
 843 00c4 9A42     		cmp	r2, r3
 844 00c6 ECDC     		bgt	.L49
 845              	.LBE10:
 157:..\VFH/vfh.c  ****   }
 158:..\VFH/vfh.c  **** 
 159:..\VFH/vfh.c  ****   return pod;
 846              		.loc 1 159 0 is_stmt 1
 847 00c8 BB68     		ldr	r3, [r7, #8]
 848              	.L46:
 160:..\VFH/vfh.c  **** }
 849              		.loc 1 160 0
 850 00ca 1846     		mov	r0, r3
 851 00cc 1437     		adds	r7, r7, #20
 852              		.cfi_def_cfa_offset 12
ARM GAS  C:\Users\cyu13\AppData\Local\Temp\ccOJn0nn.s 			page 19


 853 00ce BD46     		mov	sp, r7
 854              		.cfi_def_cfa_register 13
 855              		@ sp needed
 856 00d0 90BD     		pop	{r4, r7, pc}
 857              	.L51:
 858 00d2 00BF     		.align	2
 859              	.L50:
 860 00d4 00807640 		.word	1081507840
 861 00d8 00002040 		.word	1075838976
 862              		.cfi_endproc
 863              	.LFE3:
 864              		.size	pod_create, .-pod_create
 865              		.global	__aeabi_ui2d
 866              		.section	.text.smoothed_POD_histogram,"ax",%progbits
 867              		.align	2
 868              		.global	smoothed_POD_histogram
 869              		.thumb
 870              		.thumb_func
 871              		.type	smoothed_POD_histogram, %function
 872              	smoothed_POD_histogram:
 873              	.LFB4:
 161:..\VFH/vfh.c  **** void smoothed_POD_histogram(POD * smoothed_POD, grid *active, double alpha, double l, double a, dou
 874              		.loc 1 161 0
 875              		.cfi_startproc
 876              		@ args = 24, pretend = 0, frame = 664
 877              		@ frame_needed = 1, uses_anonymous_args = 0
 878 0000 B0B5     		push	{r4, r5, r7, lr}
 879              		.cfi_def_cfa_offset 16
 880              		.cfi_offset 4, -16
 881              		.cfi_offset 5, -12
 882              		.cfi_offset 7, -8
 883              		.cfi_offset 14, -4
 884 0002 ADF5267D 		sub	sp, sp, #664
 885              		.cfi_def_cfa_offset 680
 886 0006 00AF     		add	r7, sp, #0
 887              		.cfi_def_cfa_register 7
 888 0008 07F10C04 		add	r4, r7, #12
 889 000c 2060     		str	r0, [r4]
 890 000e 07F10800 		add	r0, r7, #8
 891 0012 0160     		str	r1, [r0]
 892 0014 3946     		mov	r1, r7
 893 0016 C1E90023 		strd	r2, [r1]
 162:..\VFH/vfh.c  ****   int sectors = smoothed_POD->nsectors;
 894              		.loc 1 162 0
 895 001a 07F10C03 		add	r3, r7, #12
 896 001e 1B68     		ldr	r3, [r3]
 897 0020 1B68     		ldr	r3, [r3]
 898 0022 C7F86832 		str	r3, [r7, #616]
 163:..\VFH/vfh.c  ****   int width = active->width;
 899              		.loc 1 163 0
 900 0026 07F10803 		add	r3, r7, #8
 901 002a 1B68     		ldr	r3, [r3]
 902 002c 1B68     		ldr	r3, [r3]
 903 002e C7F86432 		str	r3, [r7, #612]
 164:..\VFH/vfh.c  ****   int height = active->height;
 904              		.loc 1 164 0
 905 0032 07F10803 		add	r3, r7, #8
ARM GAS  C:\Users\cyu13\AppData\Local\Temp\ccOJn0nn.s 			page 20


 906 0036 1B68     		ldr	r3, [r3]
 907 0038 5B68     		ldr	r3, [r3, #4]
 908 003a C7F86032 		str	r3, [r7, #608]
 909              	.LBB11:
 165:..\VFH/vfh.c  ****   double POD_hist[72];
 166:..\VFH/vfh.c  **** 
 167:..\VFH/vfh.c  ****   // Create POD histogram
 168:..\VFH/vfh.c  ****   for (int i=0; i< 72; i++) {
 910              		.loc 1 168 0
 911 003e 0023     		movs	r3, #0
 912 0040 C7F89432 		str	r3, [r7, #660]
 913 0044 10E0     		b	.L53
 914              	.L54:
 169:..\VFH/vfh.c  ****     POD_hist[i] = 0;
 915              		.loc 1 169 0 discriminator 3
 916 0046 07F11002 		add	r2, r7, #16
 917 004a D7F89432 		ldr	r3, [r7, #660]
 918 004e DB00     		lsls	r3, r3, #3
 919 0050 1A44     		add	r2, r2, r3
 920 0052 4FF00003 		mov	r3, #0
 921 0056 4FF00004 		mov	r4, #0
 922 005a C2E90034 		strd	r3, [r2]
 168:..\VFH/vfh.c  ****     POD_hist[i] = 0;
 923              		.loc 1 168 0 discriminator 3
 924 005e D7F89432 		ldr	r3, [r7, #660]
 925 0062 0133     		adds	r3, r3, #1
 926 0064 C7F89432 		str	r3, [r7, #660]
 927              	.L53:
 168:..\VFH/vfh.c  ****     POD_hist[i] = 0;
 928              		.loc 1 168 0 is_stmt 0 discriminator 1
 929 0068 D7F89432 		ldr	r3, [r7, #660]
 930 006c 472B     		cmp	r3, #71
 931 006e EADD     		ble	.L54
 932              	.LBE11:
 933              	.LBB12:
 170:..\VFH/vfh.c  **** }
 171:..\VFH/vfh.c  **** 
 172:..\VFH/vfh.c  ****   for (int i=0; i < width; i++) {
 934              		.loc 1 172 0 is_stmt 1
 935 0070 0023     		movs	r3, #0
 936 0072 C7F89032 		str	r3, [r7, #656]
 937 0076 13E1     		b	.L55
 938              	.L60:
 939              	.LBB13:
 173:..\VFH/vfh.c  ****     for (int j=0; j < height; j++) {
 940              		.loc 1 173 0
 941 0078 0023     		movs	r3, #0
 942 007a C7F88C32 		str	r3, [r7, #652]
 943 007e 03E1     		b	.L56
 944              	.L59:
 945              	.LBB14:
 174:..\VFH/vfh.c  ****         /* Calculate the angular position (beta) of this cell. */
 175:..\VFH/vfh.c  ****         double beta = 180 * atan2((double)(j - height/2), (double)(i - width/2))/M_PI;
 946              		.loc 1 175 0
 947 0080 D7F86032 		ldr	r3, [r7, #608]
 948 0084 DA0F     		lsrs	r2, r3, #31
 949 0086 1344     		add	r3, r3, r2
ARM GAS  C:\Users\cyu13\AppData\Local\Temp\ccOJn0nn.s 			page 21


 950 0088 5B10     		asrs	r3, r3, #1
 951 008a 1A46     		mov	r2, r3
 952 008c D7F88C32 		ldr	r3, [r7, #652]
 953 0090 9B1A     		subs	r3, r3, r2
 954 0092 1846     		mov	r0, r3
 955 0094 FFF7FEFF 		bl	__aeabi_i2d
 956 0098 0446     		mov	r4, r0
 957 009a 0D46     		mov	r5, r1
 958 009c D7F86432 		ldr	r3, [r7, #612]
 959 00a0 DA0F     		lsrs	r2, r3, #31
 960 00a2 1344     		add	r3, r3, r2
 961 00a4 5B10     		asrs	r3, r3, #1
 962 00a6 1A46     		mov	r2, r3
 963 00a8 D7F89032 		ldr	r3, [r7, #656]
 964 00ac 9B1A     		subs	r3, r3, r2
 965 00ae 1846     		mov	r0, r3
 966 00b0 FFF7FEFF 		bl	__aeabi_i2d
 967 00b4 0246     		mov	r2, r0
 968 00b6 0B46     		mov	r3, r1
 969 00b8 2046     		mov	r0, r4
 970 00ba 2946     		mov	r1, r5
 971 00bc FFF7FEFF 		bl	atan2
 972 00c0 4FF00002 		mov	r2, #0
 973 00c4 B64B     		ldr	r3, .L68+8
 974 00c6 FFF7FEFF 		bl	__aeabi_dmul
 975 00ca 0346     		mov	r3, r0
 976 00cc 0C46     		mov	r4, r1
 977 00ce 1846     		mov	r0, r3
 978 00d0 2146     		mov	r1, r4
 979 00d2 B1A3     		adr	r3, .L68
 980 00d4 D3E90023 		ldrd	r2, [r3]
 981 00d8 FFF7FEFF 		bl	__aeabi_ddiv
 982 00dc 0346     		mov	r3, r0
 983 00de 0C46     		mov	r4, r1
 984 00e0 07F52072 		add	r2, r7, #640
 985 00e4 C2E90034 		strd	r3, [r2]
 176:..\VFH/vfh.c  ****         if( beta < 0 ) {
 986              		.loc 1 176 0
 987 00e8 4FF00002 		mov	r2, #0
 988 00ec 4FF00003 		mov	r3, #0
 989 00f0 07F52071 		add	r1, r7, #640
 990 00f4 D1E90001 		ldrd	r0, [r1]
 991 00f8 FFF7FEFF 		bl	__aeabi_dcmplt
 992 00fc 0346     		mov	r3, r0
 993 00fe 002B     		cmp	r3, #0
 994 0100 0ED0     		beq	.L57
 177:..\VFH/vfh.c  ****             beta += 360;
 995              		.loc 1 177 0
 996 0102 4FF00002 		mov	r2, #0
 997 0106 A74B     		ldr	r3, .L68+12
 998 0108 07F52071 		add	r1, r7, #640
 999 010c D1E90001 		ldrd	r0, [r1]
 1000 0110 FFF7FEFF 		bl	__aeabi_dadd
 1001 0114 0346     		mov	r3, r0
 1002 0116 0C46     		mov	r4, r1
 1003 0118 07F52072 		add	r2, r7, #640
 1004 011c C2E90034 		strd	r3, [r2]
ARM GAS  C:\Users\cyu13\AppData\Local\Temp\ccOJn0nn.s 			page 22


 1005              	.L57:
 178:..\VFH/vfh.c  ****         }
 179:..\VFH/vfh.c  **** 
 180:..\VFH/vfh.c  ****       /* Calculate the obstacle density of this cell. */
 181:..\VFH/vfh.c  ****       double density = pow(active->cells[i * width + j], 2);
 1006              		.loc 1 181 0 discriminator 2
 1007 0120 07F10803 		add	r3, r7, #8
 1008 0124 1B68     		ldr	r3, [r3]
 1009 0126 DA68     		ldr	r2, [r3, #12]
 1010 0128 D7F89032 		ldr	r3, [r7, #656]
 1011 012c D7F86412 		ldr	r1, [r7, #612]
 1012 0130 01FB03F1 		mul	r1, r1, r3
 1013 0134 D7F88C32 		ldr	r3, [r7, #652]
 1014 0138 0B44     		add	r3, r3, r1
 1015 013a 9B00     		lsls	r3, r3, #2
 1016 013c 1344     		add	r3, r3, r2
 1017 013e 1B68     		ldr	r3, [r3]
 1018 0140 1846     		mov	r0, r3
 1019 0142 FFF7FEFF 		bl	__aeabi_ui2d
 1020 0146 4FF00002 		mov	r2, #0
 1021 014a 4FF08043 		mov	r3, #1073741824
 1022 014e FFF7FEFF 		bl	pow
 1023 0152 07F51673 		add	r3, r7, #600
 1024 0156 C3E90001 		strd	r0, [r3]
 182:..\VFH/vfh.c  ****       density *= a - b * sqrt(pow(i - width/2, 2) + pow(j - height/2, 2));
 1025              		.loc 1 182 0 discriminator 2
 1026 015a D7F86432 		ldr	r3, [r7, #612]
 1027 015e DA0F     		lsrs	r2, r3, #31
 1028 0160 1344     		add	r3, r3, r2
 1029 0162 5B10     		asrs	r3, r3, #1
 1030 0164 1A46     		mov	r2, r3
 1031 0166 D7F89032 		ldr	r3, [r7, #656]
 1032 016a 9B1A     		subs	r3, r3, r2
 1033 016c 1846     		mov	r0, r3
 1034 016e FFF7FEFF 		bl	__aeabi_i2d
 1035 0172 4FF00002 		mov	r2, #0
 1036 0176 4FF08043 		mov	r3, #1073741824
 1037 017a FFF7FEFF 		bl	pow
 1038 017e 0446     		mov	r4, r0
 1039 0180 0D46     		mov	r5, r1
 1040 0182 D7F86032 		ldr	r3, [r7, #608]
 1041 0186 DA0F     		lsrs	r2, r3, #31
 1042 0188 1344     		add	r3, r3, r2
 1043 018a 5B10     		asrs	r3, r3, #1
 1044 018c 1A46     		mov	r2, r3
 1045 018e D7F88C32 		ldr	r3, [r7, #652]
 1046 0192 9B1A     		subs	r3, r3, r2
 1047 0194 1846     		mov	r0, r3
 1048 0196 FFF7FEFF 		bl	__aeabi_i2d
 1049 019a 4FF00002 		mov	r2, #0
 1050 019e 4FF08043 		mov	r3, #1073741824
 1051 01a2 FFF7FEFF 		bl	pow
 1052 01a6 0246     		mov	r2, r0
 1053 01a8 0B46     		mov	r3, r1
 1054 01aa 2046     		mov	r0, r4
 1055 01ac 2946     		mov	r1, r5
 1056 01ae FFF7FEFF 		bl	__aeabi_dadd
ARM GAS  C:\Users\cyu13\AppData\Local\Temp\ccOJn0nn.s 			page 23


 1057 01b2 0346     		mov	r3, r0
 1058 01b4 0C46     		mov	r4, r1
 1059 01b6 1846     		mov	r0, r3
 1060 01b8 2146     		mov	r1, r4
 1061 01ba FFF7FEFF 		bl	sqrt
 1062 01be 07F52E73 		add	r3, r7, #696
 1063 01c2 D3E90023 		ldrd	r2, [r3]
 1064 01c6 FFF7FEFF 		bl	__aeabi_dmul
 1065 01ca 0346     		mov	r3, r0
 1066 01cc 0C46     		mov	r4, r1
 1067 01ce 1A46     		mov	r2, r3
 1068 01d0 2346     		mov	r3, r4
 1069 01d2 07F52C71 		add	r1, r7, #688
 1070 01d6 D1E90001 		ldrd	r0, [r1]
 1071 01da FFF7FEFF 		bl	__aeabi_dsub
 1072 01de 0346     		mov	r3, r0
 1073 01e0 0C46     		mov	r4, r1
 1074 01e2 1A46     		mov	r2, r3
 1075 01e4 2346     		mov	r3, r4
 1076 01e6 07F51671 		add	r1, r7, #600
 1077 01ea D1E90001 		ldrd	r0, [r1]
 1078 01ee FFF7FEFF 		bl	__aeabi_dmul
 1079 01f2 0346     		mov	r3, r0
 1080 01f4 0C46     		mov	r4, r1
 1081 01f6 07F51672 		add	r2, r7, #600
 1082 01fa C2E90034 		strd	r3, [r2]
 183:..\VFH/vfh.c  **** 
 184:..\VFH/vfh.c  ****       /* Add density to respective point in the histogram. */
 185:..\VFH/vfh.c  ****       POD_hist[(int) floor(beta / alpha)] += density;
 1083              		.loc 1 185 0 discriminator 2
 1084 01fe 3B46     		mov	r3, r7
 1085 0200 D3E90023 		ldrd	r2, [r3]
 1086 0204 07F52071 		add	r1, r7, #640
 1087 0208 D1E90001 		ldrd	r0, [r1]
 1088 020c FFF7FEFF 		bl	__aeabi_ddiv
 1089 0210 0346     		mov	r3, r0
 1090 0212 0C46     		mov	r4, r1
 1091 0214 1846     		mov	r0, r3
 1092 0216 2146     		mov	r1, r4
 1093 0218 FFF7FEFF 		bl	floor
 1094 021c 0346     		mov	r3, r0
 1095 021e 0C46     		mov	r4, r1
 1096 0220 1846     		mov	r0, r3
 1097 0222 2146     		mov	r1, r4
 1098 0224 FFF7FEFF 		bl	__aeabi_d2iz
 1099 0228 0546     		mov	r5, r0
 1100 022a 3B46     		mov	r3, r7
 1101 022c D3E90023 		ldrd	r2, [r3]
 1102 0230 07F52071 		add	r1, r7, #640
 1103 0234 D1E90001 		ldrd	r0, [r1]
 1104 0238 FFF7FEFF 		bl	__aeabi_ddiv
 1105 023c 0346     		mov	r3, r0
 1106 023e 0C46     		mov	r4, r1
 1107 0240 1846     		mov	r0, r3
 1108 0242 2146     		mov	r1, r4
 1109 0244 FFF7FEFF 		bl	floor
 1110 0248 0346     		mov	r3, r0
ARM GAS  C:\Users\cyu13\AppData\Local\Temp\ccOJn0nn.s 			page 24


 1111 024a 0C46     		mov	r4, r1
 1112 024c 1846     		mov	r0, r3
 1113 024e 2146     		mov	r1, r4
 1114 0250 FFF7FEFF 		bl	__aeabi_d2iz
 1115 0254 0346     		mov	r3, r0
 1116 0256 07F11002 		add	r2, r7, #16
 1117 025a DB00     		lsls	r3, r3, #3
 1118 025c 1344     		add	r3, r3, r2
 1119 025e D3E90001 		ldrd	r0, [r3]
 1120 0262 07F51673 		add	r3, r7, #600
 1121 0266 D3E90023 		ldrd	r2, [r3]
 1122 026a FFF7FEFF 		bl	__aeabi_dadd
 1123 026e 0346     		mov	r3, r0
 1124 0270 0C46     		mov	r4, r1
 1125 0272 07F11001 		add	r1, r7, #16
 1126 0276 EA00     		lsls	r2, r5, #3
 1127 0278 0A44     		add	r2, r2, r1
 1128 027a C2E90034 		strd	r3, [r2]
 1129              	.LBE14:
 173:..\VFH/vfh.c  ****         /* Calculate the angular position (beta) of this cell. */
 1130              		.loc 1 173 0 discriminator 2
 1131 027e D7F88C32 		ldr	r3, [r7, #652]
 1132 0282 0133     		adds	r3, r3, #1
 1133 0284 C7F88C32 		str	r3, [r7, #652]
 1134              	.L56:
 173:..\VFH/vfh.c  ****         /* Calculate the angular position (beta) of this cell. */
 1135              		.loc 1 173 0 is_stmt 0 discriminator 1
 1136 0288 D7F88C22 		ldr	r2, [r7, #652]
 1137 028c D7F86032 		ldr	r3, [r7, #608]
 1138 0290 9A42     		cmp	r2, r3
 1139 0292 FFF6F5AE 		blt	.L59
 1140              	.LBE13:
 172:..\VFH/vfh.c  ****     for (int j=0; j < height; j++) {
 1141              		.loc 1 172 0 is_stmt 1 discriminator 2
 1142 0296 D7F89032 		ldr	r3, [r7, #656]
 1143 029a 0133     		adds	r3, r3, #1
 1144 029c C7F89032 		str	r3, [r7, #656]
 1145              	.L55:
 172:..\VFH/vfh.c  ****     for (int j=0; j < height; j++) {
 1146              		.loc 1 172 0 is_stmt 0 discriminator 1
 1147 02a0 D7F89022 		ldr	r2, [r7, #656]
 1148 02a4 D7F86432 		ldr	r3, [r7, #612]
 1149 02a8 9A42     		cmp	r2, r3
 1150 02aa FFF6E5AE 		blt	.L60
 1151              	.LBE12:
 1152              	.LBB15:
 186:..\VFH/vfh.c  ****     }
 187:..\VFH/vfh.c  ****     
 188:..\VFH/vfh.c  ****   }
 189:..\VFH/vfh.c  ****   
 190:..\VFH/vfh.c  ****   
 191:..\VFH/vfh.c  **** 
 192:..\VFH/vfh.c  ****   // Smoothing POD histogram
 193:..\VFH/vfh.c  ****   for (int i=0; i < sectors; i++) {
 1153              		.loc 1 193 0 is_stmt 1
 1154 02ae 0023     		movs	r3, #0
 1155 02b0 C7F87C32 		str	r3, [r7, #636]
ARM GAS  C:\Users\cyu13\AppData\Local\Temp\ccOJn0nn.s 			page 25


 1156 02b4 08E1     		b	.L61
 1157              	.L66:
 1158              	.LBB16:
 194:..\VFH/vfh.c  ****     double sum_element = POD_hist[i] * l;
 1159              		.loc 1 194 0
 1160 02b6 07F11002 		add	r2, r7, #16
 1161 02ba D7F87C32 		ldr	r3, [r7, #636]
 1162 02be DB00     		lsls	r3, r3, #3
 1163 02c0 1344     		add	r3, r3, r2
 1164 02c2 D3E90001 		ldrd	r0, [r3]
 1165 02c6 07F52A73 		add	r3, r7, #680
 1166 02ca D3E90023 		ldrd	r2, [r3]
 1167 02ce FFF7FEFF 		bl	__aeabi_dmul
 1168 02d2 0346     		mov	r3, r0
 1169 02d4 0C46     		mov	r4, r1
 1170 02d6 07F51C72 		add	r2, r7, #624
 1171 02da C2E90034 		strd	r3, [r2]
 1172              	.LBB17:
 195:..\VFH/vfh.c  **** 
 196:..\VFH/vfh.c  ****     for (int j=0; j < l; j++) {
 1173              		.loc 1 196 0
 1174 02de 0023     		movs	r3, #0
 1175 02e0 C7F86C32 		str	r3, [r7, #620]
 1176 02e4 AFE0     		b	.L62
 1177              	.L65:
 197:..\VFH/vfh.c  ****         if (i - (j+1) < 0) {
 1178              		.loc 1 197 0
 1179 02e6 D7F86C32 		ldr	r3, [r7, #620]
 1180 02ea 0133     		adds	r3, r3, #1
 1181 02ec D7F87C22 		ldr	r2, [r7, #636]
 1182 02f0 D31A     		subs	r3, r2, r3
 1183 02f2 002B     		cmp	r3, #0
 1184 02f4 58DA     		bge	.L63
 198:..\VFH/vfh.c  ****             sum_element += (POD_hist[i-(j+1)+sectors] + POD_hist[(i+(j+1)) % sectors]) * (l - j);
 1185              		.loc 1 198 0
 1186 02f6 D7F86C32 		ldr	r3, [r7, #620]
 1187 02fa 0133     		adds	r3, r3, #1
 1188 02fc D7F87C22 		ldr	r2, [r7, #636]
 1189 0300 D21A     		subs	r2, r2, r3
 1190 0302 D7F86832 		ldr	r3, [r7, #616]
 1191 0306 1344     		add	r3, r3, r2
 1192 0308 07F11002 		add	r2, r7, #16
 1193 030c DB00     		lsls	r3, r3, #3
 1194 030e 1344     		add	r3, r3, r2
 1195 0310 D3E90001 		ldrd	r0, [r3]
 1196 0314 D7F86C32 		ldr	r3, [r7, #620]
 1197 0318 5A1C     		adds	r2, r3, #1
 1198 031a D7F87C32 		ldr	r3, [r7, #636]
 1199 031e 1344     		add	r3, r3, r2
 1200 0320 D7F86822 		ldr	r2, [r7, #616]
 1201 0324 93FBF2F2 		sdiv	r2, r3, r2
 1202 0328 D7F86842 		ldr	r4, [r7, #616]
 1203 032c 04FB02F2 		mul	r2, r4, r2
 1204 0330 9B1A     		subs	r3, r3, r2
 1205 0332 07F11002 		add	r2, r7, #16
 1206 0336 DB00     		lsls	r3, r3, #3
 1207 0338 1344     		add	r3, r3, r2
ARM GAS  C:\Users\cyu13\AppData\Local\Temp\ccOJn0nn.s 			page 26


 1208 033a 18CB     		ldmia	r3, {r3-r4}
 1209 033c 1A46     		mov	r2, r3
 1210 033e 2346     		mov	r3, r4
 1211 0340 FFF7FEFF 		bl	__aeabi_dadd
 1212 0344 0346     		mov	r3, r0
 1213 0346 0C46     		mov	r4, r1
 1214 0348 2546     		mov	r5, r4
 1215 034a 1C46     		mov	r4, r3
 1216 034c D7F86C02 		ldr	r0, [r7, #620]
 1217 0350 FFF7FEFF 		bl	__aeabi_i2d
 1218 0354 0246     		mov	r2, r0
 1219 0356 0B46     		mov	r3, r1
 1220 0358 07F52A71 		add	r1, r7, #680
 1221 035c D1E90001 		ldrd	r0, [r1]
 1222 0360 FFF7FEFF 		bl	__aeabi_dsub
 1223 0364 0246     		mov	r2, r0
 1224 0366 0B46     		mov	r3, r1
 1225 0368 2046     		mov	r0, r4
 1226 036a 2946     		mov	r1, r5
 1227 036c FFF7FEFF 		bl	__aeabi_dmul
 1228 0370 0346     		mov	r3, r0
 1229 0372 0C46     		mov	r4, r1
 1230 0374 1A46     		mov	r2, r3
 1231 0376 2346     		mov	r3, r4
 1232 0378 07F51C71 		add	r1, r7, #624
 1233 037c D1E90001 		ldrd	r0, [r1]
 1234 0380 FFF7FEFF 		bl	__aeabi_dadd
 1235 0384 0346     		mov	r3, r0
 1236 0386 0C46     		mov	r4, r1
 1237 0388 07F51C72 		add	r2, r7, #624
 1238 038c C2E90034 		strd	r3, [r2]
 1239 0390 54E0     		b	.L64
 1240              	.L69:
 1241 0392 00BFAFF3 		.align	3
 1241      0080
 1242              	.L68:
 1243 0398 182D4454 		.word	1413754136
 1244 039c FB210940 		.word	1074340347
 1245 03a0 00806640 		.word	1080459264
 1246 03a4 00807640 		.word	1081507840
 1247              	.L63:
 199:..\VFH/vfh.c  ****         } else {
 200:..\VFH/vfh.c  ****             sum_element += (POD_hist[i-(j+1)] + POD_hist[(i+(j+1)) % sectors]) * (l - j);
 1248              		.loc 1 200 0
 1249 03a8 D7F86C32 		ldr	r3, [r7, #620]
 1250 03ac 0133     		adds	r3, r3, #1
 1251 03ae D7F87C22 		ldr	r2, [r7, #636]
 1252 03b2 D31A     		subs	r3, r2, r3
 1253 03b4 07F11002 		add	r2, r7, #16
 1254 03b8 DB00     		lsls	r3, r3, #3
 1255 03ba 1344     		add	r3, r3, r2
 1256 03bc D3E90001 		ldrd	r0, [r3]
 1257 03c0 D7F86C32 		ldr	r3, [r7, #620]
 1258 03c4 5A1C     		adds	r2, r3, #1
 1259 03c6 D7F87C32 		ldr	r3, [r7, #636]
 1260 03ca 1344     		add	r3, r3, r2
 1261 03cc D7F86822 		ldr	r2, [r7, #616]
ARM GAS  C:\Users\cyu13\AppData\Local\Temp\ccOJn0nn.s 			page 27


 1262 03d0 93FBF2F2 		sdiv	r2, r3, r2
 1263 03d4 D7F86842 		ldr	r4, [r7, #616]
 1264 03d8 04FB02F2 		mul	r2, r4, r2
 1265 03dc 9B1A     		subs	r3, r3, r2
 1266 03de 07F11002 		add	r2, r7, #16
 1267 03e2 DB00     		lsls	r3, r3, #3
 1268 03e4 1344     		add	r3, r3, r2
 1269 03e6 18CB     		ldmia	r3, {r3-r4}
 1270 03e8 1A46     		mov	r2, r3
 1271 03ea 2346     		mov	r3, r4
 1272 03ec FFF7FEFF 		bl	__aeabi_dadd
 1273 03f0 0346     		mov	r3, r0
 1274 03f2 0C46     		mov	r4, r1
 1275 03f4 2546     		mov	r5, r4
 1276 03f6 1C46     		mov	r4, r3
 1277 03f8 D7F86C02 		ldr	r0, [r7, #620]
 1278 03fc FFF7FEFF 		bl	__aeabi_i2d
 1279 0400 0246     		mov	r2, r0
 1280 0402 0B46     		mov	r3, r1
 1281 0404 07F52A71 		add	r1, r7, #680
 1282 0408 D1E90001 		ldrd	r0, [r1]
 1283 040c FFF7FEFF 		bl	__aeabi_dsub
 1284 0410 0246     		mov	r2, r0
 1285 0412 0B46     		mov	r3, r1
 1286 0414 2046     		mov	r0, r4
 1287 0416 2946     		mov	r1, r5
 1288 0418 FFF7FEFF 		bl	__aeabi_dmul
 1289 041c 0346     		mov	r3, r0
 1290 041e 0C46     		mov	r4, r1
 1291 0420 1A46     		mov	r2, r3
 1292 0422 2346     		mov	r3, r4
 1293 0424 07F51C71 		add	r1, r7, #624
 1294 0428 D1E90001 		ldrd	r0, [r1]
 1295 042c FFF7FEFF 		bl	__aeabi_dadd
 1296 0430 0346     		mov	r3, r0
 1297 0432 0C46     		mov	r4, r1
 1298 0434 07F51C72 		add	r2, r7, #624
 1299 0438 C2E90034 		strd	r3, [r2]
 1300              	.L64:
 196:..\VFH/vfh.c  ****         if (i - (j+1) < 0) {
 1301              		.loc 1 196 0 discriminator 2
 1302 043c D7F86C32 		ldr	r3, [r7, #620]
 1303 0440 0133     		adds	r3, r3, #1
 1304 0442 C7F86C32 		str	r3, [r7, #620]
 1305              	.L62:
 196:..\VFH/vfh.c  ****         if (i - (j+1) < 0) {
 1306              		.loc 1 196 0 is_stmt 0 discriminator 1
 1307 0446 D7F86C02 		ldr	r0, [r7, #620]
 1308 044a FFF7FEFF 		bl	__aeabi_i2d
 1309 044e 07F52A73 		add	r3, r7, #680
 1310 0452 D3E90023 		ldrd	r2, [r3]
 1311 0456 FFF7FEFF 		bl	__aeabi_dcmplt
 1312 045a 0346     		mov	r3, r0
 1313 045c 002B     		cmp	r3, #0
 1314 045e 7FF442AF 		bne	.L65
 1315              	.LBE17:
 201:..\VFH/vfh.c  ****         }
ARM GAS  C:\Users\cyu13\AppData\Local\Temp\ccOJn0nn.s 			page 28


 202:..\VFH/vfh.c  ****     }
 203:..\VFH/vfh.c  **** 
 204:..\VFH/vfh.c  ****     double smoothed_element = sum_element / ((2 * l) + 1);
 1316              		.loc 1 204 0 is_stmt 1 discriminator 2
 1317 0462 07F52A73 		add	r3, r7, #680
 1318 0466 D3E90001 		ldrd	r0, [r3]
 1319 046a 0246     		mov	r2, r0
 1320 046c 0B46     		mov	r3, r1
 1321 046e FFF7FEFF 		bl	__aeabi_dadd
 1322 0472 0346     		mov	r3, r0
 1323 0474 0C46     		mov	r4, r1
 1324 0476 1846     		mov	r0, r3
 1325 0478 2146     		mov	r1, r4
 1326 047a 4FF00002 		mov	r2, #0
 1327 047e 184B     		ldr	r3, .L70
 1328 0480 FFF7FEFF 		bl	__aeabi_dadd
 1329 0484 0346     		mov	r3, r0
 1330 0486 0C46     		mov	r4, r1
 1331 0488 1A46     		mov	r2, r3
 1332 048a 2346     		mov	r3, r4
 1333 048c 07F51C71 		add	r1, r7, #624
 1334 0490 D1E90001 		ldrd	r0, [r1]
 1335 0494 FFF7FEFF 		bl	__aeabi_ddiv
 1336 0498 0346     		mov	r3, r0
 1337 049a 0C46     		mov	r4, r1
 1338 049c 07F51472 		add	r2, r7, #592
 1339 04a0 C2E90034 		strd	r3, [r2]
 205:..\VFH/vfh.c  ****     smoothed_POD->density[i] = smoothed_element;
 1340              		.loc 1 205 0 discriminator 2
 1341 04a4 07F10C03 		add	r3, r7, #12
 1342 04a8 1B68     		ldr	r3, [r3]
 1343 04aa 5A68     		ldr	r2, [r3, #4]
 1344 04ac D7F87C32 		ldr	r3, [r7, #636]
 1345 04b0 DB00     		lsls	r3, r3, #3
 1346 04b2 1A44     		add	r2, r2, r3
 1347 04b4 07F51473 		add	r3, r7, #592
 1348 04b8 18CB     		ldmia	r3, {r3-r4}
 1349 04ba C2E90034 		strd	r3, [r2]
 1350              	.LBE16:
 193:..\VFH/vfh.c  ****     double sum_element = POD_hist[i] * l;
 1351              		.loc 1 193 0 discriminator 2
 1352 04be D7F87C32 		ldr	r3, [r7, #636]
 1353 04c2 0133     		adds	r3, r3, #1
 1354 04c4 C7F87C32 		str	r3, [r7, #636]
 1355              	.L61:
 193:..\VFH/vfh.c  ****     double sum_element = POD_hist[i] * l;
 1356              		.loc 1 193 0 is_stmt 0 discriminator 1
 1357 04c8 D7F87C22 		ldr	r2, [r7, #636]
 1358 04cc D7F86832 		ldr	r3, [r7, #616]
 1359 04d0 9A42     		cmp	r2, r3
 1360 04d2 FFF6F0AE 		blt	.L66
 1361              	.LBE15:
 206:..\VFH/vfh.c  ****   }
 207:..\VFH/vfh.c  **** 
 208:..\VFH/vfh.c  **** }
 1362              		.loc 1 208 0 is_stmt 1
 1363 04d6 00BF     		nop
ARM GAS  C:\Users\cyu13\AppData\Local\Temp\ccOJn0nn.s 			page 29


 1364 04d8 07F52677 		add	r7, r7, #664
 1365              		.cfi_def_cfa_offset 16
 1366 04dc BD46     		mov	sp, r7
 1367              		.cfi_def_cfa_register 13
 1368              		@ sp needed
 1369 04de B0BD     		pop	{r4, r5, r7, pc}
 1370              	.L71:
 1371              		.align	2
 1372              	.L70:
 1373 04e0 0000F03F 		.word	1072693248
 1374              		.cfi_endproc
 1375              	.LFE4:
 1376              		.size	smoothed_POD_histogram, .-smoothed_POD_histogram
 1377              		.global	__aeabi_dcmpeq
 1378              		.section	.text.calculate_avoidance_angle,"ax",%progbits
 1379              		.align	2
 1380              		.global	calculate_avoidance_angle
 1381              		.thumb
 1382              		.thumb_func
 1383              		.type	calculate_avoidance_angle, %function
 1384              	calculate_avoidance_angle:
 1385              	.LFB5:
 209:..\VFH/vfh.c  **** 
 210:..\VFH/vfh.c  **** 
 211:..\VFH/vfh.c  **** /*=======================================================================*/
 212:..\VFH/vfh.c  **** 
 213:..\VFH/vfh.c  **** 
 214:..\VFH/vfh.c  **** double calculate_avoidance_angle(POD *smoothed_POD, Robot * robot, int * candidate_lst, double alph
 1386              		.loc 1 214 0
 1387              		.cfi_startproc
 1388              		@ args = 12, pretend = 0, frame = 144
 1389              		@ frame_needed = 1, uses_anonymous_args = 0
 1390 0000 B0B5     		push	{r4, r5, r7, lr}
 1391              		.cfi_def_cfa_offset 16
 1392              		.cfi_offset 4, -16
 1393              		.cfi_offset 5, -12
 1394              		.cfi_offset 7, -8
 1395              		.cfi_offset 14, -4
 1396 0002 AAB0     		sub	sp, sp, #168
 1397              		.cfi_def_cfa_offset 184
 1398 0004 06AF     		add	r7, sp, #24
 1399              		.cfi_def_cfa 7, 160
 1400 0006 F860     		str	r0, [r7, #12]
 1401 0008 B960     		str	r1, [r7, #8]
 1402 000a 7A60     		str	r2, [r7, #4]
 215:..\VFH/vfh.c  ****   /* Retrieves the angle that the robot must drive towards. */
 216:..\VFH/vfh.c  ****   int candidates_len = 72;
 1403              		.loc 1 216 0
 1404 000c 4823     		movs	r3, #72
 1405 000e FB65     		str	r3, [r7, #92]
 217:..\VFH/vfh.c  ****   int nsectors = smoothed_POD->nsectors;
 1406              		.loc 1 217 0
 1407 0010 FB68     		ldr	r3, [r7, #12]
 1408 0012 1B68     		ldr	r3, [r3]
 1409 0014 BB65     		str	r3, [r7, #88]
 218:..\VFH/vfh.c  **** 
 219:..\VFH/vfh.c  ****   // Retrive useful variables
ARM GAS  C:\Users\cyu13\AppData\Local\Temp\ccOJn0nn.s 			page 30


 220:..\VFH/vfh.c  ****   double pos_x = robot->x;
 1410              		.loc 1 220 0
 1411 0016 BB68     		ldr	r3, [r7, #8]
 1412 0018 03F11004 		add	r4, r3, #16
 1413 001c D4E90034 		ldrd	r3, [r4]
 1414 0020 C7E91434 		strd	r3, [r7, #80]
 221:..\VFH/vfh.c  ****   double pos_y = robot->y;
 1415              		.loc 1 221 0
 1416 0024 BB68     		ldr	r3, [r7, #8]
 1417 0026 03F11804 		add	r4, r3, #24
 1418 002a D4E90034 		ldrd	r3, [r4]
 1419 002e C7E91234 		strd	r3, [r7, #72]
 222:..\VFH/vfh.c  ****   double pos_yaw = robot->theta;
 1420              		.loc 1 222 0
 1421 0032 BB68     		ldr	r3, [r7, #8]
 1422 0034 03F10804 		add	r4, r3, #8
 1423 0038 D4E90034 		ldrd	r3, [r4]
 1424 003c C7E91034 		strd	r3, [r7, #64]
 223:..\VFH/vfh.c  ****   double goal_x = robot->goal_x;
 1425              		.loc 1 223 0
 1426 0040 BB68     		ldr	r3, [r7, #8]
 1427 0042 03F15804 		add	r4, r3, #88
 1428 0046 D4E90034 		ldrd	r3, [r4]
 1429 004a C7E90E34 		strd	r3, [r7, #56]
 224:..\VFH/vfh.c  ****   double goal_y = robot->goal_y;
 1430              		.loc 1 224 0
 1431 004e BB68     		ldr	r3, [r7, #8]
 1432 0050 03F16004 		add	r4, r3, #96
 1433 0054 D4E90034 		ldrd	r3, [r4]
 1434 0058 C7E90C34 		strd	r3, [r7, #48]
 225:..\VFH/vfh.c  **** 
 226:..\VFH/vfh.c  ****   double goal_angle = calculate_goal_angle(pos_x, pos_y, pos_yaw, goal_x, goal_y);
 1435              		.loc 1 226 0
 1436 005c D7E90C34 		ldrd	r3, [r7, #48]
 1437 0060 CDE90434 		strd	r3, [sp, #16]
 1438 0064 D7E90E34 		ldrd	r3, [r7, #56]
 1439 0068 CDE90234 		strd	r3, [sp, #8]
 1440 006c D7E91034 		ldrd	r3, [r7, #64]
 1441 0070 CDE90034 		strd	r3, [sp]
 1442 0074 D7E91223 		ldrd	r2, [r7, #72]
 1443 0078 D7E91401 		ldrd	r0, [r7, #80]
 1444 007c FFF7FEFF 		bl	calculate_goal_angle
 1445 0080 C7E90A01 		strd	r0, [r7, #40]
 227:..\VFH/vfh.c  ****   int goal_sector = round((180 * calculate_angle_modulo(goal_angle) / M_PI) / alpha);
 1446              		.loc 1 227 0
 1447 0084 D7E90A01 		ldrd	r0, [r7, #40]
 1448 0088 FFF7FEFF 		bl	calculate_angle_modulo
 1449 008c 4FF00002 		mov	r2, #0
 1450 0090 C74B     		ldr	r3, .L99+16
 1451 0092 FFF7FEFF 		bl	__aeabi_dmul
 1452 0096 0346     		mov	r3, r0
 1453 0098 0C46     		mov	r4, r1
 1454 009a 1846     		mov	r0, r3
 1455 009c 2146     		mov	r1, r4
 1456 009e C0A3     		adr	r3, .L99
 1457 00a0 D3E90023 		ldrd	r2, [r3]
 1458 00a4 FFF7FEFF 		bl	__aeabi_ddiv
ARM GAS  C:\Users\cyu13\AppData\Local\Temp\ccOJn0nn.s 			page 31


 1459 00a8 0346     		mov	r3, r0
 1460 00aa 0C46     		mov	r4, r1
 1461 00ac 1846     		mov	r0, r3
 1462 00ae 2146     		mov	r1, r4
 1463 00b0 D7E92823 		ldrd	r2, [r7, #160]
 1464 00b4 FFF7FEFF 		bl	__aeabi_ddiv
 1465 00b8 0346     		mov	r3, r0
 1466 00ba 0C46     		mov	r4, r1
 1467 00bc 1846     		mov	r0, r3
 1468 00be 2146     		mov	r1, r4
 1469 00c0 FFF7FEFF 		bl	round
 1470 00c4 0346     		mov	r3, r0
 1471 00c6 0C46     		mov	r4, r1
 1472 00c8 1846     		mov	r0, r3
 1473 00ca 2146     		mov	r1, r4
 1474 00cc FFF7FEFF 		bl	__aeabi_d2iz
 1475 00d0 0346     		mov	r3, r0
 1476 00d2 7B62     		str	r3, [r7, #36]
 228:..\VFH/vfh.c  ****   int abs_min = 1000;
 1477              		.loc 1 228 0
 1478 00d4 4FF47A73 		mov	r3, #1000
 1479 00d8 C7F88C30 		str	r3, [r7, #140]
 229:..\VFH/vfh.c  ****   int k_n, k_f;
 230:..\VFH/vfh.c  ****   int valley_flag = 0;
 1480              		.loc 1 230 0
 1481 00dc 0023     		movs	r3, #0
 1482 00de C7F88030 		str	r3, [r7, #128]
 231:..\VFH/vfh.c  ****   int abs_sec = 0;      // Sector where the absolute minimum distance is
 1483              		.loc 1 231 0
 1484 00e2 0023     		movs	r3, #0
 1485 00e4 FB67     		str	r3, [r7, #124]
 232:..\VFH/vfh.c  ****   int min_val = 1000;
 1486              		.loc 1 232 0
 1487 00e6 4FF47A73 		mov	r3, #1000
 1488 00ea BB67     		str	r3, [r7, #120]
 233:..\VFH/vfh.c  ****   double best_angle = 1000;  // Degrees
 1489              		.loc 1 233 0
 1490 00ec 4FF00003 		mov	r3, #0
 1491 00f0 B04C     		ldr	r4, .L99+20
 1492 00f2 C7E91C34 		strd	r3, [r7, #112]
 1493              	.LBB18:
 234:..\VFH/vfh.c  **** 
 235:..\VFH/vfh.c  ****   // Find angle, note we are working in degrees here
 236:..\VFH/vfh.c  ****   for (int i = 0; i < candidates_len; i++) {
 1494              		.loc 1 236 0
 1495 00f6 0023     		movs	r3, #0
 1496 00f8 FB66     		str	r3, [r7, #108]
 1497 00fa 61E1     		b	.L73
 1498              	.L89:
 1499              	.LBB19:
 237:..\VFH/vfh.c  ****     int idx = candidate_lst[i];
 1500              		.loc 1 237 0
 1501 00fc FB6E     		ldr	r3, [r7, #108]
 1502 00fe 9B00     		lsls	r3, r3, #2
 1503 0100 7A68     		ldr	r2, [r7, #4]
 1504 0102 1344     		add	r3, r3, r2
 1505 0104 1B68     		ldr	r3, [r3]
ARM GAS  C:\Users\cyu13\AppData\Local\Temp\ccOJn0nn.s 			page 32


 1506 0106 3B62     		str	r3, [r7, #32]
 238:..\VFH/vfh.c  ****   
 239:..\VFH/vfh.c  ****     // Calculating the minimum distance between the goal sector and the candidate valley
 240:..\VFH/vfh.c  ****     int min_distance;
 241:..\VFH/vfh.c  ****     //int knf_flag;       // Check if min distance is from the nearest or farthest edge
 242:..\VFH/vfh.c  ****     double angle;       // Degrees
 243:..\VFH/vfh.c  ****     
 244:..\VFH/vfh.c  ****     switch(idx) {
 1507              		.loc 1 244 0
 1508 0108 3B6A     		ldr	r3, [r7, #32]
 1509 010a 002B     		cmp	r3, #0
 1510 010c 02D0     		beq	.L75
 1511 010e 012B     		cmp	r3, #1
 1512 0110 4FD0     		beq	.L76
 1513 0112 3EE1     		b	.L96
 1514              	.L75:
 245:..\VFH/vfh.c  ****         case 0:
 246:..\VFH/vfh.c  ****             // Early exit case if goal sector is clear
 247:..\VFH/vfh.c  ****             if (i == goal_sector) {
 248:..\VFH/vfh.c  ****                 //return goal_sector * alpha;
 249:..\VFH/vfh.c  ****             }
 250:..\VFH/vfh.c  ****             
 251:..\VFH/vfh.c  ****             // Calculate the 'distance' between current sector and the goal sector
 252:..\VFH/vfh.c  ****             if (abs(i - goal_sector) < abs(abs(i - goal_sector) - nsectors)) {
 1515              		.loc 1 252 0
 1516 0114 FA6E     		ldr	r2, [r7, #108]
 1517 0116 7B6A     		ldr	r3, [r7, #36]
 1518 0118 D31A     		subs	r3, r2, r3
 1519 011a 83EAE372 		eor	r2, r3, r3, asr #31
 1520 011e A2EBE372 		sub	r2, r2, r3, asr #31
 1521 0122 F96E     		ldr	r1, [r7, #108]
 1522 0124 7B6A     		ldr	r3, [r7, #36]
 1523 0126 CB1A     		subs	r3, r1, r3
 1524 0128 83EAE371 		eor	r1, r3, r3, asr #31
 1525 012c A1EBE371 		sub	r1, r1, r3, asr #31
 1526 0130 BB6D     		ldr	r3, [r7, #88]
 1527 0132 CB1A     		subs	r3, r1, r3
 1528 0134 002B     		cmp	r3, #0
 1529 0136 B8BF     		it	lt
 1530 0138 5B42     		rsblt	r3, r3, #0
 1531 013a 9A42     		cmp	r2, r3
 1532 013c 07DA     		bge	.L77
 253:..\VFH/vfh.c  ****                 min_distance = abs(i - goal_sector);
 1533              		.loc 1 253 0
 1534 013e FA6E     		ldr	r2, [r7, #108]
 1535 0140 7B6A     		ldr	r3, [r7, #36]
 1536 0142 D31A     		subs	r3, r2, r3
 1537 0144 002B     		cmp	r3, #0
 1538 0146 B8BF     		it	lt
 1539 0148 5B42     		rsblt	r3, r3, #0
 1540 014a BB66     		str	r3, [r7, #104]
 1541 014c 0CE0     		b	.L78
 1542              	.L77:
 254:..\VFH/vfh.c  ****             } else {
 255:..\VFH/vfh.c  ****                 min_distance = abs(abs(i - goal_sector) - nsectors);
 1543              		.loc 1 255 0
 1544 014e FA6E     		ldr	r2, [r7, #108]
ARM GAS  C:\Users\cyu13\AppData\Local\Temp\ccOJn0nn.s 			page 33


 1545 0150 7B6A     		ldr	r3, [r7, #36]
 1546 0152 D31A     		subs	r3, r2, r3
 1547 0154 83EAE372 		eor	r2, r3, r3, asr #31
 1548 0158 A2EBE372 		sub	r2, r2, r3, asr #31
 1549 015c BB6D     		ldr	r3, [r7, #88]
 1550 015e D31A     		subs	r3, r2, r3
 1551 0160 002B     		cmp	r3, #0
 1552 0162 B8BF     		it	lt
 1553 0164 5B42     		rsblt	r3, r3, #0
 1554 0166 BB66     		str	r3, [r7, #104]
 1555              	.L78:
 256:..\VFH/vfh.c  ****             }
 257:..\VFH/vfh.c  ****             
 258:..\VFH/vfh.c  ****                 
 259:..\VFH/vfh.c  ****             // Start entering a valley
 260:..\VFH/vfh.c  ****             if (valley_flag) {
 1556              		.loc 1 260 0
 1557 0168 D7F88030 		ldr	r3, [r7, #128]
 1558 016c 002B     		cmp	r3, #0
 1559 016e 10D0     		beq	.L79
 261:..\VFH/vfh.c  ****                 k_f++;
 1560              		.loc 1 261 0
 1561 0170 D7F88430 		ldr	r3, [r7, #132]
 1562 0174 0133     		adds	r3, r3, #1
 1563 0176 C7F88430 		str	r3, [r7, #132]
 262:..\VFH/vfh.c  ****                 // Check if new sector is closer to the goal 
 263:..\VFH/vfh.c  ****                 if (min_distance < abs_min){
 1564              		.loc 1 263 0
 1565 017a BA6E     		ldr	r2, [r7, #104]
 1566 017c D7F88C30 		ldr	r3, [r7, #140]
 1567 0180 9A42     		cmp	r2, r3
 1568 0182 80F20A81 		bge	.L97
 264:..\VFH/vfh.c  ****                     abs_min = min_distance;
 1569              		.loc 1 264 0
 1570 0186 BB6E     		ldr	r3, [r7, #104]
 1571 0188 C7F88C30 		str	r3, [r7, #140]
 265:..\VFH/vfh.c  ****                     abs_sec = i;
 1572              		.loc 1 265 0
 1573 018c FB6E     		ldr	r3, [r7, #108]
 1574 018e FB67     		str	r3, [r7, #124]
 266:..\VFH/vfh.c  ****                     //knf_flag = k_f;
 267:..\VFH/vfh.c  ****                 }
 268:..\VFH/vfh.c  ****                 
 269:..\VFH/vfh.c  ****             } else { 
 270:..\VFH/vfh.c  ****                 // Always select closest to goal sector
 271:..\VFH/vfh.c  ****                 abs_min = min_distance;
 272:..\VFH/vfh.c  ****                 abs_sec = i;
 273:..\VFH/vfh.c  ****                 k_n = i;
 274:..\VFH/vfh.c  ****                 k_f = k_n;
 275:..\VFH/vfh.c  ****                 
 276:..\VFH/vfh.c  ****                 // Start valley
 277:..\VFH/vfh.c  ****                 valley_flag = 1;
 278:..\VFH/vfh.c  ****                 //knf_flag = 0;
 279:..\VFH/vfh.c  ****             }
 280:..\VFH/vfh.c  ****             break;
 1575              		.loc 1 280 0
 1576 0190 03E1     		b	.L97
ARM GAS  C:\Users\cyu13\AppData\Local\Temp\ccOJn0nn.s 			page 34


 1577              	.L79:
 271:..\VFH/vfh.c  ****                 abs_sec = i;
 1578              		.loc 1 271 0
 1579 0192 BB6E     		ldr	r3, [r7, #104]
 1580 0194 C7F88C30 		str	r3, [r7, #140]
 272:..\VFH/vfh.c  ****                 k_n = i;
 1581              		.loc 1 272 0
 1582 0198 FB6E     		ldr	r3, [r7, #108]
 1583 019a FB67     		str	r3, [r7, #124]
 273:..\VFH/vfh.c  ****                 k_f = k_n;
 1584              		.loc 1 273 0
 1585 019c FB6E     		ldr	r3, [r7, #108]
 1586 019e C7F88830 		str	r3, [r7, #136]
 274:..\VFH/vfh.c  ****                 
 1587              		.loc 1 274 0
 1588 01a2 D7F88830 		ldr	r3, [r7, #136]
 1589 01a6 C7F88430 		str	r3, [r7, #132]
 277:..\VFH/vfh.c  ****                 //knf_flag = 0;
 1590              		.loc 1 277 0
 1591 01aa 0123     		movs	r3, #1
 1592 01ac C7F88030 		str	r3, [r7, #128]
 1593              		.loc 1 280 0
 1594 01b0 F3E0     		b	.L97
 1595              	.L76:
 281:..\VFH/vfh.c  ****         
 282:..\VFH/vfh.c  ****         case 1:
 283:..\VFH/vfh.c  ****             // Exiting a valley
 284:..\VFH/vfh.c  ****             if (valley_flag) {
 1596              		.loc 1 284 0
 1597 01b2 D7F88030 		ldr	r3, [r7, #128]
 1598 01b6 002B     		cmp	r3, #0
 1599 01b8 00F0FE80 		beq	.L98
 285:..\VFH/vfh.c  ****                 // Update Valley flag
 286:..\VFH/vfh.c  ****                 valley_flag = 0;
 1600              		.loc 1 286 0
 1601 01bc 0023     		movs	r3, #0
 1602 01be C7F88030 		str	r3, [r7, #128]
 287:..\VFH/vfh.c  ****                 
 288:..\VFH/vfh.c  ****                 // Check for wide and narrow valleys
 289:..\VFH/vfh.c  ****                 if (abs(k_n - k_f) < s_max) {   // Narrow Valley
 1603              		.loc 1 289 0
 1604 01c2 D7F88820 		ldr	r2, [r7, #136]
 1605 01c6 D7F88430 		ldr	r3, [r7, #132]
 1606 01ca D31A     		subs	r3, r2, r3
 1607 01cc 83EAE372 		eor	r2, r3, r3, asr #31
 1608 01d0 A2EBE372 		sub	r2, r2, r3, asr #31
 1609 01d4 D7F8A830 		ldr	r3, [r7, #168]
 1610 01d8 9A42     		cmp	r2, r3
 1611 01da 1ADA     		bge	.L84
 290:..\VFH/vfh.c  ****                     angle = ((k_n + k_f) / 2 % nsectors) * alpha; // Degrees
 1612              		.loc 1 290 0
 1613 01dc D7F88820 		ldr	r2, [r7, #136]
 1614 01e0 D7F88430 		ldr	r3, [r7, #132]
 1615 01e4 1344     		add	r3, r3, r2
 1616 01e6 DA0F     		lsrs	r2, r3, #31
 1617 01e8 1344     		add	r3, r3, r2
 1618 01ea 5B10     		asrs	r3, r3, #1
ARM GAS  C:\Users\cyu13\AppData\Local\Temp\ccOJn0nn.s 			page 35


 1619 01ec BA6D     		ldr	r2, [r7, #88]
 1620 01ee 93FBF2F2 		sdiv	r2, r3, r2
 1621 01f2 B96D     		ldr	r1, [r7, #88]
 1622 01f4 01FB02F2 		mul	r2, r1, r2
 1623 01f8 9B1A     		subs	r3, r3, r2
 1624 01fa 1846     		mov	r0, r3
 1625 01fc FFF7FEFF 		bl	__aeabi_i2d
 1626 0200 D7E92823 		ldrd	r2, [r7, #160]
 1627 0204 FFF7FEFF 		bl	__aeabi_dmul
 1628 0208 0346     		mov	r3, r0
 1629 020a 0C46     		mov	r4, r1
 1630 020c C7E91834 		strd	r3, [r7, #96]
 1631 0210 56E0     		b	.L85
 1632              	.L84:
 1633              	.LBB20:
 291:..\VFH/vfh.c  ****                         
 292:..\VFH/vfh.c  ****                 } else {                        // Wide Valley
 293:..\VFH/vfh.c  ****                     int first = abs(k_n - goal_sector);
 1634              		.loc 1 293 0
 1635 0212 D7F88820 		ldr	r2, [r7, #136]
 1636 0216 7B6A     		ldr	r3, [r7, #36]
 1637 0218 D31A     		subs	r3, r2, r3
 1638 021a 002B     		cmp	r3, #0
 1639 021c B8BF     		it	lt
 1640 021e 5B42     		rsblt	r3, r3, #0
 1641 0220 FB61     		str	r3, [r7, #28]
 294:..\VFH/vfh.c  ****                     int last = abs(k_f - goal_sector);
 1642              		.loc 1 294 0
 1643 0222 D7F88420 		ldr	r2, [r7, #132]
 1644 0226 7B6A     		ldr	r3, [r7, #36]
 1645 0228 D31A     		subs	r3, r2, r3
 1646 022a 002B     		cmp	r3, #0
 1647 022c B8BF     		it	lt
 1648 022e 5B42     		rsblt	r3, r3, #0
 1649 0230 BB61     		str	r3, [r7, #24]
 295:..\VFH/vfh.c  ****                     if (first <= abs_min) {
 1650              		.loc 1 295 0
 1651 0232 FA69     		ldr	r2, [r7, #28]
 1652 0234 D7F88C30 		ldr	r3, [r7, #140]
 1653 0238 9A42     		cmp	r2, r3
 1654 023a 1EDC     		bgt	.L86
 296:..\VFH/vfh.c  ****                         angle = ((k_n + (s_max / 2)) / 2 % nsectors) * alpha;
 1655              		.loc 1 296 0
 1656 023c D7F8A830 		ldr	r3, [r7, #168]
 1657 0240 DA0F     		lsrs	r2, r3, #31
 1658 0242 1344     		add	r3, r3, r2
 1659 0244 5B10     		asrs	r3, r3, #1
 1660 0246 1A46     		mov	r2, r3
 1661 0248 D7F88830 		ldr	r3, [r7, #136]
 1662 024c 1344     		add	r3, r3, r2
 1663 024e DA0F     		lsrs	r2, r3, #31
 1664 0250 1344     		add	r3, r3, r2
 1665 0252 5B10     		asrs	r3, r3, #1
 1666 0254 BA6D     		ldr	r2, [r7, #88]
 1667 0256 93FBF2F2 		sdiv	r2, r3, r2
 1668 025a B96D     		ldr	r1, [r7, #88]
 1669 025c 01FB02F2 		mul	r2, r1, r2
ARM GAS  C:\Users\cyu13\AppData\Local\Temp\ccOJn0nn.s 			page 36


 1670 0260 9B1A     		subs	r3, r3, r2
 1671 0262 1846     		mov	r0, r3
 1672 0264 FFF7FEFF 		bl	__aeabi_i2d
 1673 0268 D7E92823 		ldrd	r2, [r7, #160]
 1674 026c FFF7FEFF 		bl	__aeabi_dmul
 1675 0270 0346     		mov	r3, r0
 1676 0272 0C46     		mov	r4, r1
 1677 0274 C7E91834 		strd	r3, [r7, #96]
 1678 0278 22E0     		b	.L85
 1679              	.L86:
 297:..\VFH/vfh.c  ****                     } else if (last < abs_min) {
 1680              		.loc 1 297 0
 1681 027a BA69     		ldr	r2, [r7, #24]
 1682 027c D7F88C30 		ldr	r3, [r7, #140]
 1683 0280 9A42     		cmp	r2, r3
 1684 0282 1DDA     		bge	.L85
 298:..\VFH/vfh.c  ****                         angle = ((k_f - (s_max / 2)) / 2 % nsectors) * alpha;
 1685              		.loc 1 298 0
 1686 0284 D7F8A830 		ldr	r3, [r7, #168]
 1687 0288 DA0F     		lsrs	r2, r3, #31
 1688 028a 1344     		add	r3, r3, r2
 1689 028c 5B10     		asrs	r3, r3, #1
 1690 028e 1A46     		mov	r2, r3
 1691 0290 D7F88430 		ldr	r3, [r7, #132]
 1692 0294 9B1A     		subs	r3, r3, r2
 1693 0296 DA0F     		lsrs	r2, r3, #31
 1694 0298 1344     		add	r3, r3, r2
 1695 029a 5B10     		asrs	r3, r3, #1
 1696 029c BA6D     		ldr	r2, [r7, #88]
 1697 029e 93FBF2F2 		sdiv	r2, r3, r2
 1698 02a2 B96D     		ldr	r1, [r7, #88]
 1699 02a4 01FB02F2 		mul	r2, r1, r2
 1700 02a8 9B1A     		subs	r3, r3, r2
 1701 02aa 1846     		mov	r0, r3
 1702 02ac FFF7FEFF 		bl	__aeabi_i2d
 1703 02b0 D7E92823 		ldrd	r2, [r7, #160]
 1704 02b4 FFF7FEFF 		bl	__aeabi_dmul
 1705 02b8 0346     		mov	r3, r0
 1706 02ba 0C46     		mov	r4, r1
 1707 02bc C7E91834 		strd	r3, [r7, #96]
 1708              	.L85:
 1709              	.LBE20:
 299:..\VFH/vfh.c  ****                     }
 300:..\VFH/vfh.c  **** 
 301:..\VFH/vfh.c  ****                 }
 302:..\VFH/vfh.c  ****                     
 303:..\VFH/vfh.c  ****                 // Check if this angle is closer to goal sector than current best
 304:..\VFH/vfh.c  ****                 if (abs(round((180 * calculate_angle_modulo(goal_angle) / M_PI) - goal_sector) < mi
 1710              		.loc 1 304 0
 1711 02c0 D7E90A01 		ldrd	r0, [r7, #40]
 1712 02c4 FFF7FEFF 		bl	calculate_angle_modulo
 1713 02c8 4FF00002 		mov	r2, #0
 1714 02cc 384B     		ldr	r3, .L99+16
 1715 02ce FFF7FEFF 		bl	__aeabi_dmul
 1716 02d2 0346     		mov	r3, r0
 1717 02d4 0C46     		mov	r4, r1
 1718 02d6 1846     		mov	r0, r3
ARM GAS  C:\Users\cyu13\AppData\Local\Temp\ccOJn0nn.s 			page 37


 1719 02d8 2146     		mov	r1, r4
 1720 02da 31A3     		adr	r3, .L99
 1721 02dc D3E90023 		ldrd	r2, [r3]
 1722 02e0 FFF7FEFF 		bl	__aeabi_ddiv
 1723 02e4 0346     		mov	r3, r0
 1724 02e6 0C46     		mov	r4, r1
 1725 02e8 2546     		mov	r5, r4
 1726 02ea 1C46     		mov	r4, r3
 1727 02ec 786A     		ldr	r0, [r7, #36]
 1728 02ee FFF7FEFF 		bl	__aeabi_i2d
 1729 02f2 0246     		mov	r2, r0
 1730 02f4 0B46     		mov	r3, r1
 1731 02f6 2046     		mov	r0, r4
 1732 02f8 2946     		mov	r1, r5
 1733 02fa FFF7FEFF 		bl	__aeabi_dsub
 1734 02fe 0346     		mov	r3, r0
 1735 0300 0C46     		mov	r4, r1
 1736 0302 1846     		mov	r0, r3
 1737 0304 2146     		mov	r1, r4
 1738 0306 FFF7FEFF 		bl	round
 1739 030a 0446     		mov	r4, r0
 1740 030c 0D46     		mov	r5, r1
 1741 030e B86F     		ldr	r0, [r7, #120]
 1742 0310 FFF7FEFF 		bl	__aeabi_i2d
 1743 0314 0246     		mov	r2, r0
 1744 0316 0B46     		mov	r3, r1
 1745 0318 2046     		mov	r0, r4
 1746 031a 2946     		mov	r1, r5
 1747 031c FFF7FEFF 		bl	__aeabi_dcmplt
 1748 0320 0346     		mov	r3, r0
 1749 0322 002B     		cmp	r3, #0
 1750 0324 00D1     		bne	.L94
 305:..\VFH/vfh.c  ****                     best_angle = angle;
 306:..\VFH/vfh.c  ****                     min_val = abs(round((180 * calculate_angle_modulo(goal_angle) / M_PI) - goal_se
 307:..\VFH/vfh.c  ****                 }
 308:..\VFH/vfh.c  ****             }
 309:..\VFH/vfh.c  ****             break;
 1751              		.loc 1 309 0
 1752 0326 47E0     		b	.L98
 1753              	.L94:
 305:..\VFH/vfh.c  ****                     best_angle = angle;
 1754              		.loc 1 305 0
 1755 0328 D7E91834 		ldrd	r3, [r7, #96]
 1756 032c C7E91C34 		strd	r3, [r7, #112]
 306:..\VFH/vfh.c  ****                 }
 1757              		.loc 1 306 0
 1758 0330 D7E90A01 		ldrd	r0, [r7, #40]
 1759 0334 FFF7FEFF 		bl	calculate_angle_modulo
 1760 0338 4FF00002 		mov	r2, #0
 1761 033c 1C4B     		ldr	r3, .L99+16
 1762 033e FFF7FEFF 		bl	__aeabi_dmul
 1763 0342 0346     		mov	r3, r0
 1764 0344 0C46     		mov	r4, r1
 1765 0346 1846     		mov	r0, r3
 1766 0348 2146     		mov	r1, r4
 1767 034a 15A3     		adr	r3, .L99
 1768 034c D3E90023 		ldrd	r2, [r3]
ARM GAS  C:\Users\cyu13\AppData\Local\Temp\ccOJn0nn.s 			page 38


 1769 0350 FFF7FEFF 		bl	__aeabi_ddiv
 1770 0354 0346     		mov	r3, r0
 1771 0356 0C46     		mov	r4, r1
 1772 0358 2546     		mov	r5, r4
 1773 035a 1C46     		mov	r4, r3
 1774 035c 786A     		ldr	r0, [r7, #36]
 1775 035e FFF7FEFF 		bl	__aeabi_i2d
 1776 0362 0246     		mov	r2, r0
 1777 0364 0B46     		mov	r3, r1
 1778 0366 2046     		mov	r0, r4
 1779 0368 2946     		mov	r1, r5
 1780 036a FFF7FEFF 		bl	__aeabi_dsub
 1781 036e 0346     		mov	r3, r0
 1782 0370 0C46     		mov	r4, r1
 1783 0372 1846     		mov	r0, r3
 1784 0374 2146     		mov	r1, r4
 1785 0376 FFF7FEFF 		bl	round
 1786 037a 0346     		mov	r3, r0
 1787 037c 0C46     		mov	r4, r1
 1788 037e 1846     		mov	r0, r3
 1789 0380 2146     		mov	r1, r4
 1790 0382 FFF7FEFF 		bl	__aeabi_d2iz
 1791 0386 0346     		mov	r3, r0
 1792 0388 002B     		cmp	r3, #0
 1793 038a B8BF     		it	lt
 1794 038c 5B42     		rsblt	r3, r3, #0
 1795 038e BB67     		str	r3, [r7, #120]
 1796              		.loc 1 309 0
 1797 0390 12E0     		b	.L98
 1798              	.L96:
 310:..\VFH/vfh.c  ****         
 311:..\VFH/vfh.c  ****         default:
 312:..\VFH/vfh.c  ****             return 9000;
 1799              		.loc 1 312 0
 1800 0392 05A4     		adr	r4, .L99+8
 1801 0394 D4E90034 		ldrd	r3, [r4]
 1802 0398 94E0     		b	.L88
 1803              	.L97:
 280:..\VFH/vfh.c  ****         
 1804              		.loc 1 280 0
 1805 039a 00BF     		nop
 1806 039c 0DE0     		b	.L82
 1807              	.L100:
 1808 039e 00BF     		.align	3
 1809              	.L99:
 1810 03a0 182D4454 		.word	1413754136
 1811 03a4 FB210940 		.word	1074340347
 1812 03a8 00000000 		.word	0
 1813 03ac 0094C140 		.word	1086428160
 1814 03b0 00806640 		.word	1080459264
 1815 03b4 00408F40 		.word	1083129856
 1816              	.L98:
 309:..\VFH/vfh.c  ****         
 1817              		.loc 1 309 0
 1818 03b8 00BF     		nop
 1819              	.L82:
 1820              	.LBE19:
ARM GAS  C:\Users\cyu13\AppData\Local\Temp\ccOJn0nn.s 			page 39


 236:..\VFH/vfh.c  ****     int idx = candidate_lst[i];
 1821              		.loc 1 236 0 discriminator 2
 1822 03ba FB6E     		ldr	r3, [r7, #108]
 1823 03bc 0133     		adds	r3, r3, #1
 1824 03be FB66     		str	r3, [r7, #108]
 1825              	.L73:
 236:..\VFH/vfh.c  ****     int idx = candidate_lst[i];
 1826              		.loc 1 236 0 is_stmt 0 discriminator 1
 1827 03c0 FA6E     		ldr	r2, [r7, #108]
 1828 03c2 FB6D     		ldr	r3, [r7, #92]
 1829 03c4 9A42     		cmp	r2, r3
 1830 03c6 FFF699AE 		blt	.L89
 1831              	.LBE18:
 313:..\VFH/vfh.c  ****     }
 314:..\VFH/vfh.c  ****   }    
 315:..\VFH/vfh.c  ****     if (best_angle == 1000) {
 1832              		.loc 1 315 0 is_stmt 1
 1833 03ca 4FF00002 		mov	r2, #0
 1834 03ce 404B     		ldr	r3, .L101
 1835 03d0 D7E91C01 		ldrd	r0, [r7, #112]
 1836 03d4 FFF7FEFF 		bl	__aeabi_dcmpeq
 1837 03d8 0346     		mov	r3, r0
 1838 03da 002B     		cmp	r3, #0
 1839 03dc 70D0     		beq	.L90
 1840              	.LBB21:
 316:..\VFH/vfh.c  ****         int first = abs((k_n + (s_max / 2)) - goal_sector);
 1841              		.loc 1 316 0
 1842 03de D7F8A830 		ldr	r3, [r7, #168]
 1843 03e2 DA0F     		lsrs	r2, r3, #31
 1844 03e4 1344     		add	r3, r3, r2
 1845 03e6 5B10     		asrs	r3, r3, #1
 1846 03e8 1A46     		mov	r2, r3
 1847 03ea D7F88830 		ldr	r3, [r7, #136]
 1848 03ee 1A44     		add	r2, r2, r3
 1849 03f0 7B6A     		ldr	r3, [r7, #36]
 1850 03f2 D31A     		subs	r3, r2, r3
 1851 03f4 002B     		cmp	r3, #0
 1852 03f6 B8BF     		it	lt
 1853 03f8 5B42     		rsblt	r3, r3, #0
 1854 03fa 7B61     		str	r3, [r7, #20]
 317:..\VFH/vfh.c  ****         int last = abs((k_f - (s_max / 2)) - goal_sector);
 1855              		.loc 1 317 0
 1856 03fc D7F8A830 		ldr	r3, [r7, #168]
 1857 0400 DA0F     		lsrs	r2, r3, #31
 1858 0402 1344     		add	r3, r3, r2
 1859 0404 5B10     		asrs	r3, r3, #1
 1860 0406 1A46     		mov	r2, r3
 1861 0408 D7F88430 		ldr	r3, [r7, #132]
 1862 040c 9A1A     		subs	r2, r3, r2
 1863 040e 7B6A     		ldr	r3, [r7, #36]
 1864 0410 D31A     		subs	r3, r2, r3
 1865 0412 002B     		cmp	r3, #0
 1866 0414 B8BF     		it	lt
 1867 0416 5B42     		rsblt	r3, r3, #0
 1868 0418 3B61     		str	r3, [r7, #16]
 318:..\VFH/vfh.c  ****         if (first < abs_min) {
 1869              		.loc 1 318 0
ARM GAS  C:\Users\cyu13\AppData\Local\Temp\ccOJn0nn.s 			page 40


 1870 041a 7A69     		ldr	r2, [r7, #20]
 1871 041c D7F88C30 		ldr	r3, [r7, #140]
 1872 0420 9A42     		cmp	r2, r3
 1873 0422 1EDA     		bge	.L92
 319:..\VFH/vfh.c  ****             best_angle = ((k_n + (s_max / 2)) / 2 % nsectors) * alpha;
 1874              		.loc 1 319 0
 1875 0424 D7F8A830 		ldr	r3, [r7, #168]
 1876 0428 DA0F     		lsrs	r2, r3, #31
 1877 042a 1344     		add	r3, r3, r2
 1878 042c 5B10     		asrs	r3, r3, #1
 1879 042e 1A46     		mov	r2, r3
 1880 0430 D7F88830 		ldr	r3, [r7, #136]
 1881 0434 1344     		add	r3, r3, r2
 1882 0436 DA0F     		lsrs	r2, r3, #31
 1883 0438 1344     		add	r3, r3, r2
 1884 043a 5B10     		asrs	r3, r3, #1
 1885 043c BA6D     		ldr	r2, [r7, #88]
 1886 043e 93FBF2F2 		sdiv	r2, r3, r2
 1887 0442 B96D     		ldr	r1, [r7, #88]
 1888 0444 01FB02F2 		mul	r2, r1, r2
 1889 0448 9B1A     		subs	r3, r3, r2
 1890 044a 1846     		mov	r0, r3
 1891 044c FFF7FEFF 		bl	__aeabi_i2d
 1892 0450 D7E92823 		ldrd	r2, [r7, #160]
 1893 0454 FFF7FEFF 		bl	__aeabi_dmul
 1894 0458 0346     		mov	r3, r0
 1895 045a 0C46     		mov	r4, r1
 1896 045c C7E91C34 		strd	r3, [r7, #112]
 1897 0460 2EE0     		b	.L90
 1898              	.L92:
 320:..\VFH/vfh.c  ****         } else if (last < abs_min) {
 1899              		.loc 1 320 0
 1900 0462 3A69     		ldr	r2, [r7, #16]
 1901 0464 D7F88C30 		ldr	r3, [r7, #140]
 1902 0468 9A42     		cmp	r2, r3
 1903 046a 1EDA     		bge	.L93
 321:..\VFH/vfh.c  ****             best_angle = ((k_f - (s_max / 2)) / 2 % nsectors) * alpha;
 1904              		.loc 1 321 0
 1905 046c D7F8A830 		ldr	r3, [r7, #168]
 1906 0470 DA0F     		lsrs	r2, r3, #31
 1907 0472 1344     		add	r3, r3, r2
 1908 0474 5B10     		asrs	r3, r3, #1
 1909 0476 1A46     		mov	r2, r3
 1910 0478 D7F88430 		ldr	r3, [r7, #132]
 1911 047c 9B1A     		subs	r3, r3, r2
 1912 047e DA0F     		lsrs	r2, r3, #31
 1913 0480 1344     		add	r3, r3, r2
 1914 0482 5B10     		asrs	r3, r3, #1
 1915 0484 BA6D     		ldr	r2, [r7, #88]
 1916 0486 93FBF2F2 		sdiv	r2, r3, r2
 1917 048a B96D     		ldr	r1, [r7, #88]
 1918 048c 01FB02F2 		mul	r2, r1, r2
 1919 0490 9B1A     		subs	r3, r3, r2
 1920 0492 1846     		mov	r0, r3
 1921 0494 FFF7FEFF 		bl	__aeabi_i2d
 1922 0498 D7E92823 		ldrd	r2, [r7, #160]
 1923 049c FFF7FEFF 		bl	__aeabi_dmul
ARM GAS  C:\Users\cyu13\AppData\Local\Temp\ccOJn0nn.s 			page 41


 1924 04a0 0346     		mov	r3, r0
 1925 04a2 0C46     		mov	r4, r1
 1926 04a4 C7E91C34 		strd	r3, [r7, #112]
 1927 04a8 0AE0     		b	.L90
 1928              	.L93:
 322:..\VFH/vfh.c  ****         }
 323:..\VFH/vfh.c  ****         else {
 324:..\VFH/vfh.c  ****             best_angle = abs_sec * alpha;
 1929              		.loc 1 324 0
 1930 04aa F86F     		ldr	r0, [r7, #124]
 1931 04ac FFF7FEFF 		bl	__aeabi_i2d
 1932 04b0 D7E92823 		ldrd	r2, [r7, #160]
 1933 04b4 FFF7FEFF 		bl	__aeabi_dmul
 1934 04b8 0346     		mov	r3, r0
 1935 04ba 0C46     		mov	r4, r1
 1936 04bc C7E91C34 		strd	r3, [r7, #112]
 1937              	.L90:
 1938              	.LBE21:
 325:..\VFH/vfh.c  ****         }
 326:..\VFH/vfh.c  ****     }
 327:..\VFH/vfh.c  ****     return best_angle;
 1939              		.loc 1 327 0
 1940 04c0 D7E91C34 		ldrd	r3, [r7, #112]
 1941              	.L88:
 328:..\VFH/vfh.c  ****   
 329:..\VFH/vfh.c  **** }
 1942              		.loc 1 329 0
 1943 04c4 1846     		mov	r0, r3
 1944 04c6 2146     		mov	r1, r4
 1945 04c8 9037     		adds	r7, r7, #144
 1946              		.cfi_def_cfa_offset 16
 1947 04ca BD46     		mov	sp, r7
 1948              		.cfi_def_cfa_register 13
 1949              		@ sp needed
 1950 04cc B0BD     		pop	{r4, r5, r7, pc}
 1951              	.L102:
 1952 04ce 00BF     		.align	2
 1953              	.L101:
 1954 04d0 00408F40 		.word	1083129856
 1955              		.cfi_endproc
 1956              	.LFE5:
 1957              		.size	calculate_avoidance_angle, .-calculate_avoidance_angle
 1958              		.section	.text.velocity_control,"ax",%progbits
 1959              		.align	2
 1960              		.global	velocity_control
 1961              		.thumb
 1962              		.thumb_func
 1963              		.type	velocity_control, %function
 1964              	velocity_control:
 1965              	.LFB6:
 330:..\VFH/vfh.c  **** 
 331:..\VFH/vfh.c  **** 
 332:..\VFH/vfh.c  **** double velocity_control(POD * smoothed_POD, double direction, double alpha, double h_m) {
 1966              		.loc 1 332 0
 1967              		.cfi_startproc
 1968              		@ args = 16, pretend = 0, frame = 56
 1969              		@ frame_needed = 1, uses_anonymous_args = 0
ARM GAS  C:\Users\cyu13\AppData\Local\Temp\ccOJn0nn.s 			page 42


 1970 0000 90B5     		push	{r4, r7, lr}
 1971              		.cfi_def_cfa_offset 12
 1972              		.cfi_offset 4, -12
 1973              		.cfi_offset 7, -8
 1974              		.cfi_offset 14, -4
 1975 0002 8FB0     		sub	sp, sp, #60
 1976              		.cfi_def_cfa_offset 72
 1977 0004 00AF     		add	r7, sp, #0
 1978              		.cfi_def_cfa_register 7
 1979 0006 F860     		str	r0, [r7, #12]
 1980 0008 C7E90023 		strd	r2, [r7]
 333:..\VFH/vfh.c  ****   // Max velocity
 334:..\VFH/vfh.c  ****   double V_MAX = 3;
 1981              		.loc 1 334 0
 1982 000c 4FF00003 		mov	r3, #0
 1983 0010 354C     		ldr	r4, .L110+8
 1984 0012 C7E90A34 		strd	r3, [r7, #40]
 335:..\VFH/vfh.c  **** 
 336:..\VFH/vfh.c  ****   // Convert the direction of travel into sector index
 337:..\VFH/vfh.c  ****   int h_idx = floor((180 * calculate_angle_modulo(direction) / M_PI)  / alpha);
 1985              		.loc 1 337 0
 1986 0016 D7E90001 		ldrd	r0, [r7]
 1987 001a FFF7FEFF 		bl	calculate_angle_modulo
 1988 001e 4FF00002 		mov	r2, #0
 1989 0022 324B     		ldr	r3, .L110+12
 1990 0024 FFF7FEFF 		bl	__aeabi_dmul
 1991 0028 0346     		mov	r3, r0
 1992 002a 0C46     		mov	r4, r1
 1993 002c 1846     		mov	r0, r3
 1994 002e 2146     		mov	r1, r4
 1995 0030 2BA3     		adr	r3, .L110
 1996 0032 D3E90023 		ldrd	r2, [r3]
 1997 0036 FFF7FEFF 		bl	__aeabi_ddiv
 1998 003a 0346     		mov	r3, r0
 1999 003c 0C46     		mov	r4, r1
 2000 003e 1846     		mov	r0, r3
 2001 0040 2146     		mov	r1, r4
 2002 0042 D7E91223 		ldrd	r2, [r7, #72]
 2003 0046 FFF7FEFF 		bl	__aeabi_ddiv
 2004 004a 0346     		mov	r3, r0
 2005 004c 0C46     		mov	r4, r1
 2006 004e 1846     		mov	r0, r3
 2007 0050 2146     		mov	r1, r4
 2008 0052 FFF7FEFF 		bl	floor
 2009 0056 0346     		mov	r3, r0
 2010 0058 0C46     		mov	r4, r1
 2011 005a 1846     		mov	r0, r3
 2012 005c 2146     		mov	r1, r4
 2013 005e FFF7FEFF 		bl	__aeabi_d2iz
 2014 0062 0346     		mov	r3, r0
 2015 0064 7B62     		str	r3, [r7, #36]
 338:..\VFH/vfh.c  ****   
 339:..\VFH/vfh.c  ****   // Retrieve polar histogram density at this sector
 340:..\VFH/vfh.c  ****   double h_c = smoothed_POD->density[h_idx];
 2016              		.loc 1 340 0
 2017 0066 FB68     		ldr	r3, [r7, #12]
 2018 0068 5A68     		ldr	r2, [r3, #4]
ARM GAS  C:\Users\cyu13\AppData\Local\Temp\ccOJn0nn.s 			page 43


 2019 006a 7B6A     		ldr	r3, [r7, #36]
 2020 006c DB00     		lsls	r3, r3, #3
 2021 006e 1344     		add	r3, r3, r2
 2022 0070 18CB     		ldmia	r3, {r3-r4}
 2023 0072 C7E90634 		strd	r3, [r7, #24]
 341:..\VFH/vfh.c  **** 
 342:..\VFH/vfh.c  ****   // NOTE: If h_c > 0, that indicates that an obstacles lies ahead of the robot
 343:..\VFH/vfh.c  **** 
 344:..\VFH/vfh.c  ****   // Define h_m which is an empirically determined constant. h_cc later must be less than h_m
 345:..\VFH/vfh.c  **** 
 346:..\VFH/vfh.c  ****   double h_cc;
 347:..\VFH/vfh.c  ****   if (h_c > h_m) {
 2024              		.loc 1 347 0
 2025 0076 D7E91423 		ldrd	r2, [r7, #80]
 2026 007a D7E90601 		ldrd	r0, [r7, #24]
 2027 007e FFF7FEFF 		bl	__aeabi_dcmpgt
 2028 0082 0346     		mov	r3, r0
 2029 0084 002B     		cmp	r3, #0
 2030 0086 04D0     		beq	.L109
 348:..\VFH/vfh.c  ****     h_cc = h_m;
 2031              		.loc 1 348 0
 2032 0088 D7E91434 		ldrd	r3, [r7, #80]
 2033 008c C7E90C34 		strd	r3, [r7, #48]
 2034 0090 03E0     		b	.L106
 2035              	.L109:
 349:..\VFH/vfh.c  ****   } else {
 350:..\VFH/vfh.c  ****     h_cc = h_c;
 2036              		.loc 1 350 0
 2037 0092 D7E90634 		ldrd	r3, [r7, #24]
 2038 0096 C7E90C34 		strd	r3, [r7, #48]
 2039              	.L106:
 351:..\VFH/vfh.c  ****   }
 352:..\VFH/vfh.c  ****   double speed_reduction = V_MAX * (1 - (h_cc / h_m));
 2040              		.loc 1 352 0
 2041 009a D7E91423 		ldrd	r2, [r7, #80]
 2042 009e D7E90C01 		ldrd	r0, [r7, #48]
 2043 00a2 FFF7FEFF 		bl	__aeabi_ddiv
 2044 00a6 0346     		mov	r3, r0
 2045 00a8 0C46     		mov	r4, r1
 2046 00aa 1A46     		mov	r2, r3
 2047 00ac 2346     		mov	r3, r4
 2048 00ae 4FF00000 		mov	r0, #0
 2049 00b2 0F49     		ldr	r1, .L110+16
 2050 00b4 FFF7FEFF 		bl	__aeabi_dsub
 2051 00b8 0346     		mov	r3, r0
 2052 00ba 0C46     		mov	r4, r1
 2053 00bc 1846     		mov	r0, r3
 2054 00be 2146     		mov	r1, r4
 2055 00c0 D7E90A23 		ldrd	r2, [r7, #40]
 2056 00c4 FFF7FEFF 		bl	__aeabi_dmul
 2057 00c8 0346     		mov	r3, r0
 2058 00ca 0C46     		mov	r4, r1
 2059 00cc C7E90434 		strd	r3, [r7, #16]
 353:..\VFH/vfh.c  **** 
 354:..\VFH/vfh.c  ****   // Further reduce speed to anticipate obstacles
 355:..\VFH/vfh.c  ****   
 356:..\VFH/vfh.c  ****   return speed_reduction;
ARM GAS  C:\Users\cyu13\AppData\Local\Temp\ccOJn0nn.s 			page 44


 2060              		.loc 1 356 0
 2061 00d0 D7E90434 		ldrd	r3, [r7, #16]
 357:..\VFH/vfh.c  **** }
 2062              		.loc 1 357 0
 2063 00d4 1846     		mov	r0, r3
 2064 00d6 2146     		mov	r1, r4
 2065 00d8 3C37     		adds	r7, r7, #60
 2066              		.cfi_def_cfa_offset 12
 2067 00da BD46     		mov	sp, r7
 2068              		.cfi_def_cfa_register 13
 2069              		@ sp needed
 2070 00dc 90BD     		pop	{r4, r7, pc}
 2071              	.L111:
 2072 00de 00BF     		.align	3
 2073              	.L110:
 2074 00e0 182D4454 		.word	1413754136
 2075 00e4 FB210940 		.word	1074340347
 2076 00e8 00000840 		.word	1074266112
 2077 00ec 00806640 		.word	1080459264
 2078 00f0 0000F03F 		.word	1072693248
 2079              		.cfi_endproc
 2080              	.LFE6:
 2081              		.size	velocity_control, .-velocity_control
 2082              		.text
 2083              	.Letext0:
 2084              		.file 2 "..\\VFH\\..\\Helper\\helper.h"
 2085              		.file 3 "..\\VFH\\..\\Robot\\robot.h"
 2086              		.file 4 "..\\VFH\\vfh.h"
 2087              		.section	.debug_info,"",%progbits
 2088              	.Ldebug_info0:
 2089 0000 92080000 		.4byte	0x892
 2090 0004 0400     		.2byte	0x4
 2091 0006 00000000 		.4byte	.Ldebug_abbrev0
 2092 000a 04       		.byte	0x4
 2093 000b 01       		.uleb128 0x1
 2094 000c 47000000 		.4byte	.LASF77
 2095 0010 0C       		.byte	0xc
 2096 0011 9E030000 		.4byte	.LASF78
 2097 0015 70010000 		.4byte	.LASF79
 2098 0019 00000000 		.4byte	.Ldebug_ranges0+0
 2099 001d 00000000 		.4byte	0
 2100 0021 00000000 		.4byte	.Ldebug_line0
 2101 0025 02       		.uleb128 0x2
 2102 0026 04       		.byte	0x4
 2103 0027 07       		.byte	0x7
 2104 0028 E5010000 		.4byte	.LASF0
 2105 002c 03       		.uleb128 0x3
 2106 002d 04       		.byte	0x4
 2107 002e 05       		.byte	0x5
 2108 002f 696E7400 		.ascii	"int\000"
 2109 0033 02       		.uleb128 0x2
 2110 0034 08       		.byte	0x8
 2111 0035 05       		.byte	0x5
 2112 0036 29010000 		.4byte	.LASF1
 2113 003a 02       		.uleb128 0x2
 2114 003b 08       		.byte	0x8
 2115 003c 04       		.byte	0x4
ARM GAS  C:\Users\cyu13\AppData\Local\Temp\ccOJn0nn.s 			page 45


 2116 003d 71020000 		.4byte	.LASF2
 2117 0041 02       		.uleb128 0x2
 2118 0042 01       		.byte	0x1
 2119 0043 06       		.byte	0x6
 2120 0044 37010000 		.4byte	.LASF3
 2121 0048 02       		.uleb128 0x2
 2122 0049 01       		.byte	0x1
 2123 004a 08       		.byte	0x8
 2124 004b EA020000 		.4byte	.LASF4
 2125 004f 02       		.uleb128 0x2
 2126 0050 02       		.byte	0x2
 2127 0051 05       		.byte	0x5
 2128 0052 F8020000 		.4byte	.LASF5
 2129 0056 02       		.uleb128 0x2
 2130 0057 02       		.byte	0x2
 2131 0058 07       		.byte	0x7
 2132 0059 2A020000 		.4byte	.LASF6
 2133 005d 02       		.uleb128 0x2
 2134 005e 04       		.byte	0x4
 2135 005f 05       		.byte	0x5
 2136 0060 60010000 		.4byte	.LASF7
 2137 0064 02       		.uleb128 0x2
 2138 0065 04       		.byte	0x4
 2139 0066 07       		.byte	0x7
 2140 0067 FB010000 		.4byte	.LASF8
 2141 006b 02       		.uleb128 0x2
 2142 006c 08       		.byte	0x8
 2143 006d 07       		.byte	0x7
 2144 006e DD000000 		.4byte	.LASF9
 2145 0072 02       		.uleb128 0x2
 2146 0073 04       		.byte	0x4
 2147 0074 07       		.byte	0x7
 2148 0075 68020000 		.4byte	.LASF10
 2149 0079 02       		.uleb128 0x2
 2150 007a 01       		.byte	0x1
 2151 007b 08       		.byte	0x8
 2152 007c 72030000 		.4byte	.LASF11
 2153 0080 02       		.uleb128 0x2
 2154 0081 08       		.byte	0x8
 2155 0082 04       		.byte	0x4
 2156 0083 69010000 		.4byte	.LASF12
 2157 0087 02       		.uleb128 0x2
 2158 0088 04       		.byte	0x4
 2159 0089 04       		.byte	0x4
 2160 008a CE020000 		.4byte	.LASF13
 2161 008e 04       		.uleb128 0x4
 2162 008f 28       		.byte	0x28
 2163 0090 02       		.byte	0x2
 2164 0091 22       		.byte	0x22
 2165 0092 AF000000 		.4byte	0xaf
 2166 0096 05       		.uleb128 0x5
 2167 0097 3D000000 		.4byte	.LASF14
 2168 009b 02       		.byte	0x2
 2169 009c 23       		.byte	0x23
 2170 009d AF000000 		.4byte	0xaf
 2171 00a1 00       		.byte	0
 2172 00a2 05       		.uleb128 0x5
ARM GAS  C:\Users\cyu13\AppData\Local\Temp\ccOJn0nn.s 			page 46


 2173 00a3 85030000 		.4byte	.LASF15
 2174 00a7 02       		.byte	0x2
 2175 00a8 24       		.byte	0x24
 2176 00a9 AF000000 		.4byte	0xaf
 2177 00ad 14       		.byte	0x14
 2178 00ae 00       		.byte	0
 2179 00af 06       		.uleb128 0x6
 2180 00b0 2C000000 		.4byte	0x2c
 2181 00b4 BF000000 		.4byte	0xbf
 2182 00b8 07       		.uleb128 0x7
 2183 00b9 72000000 		.4byte	0x72
 2184 00bd 04       		.byte	0x4
 2185 00be 00       		.byte	0
 2186 00bf 08       		.uleb128 0x8
 2187 00c0 61020000 		.4byte	.LASF24
 2188 00c4 02       		.byte	0x2
 2189 00c5 25       		.byte	0x25
 2190 00c6 8E000000 		.4byte	0x8e
 2191 00ca 04       		.uleb128 0x4
 2192 00cb 70       		.byte	0x70
 2193 00cc 03       		.byte	0x3
 2194 00cd 1A       		.byte	0x1a
 2195 00ce 71010000 		.4byte	0x171
 2196 00d2 05       		.uleb128 0x5
 2197 00d3 0A030000 		.4byte	.LASF16
 2198 00d7 03       		.byte	0x3
 2199 00d8 1C       		.byte	0x1c
 2200 00d9 3A000000 		.4byte	0x3a
 2201 00dd 00       		.byte	0
 2202 00de 05       		.uleb128 0x5
 2203 00df 3D020000 		.4byte	.LASF17
 2204 00e3 03       		.byte	0x3
 2205 00e4 1F       		.byte	0x1f
 2206 00e5 3A000000 		.4byte	0x3a
 2207 00e9 08       		.byte	0x8
 2208 00ea 09       		.uleb128 0x9
 2209 00eb 7800     		.ascii	"x\000"
 2210 00ed 03       		.byte	0x3
 2211 00ee 20       		.byte	0x20
 2212 00ef 3A000000 		.4byte	0x3a
 2213 00f3 10       		.byte	0x10
 2214 00f4 09       		.uleb128 0x9
 2215 00f5 7900     		.ascii	"y\000"
 2216 00f7 03       		.byte	0x3
 2217 00f8 21       		.byte	0x21
 2218 00f9 3A000000 		.4byte	0x3a
 2219 00fd 18       		.byte	0x18
 2220 00fe 09       		.uleb128 0x9
 2221 00ff 7600     		.ascii	"v\000"
 2222 0101 03       		.byte	0x3
 2223 0102 24       		.byte	0x24
 2224 0103 3A000000 		.4byte	0x3a
 2225 0107 20       		.byte	0x20
 2226 0108 09       		.uleb128 0x9
 2227 0109 7700     		.ascii	"w\000"
 2228 010b 03       		.byte	0x3
 2229 010c 25       		.byte	0x25
ARM GAS  C:\Users\cyu13\AppData\Local\Temp\ccOJn0nn.s 			page 47


 2230 010d 3A000000 		.4byte	0x3a
 2231 0111 28       		.byte	0x28
 2232 0112 05       		.uleb128 0x5
 2233 0113 57020000 		.4byte	.LASF18
 2234 0117 03       		.byte	0x3
 2235 0118 28       		.byte	0x28
 2236 0119 3A000000 		.4byte	0x3a
 2237 011d 30       		.byte	0x30
 2238 011e 05       		.uleb128 0x5
 2239 011f AB030000 		.4byte	.LASF19
 2240 0123 03       		.byte	0x3
 2241 0124 29       		.byte	0x29
 2242 0125 3A000000 		.4byte	0x3a
 2243 0129 38       		.byte	0x38
 2244 012a 09       		.uleb128 0x9
 2245 012b 4B6900   		.ascii	"Ki\000"
 2246 012e 03       		.byte	0x3
 2247 012f 2C       		.byte	0x2c
 2248 0130 3A000000 		.4byte	0x3a
 2249 0134 40       		.byte	0x40
 2250 0135 09       		.uleb128 0x9
 2251 0136 4B7000   		.ascii	"Kp\000"
 2252 0139 03       		.byte	0x3
 2253 013a 2D       		.byte	0x2d
 2254 013b 3A000000 		.4byte	0x3a
 2255 013f 48       		.byte	0x48
 2256 0140 05       		.uleb128 0x5
 2257 0141 43010000 		.4byte	.LASF20
 2258 0145 03       		.byte	0x3
 2259 0146 2E       		.byte	0x2e
 2260 0147 3A000000 		.4byte	0x3a
 2261 014b 50       		.byte	0x50
 2262 014c 05       		.uleb128 0x5
 2263 014d D4020000 		.4byte	.LASF21
 2264 0151 03       		.byte	0x3
 2265 0152 31       		.byte	0x31
 2266 0153 3A000000 		.4byte	0x3a
 2267 0157 58       		.byte	0x58
 2268 0158 05       		.uleb128 0x5
 2269 0159 DB020000 		.4byte	.LASF22
 2270 015d 03       		.byte	0x3
 2271 015e 32       		.byte	0x32
 2272 015f 3A000000 		.4byte	0x3a
 2273 0163 60       		.byte	0x60
 2274 0164 05       		.uleb128 0x5
 2275 0165 43020000 		.4byte	.LASF23
 2276 0169 03       		.byte	0x3
 2277 016a 33       		.byte	0x33
 2278 016b 3A000000 		.4byte	0x3a
 2279 016f 68       		.byte	0x68
 2280 0170 00       		.byte	0
 2281 0171 08       		.uleb128 0x8
 2282 0172 E3030000 		.4byte	.LASF25
 2283 0176 03       		.byte	0x3
 2284 0177 35       		.byte	0x35
 2285 0178 CA000000 		.4byte	0xca
 2286 017c 04       		.uleb128 0x4
ARM GAS  C:\Users\cyu13\AppData\Local\Temp\ccOJn0nn.s 			page 48


 2287 017d 10       		.byte	0x10
 2288 017e 04       		.byte	0x4
 2289 017f 13       		.byte	0x13
 2290 0180 B5010000 		.4byte	0x1b5
 2291 0184 05       		.uleb128 0x5
 2292 0185 24020000 		.4byte	.LASF26
 2293 0189 04       		.byte	0x4
 2294 018a 14       		.byte	0x14
 2295 018b 2C000000 		.4byte	0x2c
 2296 018f 00       		.byte	0
 2297 0190 05       		.uleb128 0x5
 2298 0191 EF030000 		.4byte	.LASF27
 2299 0195 04       		.byte	0x4
 2300 0196 15       		.byte	0x15
 2301 0197 2C000000 		.4byte	0x2c
 2302 019b 04       		.byte	0x4
 2303 019c 05       		.uleb128 0x5
 2304 019d 33030000 		.4byte	.LASF28
 2305 01a1 04       		.byte	0x4
 2306 01a2 16       		.byte	0x16
 2307 01a3 2C000000 		.4byte	0x2c
 2308 01a7 08       		.byte	0x8
 2309 01a8 05       		.uleb128 0x5
 2310 01a9 51020000 		.4byte	.LASF29
 2311 01ad 04       		.byte	0x4
 2312 01ae 17       		.byte	0x17
 2313 01af B5010000 		.4byte	0x1b5
 2314 01b3 0C       		.byte	0xc
 2315 01b4 00       		.byte	0
 2316 01b5 0A       		.uleb128 0xa
 2317 01b6 04       		.byte	0x4
 2318 01b7 25000000 		.4byte	0x25
 2319 01bb 08       		.uleb128 0x8
 2320 01bc A0020000 		.4byte	.LASF30
 2321 01c0 04       		.byte	0x4
 2322 01c1 18       		.byte	0x18
 2323 01c2 7C010000 		.4byte	0x17c
 2324 01c6 04       		.uleb128 0x4
 2325 01c7 08       		.byte	0x8
 2326 01c8 04       		.byte	0x4
 2327 01c9 2E       		.byte	0x2e
 2328 01ca E7010000 		.4byte	0x1e7
 2329 01ce 05       		.uleb128 0x5
 2330 01cf F2010000 		.4byte	.LASF31
 2331 01d3 04       		.byte	0x4
 2332 01d4 2F       		.byte	0x2f
 2333 01d5 2C000000 		.4byte	0x2c
 2334 01d9 00       		.byte	0
 2335 01da 05       		.uleb128 0x5
 2336 01db D5000000 		.4byte	.LASF32
 2337 01df 04       		.byte	0x4
 2338 01e0 30       		.byte	0x30
 2339 01e1 E7010000 		.4byte	0x1e7
 2340 01e5 04       		.byte	0x4
 2341 01e6 00       		.byte	0
 2342 01e7 0A       		.uleb128 0xa
 2343 01e8 04       		.byte	0x4
ARM GAS  C:\Users\cyu13\AppData\Local\Temp\ccOJn0nn.s 			page 49


 2344 01e9 80000000 		.4byte	0x80
 2345 01ed 0B       		.uleb128 0xb
 2346 01ee 504F4400 		.ascii	"POD\000"
 2347 01f2 04       		.byte	0x4
 2348 01f3 31       		.byte	0x31
 2349 01f4 C6010000 		.4byte	0x1c6
 2350 01f8 0C       		.uleb128 0xc
 2351 01f9 4D010000 		.4byte	.LASF33
 2352 01fd 01       		.byte	0x1
 2353 01fe 10       		.byte	0x10
 2354 01ff 76020000 		.4byte	0x276
 2355 0203 00000000 		.4byte	.LFB0
 2356 0207 B6000000 		.4byte	.LFE0-.LFB0
 2357 020b 01       		.uleb128 0x1
 2358 020c 9C       		.byte	0x9c
 2359 020d 76020000 		.4byte	0x276
 2360 0211 0D       		.uleb128 0xd
 2361 0212 24020000 		.4byte	.LASF26
 2362 0216 01       		.byte	0x1
 2363 0217 10       		.byte	0x10
 2364 0218 2C000000 		.4byte	0x2c
 2365 021c 02       		.uleb128 0x2
 2366 021d 91       		.byte	0x91
 2367 021e 64       		.sleb128 -28
 2368 021f 0D       		.uleb128 0xd
 2369 0220 EF030000 		.4byte	.LASF27
 2370 0224 01       		.byte	0x1
 2371 0225 10       		.byte	0x10
 2372 0226 2C000000 		.4byte	0x2c
 2373 022a 02       		.uleb128 0x2
 2374 022b 91       		.byte	0x91
 2375 022c 60       		.sleb128 -32
 2376 022d 0D       		.uleb128 0xd
 2377 022e 33030000 		.4byte	.LASF28
 2378 0232 01       		.byte	0x1
 2379 0233 10       		.byte	0x10
 2380 0234 2C000000 		.4byte	0x2c
 2381 0238 02       		.uleb128 0x2
 2382 0239 91       		.byte	0x91
 2383 023a 5C       		.sleb128 -36
 2384 023b 0E       		.uleb128 0xe
 2385 023c 6D617000 		.ascii	"map\000"
 2386 0240 01       		.byte	0x1
 2387 0241 13       		.byte	0x13
 2388 0242 76020000 		.4byte	0x276
 2389 0246 02       		.uleb128 0x2
 2390 0247 91       		.byte	0x91
 2391 0248 6C       		.sleb128 -20
 2392 0249 0F       		.uleb128 0xf
 2393 024a 6C000000 		.4byte	.LBB2
 2394 024e 40000000 		.4byte	.LBE2-.LBB2
 2395 0252 0E       		.uleb128 0xe
 2396 0253 6900     		.ascii	"i\000"
 2397 0255 01       		.byte	0x1
 2398 0256 29       		.byte	0x29
 2399 0257 2C000000 		.4byte	0x2c
 2400 025b 02       		.uleb128 0x2
ARM GAS  C:\Users\cyu13\AppData\Local\Temp\ccOJn0nn.s 			page 50


 2401 025c 91       		.byte	0x91
 2402 025d 74       		.sleb128 -12
 2403 025e 0F       		.uleb128 0xf
 2404 025f 72000000 		.4byte	.LBB3
 2405 0263 2C000000 		.4byte	.LBE3-.LBB3
 2406 0267 0E       		.uleb128 0xe
 2407 0268 6A00     		.ascii	"j\000"
 2408 026a 01       		.byte	0x1
 2409 026b 2A       		.byte	0x2a
 2410 026c 2C000000 		.4byte	0x2c
 2411 0270 02       		.uleb128 0x2
 2412 0271 91       		.byte	0x91
 2413 0272 70       		.sleb128 -16
 2414 0273 00       		.byte	0
 2415 0274 00       		.byte	0
 2416 0275 00       		.byte	0
 2417 0276 0A       		.uleb128 0xa
 2418 0277 04       		.byte	0x4
 2419 0278 BB010000 		.4byte	0x1bb
 2420 027c 0C       		.uleb128 0xc
 2421 027d 1D000000 		.4byte	.LASF34
 2422 0281 01       		.byte	0x1
 2423 0282 32       		.byte	0x32
 2424 0283 2C000000 		.4byte	0x2c
 2425 0287 00000000 		.4byte	.LFB1
 2426 028b 50030000 		.4byte	.LFE1-.LFB1
 2427 028f 01       		.uleb128 0x1
 2428 0290 9C       		.byte	0x9c
 2429 0291 73030000 		.4byte	0x373
 2430 0295 10       		.uleb128 0x10
 2431 0296 6D617000 		.ascii	"map\000"
 2432 029a 01       		.byte	0x1
 2433 029b 32       		.byte	0x32
 2434 029c 76020000 		.4byte	0x276
 2435 02a0 03       		.uleb128 0x3
 2436 02a1 91       		.byte	0x91
 2437 02a2 EC7E     		.sleb128 -148
 2438 02a4 0D       		.uleb128 0xd
 2439 02a5 53030000 		.4byte	.LASF35
 2440 02a9 01       		.byte	0x1
 2441 02aa 32       		.byte	0x32
 2442 02ab 73030000 		.4byte	0x373
 2443 02af 03       		.uleb128 0x3
 2444 02b0 91       		.byte	0x91
 2445 02b1 E87E     		.sleb128 -152
 2446 02b3 0D       		.uleb128 0xd
 2447 02b4 D4010000 		.4byte	.LASF36
 2448 02b8 01       		.byte	0x1
 2449 02b9 32       		.byte	0x32
 2450 02ba 79030000 		.4byte	0x379
 2451 02be 03       		.uleb128 0x3
 2452 02bf 91       		.byte	0x91
 2453 02c0 E47E     		.sleb128 -156
 2454 02c2 11       		.uleb128 0x11
 2455 02c3 C2020000 		.4byte	.LASF37
 2456 02c7 01       		.byte	0x1
 2457 02c8 3F       		.byte	0x3f
ARM GAS  C:\Users\cyu13\AppData\Local\Temp\ccOJn0nn.s 			page 51


 2458 02c9 80000000 		.4byte	0x80
 2459 02cd 02       		.uleb128 0x2
 2460 02ce 91       		.byte	0x91
 2461 02cf 40       		.sleb128 -64
 2462 02d0 11       		.uleb128 0x11
 2463 02d1 C8020000 		.4byte	.LASF38
 2464 02d5 01       		.byte	0x1
 2465 02d6 40       		.byte	0x40
 2466 02d7 80000000 		.4byte	0x80
 2467 02db 03       		.uleb128 0x3
 2468 02dc 91       		.byte	0x91
 2469 02dd B87F     		.sleb128 -72
 2470 02df 0E       		.uleb128 0xe
 2471 02e0 79617700 		.ascii	"yaw\000"
 2472 02e4 01       		.byte	0x1
 2473 02e5 41       		.byte	0x41
 2474 02e6 80000000 		.4byte	0x80
 2475 02ea 03       		.uleb128 0x3
 2476 02eb 91       		.byte	0x91
 2477 02ec B07F     		.sleb128 -80
 2478 02ee 11       		.uleb128 0x11
 2479 02ef 77030000 		.4byte	.LASF39
 2480 02f3 01       		.byte	0x1
 2481 02f4 44       		.byte	0x44
 2482 02f5 7F030000 		.4byte	0x37f
 2483 02f9 03       		.uleb128 0x3
 2484 02fa 91       		.byte	0x91
 2485 02fb F07E     		.sleb128 -144
 2486 02fd 11       		.uleb128 0x11
 2487 02fe 3D020000 		.4byte	.LASF17
 2488 0302 01       		.byte	0x1
 2489 0303 4A       		.byte	0x4a
 2490 0304 80000000 		.4byte	0x80
 2491 0308 02       		.uleb128 0x2
 2492 0309 91       		.byte	0x91
 2493 030a 50       		.sleb128 -48
 2494 030b 11       		.uleb128 0x11
 2495 030c A5020000 		.4byte	.LASF40
 2496 0310 01       		.byte	0x1
 2497 0311 4B       		.byte	0x4b
 2498 0312 80000000 		.4byte	0x80
 2499 0316 03       		.uleb128 0x3
 2500 0317 91       		.byte	0x91
 2501 0318 A87F     		.sleb128 -88
 2502 031a 12       		.uleb128 0x12
 2503 031b 4E000000 		.4byte	.LBB4
 2504 031f 40000000 		.4byte	.LBE4-.LBB4
 2505 0323 34030000 		.4byte	0x334
 2506 0327 0E       		.uleb128 0xe
 2507 0328 6900     		.ascii	"i\000"
 2508 032a 01       		.byte	0x1
 2509 032b 45       		.byte	0x45
 2510 032c 2C000000 		.4byte	0x2c
 2511 0330 02       		.uleb128 0x2
 2512 0331 91       		.byte	0x91
 2513 0332 5C       		.sleb128 -36
 2514 0333 00       		.byte	0
ARM GAS  C:\Users\cyu13\AppData\Local\Temp\ccOJn0nn.s 			page 52


 2515 0334 0F       		.uleb128 0xf
 2516 0335 8E000000 		.4byte	.LBB5
 2517 0339 9A020000 		.4byte	.LBE5-.LBB5
 2518 033d 0E       		.uleb128 0xe
 2519 033e 6900     		.ascii	"i\000"
 2520 0340 01       		.byte	0x1
 2521 0341 4D       		.byte	0x4d
 2522 0342 2C000000 		.4byte	0x2c
 2523 0346 02       		.uleb128 0x2
 2524 0347 91       		.byte	0x91
 2525 0348 4C       		.sleb128 -52
 2526 0349 0F       		.uleb128 0xf
 2527 034a 94000000 		.4byte	.LBB6
 2528 034e 86020000 		.4byte	.LBE6-.LBB6
 2529 0352 11       		.uleb128 0x11
 2530 0353 15030000 		.4byte	.LASF41
 2531 0357 01       		.byte	0x1
 2532 0358 58       		.byte	0x58
 2533 0359 80000000 		.4byte	0x80
 2534 035d 03       		.uleb128 0x3
 2535 035e 91       		.byte	0x91
 2536 035f A07F     		.sleb128 -96
 2537 0361 11       		.uleb128 0x11
 2538 0362 C2010000 		.4byte	.LASF42
 2539 0366 01       		.byte	0x1
 2540 0367 59       		.byte	0x59
 2541 0368 80000000 		.4byte	0x80
 2542 036c 03       		.uleb128 0x3
 2543 036d 91       		.byte	0x91
 2544 036e 987F     		.sleb128 -104
 2545 0370 00       		.byte	0
 2546 0371 00       		.byte	0
 2547 0372 00       		.byte	0
 2548 0373 0A       		.uleb128 0xa
 2549 0374 04       		.byte	0x4
 2550 0375 BF000000 		.4byte	0xbf
 2551 0379 0A       		.uleb128 0xa
 2552 037a 04       		.byte	0x4
 2553 037b 71010000 		.4byte	0x171
 2554 037f 06       		.uleb128 0x6
 2555 0380 80000000 		.4byte	0x80
 2556 0384 8F030000 		.4byte	0x38f
 2557 0388 07       		.uleb128 0x7
 2558 0389 72000000 		.4byte	0x72
 2559 038d 04       		.byte	0x4
 2560 038e 00       		.byte	0
 2561 038f 13       		.uleb128 0x13
 2562 0390 D0030000 		.4byte	.LASF48
 2563 0394 01       		.byte	0x1
 2564 0395 68       		.byte	0x68
 2565 0396 00000000 		.4byte	.LFB2
 2566 039a F8000000 		.4byte	.LFE2-.LFB2
 2567 039e 01       		.uleb128 0x1
 2568 039f 9C       		.byte	0x9c
 2569 03a0 39040000 		.4byte	0x439
 2570 03a4 10       		.uleb128 0x10
 2571 03a5 6D617000 		.ascii	"map\000"
ARM GAS  C:\Users\cyu13\AppData\Local\Temp\ccOJn0nn.s 			page 53


 2572 03a9 01       		.byte	0x1
 2573 03aa 68       		.byte	0x68
 2574 03ab 76020000 		.4byte	0x276
 2575 03af 02       		.uleb128 0x2
 2576 03b0 91       		.byte	0x91
 2577 03b1 54       		.sleb128 -44
 2578 03b2 0D       		.uleb128 0xd
 2579 03b3 59010000 		.4byte	.LASF43
 2580 03b7 01       		.byte	0x1
 2581 03b8 68       		.byte	0x68
 2582 03b9 76020000 		.4byte	0x276
 2583 03bd 02       		.uleb128 0x2
 2584 03be 91       		.byte	0x91
 2585 03bf 50       		.sleb128 -48
 2586 03c0 0D       		.uleb128 0xd
 2587 03c1 D4010000 		.4byte	.LASF36
 2588 03c5 01       		.byte	0x1
 2589 03c6 68       		.byte	0x68
 2590 03c7 79030000 		.4byte	0x379
 2591 03cb 02       		.uleb128 0x2
 2592 03cc 91       		.byte	0x91
 2593 03cd 4C       		.sleb128 -52
 2594 03ce 0E       		.uleb128 0xe
 2595 03cf 7800     		.ascii	"x\000"
 2596 03d1 01       		.byte	0x1
 2597 03d2 6E       		.byte	0x6e
 2598 03d3 2C000000 		.4byte	0x2c
 2599 03d7 02       		.uleb128 0x2
 2600 03d8 91       		.byte	0x91
 2601 03d9 64       		.sleb128 -28
 2602 03da 0E       		.uleb128 0xe
 2603 03db 7900     		.ascii	"y\000"
 2604 03dd 01       		.byte	0x1
 2605 03de 6F       		.byte	0x6f
 2606 03df 2C000000 		.4byte	0x2c
 2607 03e3 02       		.uleb128 0x2
 2608 03e4 91       		.byte	0x91
 2609 03e5 60       		.sleb128 -32
 2610 03e6 0F       		.uleb128 0xf
 2611 03e7 38000000 		.4byte	.LBB7
 2612 03eb B8000000 		.4byte	.LBE7-.LBB7
 2613 03ef 0E       		.uleb128 0xe
 2614 03f0 6900     		.ascii	"i\000"
 2615 03f2 01       		.byte	0x1
 2616 03f3 72       		.byte	0x72
 2617 03f4 2C000000 		.4byte	0x2c
 2618 03f8 02       		.uleb128 0x2
 2619 03f9 91       		.byte	0x91
 2620 03fa 6C       		.sleb128 -20
 2621 03fb 0F       		.uleb128 0xf
 2622 03fc 3E000000 		.4byte	.LBB8
 2623 0400 A2000000 		.4byte	.LBE8-.LBB8
 2624 0404 0E       		.uleb128 0xe
 2625 0405 6A00     		.ascii	"j\000"
 2626 0407 01       		.byte	0x1
 2627 0408 73       		.byte	0x73
 2628 0409 2C000000 		.4byte	0x2c
ARM GAS  C:\Users\cyu13\AppData\Local\Temp\ccOJn0nn.s 			page 54


 2629 040d 02       		.uleb128 0x2
 2630 040e 91       		.byte	0x91
 2631 040f 68       		.sleb128 -24
 2632 0410 0F       		.uleb128 0xf
 2633 0411 44000000 		.4byte	.LBB9
 2634 0415 8C000000 		.4byte	.LBE9-.LBB9
 2635 0419 11       		.uleb128 0x11
 2636 041a 29000000 		.4byte	.LASF44
 2637 041e 01       		.byte	0x1
 2638 041f 76       		.byte	0x76
 2639 0420 2C000000 		.4byte	0x2c
 2640 0424 02       		.uleb128 0x2
 2641 0425 91       		.byte	0x91
 2642 0426 5C       		.sleb128 -36
 2643 0427 11       		.uleb128 0x11
 2644 0428 30000000 		.4byte	.LASF45
 2645 042c 01       		.byte	0x1
 2646 042d 77       		.byte	0x77
 2647 042e 2C000000 		.4byte	0x2c
 2648 0432 02       		.uleb128 0x2
 2649 0433 91       		.byte	0x91
 2650 0434 58       		.sleb128 -40
 2651 0435 00       		.byte	0
 2652 0436 00       		.byte	0
 2653 0437 00       		.byte	0
 2654 0438 00       		.byte	0
 2655 0439 0C       		.uleb128 0xc
 2656 043a DA010000 		.4byte	.LASF46
 2657 043e 01       		.byte	0x1
 2658 043f 86       		.byte	0x86
 2659 0440 85040000 		.4byte	0x485
 2660 0444 00000000 		.4byte	.LFB3
 2661 0448 DC000000 		.4byte	.LFE3-.LFB3
 2662 044c 01       		.uleb128 0x1
 2663 044d 9C       		.byte	0x9c
 2664 044e 85040000 		.4byte	0x485
 2665 0452 0D       		.uleb128 0xd
 2666 0453 37000000 		.4byte	.LASF47
 2667 0457 01       		.byte	0x1
 2668 0458 86       		.byte	0x86
 2669 0459 80000000 		.4byte	0x80
 2670 045d 02       		.uleb128 0x2
 2671 045e 91       		.byte	0x91
 2672 045f 60       		.sleb128 -32
 2673 0460 0E       		.uleb128 0xe
 2674 0461 706F6400 		.ascii	"pod\000"
 2675 0465 01       		.byte	0x1
 2676 0466 87       		.byte	0x87
 2677 0467 85040000 		.4byte	0x485
 2678 046b 02       		.uleb128 0x2
 2679 046c 91       		.byte	0x91
 2680 046d 68       		.sleb128 -24
 2681 046e 0F       		.uleb128 0xf
 2682 046f 9C000000 		.4byte	.LBB10
 2683 0473 2C000000 		.4byte	.LBE10-.LBB10
 2684 0477 0E       		.uleb128 0xe
 2685 0478 6900     		.ascii	"i\000"
ARM GAS  C:\Users\cyu13\AppData\Local\Temp\ccOJn0nn.s 			page 55


 2686 047a 01       		.byte	0x1
 2687 047b 9B       		.byte	0x9b
 2688 047c 2C000000 		.4byte	0x2c
 2689 0480 02       		.uleb128 0x2
 2690 0481 91       		.byte	0x91
 2691 0482 6C       		.sleb128 -20
 2692 0483 00       		.byte	0
 2693 0484 00       		.byte	0
 2694 0485 0A       		.uleb128 0xa
 2695 0486 04       		.byte	0x4
 2696 0487 ED010000 		.4byte	0x1ed
 2697 048b 13       		.uleb128 0x13
 2698 048c 0D020000 		.4byte	.LASF49
 2699 0490 01       		.byte	0x1
 2700 0491 A1       		.byte	0xa1
 2701 0492 00000000 		.4byte	.LFB4
 2702 0496 E4040000 		.4byte	.LFE4-.LFB4
 2703 049a 01       		.uleb128 0x1
 2704 049b 9C       		.byte	0x9c
 2705 049c F1050000 		.4byte	0x5f1
 2706 04a0 0D       		.uleb128 0xd
 2707 04a1 10000000 		.4byte	.LASF50
 2708 04a5 01       		.byte	0x1
 2709 04a6 A1       		.byte	0xa1
 2710 04a7 85040000 		.4byte	0x485
 2711 04ab 03       		.uleb128 0x3
 2712 04ac 91       		.byte	0x91
 2713 04ad E47A     		.sleb128 -668
 2714 04af 0D       		.uleb128 0xd
 2715 04b0 59010000 		.4byte	.LASF43
 2716 04b4 01       		.byte	0x1
 2717 04b5 A1       		.byte	0xa1
 2718 04b6 76020000 		.4byte	0x276
 2719 04ba 03       		.uleb128 0x3
 2720 04bb 91       		.byte	0x91
 2721 04bc E07A     		.sleb128 -672
 2722 04be 0D       		.uleb128 0xd
 2723 04bf 37000000 		.4byte	.LASF47
 2724 04c3 01       		.byte	0x1
 2725 04c4 A1       		.byte	0xa1
 2726 04c5 80000000 		.4byte	0x80
 2727 04c9 03       		.uleb128 0x3
 2728 04ca 91       		.byte	0x91
 2729 04cb D87A     		.sleb128 -680
 2730 04cd 10       		.uleb128 0x10
 2731 04ce 6C00     		.ascii	"l\000"
 2732 04d0 01       		.byte	0x1
 2733 04d1 A1       		.byte	0xa1
 2734 04d2 80000000 		.4byte	0x80
 2735 04d6 02       		.uleb128 0x2
 2736 04d7 91       		.byte	0x91
 2737 04d8 00       		.sleb128 0
 2738 04d9 10       		.uleb128 0x10
 2739 04da 6100     		.ascii	"a\000"
 2740 04dc 01       		.byte	0x1
 2741 04dd A1       		.byte	0xa1
 2742 04de 80000000 		.4byte	0x80
ARM GAS  C:\Users\cyu13\AppData\Local\Temp\ccOJn0nn.s 			page 56


 2743 04e2 02       		.uleb128 0x2
 2744 04e3 91       		.byte	0x91
 2745 04e4 08       		.sleb128 8
 2746 04e5 10       		.uleb128 0x10
 2747 04e6 6200     		.ascii	"b\000"
 2748 04e8 01       		.byte	0x1
 2749 04e9 A1       		.byte	0xa1
 2750 04ea 80000000 		.4byte	0x80
 2751 04ee 02       		.uleb128 0x2
 2752 04ef 91       		.byte	0x91
 2753 04f0 10       		.sleb128 16
 2754 04f1 11       		.uleb128 0x11
 2755 04f2 2B030000 		.4byte	.LASF51
 2756 04f6 01       		.byte	0x1
 2757 04f7 A2       		.byte	0xa2
 2758 04f8 2C000000 		.4byte	0x2c
 2759 04fc 02       		.uleb128 0x2
 2760 04fd 91       		.byte	0x91
 2761 04fe 40       		.sleb128 -64
 2762 04ff 11       		.uleb128 0x11
 2763 0500 24020000 		.4byte	.LASF26
 2764 0504 01       		.byte	0x1
 2765 0505 A3       		.byte	0xa3
 2766 0506 2C000000 		.4byte	0x2c
 2767 050a 03       		.uleb128 0x3
 2768 050b 91       		.byte	0x91
 2769 050c BC7F     		.sleb128 -68
 2770 050e 11       		.uleb128 0x11
 2771 050f EF030000 		.4byte	.LASF27
 2772 0513 01       		.byte	0x1
 2773 0514 A4       		.byte	0xa4
 2774 0515 2C000000 		.4byte	0x2c
 2775 0519 03       		.uleb128 0x3
 2776 051a 91       		.byte	0x91
 2777 051b B87F     		.sleb128 -72
 2778 051d 11       		.uleb128 0x11
 2779 051e 97020000 		.4byte	.LASF52
 2780 0522 01       		.byte	0x1
 2781 0523 A5       		.byte	0xa5
 2782 0524 F1050000 		.4byte	0x5f1
 2783 0528 03       		.uleb128 0x3
 2784 0529 91       		.byte	0x91
 2785 052a E87A     		.sleb128 -664
 2786 052c 12       		.uleb128 0x12
 2787 052d 3E000000 		.4byte	.LBB11
 2788 0531 32000000 		.4byte	.LBE11-.LBB11
 2789 0535 46050000 		.4byte	0x546
 2790 0539 0E       		.uleb128 0xe
 2791 053a 6900     		.ascii	"i\000"
 2792 053c 01       		.byte	0x1
 2793 053d A8       		.byte	0xa8
 2794 053e 2C000000 		.4byte	0x2c
 2795 0542 02       		.uleb128 0x2
 2796 0543 91       		.byte	0x91
 2797 0544 6C       		.sleb128 -20
 2798 0545 00       		.byte	0
 2799 0546 12       		.uleb128 0x12
ARM GAS  C:\Users\cyu13\AppData\Local\Temp\ccOJn0nn.s 			page 57


 2800 0547 70000000 		.4byte	.LBB12
 2801 054b 3E020000 		.4byte	.LBE12-.LBB12
 2802 054f 9D050000 		.4byte	0x59d
 2803 0553 0E       		.uleb128 0xe
 2804 0554 6900     		.ascii	"i\000"
 2805 0556 01       		.byte	0x1
 2806 0557 AC       		.byte	0xac
 2807 0558 2C000000 		.4byte	0x2c
 2808 055c 02       		.uleb128 0x2
 2809 055d 91       		.byte	0x91
 2810 055e 68       		.sleb128 -24
 2811 055f 0F       		.uleb128 0xf
 2812 0560 78000000 		.4byte	.LBB13
 2813 0564 1E020000 		.4byte	.LBE13-.LBB13
 2814 0568 0E       		.uleb128 0xe
 2815 0569 6A00     		.ascii	"j\000"
 2816 056b 01       		.byte	0x1
 2817 056c AD       		.byte	0xad
 2818 056d 2C000000 		.4byte	0x2c
 2819 0571 02       		.uleb128 0x2
 2820 0572 91       		.byte	0x91
 2821 0573 64       		.sleb128 -28
 2822 0574 0F       		.uleb128 0xf
 2823 0575 80000000 		.4byte	.LBB14
 2824 0579 FE010000 		.4byte	.LBE14-.LBB14
 2825 057d 11       		.uleb128 0x11
 2826 057e DE030000 		.4byte	.LASF53
 2827 0582 01       		.byte	0x1
 2828 0583 AF       		.byte	0xaf
 2829 0584 80000000 		.4byte	0x80
 2830 0588 02       		.uleb128 0x2
 2831 0589 91       		.byte	0x91
 2832 058a 58       		.sleb128 -40
 2833 058b 11       		.uleb128 0x11
 2834 058c D5000000 		.4byte	.LASF32
 2835 0590 01       		.byte	0x1
 2836 0591 B5       		.byte	0xb5
 2837 0592 80000000 		.4byte	0x80
 2838 0596 03       		.uleb128 0x3
 2839 0597 91       		.byte	0x91
 2840 0598 B07F     		.sleb128 -80
 2841 059a 00       		.byte	0
 2842 059b 00       		.byte	0
 2843 059c 00       		.byte	0
 2844 059d 0F       		.uleb128 0xf
 2845 059e AE020000 		.4byte	.LBB15
 2846 05a2 28020000 		.4byte	.LBE15-.LBB15
 2847 05a6 0E       		.uleb128 0xe
 2848 05a7 6900     		.ascii	"i\000"
 2849 05a9 01       		.byte	0x1
 2850 05aa C1       		.byte	0xc1
 2851 05ab 2C000000 		.4byte	0x2c
 2852 05af 02       		.uleb128 0x2
 2853 05b0 91       		.byte	0x91
 2854 05b1 54       		.sleb128 -44
 2855 05b2 0F       		.uleb128 0xf
 2856 05b3 B6020000 		.4byte	.LBB16
ARM GAS  C:\Users\cyu13\AppData\Local\Temp\ccOJn0nn.s 			page 58


 2857 05b7 08020000 		.4byte	.LBE16-.LBB16
 2858 05bb 11       		.uleb128 0x11
 2859 05bc 0E010000 		.4byte	.LASF54
 2860 05c0 01       		.byte	0x1
 2861 05c1 C2       		.byte	0xc2
 2862 05c2 80000000 		.4byte	0x80
 2863 05c6 02       		.uleb128 0x2
 2864 05c7 91       		.byte	0x91
 2865 05c8 48       		.sleb128 -56
 2866 05c9 11       		.uleb128 0x11
 2867 05ca 61030000 		.4byte	.LASF55
 2868 05ce 01       		.byte	0x1
 2869 05cf CC       		.byte	0xcc
 2870 05d0 80000000 		.4byte	0x80
 2871 05d4 03       		.uleb128 0x3
 2872 05d5 91       		.byte	0x91
 2873 05d6 A87F     		.sleb128 -88
 2874 05d8 0F       		.uleb128 0xf
 2875 05d9 DE020000 		.4byte	.LBB17
 2876 05dd 84010000 		.4byte	.LBE17-.LBB17
 2877 05e1 0E       		.uleb128 0xe
 2878 05e2 6A00     		.ascii	"j\000"
 2879 05e4 01       		.byte	0x1
 2880 05e5 C4       		.byte	0xc4
 2881 05e6 2C000000 		.4byte	0x2c
 2882 05ea 02       		.uleb128 0x2
 2883 05eb 91       		.byte	0x91
 2884 05ec 44       		.sleb128 -60
 2885 05ed 00       		.byte	0
 2886 05ee 00       		.byte	0
 2887 05ef 00       		.byte	0
 2888 05f0 00       		.byte	0
 2889 05f1 06       		.uleb128 0x6
 2890 05f2 80000000 		.4byte	0x80
 2891 05f6 01060000 		.4byte	0x601
 2892 05fa 07       		.uleb128 0x7
 2893 05fb 72000000 		.4byte	0x72
 2894 05ff 47       		.byte	0x47
 2895 0600 00       		.byte	0
 2896 0601 0C       		.uleb128 0xc
 2897 0602 7D020000 		.4byte	.LASF56
 2898 0606 01       		.byte	0x1
 2899 0607 D6       		.byte	0xd6
 2900 0608 80000000 		.4byte	0x80
 2901 060c 00000000 		.4byte	.LFB5
 2902 0610 D4040000 		.4byte	.LFE5-.LFB5
 2903 0614 01       		.uleb128 0x1
 2904 0615 9C       		.byte	0x9c
 2905 0616 F0070000 		.4byte	0x7f0
 2906 061a 0D       		.uleb128 0xd
 2907 061b 10000000 		.4byte	.LASF50
 2908 061f 01       		.byte	0x1
 2909 0620 D6       		.byte	0xd6
 2910 0621 85040000 		.4byte	0x485
 2911 0625 03       		.uleb128 0x3
 2912 0626 91       		.byte	0x91
 2913 0627 EC7E     		.sleb128 -148
ARM GAS  C:\Users\cyu13\AppData\Local\Temp\ccOJn0nn.s 			page 59


 2914 0629 0D       		.uleb128 0xd
 2915 062a D4010000 		.4byte	.LASF36
 2916 062e 01       		.byte	0x1
 2917 062f D6       		.byte	0xd6
 2918 0630 79030000 		.4byte	0x379
 2919 0634 03       		.uleb128 0x3
 2920 0635 91       		.byte	0x91
 2921 0636 E87E     		.sleb128 -152
 2922 0638 0D       		.uleb128 0xd
 2923 0639 B4020000 		.4byte	.LASF57
 2924 063d 01       		.byte	0x1
 2925 063e D6       		.byte	0xd6
 2926 063f F0070000 		.4byte	0x7f0
 2927 0643 03       		.uleb128 0x3
 2928 0644 91       		.byte	0x91
 2929 0645 E47E     		.sleb128 -156
 2930 0647 0D       		.uleb128 0xd
 2931 0648 37000000 		.4byte	.LASF47
 2932 064c 01       		.byte	0x1
 2933 064d D6       		.byte	0xd6
 2934 064e 80000000 		.4byte	0x80
 2935 0652 02       		.uleb128 0x2
 2936 0653 91       		.byte	0x91
 2937 0654 00       		.sleb128 0
 2938 0655 0D       		.uleb128 0xd
 2939 0656 CA030000 		.4byte	.LASF58
 2940 065a 01       		.byte	0x1
 2941 065b D6       		.byte	0xd6
 2942 065c 2C000000 		.4byte	0x2c
 2943 0660 02       		.uleb128 0x2
 2944 0661 91       		.byte	0x91
 2945 0662 08       		.sleb128 8
 2946 0663 11       		.uleb128 0x11
 2947 0664 1A010000 		.4byte	.LASF59
 2948 0668 01       		.byte	0x1
 2949 0669 D8       		.byte	0xd8
 2950 066a 2C000000 		.4byte	0x2c
 2951 066e 03       		.uleb128 0x3
 2952 066f 91       		.byte	0x91
 2953 0670 BC7F     		.sleb128 -68
 2954 0672 11       		.uleb128 0x11
 2955 0673 F2010000 		.4byte	.LASF31
 2956 0677 01       		.byte	0x1
 2957 0678 D9       		.byte	0xd9
 2958 0679 2C000000 		.4byte	0x2c
 2959 067d 03       		.uleb128 0x3
 2960 067e 91       		.byte	0x91
 2961 067f B87F     		.sleb128 -72
 2962 0681 11       		.uleb128 0x11
 2963 0682 C2020000 		.4byte	.LASF37
 2964 0686 01       		.byte	0x1
 2965 0687 DC       		.byte	0xdc
 2966 0688 80000000 		.4byte	0x80
 2967 068c 03       		.uleb128 0x3
 2968 068d 91       		.byte	0x91
 2969 068e B07F     		.sleb128 -80
 2970 0690 11       		.uleb128 0x11
ARM GAS  C:\Users\cyu13\AppData\Local\Temp\ccOJn0nn.s 			page 60


 2971 0691 C8020000 		.4byte	.LASF38
 2972 0695 01       		.byte	0x1
 2973 0696 DD       		.byte	0xdd
 2974 0697 80000000 		.4byte	0x80
 2975 069b 03       		.uleb128 0x3
 2976 069c 91       		.byte	0x91
 2977 069d A87F     		.sleb128 -88
 2978 069f 11       		.uleb128 0x11
 2979 06a0 E2020000 		.4byte	.LASF60
 2980 06a4 01       		.byte	0x1
 2981 06a5 DE       		.byte	0xde
 2982 06a6 80000000 		.4byte	0x80
 2983 06aa 03       		.uleb128 0x3
 2984 06ab 91       		.byte	0x91
 2985 06ac A07F     		.sleb128 -96
 2986 06ae 11       		.uleb128 0x11
 2987 06af D4020000 		.4byte	.LASF21
 2988 06b3 01       		.byte	0x1
 2989 06b4 DF       		.byte	0xdf
 2990 06b5 80000000 		.4byte	0x80
 2991 06b9 03       		.uleb128 0x3
 2992 06ba 91       		.byte	0x91
 2993 06bb 987F     		.sleb128 -104
 2994 06bd 11       		.uleb128 0x11
 2995 06be DB020000 		.4byte	.LASF22
 2996 06c2 01       		.byte	0x1
 2997 06c3 E0       		.byte	0xe0
 2998 06c4 80000000 		.4byte	0x80
 2999 06c8 03       		.uleb128 0x3
 3000 06c9 91       		.byte	0x91
 3001 06ca 907F     		.sleb128 -112
 3002 06cc 11       		.uleb128 0x11
 3003 06cd 1B030000 		.4byte	.LASF61
 3004 06d1 01       		.byte	0x1
 3005 06d2 E2       		.byte	0xe2
 3006 06d3 80000000 		.4byte	0x80
 3007 06d7 03       		.uleb128 0x3
 3008 06d8 91       		.byte	0x91
 3009 06d9 887F     		.sleb128 -120
 3010 06db 11       		.uleb128 0x11
 3011 06dc C8010000 		.4byte	.LASF62
 3012 06e0 01       		.byte	0x1
 3013 06e1 E3       		.byte	0xe3
 3014 06e2 2C000000 		.4byte	0x2c
 3015 06e6 03       		.uleb128 0x3
 3016 06e7 91       		.byte	0x91
 3017 06e8 847F     		.sleb128 -124
 3018 06ea 11       		.uleb128 0x11
 3019 06eb 4B030000 		.4byte	.LASF63
 3020 06ef 01       		.byte	0x1
 3021 06f0 E4       		.byte	0xe4
 3022 06f1 2C000000 		.4byte	0x2c
 3023 06f5 02       		.uleb128 0x2
 3024 06f6 91       		.byte	0x91
 3025 06f7 6C       		.sleb128 -20
 3026 06f8 0E       		.uleb128 0xe
 3027 06f9 6B5F6E00 		.ascii	"k_n\000"
ARM GAS  C:\Users\cyu13\AppData\Local\Temp\ccOJn0nn.s 			page 61


 3028 06fd 01       		.byte	0x1
 3029 06fe E5       		.byte	0xe5
 3030 06ff 2C000000 		.4byte	0x2c
 3031 0703 02       		.uleb128 0x2
 3032 0704 91       		.byte	0x91
 3033 0705 68       		.sleb128 -24
 3034 0706 0E       		.uleb128 0xe
 3035 0707 6B5F6600 		.ascii	"k_f\000"
 3036 070b 01       		.byte	0x1
 3037 070c E5       		.byte	0xe5
 3038 070d 2C000000 		.4byte	0x2c
 3039 0711 02       		.uleb128 0x2
 3040 0712 91       		.byte	0x91
 3041 0713 64       		.sleb128 -28
 3042 0714 11       		.uleb128 0x11
 3043 0715 02010000 		.4byte	.LASF64
 3044 0719 01       		.byte	0x1
 3045 071a E6       		.byte	0xe6
 3046 071b 2C000000 		.4byte	0x2c
 3047 071f 02       		.uleb128 0x2
 3048 0720 91       		.byte	0x91
 3049 0721 60       		.sleb128 -32
 3050 0722 11       		.uleb128 0x11
 3051 0723 02030000 		.4byte	.LASF65
 3052 0727 01       		.byte	0x1
 3053 0728 E7       		.byte	0xe7
 3054 0729 2C000000 		.4byte	0x2c
 3055 072d 02       		.uleb128 0x2
 3056 072e 91       		.byte	0x91
 3057 072f 5C       		.sleb128 -36
 3058 0730 11       		.uleb128 0x11
 3059 0731 FA000000 		.4byte	.LASF66
 3060 0735 01       		.byte	0x1
 3061 0736 E8       		.byte	0xe8
 3062 0737 2C000000 		.4byte	0x2c
 3063 073b 02       		.uleb128 0x2
 3064 073c 91       		.byte	0x91
 3065 073d 58       		.sleb128 -40
 3066 073e 11       		.uleb128 0x11
 3067 073f 8E030000 		.4byte	.LASF67
 3068 0743 01       		.byte	0x1
 3069 0744 E9       		.byte	0xe9
 3070 0745 80000000 		.4byte	0x80
 3071 0749 02       		.uleb128 0x2
 3072 074a 91       		.byte	0x91
 3073 074b 50       		.sleb128 -48
 3074 074c 12       		.uleb128 0x12
 3075 074d F6000000 		.4byte	.LBB18
 3076 0751 D4020000 		.4byte	.LBE18-.LBB18
 3077 0755 C5070000 		.4byte	0x7c5
 3078 0759 0E       		.uleb128 0xe
 3079 075a 6900     		.ascii	"i\000"
 3080 075c 01       		.byte	0x1
 3081 075d EC       		.byte	0xec
 3082 075e 2C000000 		.4byte	0x2c
 3083 0762 02       		.uleb128 0x2
 3084 0763 91       		.byte	0x91
ARM GAS  C:\Users\cyu13\AppData\Local\Temp\ccOJn0nn.s 			page 62


 3085 0764 4C       		.sleb128 -52
 3086 0765 0F       		.uleb128 0xf
 3087 0766 FC000000 		.4byte	.LBB19
 3088 076a BE020000 		.4byte	.LBE19-.LBB19
 3089 076e 0E       		.uleb128 0xe
 3090 076f 69647800 		.ascii	"idx\000"
 3091 0773 01       		.byte	0x1
 3092 0774 ED       		.byte	0xed
 3093 0775 2C000000 		.4byte	0x2c
 3094 0779 03       		.uleb128 0x3
 3095 077a 91       		.byte	0x91
 3096 077b 807F     		.sleb128 -128
 3097 077d 11       		.uleb128 0x11
 3098 077e 3E030000 		.4byte	.LASF68
 3099 0782 01       		.byte	0x1
 3100 0783 F0       		.byte	0xf0
 3101 0784 2C000000 		.4byte	0x2c
 3102 0788 02       		.uleb128 0x2
 3103 0789 91       		.byte	0x91
 3104 078a 48       		.sleb128 -56
 3105 078b 11       		.uleb128 0x11
 3106 078c F4000000 		.4byte	.LASF69
 3107 0790 01       		.byte	0x1
 3108 0791 F2       		.byte	0xf2
 3109 0792 80000000 		.4byte	0x80
 3110 0796 02       		.uleb128 0x2
 3111 0797 91       		.byte	0x91
 3112 0798 40       		.sleb128 -64
 3113 0799 0F       		.uleb128 0xf
 3114 079a 12020000 		.4byte	.LBB20
 3115 079e AE000000 		.4byte	.LBE20-.LBB20
 3116 07a2 14       		.uleb128 0x14
 3117 07a3 5B030000 		.4byte	.LASF70
 3118 07a7 01       		.byte	0x1
 3119 07a8 2501     		.2byte	0x125
 3120 07aa 2C000000 		.4byte	0x2c
 3121 07ae 03       		.uleb128 0x3
 3122 07af 91       		.byte	0x91
 3123 07b0 FC7E     		.sleb128 -132
 3124 07b2 14       		.uleb128 0x14
 3125 07b3 99030000 		.4byte	.LASF71
 3126 07b7 01       		.byte	0x1
 3127 07b8 2601     		.2byte	0x126
 3128 07ba 2C000000 		.4byte	0x2c
 3129 07be 03       		.uleb128 0x3
 3130 07bf 91       		.byte	0x91
 3131 07c0 F87E     		.sleb128 -136
 3132 07c2 00       		.byte	0
 3133 07c3 00       		.byte	0
 3134 07c4 00       		.byte	0
 3135 07c5 0F       		.uleb128 0xf
 3136 07c6 DE030000 		.4byte	.LBB21
 3137 07ca E2000000 		.4byte	.LBE21-.LBB21
 3138 07ce 14       		.uleb128 0x14
 3139 07cf 5B030000 		.4byte	.LASF70
 3140 07d3 01       		.byte	0x1
 3141 07d4 3C01     		.2byte	0x13c
ARM GAS  C:\Users\cyu13\AppData\Local\Temp\ccOJn0nn.s 			page 63


 3142 07d6 2C000000 		.4byte	0x2c
 3143 07da 03       		.uleb128 0x3
 3144 07db 91       		.byte	0x91
 3145 07dc F47E     		.sleb128 -140
 3146 07de 14       		.uleb128 0x14
 3147 07df 99030000 		.4byte	.LASF71
 3148 07e3 01       		.byte	0x1
 3149 07e4 3D01     		.2byte	0x13d
 3150 07e6 2C000000 		.4byte	0x2c
 3151 07ea 03       		.uleb128 0x3
 3152 07eb 91       		.byte	0x91
 3153 07ec F07E     		.sleb128 -144
 3154 07ee 00       		.byte	0
 3155 07ef 00       		.byte	0
 3156 07f0 0A       		.uleb128 0xa
 3157 07f1 04       		.byte	0x4
 3158 07f2 2C000000 		.4byte	0x2c
 3159 07f6 15       		.uleb128 0x15
 3160 07f7 B9030000 		.4byte	.LASF72
 3161 07fb 01       		.byte	0x1
 3162 07fc 4C01     		.2byte	0x14c
 3163 07fe 80000000 		.4byte	0x80
 3164 0802 00000000 		.4byte	.LFB6
 3165 0806 F4000000 		.4byte	.LFE6-.LFB6
 3166 080a 01       		.uleb128 0x1
 3167 080b 9C       		.byte	0x9c
 3168 080c 16       		.uleb128 0x16
 3169 080d 10000000 		.4byte	.LASF50
 3170 0811 01       		.byte	0x1
 3171 0812 4C01     		.2byte	0x14c
 3172 0814 85040000 		.4byte	0x485
 3173 0818 02       		.uleb128 0x2
 3174 0819 91       		.byte	0x91
 3175 081a 44       		.sleb128 -60
 3176 081b 16       		.uleb128 0x16
 3177 081c 3D000000 		.4byte	.LASF14
 3178 0820 01       		.byte	0x1
 3179 0821 4C01     		.2byte	0x14c
 3180 0823 80000000 		.4byte	0x80
 3181 0827 03       		.uleb128 0x3
 3182 0828 91       		.byte	0x91
 3183 0829 B87F     		.sleb128 -72
 3184 082b 16       		.uleb128 0x16
 3185 082c 37000000 		.4byte	.LASF47
 3186 0830 01       		.byte	0x1
 3187 0831 4C01     		.2byte	0x14c
 3188 0833 80000000 		.4byte	0x80
 3189 0837 02       		.uleb128 0x2
 3190 0838 91       		.byte	0x91
 3191 0839 00       		.sleb128 0
 3192 083a 17       		.uleb128 0x17
 3193 083b 685F6D00 		.ascii	"h_m\000"
 3194 083f 01       		.byte	0x1
 3195 0840 4C01     		.2byte	0x14c
 3196 0842 80000000 		.4byte	0x80
 3197 0846 02       		.uleb128 0x2
 3198 0847 91       		.byte	0x91
ARM GAS  C:\Users\cyu13\AppData\Local\Temp\ccOJn0nn.s 			page 64


 3199 0848 08       		.sleb128 8
 3200 0849 14       		.uleb128 0x14
 3201 084a F6030000 		.4byte	.LASF73
 3202 084e 01       		.byte	0x1
 3203 084f 4E01     		.2byte	0x14e
 3204 0851 80000000 		.4byte	0x80
 3205 0855 02       		.uleb128 0x2
 3206 0856 91       		.byte	0x91
 3207 0857 60       		.sleb128 -32
 3208 0858 14       		.uleb128 0x14
 3209 0859 E9030000 		.4byte	.LASF74
 3210 085d 01       		.byte	0x1
 3211 085e 5101     		.2byte	0x151
 3212 0860 2C000000 		.4byte	0x2c
 3213 0864 02       		.uleb128 0x2
 3214 0865 91       		.byte	0x91
 3215 0866 5C       		.sleb128 -36
 3216 0867 18       		.uleb128 0x18
 3217 0868 685F6300 		.ascii	"h_c\000"
 3218 086c 01       		.byte	0x1
 3219 086d 5401     		.2byte	0x154
 3220 086f 80000000 		.4byte	0x80
 3221 0873 02       		.uleb128 0x2
 3222 0874 91       		.byte	0x91
 3223 0875 50       		.sleb128 -48
 3224 0876 14       		.uleb128 0x14
 3225 0877 26030000 		.4byte	.LASF75
 3226 087b 01       		.byte	0x1
 3227 087c 5A01     		.2byte	0x15a
 3228 087e 80000000 		.4byte	0x80
 3229 0882 02       		.uleb128 0x2
 3230 0883 91       		.byte	0x91
 3231 0884 68       		.sleb128 -24
 3232 0885 14       		.uleb128 0x14
 3233 0886 00000000 		.4byte	.LASF76
 3234 088a 01       		.byte	0x1
 3235 088b 6001     		.2byte	0x160
 3236 088d 80000000 		.4byte	0x80
 3237 0891 02       		.uleb128 0x2
 3238 0892 91       		.byte	0x91
 3239 0893 48       		.sleb128 -56
 3240 0894 00       		.byte	0
 3241 0895 00       		.byte	0
 3242              		.section	.debug_abbrev,"",%progbits
 3243              	.Ldebug_abbrev0:
 3244 0000 01       		.uleb128 0x1
 3245 0001 11       		.uleb128 0x11
 3246 0002 01       		.byte	0x1
 3247 0003 25       		.uleb128 0x25
 3248 0004 0E       		.uleb128 0xe
 3249 0005 13       		.uleb128 0x13
 3250 0006 0B       		.uleb128 0xb
 3251 0007 03       		.uleb128 0x3
 3252 0008 0E       		.uleb128 0xe
 3253 0009 1B       		.uleb128 0x1b
 3254 000a 0E       		.uleb128 0xe
 3255 000b 55       		.uleb128 0x55
ARM GAS  C:\Users\cyu13\AppData\Local\Temp\ccOJn0nn.s 			page 65


 3256 000c 17       		.uleb128 0x17
 3257 000d 11       		.uleb128 0x11
 3258 000e 01       		.uleb128 0x1
 3259 000f 10       		.uleb128 0x10
 3260 0010 17       		.uleb128 0x17
 3261 0011 00       		.byte	0
 3262 0012 00       		.byte	0
 3263 0013 02       		.uleb128 0x2
 3264 0014 24       		.uleb128 0x24
 3265 0015 00       		.byte	0
 3266 0016 0B       		.uleb128 0xb
 3267 0017 0B       		.uleb128 0xb
 3268 0018 3E       		.uleb128 0x3e
 3269 0019 0B       		.uleb128 0xb
 3270 001a 03       		.uleb128 0x3
 3271 001b 0E       		.uleb128 0xe
 3272 001c 00       		.byte	0
 3273 001d 00       		.byte	0
 3274 001e 03       		.uleb128 0x3
 3275 001f 24       		.uleb128 0x24
 3276 0020 00       		.byte	0
 3277 0021 0B       		.uleb128 0xb
 3278 0022 0B       		.uleb128 0xb
 3279 0023 3E       		.uleb128 0x3e
 3280 0024 0B       		.uleb128 0xb
 3281 0025 03       		.uleb128 0x3
 3282 0026 08       		.uleb128 0x8
 3283 0027 00       		.byte	0
 3284 0028 00       		.byte	0
 3285 0029 04       		.uleb128 0x4
 3286 002a 13       		.uleb128 0x13
 3287 002b 01       		.byte	0x1
 3288 002c 0B       		.uleb128 0xb
 3289 002d 0B       		.uleb128 0xb
 3290 002e 3A       		.uleb128 0x3a
 3291 002f 0B       		.uleb128 0xb
 3292 0030 3B       		.uleb128 0x3b
 3293 0031 0B       		.uleb128 0xb
 3294 0032 01       		.uleb128 0x1
 3295 0033 13       		.uleb128 0x13
 3296 0034 00       		.byte	0
 3297 0035 00       		.byte	0
 3298 0036 05       		.uleb128 0x5
 3299 0037 0D       		.uleb128 0xd
 3300 0038 00       		.byte	0
 3301 0039 03       		.uleb128 0x3
 3302 003a 0E       		.uleb128 0xe
 3303 003b 3A       		.uleb128 0x3a
 3304 003c 0B       		.uleb128 0xb
 3305 003d 3B       		.uleb128 0x3b
 3306 003e 0B       		.uleb128 0xb
 3307 003f 49       		.uleb128 0x49
 3308 0040 13       		.uleb128 0x13
 3309 0041 38       		.uleb128 0x38
 3310 0042 0B       		.uleb128 0xb
 3311 0043 00       		.byte	0
 3312 0044 00       		.byte	0
ARM GAS  C:\Users\cyu13\AppData\Local\Temp\ccOJn0nn.s 			page 66


 3313 0045 06       		.uleb128 0x6
 3314 0046 01       		.uleb128 0x1
 3315 0047 01       		.byte	0x1
 3316 0048 49       		.uleb128 0x49
 3317 0049 13       		.uleb128 0x13
 3318 004a 01       		.uleb128 0x1
 3319 004b 13       		.uleb128 0x13
 3320 004c 00       		.byte	0
 3321 004d 00       		.byte	0
 3322 004e 07       		.uleb128 0x7
 3323 004f 21       		.uleb128 0x21
 3324 0050 00       		.byte	0
 3325 0051 49       		.uleb128 0x49
 3326 0052 13       		.uleb128 0x13
 3327 0053 2F       		.uleb128 0x2f
 3328 0054 0B       		.uleb128 0xb
 3329 0055 00       		.byte	0
 3330 0056 00       		.byte	0
 3331 0057 08       		.uleb128 0x8
 3332 0058 16       		.uleb128 0x16
 3333 0059 00       		.byte	0
 3334 005a 03       		.uleb128 0x3
 3335 005b 0E       		.uleb128 0xe
 3336 005c 3A       		.uleb128 0x3a
 3337 005d 0B       		.uleb128 0xb
 3338 005e 3B       		.uleb128 0x3b
 3339 005f 0B       		.uleb128 0xb
 3340 0060 49       		.uleb128 0x49
 3341 0061 13       		.uleb128 0x13
 3342 0062 00       		.byte	0
 3343 0063 00       		.byte	0
 3344 0064 09       		.uleb128 0x9
 3345 0065 0D       		.uleb128 0xd
 3346 0066 00       		.byte	0
 3347 0067 03       		.uleb128 0x3
 3348 0068 08       		.uleb128 0x8
 3349 0069 3A       		.uleb128 0x3a
 3350 006a 0B       		.uleb128 0xb
 3351 006b 3B       		.uleb128 0x3b
 3352 006c 0B       		.uleb128 0xb
 3353 006d 49       		.uleb128 0x49
 3354 006e 13       		.uleb128 0x13
 3355 006f 38       		.uleb128 0x38
 3356 0070 0B       		.uleb128 0xb
 3357 0071 00       		.byte	0
 3358 0072 00       		.byte	0
 3359 0073 0A       		.uleb128 0xa
 3360 0074 0F       		.uleb128 0xf
 3361 0075 00       		.byte	0
 3362 0076 0B       		.uleb128 0xb
 3363 0077 0B       		.uleb128 0xb
 3364 0078 49       		.uleb128 0x49
 3365 0079 13       		.uleb128 0x13
 3366 007a 00       		.byte	0
 3367 007b 00       		.byte	0
 3368 007c 0B       		.uleb128 0xb
 3369 007d 16       		.uleb128 0x16
ARM GAS  C:\Users\cyu13\AppData\Local\Temp\ccOJn0nn.s 			page 67


 3370 007e 00       		.byte	0
 3371 007f 03       		.uleb128 0x3
 3372 0080 08       		.uleb128 0x8
 3373 0081 3A       		.uleb128 0x3a
 3374 0082 0B       		.uleb128 0xb
 3375 0083 3B       		.uleb128 0x3b
 3376 0084 0B       		.uleb128 0xb
 3377 0085 49       		.uleb128 0x49
 3378 0086 13       		.uleb128 0x13
 3379 0087 00       		.byte	0
 3380 0088 00       		.byte	0
 3381 0089 0C       		.uleb128 0xc
 3382 008a 2E       		.uleb128 0x2e
 3383 008b 01       		.byte	0x1
 3384 008c 3F       		.uleb128 0x3f
 3385 008d 19       		.uleb128 0x19
 3386 008e 03       		.uleb128 0x3
 3387 008f 0E       		.uleb128 0xe
 3388 0090 3A       		.uleb128 0x3a
 3389 0091 0B       		.uleb128 0xb
 3390 0092 3B       		.uleb128 0x3b
 3391 0093 0B       		.uleb128 0xb
 3392 0094 27       		.uleb128 0x27
 3393 0095 19       		.uleb128 0x19
 3394 0096 49       		.uleb128 0x49
 3395 0097 13       		.uleb128 0x13
 3396 0098 11       		.uleb128 0x11
 3397 0099 01       		.uleb128 0x1
 3398 009a 12       		.uleb128 0x12
 3399 009b 06       		.uleb128 0x6
 3400 009c 40       		.uleb128 0x40
 3401 009d 18       		.uleb128 0x18
 3402 009e 9642     		.uleb128 0x2116
 3403 00a0 19       		.uleb128 0x19
 3404 00a1 01       		.uleb128 0x1
 3405 00a2 13       		.uleb128 0x13
 3406 00a3 00       		.byte	0
 3407 00a4 00       		.byte	0
 3408 00a5 0D       		.uleb128 0xd
 3409 00a6 05       		.uleb128 0x5
 3410 00a7 00       		.byte	0
 3411 00a8 03       		.uleb128 0x3
 3412 00a9 0E       		.uleb128 0xe
 3413 00aa 3A       		.uleb128 0x3a
 3414 00ab 0B       		.uleb128 0xb
 3415 00ac 3B       		.uleb128 0x3b
 3416 00ad 0B       		.uleb128 0xb
 3417 00ae 49       		.uleb128 0x49
 3418 00af 13       		.uleb128 0x13
 3419 00b0 02       		.uleb128 0x2
 3420 00b1 18       		.uleb128 0x18
 3421 00b2 00       		.byte	0
 3422 00b3 00       		.byte	0
 3423 00b4 0E       		.uleb128 0xe
 3424 00b5 34       		.uleb128 0x34
 3425 00b6 00       		.byte	0
 3426 00b7 03       		.uleb128 0x3
ARM GAS  C:\Users\cyu13\AppData\Local\Temp\ccOJn0nn.s 			page 68


 3427 00b8 08       		.uleb128 0x8
 3428 00b9 3A       		.uleb128 0x3a
 3429 00ba 0B       		.uleb128 0xb
 3430 00bb 3B       		.uleb128 0x3b
 3431 00bc 0B       		.uleb128 0xb
 3432 00bd 49       		.uleb128 0x49
 3433 00be 13       		.uleb128 0x13
 3434 00bf 02       		.uleb128 0x2
 3435 00c0 18       		.uleb128 0x18
 3436 00c1 00       		.byte	0
 3437 00c2 00       		.byte	0
 3438 00c3 0F       		.uleb128 0xf
 3439 00c4 0B       		.uleb128 0xb
 3440 00c5 01       		.byte	0x1
 3441 00c6 11       		.uleb128 0x11
 3442 00c7 01       		.uleb128 0x1
 3443 00c8 12       		.uleb128 0x12
 3444 00c9 06       		.uleb128 0x6
 3445 00ca 00       		.byte	0
 3446 00cb 00       		.byte	0
 3447 00cc 10       		.uleb128 0x10
 3448 00cd 05       		.uleb128 0x5
 3449 00ce 00       		.byte	0
 3450 00cf 03       		.uleb128 0x3
 3451 00d0 08       		.uleb128 0x8
 3452 00d1 3A       		.uleb128 0x3a
 3453 00d2 0B       		.uleb128 0xb
 3454 00d3 3B       		.uleb128 0x3b
 3455 00d4 0B       		.uleb128 0xb
 3456 00d5 49       		.uleb128 0x49
 3457 00d6 13       		.uleb128 0x13
 3458 00d7 02       		.uleb128 0x2
 3459 00d8 18       		.uleb128 0x18
 3460 00d9 00       		.byte	0
 3461 00da 00       		.byte	0
 3462 00db 11       		.uleb128 0x11
 3463 00dc 34       		.uleb128 0x34
 3464 00dd 00       		.byte	0
 3465 00de 03       		.uleb128 0x3
 3466 00df 0E       		.uleb128 0xe
 3467 00e0 3A       		.uleb128 0x3a
 3468 00e1 0B       		.uleb128 0xb
 3469 00e2 3B       		.uleb128 0x3b
 3470 00e3 0B       		.uleb128 0xb
 3471 00e4 49       		.uleb128 0x49
 3472 00e5 13       		.uleb128 0x13
 3473 00e6 02       		.uleb128 0x2
 3474 00e7 18       		.uleb128 0x18
 3475 00e8 00       		.byte	0
 3476 00e9 00       		.byte	0
 3477 00ea 12       		.uleb128 0x12
 3478 00eb 0B       		.uleb128 0xb
 3479 00ec 01       		.byte	0x1
 3480 00ed 11       		.uleb128 0x11
 3481 00ee 01       		.uleb128 0x1
 3482 00ef 12       		.uleb128 0x12
 3483 00f0 06       		.uleb128 0x6
ARM GAS  C:\Users\cyu13\AppData\Local\Temp\ccOJn0nn.s 			page 69


 3484 00f1 01       		.uleb128 0x1
 3485 00f2 13       		.uleb128 0x13
 3486 00f3 00       		.byte	0
 3487 00f4 00       		.byte	0
 3488 00f5 13       		.uleb128 0x13
 3489 00f6 2E       		.uleb128 0x2e
 3490 00f7 01       		.byte	0x1
 3491 00f8 3F       		.uleb128 0x3f
 3492 00f9 19       		.uleb128 0x19
 3493 00fa 03       		.uleb128 0x3
 3494 00fb 0E       		.uleb128 0xe
 3495 00fc 3A       		.uleb128 0x3a
 3496 00fd 0B       		.uleb128 0xb
 3497 00fe 3B       		.uleb128 0x3b
 3498 00ff 0B       		.uleb128 0xb
 3499 0100 27       		.uleb128 0x27
 3500 0101 19       		.uleb128 0x19
 3501 0102 11       		.uleb128 0x11
 3502 0103 01       		.uleb128 0x1
 3503 0104 12       		.uleb128 0x12
 3504 0105 06       		.uleb128 0x6
 3505 0106 40       		.uleb128 0x40
 3506 0107 18       		.uleb128 0x18
 3507 0108 9642     		.uleb128 0x2116
 3508 010a 19       		.uleb128 0x19
 3509 010b 01       		.uleb128 0x1
 3510 010c 13       		.uleb128 0x13
 3511 010d 00       		.byte	0
 3512 010e 00       		.byte	0
 3513 010f 14       		.uleb128 0x14
 3514 0110 34       		.uleb128 0x34
 3515 0111 00       		.byte	0
 3516 0112 03       		.uleb128 0x3
 3517 0113 0E       		.uleb128 0xe
 3518 0114 3A       		.uleb128 0x3a
 3519 0115 0B       		.uleb128 0xb
 3520 0116 3B       		.uleb128 0x3b
 3521 0117 05       		.uleb128 0x5
 3522 0118 49       		.uleb128 0x49
 3523 0119 13       		.uleb128 0x13
 3524 011a 02       		.uleb128 0x2
 3525 011b 18       		.uleb128 0x18
 3526 011c 00       		.byte	0
 3527 011d 00       		.byte	0
 3528 011e 15       		.uleb128 0x15
 3529 011f 2E       		.uleb128 0x2e
 3530 0120 01       		.byte	0x1
 3531 0121 3F       		.uleb128 0x3f
 3532 0122 19       		.uleb128 0x19
 3533 0123 03       		.uleb128 0x3
 3534 0124 0E       		.uleb128 0xe
 3535 0125 3A       		.uleb128 0x3a
 3536 0126 0B       		.uleb128 0xb
 3537 0127 3B       		.uleb128 0x3b
 3538 0128 05       		.uleb128 0x5
 3539 0129 27       		.uleb128 0x27
 3540 012a 19       		.uleb128 0x19
ARM GAS  C:\Users\cyu13\AppData\Local\Temp\ccOJn0nn.s 			page 70


 3541 012b 49       		.uleb128 0x49
 3542 012c 13       		.uleb128 0x13
 3543 012d 11       		.uleb128 0x11
 3544 012e 01       		.uleb128 0x1
 3545 012f 12       		.uleb128 0x12
 3546 0130 06       		.uleb128 0x6
 3547 0131 40       		.uleb128 0x40
 3548 0132 18       		.uleb128 0x18
 3549 0133 9642     		.uleb128 0x2116
 3550 0135 19       		.uleb128 0x19
 3551 0136 00       		.byte	0
 3552 0137 00       		.byte	0
 3553 0138 16       		.uleb128 0x16
 3554 0139 05       		.uleb128 0x5
 3555 013a 00       		.byte	0
 3556 013b 03       		.uleb128 0x3
 3557 013c 0E       		.uleb128 0xe
 3558 013d 3A       		.uleb128 0x3a
 3559 013e 0B       		.uleb128 0xb
 3560 013f 3B       		.uleb128 0x3b
 3561 0140 05       		.uleb128 0x5
 3562 0141 49       		.uleb128 0x49
 3563 0142 13       		.uleb128 0x13
 3564 0143 02       		.uleb128 0x2
 3565 0144 18       		.uleb128 0x18
 3566 0145 00       		.byte	0
 3567 0146 00       		.byte	0
 3568 0147 17       		.uleb128 0x17
 3569 0148 05       		.uleb128 0x5
 3570 0149 00       		.byte	0
 3571 014a 03       		.uleb128 0x3
 3572 014b 08       		.uleb128 0x8
 3573 014c 3A       		.uleb128 0x3a
 3574 014d 0B       		.uleb128 0xb
 3575 014e 3B       		.uleb128 0x3b
 3576 014f 05       		.uleb128 0x5
 3577 0150 49       		.uleb128 0x49
 3578 0151 13       		.uleb128 0x13
 3579 0152 02       		.uleb128 0x2
 3580 0153 18       		.uleb128 0x18
 3581 0154 00       		.byte	0
 3582 0155 00       		.byte	0
 3583 0156 18       		.uleb128 0x18
 3584 0157 34       		.uleb128 0x34
 3585 0158 00       		.byte	0
 3586 0159 03       		.uleb128 0x3
 3587 015a 08       		.uleb128 0x8
 3588 015b 3A       		.uleb128 0x3a
 3589 015c 0B       		.uleb128 0xb
 3590 015d 3B       		.uleb128 0x3b
 3591 015e 05       		.uleb128 0x5
 3592 015f 49       		.uleb128 0x49
 3593 0160 13       		.uleb128 0x13
 3594 0161 02       		.uleb128 0x2
 3595 0162 18       		.uleb128 0x18
 3596 0163 00       		.byte	0
 3597 0164 00       		.byte	0
ARM GAS  C:\Users\cyu13\AppData\Local\Temp\ccOJn0nn.s 			page 71


 3598 0165 00       		.byte	0
 3599              		.section	.debug_aranges,"",%progbits
 3600 0000 4C000000 		.4byte	0x4c
 3601 0004 0200     		.2byte	0x2
 3602 0006 00000000 		.4byte	.Ldebug_info0
 3603 000a 04       		.byte	0x4
 3604 000b 00       		.byte	0
 3605 000c 0000     		.2byte	0
 3606 000e 0000     		.2byte	0
 3607 0010 00000000 		.4byte	.LFB0
 3608 0014 B6000000 		.4byte	.LFE0-.LFB0
 3609 0018 00000000 		.4byte	.LFB1
 3610 001c 50030000 		.4byte	.LFE1-.LFB1
 3611 0020 00000000 		.4byte	.LFB2
 3612 0024 F8000000 		.4byte	.LFE2-.LFB2
 3613 0028 00000000 		.4byte	.LFB3
 3614 002c DC000000 		.4byte	.LFE3-.LFB3
 3615 0030 00000000 		.4byte	.LFB4
 3616 0034 E4040000 		.4byte	.LFE4-.LFB4
 3617 0038 00000000 		.4byte	.LFB5
 3618 003c D4040000 		.4byte	.LFE5-.LFB5
 3619 0040 00000000 		.4byte	.LFB6
 3620 0044 F4000000 		.4byte	.LFE6-.LFB6
 3621 0048 00000000 		.4byte	0
 3622 004c 00000000 		.4byte	0
 3623              		.section	.debug_ranges,"",%progbits
 3624              	.Ldebug_ranges0:
 3625 0000 00000000 		.4byte	.LFB0
 3626 0004 B6000000 		.4byte	.LFE0
 3627 0008 00000000 		.4byte	.LFB1
 3628 000c 50030000 		.4byte	.LFE1
 3629 0010 00000000 		.4byte	.LFB2
 3630 0014 F8000000 		.4byte	.LFE2
 3631 0018 00000000 		.4byte	.LFB3
 3632 001c DC000000 		.4byte	.LFE3
 3633 0020 00000000 		.4byte	.LFB4
 3634 0024 E4040000 		.4byte	.LFE4
 3635 0028 00000000 		.4byte	.LFB5
 3636 002c D4040000 		.4byte	.LFE5
 3637 0030 00000000 		.4byte	.LFB6
 3638 0034 F4000000 		.4byte	.LFE6
 3639 0038 00000000 		.4byte	0
 3640 003c 00000000 		.4byte	0
 3641              		.section	.debug_line,"",%progbits
 3642              	.Ldebug_line0:
 3643 0000 AE020000 		.section	.debug_str,"MS",%progbits,1
 3643      02006400 
 3643      00000201 
 3643      FB0E0D00 
 3643      01010101 
 3644              	.LASF76:
 3645 0000 73706565 		.ascii	"speed_reduction\000"
 3645      645F7265 
 3645      64756374 
 3645      696F6E00 
 3646              	.LASF50:
 3647 0010 736D6F6F 		.ascii	"smoothed_POD\000"
ARM GAS  C:\Users\cyu13\AppData\Local\Temp\ccOJn0nn.s 			page 72


 3647      74686564 
 3647      5F504F44 
 3647      00
 3648              	.LASF34:
 3649 001d 67726964 		.ascii	"grid_update\000"
 3649      5F757064 
 3649      61746500 
 3650              	.LASF44:
 3651 0029 67726964 		.ascii	"grid_i\000"
 3651      5F6900
 3652              	.LASF45:
 3653 0030 67726964 		.ascii	"grid_j\000"
 3653      5F6A00
 3654              	.LASF47:
 3655 0037 616C7068 		.ascii	"alpha\000"
 3655      6100
 3656              	.LASF14:
 3657 003d 64697265 		.ascii	"direction\000"
 3657      6374696F 
 3657      6E00
 3658              	.LASF77:
 3659 0047 474E5520 		.ascii	"GNU C11 5.4.1 20160609 (release) [ARM/embedded-5-br"
 3659      43313120 
 3659      352E342E 
 3659      31203230 
 3659      31363036 
 3660 007a 616E6368 		.ascii	"anch revision 237715] -mcpu=cortex-m3 -mthumb -g -O"
 3660      20726576 
 3660      6973696F 
 3660      6E203233 
 3660      37373135 
 3661 00ad 30202D66 		.ascii	"0 -ffunction-sections -ffat-lto-objects\000"
 3661      66756E63 
 3661      74696F6E 
 3661      2D736563 
 3661      74696F6E 
 3662              	.LASF32:
 3663 00d5 64656E73 		.ascii	"density\000"
 3663      69747900 
 3664              	.LASF9:
 3665 00dd 6C6F6E67 		.ascii	"long long unsigned int\000"
 3665      206C6F6E 
 3665      6720756E 
 3665      7369676E 
 3665      65642069 
 3666              	.LASF69:
 3667 00f4 616E676C 		.ascii	"angle\000"
 3667      6500
 3668              	.LASF66:
 3669 00fa 6D696E5F 		.ascii	"min_val\000"
 3669      76616C00 
 3670              	.LASF64:
 3671 0102 76616C6C 		.ascii	"valley_flag\000"
 3671      65795F66 
 3671      6C616700 
 3672              	.LASF54:
 3673 010e 73756D5F 		.ascii	"sum_element\000"
ARM GAS  C:\Users\cyu13\AppData\Local\Temp\ccOJn0nn.s 			page 73


 3673      656C656D 
 3673      656E7400 
 3674              	.LASF59:
 3675 011a 63616E64 		.ascii	"candidates_len\000"
 3675      69646174 
 3675      65735F6C 
 3675      656E00
 3676              	.LASF1:
 3677 0129 6C6F6E67 		.ascii	"long long int\000"
 3677      206C6F6E 
 3677      6720696E 
 3677      7400
 3678              	.LASF3:
 3679 0137 7369676E 		.ascii	"signed char\000"
 3679      65642063 
 3679      68617200 
 3680              	.LASF20:
 3681 0143 696E745F 		.ascii	"int_error\000"
 3681      6572726F 
 3681      7200
 3682              	.LASF33:
 3683 014d 67726964 		.ascii	"grid_create\000"
 3683      5F637265 
 3683      61746500 
 3684              	.LASF43:
 3685 0159 61637469 		.ascii	"active\000"
 3685      766500
 3686              	.LASF7:
 3687 0160 6C6F6E67 		.ascii	"long int\000"
 3687      20696E74 
 3687      00
 3688              	.LASF12:
 3689 0169 646F7562 		.ascii	"double\000"
 3689      6C6500
 3690              	.LASF79:
 3691 0170 433A5C55 		.ascii	"C:\\Users\\cyu13\\Desktop\\ECE4191 GitHub\\pathfind"
 3691      73657273 
 3691      5C637975 
 3691      31335C44 
 3691      65736B74 
 3692 019e 696E672D 		.ascii	"ing-vfh\\ECE4191\\DeliveryRobot.cydsn\000"
 3692      7666685C 
 3692      45434534 
 3692      3139315C 
 3692      44656C69 
 3693              	.LASF42:
 3694 01c2 6E65775F 		.ascii	"new_y\000"
 3694      7900
 3695              	.LASF62:
 3696 01c8 676F616C 		.ascii	"goal_sector\000"
 3696      5F736563 
 3696      746F7200 
 3697              	.LASF36:
 3698 01d4 726F626F 		.ascii	"robot\000"
 3698      7400
 3699              	.LASF46:
 3700 01da 706F645F 		.ascii	"pod_create\000"
ARM GAS  C:\Users\cyu13\AppData\Local\Temp\ccOJn0nn.s 			page 74


 3700      63726561 
 3700      746500
 3701              	.LASF0:
 3702 01e5 756E7369 		.ascii	"unsigned int\000"
 3702      676E6564 
 3702      20696E74 
 3702      00
 3703              	.LASF31:
 3704 01f2 6E736563 		.ascii	"nsectors\000"
 3704      746F7273 
 3704      00
 3705              	.LASF8:
 3706 01fb 6C6F6E67 		.ascii	"long unsigned int\000"
 3706      20756E73 
 3706      69676E65 
 3706      6420696E 
 3706      7400
 3707              	.LASF49:
 3708 020d 736D6F6F 		.ascii	"smoothed_POD_histogram\000"
 3708      74686564 
 3708      5F504F44 
 3708      5F686973 
 3708      746F6772 
 3709              	.LASF26:
 3710 0224 77696474 		.ascii	"width\000"
 3710      6800
 3711              	.LASF6:
 3712 022a 73686F72 		.ascii	"short unsigned int\000"
 3712      7420756E 
 3712      7369676E 
 3712      65642069 
 3712      6E7400
 3713              	.LASF17:
 3714 023d 74686574 		.ascii	"theta\000"
 3714      6100
 3715              	.LASF23:
 3716 0243 676F616C 		.ascii	"goal_min_dist\000"
 3716      5F6D696E 
 3716      5F646973 
 3716      7400
 3717              	.LASF29:
 3718 0251 63656C6C 		.ascii	"cells\000"
 3718      7300
 3719              	.LASF18:
 3720 0257 64657369 		.ascii	"desired_v\000"
 3720      7265645F 
 3720      7600
 3721              	.LASF24:
 3722 0261 53656E73 		.ascii	"Sensor\000"
 3722      6F7200
 3723              	.LASF10:
 3724 0268 73697A65 		.ascii	"sizetype\000"
 3724      74797065 
 3724      00
 3725              	.LASF2:
 3726 0271 6C6F6E67 		.ascii	"long double\000"
 3726      20646F75 
ARM GAS  C:\Users\cyu13\AppData\Local\Temp\ccOJn0nn.s 			page 75


 3726      626C6500 
 3727              	.LASF56:
 3728 027d 63616C63 		.ascii	"calculate_avoidance_angle\000"
 3728      756C6174 
 3728      655F6176 
 3728      6F696461 
 3728      6E63655F 
 3729              	.LASF52:
 3730 0297 504F445F 		.ascii	"POD_hist\000"
 3730      68697374 
 3730      00
 3731              	.LASF30:
 3732 02a0 67726964 		.ascii	"grid\000"
 3732      00
 3733              	.LASF40:
 3734 02a5 73656E73 		.ascii	"sensor_radians\000"
 3734      6F725F72 
 3734      61646961 
 3734      6E7300
 3735              	.LASF57:
 3736 02b4 63616E64 		.ascii	"candidate_lst\000"
 3736      69646174 
 3736      655F6C73 
 3736      7400
 3737              	.LASF37:
 3738 02c2 706F735F 		.ascii	"pos_x\000"
 3738      7800
 3739              	.LASF38:
 3740 02c8 706F735F 		.ascii	"pos_y\000"
 3740      7900
 3741              	.LASF13:
 3742 02ce 666C6F61 		.ascii	"float\000"
 3742      7400
 3743              	.LASF21:
 3744 02d4 676F616C 		.ascii	"goal_x\000"
 3744      5F7800
 3745              	.LASF22:
 3746 02db 676F616C 		.ascii	"goal_y\000"
 3746      5F7900
 3747              	.LASF60:
 3748 02e2 706F735F 		.ascii	"pos_yaw\000"
 3748      79617700 
 3749              	.LASF4:
 3750 02ea 756E7369 		.ascii	"unsigned char\000"
 3750      676E6564 
 3750      20636861 
 3750      7200
 3751              	.LASF5:
 3752 02f8 73686F72 		.ascii	"short int\000"
 3752      7420696E 
 3752      7400
 3753              	.LASF65:
 3754 0302 6162735F 		.ascii	"abs_sec\000"
 3754      73656300 
 3755              	.LASF16:
 3756 030a 61786C65 		.ascii	"axle_width\000"
 3756      5F776964 
ARM GAS  C:\Users\cyu13\AppData\Local\Temp\ccOJn0nn.s 			page 76


 3756      746800
 3757              	.LASF41:
 3758 0315 6E65775F 		.ascii	"new_x\000"
 3758      7800
 3759              	.LASF61:
 3760 031b 676F616C 		.ascii	"goal_angle\000"
 3760      5F616E67 
 3760      6C6500
 3761              	.LASF75:
 3762 0326 685F6363 		.ascii	"h_cc\000"
 3762      00
 3763              	.LASF51:
 3764 032b 73656374 		.ascii	"sectors\000"
 3764      6F727300 
 3765              	.LASF28:
 3766 0333 7265736F 		.ascii	"resolution\000"
 3766      6C757469 
 3766      6F6E00
 3767              	.LASF68:
 3768 033e 6D696E5F 		.ascii	"min_distance\000"
 3768      64697374 
 3768      616E6365 
 3768      00
 3769              	.LASF63:
 3770 034b 6162735F 		.ascii	"abs_min\000"
 3770      6D696E00 
 3771              	.LASF35:
 3772 0353 73656E73 		.ascii	"sensors\000"
 3772      6F727300 
 3773              	.LASF70:
 3774 035b 66697273 		.ascii	"first\000"
 3774      7400
 3775              	.LASF55:
 3776 0361 736D6F6F 		.ascii	"smoothed_element\000"
 3776      74686564 
 3776      5F656C65 
 3776      6D656E74 
 3776      00
 3777              	.LASF11:
 3778 0372 63686172 		.ascii	"char\000"
 3778      00
 3779              	.LASF39:
 3780 0377 63656C6C 		.ascii	"cell_distance\000"
 3780      5F646973 
 3780      74616E63 
 3780      6500
 3781              	.LASF15:
 3782 0385 64697374 		.ascii	"distance\000"
 3782      616E6365 
 3782      00
 3783              	.LASF67:
 3784 038e 62657374 		.ascii	"best_angle\000"
 3784      5F616E67 
 3784      6C6500
 3785              	.LASF71:
 3786 0399 6C617374 		.ascii	"last\000"
 3786      00
ARM GAS  C:\Users\cyu13\AppData\Local\Temp\ccOJn0nn.s 			page 77


 3787              	.LASF78:
 3788 039e 2E2E5C56 		.ascii	"..\\VFH\\vfh.c\000"
 3788      46485C76 
 3788      66682E63 
 3788      00
 3789              	.LASF19:
 3790 03ab 64657369 		.ascii	"desired_theta\000"
 3790      7265645F 
 3790      74686574 
 3790      6100
 3791              	.LASF72:
 3792 03b9 76656C6F 		.ascii	"velocity_control\000"
 3792      63697479 
 3792      5F636F6E 
 3792      74726F6C 
 3792      00
 3793              	.LASF58:
 3794 03ca 735F6D61 		.ascii	"s_max\000"
 3794      7800
 3795              	.LASF48:
 3796 03d0 61637469 		.ascii	"active_window\000"
 3796      76655F77 
 3796      696E646F 
 3796      7700
 3797              	.LASF53:
 3798 03de 62657461 		.ascii	"beta\000"
 3798      00
 3799              	.LASF25:
 3800 03e3 526F626F 		.ascii	"Robot\000"
 3800      7400
 3801              	.LASF74:
 3802 03e9 685F6964 		.ascii	"h_idx\000"
 3802      7800
 3803              	.LASF27:
 3804 03ef 68656967 		.ascii	"height\000"
 3804      687400
 3805              	.LASF73:
 3806 03f6 565F4D41 		.ascii	"V_MAX\000"
 3806      5800
 3807              		.ident	"GCC: (GNU Tools for ARM Embedded Processors) 5.4.1 20160609 (release) [ARM/embedded-5-bran
