ARM GAS  C:\Users\cyu13\AppData\Local\Temp\ccy2OX8b.s 			page 1


   1              		.syntax unified
   2              		.cpu cortex-m3
   3              		.fpu softvfp
   4              		.eabi_attribute 20, 1
   5              		.eabi_attribute 21, 1
   6              		.eabi_attribute 23, 3
   7              		.eabi_attribute 24, 1
   8              		.eabi_attribute 25, 1
   9              		.eabi_attribute 26, 1
  10              		.eabi_attribute 30, 6
  11              		.eabi_attribute 34, 1
  12              		.eabi_attribute 18, 4
  13              		.thumb
  14              		.syntax unified
  15              		.file	"vfh.c"
  16              		.text
  17              	.Ltext0:
  18              		.cfi_sections	.debug_frame
  19              		.global	__aeabi_dmul
  20              		.global	__aeabi_ddiv
  21              		.global	__aeabi_i2d
  22              		.global	__aeabi_d2iz
  23              		.global	__aeabi_dcmple
  24              		.section	.text.calculate_avoidance_angle,"ax",%progbits
  25              		.align	2
  26              		.global	calculate_avoidance_angle
  27              		.thumb
  28              		.thumb_func
  29              		.type	calculate_avoidance_angle, %function
  30              	calculate_avoidance_angle:
  31              	.LFB0:
  32              		.file 1 "..\\VFH\\vfh.c"
   1:..\VFH/vfh.c  **** /*
   2:..\VFH/vfh.c  **** ** Virtual Field Histogram
   3:..\VFH/vfh.c  **** **
   4:..\VFH/vfh.c  **** **
   5:..\VFH/vfh.c  **** */
   6:..\VFH/vfh.c  **** 
   7:..\VFH/vfh.c  **** #include <stdlib.h>
   8:..\VFH/vfh.c  **** #include <math.h>
   9:..\VFH/vfh.c  **** #include "vfh.h"
  10:..\VFH/vfh.c  **** 
  11:..\VFH/vfh.c  **** double calculate_avoidance_angle(histogram * hist, Robot * robot, int * candidate_lst) {
  33              		.loc 1 11 0
  34              		.cfi_startproc
  35              		@ args = 0, pretend = 0, frame = 112
  36              		@ frame_needed = 1, uses_anonymous_args = 0
  37 0000 B0B5     		push	{r4, r5, r7, lr}
  38              		.cfi_def_cfa_offset 16
  39              		.cfi_offset 4, -16
  40              		.cfi_offset 5, -12
  41              		.cfi_offset 7, -8
  42              		.cfi_offset 14, -4
  43 0002 A2B0     		sub	sp, sp, #136
  44              		.cfi_def_cfa_offset 152
  45 0004 06AF     		add	r7, sp, #24
  46              		.cfi_def_cfa 7, 128
ARM GAS  C:\Users\cyu13\AppData\Local\Temp\ccy2OX8b.s 			page 2


  47 0006 F860     		str	r0, [r7, #12]
  48 0008 B960     		str	r1, [r7, #8]
  49 000a 7A60     		str	r2, [r7, #4]
  12:..\VFH/vfh.c  ****   /* Retrieves the angle that the robot must drive towards. */
  13:..\VFH/vfh.c  ****   int s_max = 18;
  50              		.loc 1 13 0
  51 000c 1223     		movs	r3, #18
  52 000e 3B65     		str	r3, [r7, #80]
  14:..\VFH/vfh.c  ****   int valley_threshold = 3; // NEEDS TO BE ADJUSTED
  53              		.loc 1 14 0
  54 0010 0323     		movs	r3, #3
  55 0012 FB64     		str	r3, [r7, #76]
  15:..\VFH/vfh.c  ****   int lst_length = sizeof(candidate_lst) / sizeof(int);
  56              		.loc 1 15 0
  57 0014 0123     		movs	r3, #1
  58 0016 BB64     		str	r3, [r7, #72]
  16:..\VFH/vfh.c  **** 
  17:..\VFH/vfh.c  ****   // Retrive useful variables
  18:..\VFH/vfh.c  ****   double pos_x = robot->x;
  59              		.loc 1 18 0
  60 0018 BB68     		ldr	r3, [r7, #8]
  61 001a 03F11004 		add	r4, r3, #16
  62 001e D4E90034 		ldrd	r3, [r4]
  63 0022 C7E91034 		strd	r3, [r7, #64]
  19:..\VFH/vfh.c  ****   double pos_y = robot->y;
  64              		.loc 1 19 0
  65 0026 BB68     		ldr	r3, [r7, #8]
  66 0028 03F11804 		add	r4, r3, #24
  67 002c D4E90034 		ldrd	r3, [r4]
  68 0030 C7E90E34 		strd	r3, [r7, #56]
  20:..\VFH/vfh.c  ****   double pos_yaw = robot->theta;
  69              		.loc 1 20 0
  70 0034 BB68     		ldr	r3, [r7, #8]
  71 0036 03F10804 		add	r4, r3, #8
  72 003a D4E90034 		ldrd	r3, [r4]
  73 003e C7E90C34 		strd	r3, [r7, #48]
  21:..\VFH/vfh.c  ****   double goal_x = robot->goal_x;
  74              		.loc 1 21 0
  75 0042 BB68     		ldr	r3, [r7, #8]
  76 0044 03F15804 		add	r4, r3, #88
  77 0048 D4E90034 		ldrd	r3, [r4]
  78 004c C7E90A34 		strd	r3, [r7, #40]
  22:..\VFH/vfh.c  ****   double goal_y = robot->goal_y;
  79              		.loc 1 22 0
  80 0050 BB68     		ldr	r3, [r7, #8]
  81 0052 03F16004 		add	r4, r3, #96
  82 0056 D4E90034 		ldrd	r3, [r4]
  83 005a C7E90834 		strd	r3, [r7, #32]
  23:..\VFH/vfh.c  **** 
  24:..\VFH/vfh.c  ****   double goal_angle = calculate_goal_angle(pos_x, pos_y, pos_yaw, goal_x, goal_y);
  84              		.loc 1 24 0
  85 005e D7E90834 		ldrd	r3, [r7, #32]
  86 0062 CDE90434 		strd	r3, [sp, #16]
  87 0066 D7E90A34 		ldrd	r3, [r7, #40]
  88 006a CDE90234 		strd	r3, [sp, #8]
  89 006e D7E90C34 		ldrd	r3, [r7, #48]
  90 0072 CDE90034 		strd	r3, [sp]
ARM GAS  C:\Users\cyu13\AppData\Local\Temp\ccy2OX8b.s 			page 3


  91 0076 D7E90E23 		ldrd	r2, [r7, #56]
  92 007a D7E91001 		ldrd	r0, [r7, #64]
  93 007e FFF7FEFF 		bl	calculate_goal_angle
  94 0082 C7E90601 		strd	r0, [r7, #24]
  25:..\VFH/vfh.c  ****   int goal_sector = round((180 * goal_angle / M_PI) / hist->alpha);
  95              		.loc 1 25 0
  96 0086 4FF00002 		mov	r2, #0
  97 008a 994B     		ldr	r3, .L20+16
  98 008c D7E90601 		ldrd	r0, [r7, #24]
  99 0090 FFF7FEFF 		bl	__aeabi_dmul
 100 0094 0346     		mov	r3, r0
 101 0096 0C46     		mov	r4, r1
 102 0098 1846     		mov	r0, r3
 103 009a 2146     		mov	r1, r4
 104 009c 90A3     		adr	r3, .L20
 105 009e D3E90023 		ldrd	r2, [r3]
 106 00a2 FFF7FEFF 		bl	__aeabi_ddiv
 107 00a6 0346     		mov	r3, r0
 108 00a8 0C46     		mov	r4, r1
 109 00aa 2546     		mov	r5, r4
 110 00ac 1C46     		mov	r4, r3
 111 00ae FB68     		ldr	r3, [r7, #12]
 112 00b0 1B68     		ldr	r3, [r3]
 113 00b2 1846     		mov	r0, r3
 114 00b4 FFF7FEFF 		bl	__aeabi_i2d
 115 00b8 0246     		mov	r2, r0
 116 00ba 0B46     		mov	r3, r1
 117 00bc 2046     		mov	r0, r4
 118 00be 2946     		mov	r1, r5
 119 00c0 FFF7FEFF 		bl	__aeabi_ddiv
 120 00c4 0346     		mov	r3, r0
 121 00c6 0C46     		mov	r4, r1
 122 00c8 1846     		mov	r0, r3
 123 00ca 2146     		mov	r1, r4
 124 00cc FFF7FEFF 		bl	round
 125 00d0 0346     		mov	r3, r0
 126 00d2 0C46     		mov	r4, r1
 127 00d4 1846     		mov	r0, r3
 128 00d6 2146     		mov	r1, r4
 129 00d8 FFF7FEFF 		bl	__aeabi_d2iz
 130 00dc 0346     		mov	r3, r0
 131 00de 7B61     		str	r3, [r7, #20]
  26:..\VFH/vfh.c  ****   int abs_min = 1000;
 132              		.loc 1 26 0
 133 00e0 4FF47A73 		mov	r3, #1000
 134 00e4 FB66     		str	r3, [r7, #108]
 135              	.LBB2:
  27:..\VFH/vfh.c  ****   int k_n, k_f;
  28:..\VFH/vfh.c  **** 
  29:..\VFH/vfh.c  ****   for (int i = 0; i < lst_length; i++) {
 136              		.loc 1 29 0
 137 00e6 0023     		movs	r3, #0
 138 00e8 3B66     		str	r3, [r7, #96]
 139 00ea 39E0     		b	.L2
 140              	.L6:
 141              	.LBB3:
  30:..\VFH/vfh.c  ****     int idx = candidate_lst[i];
ARM GAS  C:\Users\cyu13\AppData\Local\Temp\ccy2OX8b.s 			page 4


 142              		.loc 1 30 0
 143 00ec 3B6E     		ldr	r3, [r7, #96]
 144 00ee 9B00     		lsls	r3, r3, #2
 145 00f0 7A68     		ldr	r2, [r7, #4]
 146 00f2 1344     		add	r3, r3, r2
 147 00f4 1B68     		ldr	r3, [r3]
 148 00f6 3B61     		str	r3, [r7, #16]
  31:..\VFH/vfh.c  **** 
  32:..\VFH/vfh.c  ****     // Calculating the minimum distance between the goal sector and the candidate valley
  33:..\VFH/vfh.c  ****     int min_distance;
  34:..\VFH/vfh.c  ****     if (abs(idx - goal_sector) < abs(abs(idx - goal_sector) - hist->sectors)) {
 149              		.loc 1 34 0
 150 00f8 3A69     		ldr	r2, [r7, #16]
 151 00fa 7B69     		ldr	r3, [r7, #20]
 152 00fc D31A     		subs	r3, r2, r3
 153 00fe 83EAE372 		eor	r2, r3, r3, asr #31
 154 0102 A2EBE372 		sub	r2, r2, r3, asr #31
 155 0106 3969     		ldr	r1, [r7, #16]
 156 0108 7B69     		ldr	r3, [r7, #20]
 157 010a CB1A     		subs	r3, r1, r3
 158 010c 83EAE371 		eor	r1, r3, r3, asr #31
 159 0110 A1EBE371 		sub	r1, r1, r3, asr #31
 160 0114 FB68     		ldr	r3, [r7, #12]
 161 0116 5B68     		ldr	r3, [r3, #4]
 162 0118 CB1A     		subs	r3, r1, r3
 163 011a 002B     		cmp	r3, #0
 164 011c B8BF     		it	lt
 165 011e 5B42     		rsblt	r3, r3, #0
 166 0120 9A42     		cmp	r2, r3
 167 0122 07DA     		bge	.L3
  35:..\VFH/vfh.c  ****       min_distance = abs(idx - goal_sector);
 168              		.loc 1 35 0
 169 0124 3A69     		ldr	r2, [r7, #16]
 170 0126 7B69     		ldr	r3, [r7, #20]
 171 0128 D31A     		subs	r3, r2, r3
 172 012a 002B     		cmp	r3, #0
 173 012c B8BF     		it	lt
 174 012e 5B42     		rsblt	r3, r3, #0
 175 0130 FB65     		str	r3, [r7, #92]
 176 0132 0AE0     		b	.L4
 177              	.L3:
  36:..\VFH/vfh.c  ****     } else {
  37:..\VFH/vfh.c  ****       min_distance = (abs(idx - goal_sector) - hist->sectors);
 178              		.loc 1 37 0
 179 0134 3A69     		ldr	r2, [r7, #16]
 180 0136 7B69     		ldr	r3, [r7, #20]
 181 0138 D31A     		subs	r3, r2, r3
 182 013a 83EAE372 		eor	r2, r3, r3, asr #31
 183 013e A2EBE372 		sub	r2, r2, r3, asr #31
 184 0142 FB68     		ldr	r3, [r7, #12]
 185 0144 5B68     		ldr	r3, [r3, #4]
 186 0146 D31A     		subs	r3, r2, r3
 187 0148 FB65     		str	r3, [r7, #92]
 188              	.L4:
  38:..\VFH/vfh.c  ****     }
  39:..\VFH/vfh.c  **** 
  40:..\VFH/vfh.c  ****     if (min_distance < abs_min) {
ARM GAS  C:\Users\cyu13\AppData\Local\Temp\ccy2OX8b.s 			page 5


 189              		.loc 1 40 0
 190 014a FA6D     		ldr	r2, [r7, #92]
 191 014c FB6E     		ldr	r3, [r7, #108]
 192 014e 9A42     		cmp	r2, r3
 193 0150 03DA     		bge	.L5
  41:..\VFH/vfh.c  ****       abs_min = min_distance;
 194              		.loc 1 41 0
 195 0152 FB6D     		ldr	r3, [r7, #92]
 196 0154 FB66     		str	r3, [r7, #108]
  42:..\VFH/vfh.c  ****       k_n = idx;
 197              		.loc 1 42 0
 198 0156 3B69     		ldr	r3, [r7, #16]
 199 0158 BB66     		str	r3, [r7, #104]
 200              	.L5:
 201              	.LBE3:
  29:..\VFH/vfh.c  ****     int idx = candidate_lst[i];
 202              		.loc 1 29 0 discriminator 2
 203 015a 3B6E     		ldr	r3, [r7, #96]
 204 015c 0133     		adds	r3, r3, #1
 205 015e 3B66     		str	r3, [r7, #96]
 206              	.L2:
  29:..\VFH/vfh.c  ****     int idx = candidate_lst[i];
 207              		.loc 1 29 0 is_stmt 0 discriminator 1
 208 0160 3A6E     		ldr	r2, [r7, #96]
 209 0162 BB6C     		ldr	r3, [r7, #72]
 210 0164 9A42     		cmp	r2, r3
 211 0166 C1DB     		blt	.L6
 212              	.LBE2:
  43:..\VFH/vfh.c  ****     }
  44:..\VFH/vfh.c  ****   }
  45:..\VFH/vfh.c  **** 
  46:..\VFH/vfh.c  ****   if (k_n == goal_sector) {
 213              		.loc 1 46 0 is_stmt 1
 214 0168 BA6E     		ldr	r2, [r7, #104]
 215 016a 7B69     		ldr	r3, [r7, #20]
 216 016c 9A42     		cmp	r2, r3
 217 016e 0AD1     		bne	.L7
  47:..\VFH/vfh.c  ****     return goal_sector * hist->alpha;
 218              		.loc 1 47 0
 219 0170 FB68     		ldr	r3, [r7, #12]
 220 0172 1B68     		ldr	r3, [r3]
 221 0174 7A69     		ldr	r2, [r7, #20]
 222 0176 02FB03F3 		mul	r3, r2, r3
 223 017a 1846     		mov	r0, r3
 224 017c FFF7FEFF 		bl	__aeabi_i2d
 225 0180 0346     		mov	r3, r0
 226 0182 0C46     		mov	r4, r1
 227 0184 A4E0     		b	.L8
 228              	.L7:
  48:..\VFH/vfh.c  **** 
  49:..\VFH/vfh.c  ****   } else if (k_n > goal_sector) {
 229              		.loc 1 49 0
 230 0186 BA6E     		ldr	r2, [r7, #104]
 231 0188 7B69     		ldr	r3, [r7, #20]
 232 018a 9A42     		cmp	r2, r3
 233 018c 50DD     		ble	.L9
 234              	.LBB4:
ARM GAS  C:\Users\cyu13\AppData\Local\Temp\ccy2OX8b.s 			page 6


  50:..\VFH/vfh.c  ****     // See how big the valley is and then select the middle
  51:..\VFH/vfh.c  ****     for (int i=1; i < s_max; i++) {
 235              		.loc 1 51 0
 236 018e 0123     		movs	r3, #1
 237 0190 BB65     		str	r3, [r7, #88]
 238 0192 31E0     		b	.L10
 239              	.L13:
  52:..\VFH/vfh.c  ****       if ( (hist->densities[(k_n + i) % hist->sectors] < valley_threshold) && ( ((k_n + i) % hist->
 240              		.loc 1 52 0
 241 0194 FB68     		ldr	r3, [r7, #12]
 242 0196 996A     		ldr	r1, [r3, #40]
 243 0198 BA6E     		ldr	r2, [r7, #104]
 244 019a BB6D     		ldr	r3, [r7, #88]
 245 019c 1344     		add	r3, r3, r2
 246 019e FA68     		ldr	r2, [r7, #12]
 247 01a0 5268     		ldr	r2, [r2, #4]
 248 01a2 93FBF2F0 		sdiv	r0, r3, r2
 249 01a6 02FB00F2 		mul	r2, r2, r0
 250 01aa 9B1A     		subs	r3, r3, r2
 251 01ac 9B00     		lsls	r3, r3, #2
 252 01ae 0B44     		add	r3, r3, r1
 253 01b0 1A68     		ldr	r2, [r3]
 254 01b2 FB6C     		ldr	r3, [r7, #76]
 255 01b4 9A42     		cmp	r2, r3
 256 01b6 23DA     		bge	.L11
 257              		.loc 1 52 0 is_stmt 0 discriminator 1
 258 01b8 BA6E     		ldr	r2, [r7, #104]
 259 01ba BB6D     		ldr	r3, [r7, #88]
 260 01bc 1344     		add	r3, r3, r2
 261 01be FA68     		ldr	r2, [r7, #12]
 262 01c0 5268     		ldr	r2, [r2, #4]
 263 01c2 93FBF2F1 		sdiv	r1, r3, r2
 264 01c6 02FB01F2 		mul	r2, r2, r1
 265 01ca 9B1A     		subs	r3, r3, r2
 266 01cc FA68     		ldr	r2, [r7, #12]
 267 01ce 1268     		ldr	r2, [r2]
 268 01d0 02FB03F3 		mul	r3, r2, r3
 269 01d4 1846     		mov	r0, r3
 270 01d6 FFF7FEFF 		bl	__aeabi_i2d
 271 01da 41A3     		adr	r3, .L20
 272 01dc D3E90023 		ldrd	r2, [r3]
 273 01e0 FFF7FEFF 		bl	__aeabi_dcmple
 274 01e4 0346     		mov	r3, r0
 275 01e6 002B     		cmp	r3, #0
 276 01e8 0AD0     		beq	.L11
  53:..\VFH/vfh.c  ****         k_f = k_n + i;
 277              		.loc 1 53 0 is_stmt 1 discriminator 2
 278 01ea BA6E     		ldr	r2, [r7, #104]
 279 01ec BB6D     		ldr	r3, [r7, #88]
 280 01ee 1344     		add	r3, r3, r2
 281 01f0 7B66     		str	r3, [r7, #100]
  51:..\VFH/vfh.c  ****       if ( (hist->densities[(k_n + i) % hist->sectors] < valley_threshold) && ( ((k_n + i) % hist->
 282              		.loc 1 51 0 discriminator 2
 283 01f2 BB6D     		ldr	r3, [r7, #88]
 284 01f4 0133     		adds	r3, r3, #1
 285 01f6 BB65     		str	r3, [r7, #88]
 286              	.L10:
ARM GAS  C:\Users\cyu13\AppData\Local\Temp\ccy2OX8b.s 			page 7


  51:..\VFH/vfh.c  ****       if ( (hist->densities[(k_n + i) % hist->sectors] < valley_threshold) && ( ((k_n + i) % hist->
 287              		.loc 1 51 0 is_stmt 0 discriminator 1
 288 01f8 BA6D     		ldr	r2, [r7, #88]
 289 01fa 3B6D     		ldr	r3, [r7, #80]
 290 01fc 9A42     		cmp	r2, r3
 291 01fe C9DB     		blt	.L13
 292              	.L11:
 293              	.LBE4:
  54:..\VFH/vfh.c  ****       } else {
  55:..\VFH/vfh.c  ****         break;
  56:..\VFH/vfh.c  ****       }
  57:..\VFH/vfh.c  ****     }
  58:..\VFH/vfh.c  **** 
  59:..\VFH/vfh.c  ****     return ((k_n + k_f) / 2 % hist->sectors) * hist->alpha;
 294              		.loc 1 59 0 is_stmt 1
 295 0200 BA6E     		ldr	r2, [r7, #104]
 296 0202 7B6E     		ldr	r3, [r7, #100]
 297 0204 1344     		add	r3, r3, r2
 298 0206 DA0F     		lsrs	r2, r3, #31
 299 0208 1344     		add	r3, r3, r2
 300 020a 5B10     		asrs	r3, r3, #1
 301 020c 1A46     		mov	r2, r3
 302 020e FB68     		ldr	r3, [r7, #12]
 303 0210 5B68     		ldr	r3, [r3, #4]
 304 0212 92FBF3F1 		sdiv	r1, r2, r3
 305 0216 03FB01F3 		mul	r3, r3, r1
 306 021a D31A     		subs	r3, r2, r3
 307 021c FA68     		ldr	r2, [r7, #12]
 308 021e 1268     		ldr	r2, [r2]
 309 0220 02FB03F3 		mul	r3, r2, r3
 310 0224 1846     		mov	r0, r3
 311 0226 FFF7FEFF 		bl	__aeabi_i2d
 312 022a 0346     		mov	r3, r0
 313 022c 0C46     		mov	r4, r1
 314 022e 4FE0     		b	.L8
 315              	.L9:
 316              	.LBB5:
  60:..\VFH/vfh.c  **** 
  61:..\VFH/vfh.c  ****   } else {
  62:..\VFH/vfh.c  ****     // See how big the valley is and then select the middle
  63:..\VFH/vfh.c  ****     for (int i=1; i < s_max; i++) {
 317              		.loc 1 63 0
 318 0230 0123     		movs	r3, #1
 319 0232 7B65     		str	r3, [r7, #84]
 320 0234 31E0     		b	.L14
 321              	.L17:
  64:..\VFH/vfh.c  ****       if ( (hist->densities[(k_n + i) % hist->sectors] < valley_threshold) && ( ((k_n + i) % hist->
 322              		.loc 1 64 0
 323 0236 FB68     		ldr	r3, [r7, #12]
 324 0238 996A     		ldr	r1, [r3, #40]
 325 023a BA6E     		ldr	r2, [r7, #104]
 326 023c 7B6D     		ldr	r3, [r7, #84]
 327 023e 1344     		add	r3, r3, r2
 328 0240 FA68     		ldr	r2, [r7, #12]
 329 0242 5268     		ldr	r2, [r2, #4]
 330 0244 93FBF2F0 		sdiv	r0, r3, r2
 331 0248 02FB00F2 		mul	r2, r2, r0
ARM GAS  C:\Users\cyu13\AppData\Local\Temp\ccy2OX8b.s 			page 8


 332 024c 9B1A     		subs	r3, r3, r2
 333 024e 9B00     		lsls	r3, r3, #2
 334 0250 0B44     		add	r3, r3, r1
 335 0252 1A68     		ldr	r2, [r3]
 336 0254 FB6C     		ldr	r3, [r7, #76]
 337 0256 9A42     		cmp	r2, r3
 338 0258 23DA     		bge	.L15
 339              		.loc 1 64 0 is_stmt 0 discriminator 1
 340 025a BA6E     		ldr	r2, [r7, #104]
 341 025c 7B6D     		ldr	r3, [r7, #84]
 342 025e 1344     		add	r3, r3, r2
 343 0260 FA68     		ldr	r2, [r7, #12]
 344 0262 5268     		ldr	r2, [r2, #4]
 345 0264 93FBF2F1 		sdiv	r1, r3, r2
 346 0268 02FB01F2 		mul	r2, r2, r1
 347 026c 9B1A     		subs	r3, r3, r2
 348 026e FA68     		ldr	r2, [r7, #12]
 349 0270 1268     		ldr	r2, [r2]
 350 0272 02FB03F3 		mul	r3, r2, r3
 351 0276 1846     		mov	r0, r3
 352 0278 FFF7FEFF 		bl	__aeabi_i2d
 353 027c 1AA3     		adr	r3, .L20+8
 354 027e D3E90023 		ldrd	r2, [r3]
 355 0282 FFF7FEFF 		bl	__aeabi_dcmple
 356 0286 0346     		mov	r3, r0
 357 0288 002B     		cmp	r3, #0
 358 028a 0AD0     		beq	.L15
  65:..\VFH/vfh.c  ****         k_f = k_n - i;
 359              		.loc 1 65 0 is_stmt 1 discriminator 2
 360 028c BA6E     		ldr	r2, [r7, #104]
 361 028e 7B6D     		ldr	r3, [r7, #84]
 362 0290 D31A     		subs	r3, r2, r3
 363 0292 7B66     		str	r3, [r7, #100]
  63:..\VFH/vfh.c  ****       if ( (hist->densities[(k_n + i) % hist->sectors] < valley_threshold) && ( ((k_n + i) % hist->
 364              		.loc 1 63 0 discriminator 2
 365 0294 7B6D     		ldr	r3, [r7, #84]
 366 0296 0133     		adds	r3, r3, #1
 367 0298 7B65     		str	r3, [r7, #84]
 368              	.L14:
  63:..\VFH/vfh.c  ****       if ( (hist->densities[(k_n + i) % hist->sectors] < valley_threshold) && ( ((k_n + i) % hist->
 369              		.loc 1 63 0 is_stmt 0 discriminator 1
 370 029a 7A6D     		ldr	r2, [r7, #84]
 371 029c 3B6D     		ldr	r3, [r7, #80]
 372 029e 9A42     		cmp	r2, r3
 373 02a0 C9DB     		blt	.L17
 374              	.L15:
 375              	.LBE5:
  66:..\VFH/vfh.c  ****       } else {
  67:..\VFH/vfh.c  ****         break;
  68:..\VFH/vfh.c  ****       }
  69:..\VFH/vfh.c  ****     }
  70:..\VFH/vfh.c  **** 
  71:..\VFH/vfh.c  ****     return ((k_n + k_f) / 2 % hist->sectors) * hist->alpha;
 376              		.loc 1 71 0 is_stmt 1
 377 02a2 BA6E     		ldr	r2, [r7, #104]
 378 02a4 7B6E     		ldr	r3, [r7, #100]
 379 02a6 1344     		add	r3, r3, r2
ARM GAS  C:\Users\cyu13\AppData\Local\Temp\ccy2OX8b.s 			page 9


 380 02a8 DA0F     		lsrs	r2, r3, #31
 381 02aa 1344     		add	r3, r3, r2
 382 02ac 5B10     		asrs	r3, r3, #1
 383 02ae 1A46     		mov	r2, r3
 384 02b0 FB68     		ldr	r3, [r7, #12]
 385 02b2 5B68     		ldr	r3, [r3, #4]
 386 02b4 92FBF3F1 		sdiv	r1, r2, r3
 387 02b8 03FB01F3 		mul	r3, r3, r1
 388 02bc D31A     		subs	r3, r2, r3
 389 02be FA68     		ldr	r2, [r7, #12]
 390 02c0 1268     		ldr	r2, [r2]
 391 02c2 02FB03F3 		mul	r3, r2, r3
 392 02c6 1846     		mov	r0, r3
 393 02c8 FFF7FEFF 		bl	__aeabi_i2d
 394 02cc 0346     		mov	r3, r0
 395 02ce 0C46     		mov	r4, r1
 396              	.L8:
  72:..\VFH/vfh.c  ****   }
  73:..\VFH/vfh.c  **** }
 397              		.loc 1 73 0
 398 02d0 1846     		mov	r0, r3
 399 02d2 2146     		mov	r1, r4
 400 02d4 7037     		adds	r7, r7, #112
 401              		.cfi_def_cfa_offset 16
 402 02d6 BD46     		mov	sp, r7
 403              		.cfi_def_cfa_register 13
 404              		@ sp needed
 405 02d8 B0BD     		pop	{r4, r5, r7, pc}
 406              	.L21:
 407 02da 00BFAFF3 		.align	3
 407      0080
 408              	.L20:
 409 02e0 182D4454 		.word	1413754136
 410 02e4 FB210940 		.word	1074340347
 411 02e8 D221337F 		.word	2134057426
 412 02ec 7CD90240 		.word	1073928572
 413 02f0 00806640 		.word	1080459264
 414              		.cfi_endproc
 415              	.LFE0:
 416              		.size	calculate_avoidance_angle, .-calculate_avoidance_angle
 417              		.global	__aeabi_dcmpgt
 418              		.global	__aeabi_dsub
 419              		.section	.text.velocity_control,"ax",%progbits
 420              		.align	2
 421              		.global	velocity_control
 422              		.thumb
 423              		.thumb_func
 424              		.type	velocity_control, %function
 425              	velocity_control:
 426              	.LFB1:
  74:..\VFH/vfh.c  **** 
  75:..\VFH/vfh.c  **** double velocity_control(histogram * hist, double direction) {
 427              		.loc 1 75 0
 428              		.cfi_startproc
 429              		@ args = 0, pretend = 0, frame = 64
 430              		@ frame_needed = 1, uses_anonymous_args = 0
 431 0000 B0B5     		push	{r4, r5, r7, lr}
ARM GAS  C:\Users\cyu13\AppData\Local\Temp\ccy2OX8b.s 			page 10


 432              		.cfi_def_cfa_offset 16
 433              		.cfi_offset 4, -16
 434              		.cfi_offset 5, -12
 435              		.cfi_offset 7, -8
 436              		.cfi_offset 14, -4
 437 0002 90B0     		sub	sp, sp, #64
 438              		.cfi_def_cfa_offset 80
 439 0004 00AF     		add	r7, sp, #0
 440              		.cfi_def_cfa_register 7
 441 0006 F860     		str	r0, [r7, #12]
 442 0008 C7E90023 		strd	r2, [r7]
  76:..\VFH/vfh.c  ****   // Max velocity
  77:..\VFH/vfh.c  ****   double V_MAX = 10;
 443              		.loc 1 77 0
 444 000c 4FF00003 		mov	r3, #0
 445 0010 3F4C     		ldr	r4, .L29+16
 446 0012 C7E90C34 		strd	r3, [r7, #48]
  78:..\VFH/vfh.c  **** 
  79:..\VFH/vfh.c  ****   // Convert the direction of travel into sector index
  80:..\VFH/vfh.c  ****   int h_idx = floor((180 * direction / M_PI)  / hist->alpha);
 447              		.loc 1 80 0
 448 0016 4FF00002 		mov	r2, #0
 449 001a 3E4B     		ldr	r3, .L29+20
 450 001c D7E90001 		ldrd	r0, [r7]
 451 0020 FFF7FEFF 		bl	__aeabi_dmul
 452 0024 0346     		mov	r3, r0
 453 0026 0C46     		mov	r4, r1
 454 0028 1846     		mov	r0, r3
 455 002a 2146     		mov	r1, r4
 456 002c 34A3     		adr	r3, .L29
 457 002e D3E90023 		ldrd	r2, [r3]
 458 0032 FFF7FEFF 		bl	__aeabi_ddiv
 459 0036 0346     		mov	r3, r0
 460 0038 0C46     		mov	r4, r1
 461 003a 2546     		mov	r5, r4
 462 003c 1C46     		mov	r4, r3
 463 003e FB68     		ldr	r3, [r7, #12]
 464 0040 1B68     		ldr	r3, [r3]
 465 0042 1846     		mov	r0, r3
 466 0044 FFF7FEFF 		bl	__aeabi_i2d
 467 0048 0246     		mov	r2, r0
 468 004a 0B46     		mov	r3, r1
 469 004c 2046     		mov	r0, r4
 470 004e 2946     		mov	r1, r5
 471 0050 FFF7FEFF 		bl	__aeabi_ddiv
 472 0054 0346     		mov	r3, r0
 473 0056 0C46     		mov	r4, r1
 474 0058 1846     		mov	r0, r3
 475 005a 2146     		mov	r1, r4
 476 005c FFF7FEFF 		bl	floor
 477 0060 0346     		mov	r3, r0
 478 0062 0C46     		mov	r4, r1
 479 0064 1846     		mov	r0, r3
 480 0066 2146     		mov	r1, r4
 481 0068 FFF7FEFF 		bl	__aeabi_d2iz
 482 006c 0346     		mov	r3, r0
 483 006e FB62     		str	r3, [r7, #44]
ARM GAS  C:\Users\cyu13\AppData\Local\Temp\ccy2OX8b.s 			page 11


  81:..\VFH/vfh.c  **** 
  82:..\VFH/vfh.c  ****   // Retrieve polar histogram density at this sector
  83:..\VFH/vfh.c  ****   double h_c = hist->densities[h_idx];
 484              		.loc 1 83 0
 485 0070 FB68     		ldr	r3, [r7, #12]
 486 0072 9A6A     		ldr	r2, [r3, #40]
 487 0074 FB6A     		ldr	r3, [r7, #44]
 488 0076 9B00     		lsls	r3, r3, #2
 489 0078 1344     		add	r3, r3, r2
 490 007a 1B68     		ldr	r3, [r3]
 491 007c 1846     		mov	r0, r3
 492 007e FFF7FEFF 		bl	__aeabi_i2d
 493 0082 0346     		mov	r3, r0
 494 0084 0C46     		mov	r4, r1
 495 0086 C7E90834 		strd	r3, [r7, #32]
  84:..\VFH/vfh.c  **** 
  85:..\VFH/vfh.c  ****   // NOTE: If h_c > 0, that indicates that an obstacles lies ahead of the robot
  86:..\VFH/vfh.c  **** 
  87:..\VFH/vfh.c  ****   // Define h_m which is an empirically determined constant. h_cc later must be less than h_m
  88:..\VFH/vfh.c  ****   double h_m = 123;
 496              		.loc 1 88 0
 497 008a 1FA4     		adr	r4, .L29+8
 498 008c D4E90034 		ldrd	r3, [r4]
 499 0090 C7E90634 		strd	r3, [r7, #24]
  89:..\VFH/vfh.c  **** 
  90:..\VFH/vfh.c  ****   double h_cc;
  91:..\VFH/vfh.c  ****   if (h_c > h_m) {
 500              		.loc 1 91 0
 501 0094 D7E90623 		ldrd	r2, [r7, #24]
 502 0098 D7E90801 		ldrd	r0, [r7, #32]
 503 009c FFF7FEFF 		bl	__aeabi_dcmpgt
 504 00a0 0346     		mov	r3, r0
 505 00a2 002B     		cmp	r3, #0
 506 00a4 04D0     		beq	.L28
  92:..\VFH/vfh.c  ****     h_cc = h_m;
 507              		.loc 1 92 0
 508 00a6 D7E90634 		ldrd	r3, [r7, #24]
 509 00aa C7E90E34 		strd	r3, [r7, #56]
 510 00ae 03E0     		b	.L25
 511              	.L28:
  93:..\VFH/vfh.c  ****   } else {
  94:..\VFH/vfh.c  ****     h_cc = h_c;
 512              		.loc 1 94 0
 513 00b0 D7E90834 		ldrd	r3, [r7, #32]
 514 00b4 C7E90E34 		strd	r3, [r7, #56]
 515              	.L25:
  95:..\VFH/vfh.c  ****   }
  96:..\VFH/vfh.c  ****   double speed_reduction = V_MAX * (1 - (h_cc / h_m));
 516              		.loc 1 96 0
 517 00b8 D7E90623 		ldrd	r2, [r7, #24]
 518 00bc D7E90E01 		ldrd	r0, [r7, #56]
 519 00c0 FFF7FEFF 		bl	__aeabi_ddiv
 520 00c4 0346     		mov	r3, r0
 521 00c6 0C46     		mov	r4, r1
 522 00c8 1A46     		mov	r2, r3
 523 00ca 2346     		mov	r3, r4
 524 00cc 4FF00000 		mov	r0, #0
ARM GAS  C:\Users\cyu13\AppData\Local\Temp\ccy2OX8b.s 			page 12


 525 00d0 1149     		ldr	r1, .L29+24
 526 00d2 FFF7FEFF 		bl	__aeabi_dsub
 527 00d6 0346     		mov	r3, r0
 528 00d8 0C46     		mov	r4, r1
 529 00da 1846     		mov	r0, r3
 530 00dc 2146     		mov	r1, r4
 531 00de D7E90C23 		ldrd	r2, [r7, #48]
 532 00e2 FFF7FEFF 		bl	__aeabi_dmul
 533 00e6 0346     		mov	r3, r0
 534 00e8 0C46     		mov	r4, r1
 535 00ea C7E90434 		strd	r3, [r7, #16]
  97:..\VFH/vfh.c  **** 
  98:..\VFH/vfh.c  ****   // Further reduce speed to anticipate obstacles
  99:..\VFH/vfh.c  ****   
 100:..\VFH/vfh.c  ****   return speed_reduction;
 536              		.loc 1 100 0
 537 00ee D7E90434 		ldrd	r3, [r7, #16]
 101:..\VFH/vfh.c  **** }
 538              		.loc 1 101 0
 539 00f2 1846     		mov	r0, r3
 540 00f4 2146     		mov	r1, r4
 541 00f6 4037     		adds	r7, r7, #64
 542              		.cfi_def_cfa_offset 16
 543 00f8 BD46     		mov	sp, r7
 544              		.cfi_def_cfa_register 13
 545              		@ sp needed
 546 00fa B0BD     		pop	{r4, r5, r7, pc}
 547              	.L30:
 548 00fc AFF30080 		.align	3
 549              	.L29:
 550 0100 182D4454 		.word	1413754136
 551 0104 FB210940 		.word	1074340347
 552 0108 00000000 		.word	0
 553 010c 00C05E40 		.word	1079951360
 554 0110 00002440 		.word	1076101120
 555 0114 00806640 		.word	1080459264
 556 0118 0000F03F 		.word	1072693248
 557              		.cfi_endproc
 558              	.LFE1:
 559              		.size	velocity_control, .-velocity_control
 560              		.text
 561              	.Letext0:
 562              		.file 2 "..\\VFH\\..\\Robot\\robot.h"
 563              		.file 3 "..\\VFH\\vfh.h"
 564              		.section	.debug_info,"",%progbits
 565              	.Ldebug_info0:
 566 0000 B3030000 		.4byte	0x3b3
 567 0004 0400     		.2byte	0x4
 568 0006 00000000 		.4byte	.Ldebug_abbrev0
 569 000a 04       		.byte	0x4
 570 000b 01       		.uleb128 0x1
 571 000c 54000000 		.4byte	.LASF49
 572 0010 0C       		.byte	0xc
 573 0011 D7020000 		.4byte	.LASF50
 574 0015 39010000 		.4byte	.LASF51
 575 0019 00000000 		.4byte	.Ldebug_ranges0+0
 576 001d 00000000 		.4byte	0
ARM GAS  C:\Users\cyu13\AppData\Local\Temp\ccy2OX8b.s 			page 13


 577 0021 00000000 		.4byte	.Ldebug_line0
 578 0025 02       		.uleb128 0x2
 579 0026 04       		.byte	0x4
 580 0027 07       		.byte	0x7
 581 0028 B4010000 		.4byte	.LASF0
 582 002c 03       		.uleb128 0x3
 583 002d 04       		.byte	0x4
 584 002e 05       		.byte	0x5
 585 002f 696E7400 		.ascii	"int\000"
 586 0033 02       		.uleb128 0x2
 587 0034 08       		.byte	0x8
 588 0035 05       		.byte	0x5
 589 0036 F9000000 		.4byte	.LASF1
 590 003a 02       		.uleb128 0x2
 591 003b 08       		.byte	0x8
 592 003c 04       		.byte	0x4
 593 003d 12020000 		.4byte	.LASF2
 594 0041 02       		.uleb128 0x2
 595 0042 01       		.byte	0x1
 596 0043 06       		.byte	0x6
 597 0044 07010000 		.4byte	.LASF3
 598 0048 02       		.uleb128 0x2
 599 0049 01       		.byte	0x1
 600 004a 08       		.byte	0x8
 601 004b 84020000 		.4byte	.LASF4
 602 004f 02       		.uleb128 0x2
 603 0050 02       		.byte	0x2
 604 0051 05       		.byte	0x5
 605 0052 92020000 		.4byte	.LASF5
 606 0056 02       		.uleb128 0x2
 607 0057 02       		.byte	0x2
 608 0058 07       		.byte	0x7
 609 0059 D3010000 		.4byte	.LASF6
 610 005d 02       		.uleb128 0x2
 611 005e 04       		.byte	0x4
 612 005f 05       		.byte	0x5
 613 0060 1D010000 		.4byte	.LASF7
 614 0064 02       		.uleb128 0x2
 615 0065 04       		.byte	0x4
 616 0066 07       		.byte	0x7
 617 0067 C1010000 		.4byte	.LASF8
 618 006b 02       		.uleb128 0x2
 619 006c 08       		.byte	0x8
 620 006d 07       		.byte	0x7
 621 006e E2000000 		.4byte	.LASF9
 622 0072 02       		.uleb128 0x2
 623 0073 04       		.byte	0x4
 624 0074 07       		.byte	0x7
 625 0075 09020000 		.4byte	.LASF10
 626 0079 02       		.uleb128 0x2
 627 007a 01       		.byte	0x1
 628 007b 08       		.byte	0x8
 629 007c CC020000 		.4byte	.LASF11
 630 0080 02       		.uleb128 0x2
 631 0081 08       		.byte	0x8
 632 0082 04       		.byte	0x4
 633 0083 32010000 		.4byte	.LASF12
ARM GAS  C:\Users\cyu13\AppData\Local\Temp\ccy2OX8b.s 			page 14


 634 0087 02       		.uleb128 0x2
 635 0088 04       		.byte	0x4
 636 0089 04       		.byte	0x4
 637 008a 66020000 		.4byte	.LASF13
 638 008e 04       		.uleb128 0x4
 639 008f 70       		.byte	0x70
 640 0090 02       		.byte	0x2
 641 0091 1A       		.byte	0x1a
 642 0092 35010000 		.4byte	0x135
 643 0096 05       		.uleb128 0x5
 644 0097 9C020000 		.4byte	.LASF14
 645 009b 02       		.byte	0x2
 646 009c 1C       		.byte	0x1c
 647 009d 3A000000 		.4byte	0x3a
 648 00a1 00       		.byte	0
 649 00a2 05       		.uleb128 0x5
 650 00a3 EB010000 		.4byte	.LASF15
 651 00a7 02       		.byte	0x2
 652 00a8 1F       		.byte	0x1f
 653 00a9 3A000000 		.4byte	0x3a
 654 00ad 08       		.byte	0x8
 655 00ae 06       		.uleb128 0x6
 656 00af 7800     		.ascii	"x\000"
 657 00b1 02       		.byte	0x2
 658 00b2 20       		.byte	0x20
 659 00b3 3A000000 		.4byte	0x3a
 660 00b7 10       		.byte	0x10
 661 00b8 06       		.uleb128 0x6
 662 00b9 7900     		.ascii	"y\000"
 663 00bb 02       		.byte	0x2
 664 00bc 21       		.byte	0x21
 665 00bd 3A000000 		.4byte	0x3a
 666 00c1 18       		.byte	0x18
 667 00c2 06       		.uleb128 0x6
 668 00c3 7600     		.ascii	"v\000"
 669 00c5 02       		.byte	0x2
 670 00c6 24       		.byte	0x24
 671 00c7 3A000000 		.4byte	0x3a
 672 00cb 20       		.byte	0x20
 673 00cc 06       		.uleb128 0x6
 674 00cd 7700     		.ascii	"w\000"
 675 00cf 02       		.byte	0x2
 676 00d0 25       		.byte	0x25
 677 00d1 3A000000 		.4byte	0x3a
 678 00d5 28       		.byte	0x28
 679 00d6 05       		.uleb128 0x5
 680 00d7 FF010000 		.4byte	.LASF16
 681 00db 02       		.byte	0x2
 682 00dc 28       		.byte	0x28
 683 00dd 3A000000 		.4byte	0x3a
 684 00e1 30       		.byte	0x30
 685 00e2 05       		.uleb128 0x5
 686 00e3 E4020000 		.4byte	.LASF17
 687 00e7 02       		.byte	0x2
 688 00e8 29       		.byte	0x29
 689 00e9 3A000000 		.4byte	0x3a
 690 00ed 38       		.byte	0x38
ARM GAS  C:\Users\cyu13\AppData\Local\Temp\ccy2OX8b.s 			page 15


 691 00ee 06       		.uleb128 0x6
 692 00ef 4B6900   		.ascii	"Ki\000"
 693 00f2 02       		.byte	0x2
 694 00f3 2C       		.byte	0x2c
 695 00f4 3A000000 		.4byte	0x3a
 696 00f8 40       		.byte	0x40
 697 00f9 06       		.uleb128 0x6
 698 00fa 4B7000   		.ascii	"Kp\000"
 699 00fd 02       		.byte	0x2
 700 00fe 2D       		.byte	0x2d
 701 00ff 3A000000 		.4byte	0x3a
 702 0103 48       		.byte	0x48
 703 0104 05       		.uleb128 0x5
 704 0105 13010000 		.4byte	.LASF18
 705 0109 02       		.byte	0x2
 706 010a 2E       		.byte	0x2e
 707 010b 3A000000 		.4byte	0x3a
 708 010f 50       		.byte	0x50
 709 0110 05       		.uleb128 0x5
 710 0111 6C020000 		.4byte	.LASF19
 711 0115 02       		.byte	0x2
 712 0116 31       		.byte	0x31
 713 0117 3A000000 		.4byte	0x3a
 714 011b 58       		.byte	0x58
 715 011c 05       		.uleb128 0x5
 716 011d 73020000 		.4byte	.LASF20
 717 0121 02       		.byte	0x2
 718 0122 32       		.byte	0x32
 719 0123 3A000000 		.4byte	0x3a
 720 0127 60       		.byte	0x60
 721 0128 05       		.uleb128 0x5
 722 0129 F1010000 		.4byte	.LASF21
 723 012d 02       		.byte	0x2
 724 012e 33       		.byte	0x33
 725 012f 3A000000 		.4byte	0x3a
 726 0133 68       		.byte	0x68
 727 0134 00       		.byte	0
 728 0135 07       		.uleb128 0x7
 729 0136 03030000 		.4byte	.LASF29
 730 013a 02       		.byte	0x2
 731 013b 35       		.byte	0x35
 732 013c 8E000000 		.4byte	0x8e
 733 0140 08       		.uleb128 0x8
 734 0141 04       		.byte	0x4
 735 0142 2C000000 		.4byte	0x2c
 736 0146 04       		.uleb128 0x4
 737 0147 30       		.byte	0x30
 738 0148 03       		.byte	0x3
 739 0149 31       		.byte	0x31
 740 014a A3010000 		.4byte	0x1a3
 741 014e 05       		.uleb128 0x5
 742 014f 44000000 		.4byte	.LASF22
 743 0153 03       		.byte	0x3
 744 0154 32       		.byte	0x32
 745 0155 2C000000 		.4byte	0x2c
 746 0159 00       		.byte	0
 747 015a 05       		.uleb128 0x5
ARM GAS  C:\Users\cyu13\AppData\Local\Temp\ccy2OX8b.s 			page 16


 748 015b B7020000 		.4byte	.LASF23
 749 015f 03       		.byte	0x3
 750 0160 33       		.byte	0x33
 751 0161 2C000000 		.4byte	0x2c
 752 0165 04       		.byte	0x4
 753 0166 05       		.uleb128 0x5
 754 0167 7A020000 		.4byte	.LASF24
 755 016b 03       		.byte	0x3
 756 016c 34       		.byte	0x34
 757 016d 80000000 		.4byte	0x80
 758 0171 08       		.byte	0x8
 759 0172 05       		.uleb128 0x5
 760 0173 A3010000 		.4byte	.LASF25
 761 0177 03       		.byte	0x3
 762 0178 35       		.byte	0x35
 763 0179 80000000 		.4byte	0x80
 764 017d 10       		.byte	0x10
 765 017e 05       		.uleb128 0x5
 766 017f 52020000 		.4byte	.LASF26
 767 0183 03       		.byte	0x3
 768 0184 36       		.byte	0x36
 769 0185 80000000 		.4byte	0x80
 770 0189 18       		.byte	0x18
 771 018a 05       		.uleb128 0x5
 772 018b 5C020000 		.4byte	.LASF27
 773 018f 03       		.byte	0x3
 774 0190 37       		.byte	0x37
 775 0191 80000000 		.4byte	0x80
 776 0195 20       		.byte	0x20
 777 0196 05       		.uleb128 0x5
 778 0197 93010000 		.4byte	.LASF28
 779 019b 03       		.byte	0x3
 780 019c 38       		.byte	0x38
 781 019d 40010000 		.4byte	0x140
 782 01a1 28       		.byte	0x28
 783 01a2 00       		.byte	0
 784 01a3 07       		.uleb128 0x7
 785 01a4 21000000 		.4byte	.LASF30
 786 01a8 03       		.byte	0x3
 787 01a9 39       		.byte	0x39
 788 01aa 46010000 		.4byte	0x146
 789 01ae 09       		.uleb128 0x9
 790 01af 1E020000 		.4byte	.LASF52
 791 01b3 01       		.byte	0x1
 792 01b4 0B       		.byte	0xb
 793 01b5 80000000 		.4byte	0x80
 794 01b9 00000000 		.4byte	.LFB0
 795 01bd F4020000 		.4byte	.LFE0-.LFB0
 796 01c1 01       		.uleb128 0x1
 797 01c2 9C       		.byte	0x9c
 798 01c3 22030000 		.4byte	0x322
 799 01c7 0A       		.uleb128 0xa
 800 01c8 E6010000 		.4byte	.LASF31
 801 01cc 01       		.byte	0x1
 802 01cd 0B       		.byte	0xb
 803 01ce 22030000 		.4byte	0x322
 804 01d2 03       		.uleb128 0x3
ARM GAS  C:\Users\cyu13\AppData\Local\Temp\ccy2OX8b.s 			page 17


 805 01d3 91       		.byte	0x91
 806 01d4 8C7F     		.sleb128 -116
 807 01d6 0A       		.uleb128 0xa
 808 01d7 9D010000 		.4byte	.LASF32
 809 01db 01       		.byte	0x1
 810 01dc 0B       		.byte	0xb
 811 01dd 28030000 		.4byte	0x328
 812 01e1 03       		.uleb128 0x3
 813 01e2 91       		.byte	0x91
 814 01e3 887F     		.sleb128 -120
 815 01e5 0A       		.uleb128 0xa
 816 01e6 38020000 		.4byte	.LASF33
 817 01ea 01       		.byte	0x1
 818 01eb 0B       		.byte	0xb
 819 01ec 40010000 		.4byte	0x140
 820 01f0 03       		.uleb128 0x3
 821 01f1 91       		.byte	0x91
 822 01f2 847F     		.sleb128 -124
 823 01f4 0B       		.uleb128 0xb
 824 01f5 FD020000 		.4byte	.LASF34
 825 01f9 01       		.byte	0x1
 826 01fa 0D       		.byte	0xd
 827 01fb 2C000000 		.4byte	0x2c
 828 01ff 02       		.uleb128 0x2
 829 0200 91       		.byte	0x91
 830 0201 50       		.sleb128 -48
 831 0202 0B       		.uleb128 0xb
 832 0203 00000000 		.4byte	.LASF35
 833 0207 01       		.byte	0x1
 834 0208 0E       		.byte	0xe
 835 0209 2C000000 		.4byte	0x2c
 836 020d 02       		.uleb128 0x2
 837 020e 91       		.byte	0x91
 838 020f 4C       		.sleb128 -52
 839 0210 0B       		.uleb128 0xb
 840 0211 F2020000 		.4byte	.LASF36
 841 0215 01       		.byte	0x1
 842 0216 0F       		.byte	0xf
 843 0217 2C000000 		.4byte	0x2c
 844 021b 02       		.uleb128 0x2
 845 021c 91       		.byte	0x91
 846 021d 48       		.sleb128 -56
 847 021e 0B       		.uleb128 0xb
 848 021f 46020000 		.4byte	.LASF37
 849 0223 01       		.byte	0x1
 850 0224 12       		.byte	0x12
 851 0225 80000000 		.4byte	0x80
 852 0229 02       		.uleb128 0x2
 853 022a 91       		.byte	0x91
 854 022b 40       		.sleb128 -64
 855 022c 0B       		.uleb128 0xb
 856 022d 4C020000 		.4byte	.LASF38
 857 0231 01       		.byte	0x1
 858 0232 13       		.byte	0x13
 859 0233 80000000 		.4byte	0x80
 860 0237 03       		.uleb128 0x3
 861 0238 91       		.byte	0x91
ARM GAS  C:\Users\cyu13\AppData\Local\Temp\ccy2OX8b.s 			page 18


 862 0239 B87F     		.sleb128 -72
 863 023b 0B       		.uleb128 0xb
 864 023c 8B010000 		.4byte	.LASF39
 865 0240 01       		.byte	0x1
 866 0241 14       		.byte	0x14
 867 0242 80000000 		.4byte	0x80
 868 0246 03       		.uleb128 0x3
 869 0247 91       		.byte	0x91
 870 0248 B07F     		.sleb128 -80
 871 024a 0B       		.uleb128 0xb
 872 024b 6C020000 		.4byte	.LASF19
 873 024f 01       		.byte	0x1
 874 0250 15       		.byte	0x15
 875 0251 80000000 		.4byte	0x80
 876 0255 03       		.uleb128 0x3
 877 0256 91       		.byte	0x91
 878 0257 A87F     		.sleb128 -88
 879 0259 0B       		.uleb128 0xb
 880 025a 73020000 		.4byte	.LASF20
 881 025e 01       		.byte	0x1
 882 025f 16       		.byte	0x16
 883 0260 80000000 		.4byte	0x80
 884 0264 03       		.uleb128 0x3
 885 0265 91       		.byte	0x91
 886 0266 A07F     		.sleb128 -96
 887 0268 0B       		.uleb128 0xb
 888 0269 A7020000 		.4byte	.LASF40
 889 026d 01       		.byte	0x1
 890 026e 18       		.byte	0x18
 891 026f 80000000 		.4byte	0x80
 892 0273 03       		.uleb128 0x3
 893 0274 91       		.byte	0x91
 894 0275 987F     		.sleb128 -104
 895 0277 0B       		.uleb128 0xb
 896 0278 26010000 		.4byte	.LASF41
 897 027c 01       		.byte	0x1
 898 027d 19       		.byte	0x19
 899 027e 2C000000 		.4byte	0x2c
 900 0282 03       		.uleb128 0x3
 901 0283 91       		.byte	0x91
 902 0284 947F     		.sleb128 -108
 903 0286 0B       		.uleb128 0xb
 904 0287 2B000000 		.4byte	.LASF42
 905 028b 01       		.byte	0x1
 906 028c 1A       		.byte	0x1a
 907 028d 2C000000 		.4byte	0x2c
 908 0291 02       		.uleb128 0x2
 909 0292 91       		.byte	0x91
 910 0293 6C       		.sleb128 -20
 911 0294 0C       		.uleb128 0xc
 912 0295 6B5F6E00 		.ascii	"k_n\000"
 913 0299 01       		.byte	0x1
 914 029a 1B       		.byte	0x1b
 915 029b 2C000000 		.4byte	0x2c
 916 029f 02       		.uleb128 0x2
 917 02a0 91       		.byte	0x91
 918 02a1 68       		.sleb128 -24
ARM GAS  C:\Users\cyu13\AppData\Local\Temp\ccy2OX8b.s 			page 19


 919 02a2 0C       		.uleb128 0xc
 920 02a3 6B5F6600 		.ascii	"k_f\000"
 921 02a7 01       		.byte	0x1
 922 02a8 1B       		.byte	0x1b
 923 02a9 2C000000 		.4byte	0x2c
 924 02ad 02       		.uleb128 0x2
 925 02ae 91       		.byte	0x91
 926 02af 64       		.sleb128 -28
 927 02b0 0D       		.uleb128 0xd
 928 02b1 E6000000 		.4byte	.LBB2
 929 02b5 82000000 		.4byte	.LBE2-.LBB2
 930 02b9 F1020000 		.4byte	0x2f1
 931 02bd 0C       		.uleb128 0xc
 932 02be 6900     		.ascii	"i\000"
 933 02c0 01       		.byte	0x1
 934 02c1 1D       		.byte	0x1d
 935 02c2 2C000000 		.4byte	0x2c
 936 02c6 02       		.uleb128 0x2
 937 02c7 91       		.byte	0x91
 938 02c8 60       		.sleb128 -32
 939 02c9 0E       		.uleb128 0xe
 940 02ca EC000000 		.4byte	.LBB3
 941 02ce 6E000000 		.4byte	.LBE3-.LBB3
 942 02d2 0C       		.uleb128 0xc
 943 02d3 69647800 		.ascii	"idx\000"
 944 02d7 01       		.byte	0x1
 945 02d8 1E       		.byte	0x1e
 946 02d9 2C000000 		.4byte	0x2c
 947 02dd 03       		.uleb128 0x3
 948 02de 91       		.byte	0x91
 949 02df 907F     		.sleb128 -112
 950 02e1 0B       		.uleb128 0xb
 951 02e2 BF020000 		.4byte	.LASF43
 952 02e6 01       		.byte	0x1
 953 02e7 21       		.byte	0x21
 954 02e8 2C000000 		.4byte	0x2c
 955 02ec 02       		.uleb128 0x2
 956 02ed 91       		.byte	0x91
 957 02ee 5C       		.sleb128 -36
 958 02ef 00       		.byte	0
 959 02f0 00       		.byte	0
 960 02f1 0D       		.uleb128 0xd
 961 02f2 8E010000 		.4byte	.LBB4
 962 02f6 72000000 		.4byte	.LBE4-.LBB4
 963 02fa 0B030000 		.4byte	0x30b
 964 02fe 0C       		.uleb128 0xc
 965 02ff 6900     		.ascii	"i\000"
 966 0301 01       		.byte	0x1
 967 0302 33       		.byte	0x33
 968 0303 2C000000 		.4byte	0x2c
 969 0307 02       		.uleb128 0x2
 970 0308 91       		.byte	0x91
 971 0309 58       		.sleb128 -40
 972 030a 00       		.byte	0
 973 030b 0E       		.uleb128 0xe
 974 030c 30020000 		.4byte	.LBB5
 975 0310 72000000 		.4byte	.LBE5-.LBB5
ARM GAS  C:\Users\cyu13\AppData\Local\Temp\ccy2OX8b.s 			page 20


 976 0314 0C       		.uleb128 0xc
 977 0315 6900     		.ascii	"i\000"
 978 0317 01       		.byte	0x1
 979 0318 3F       		.byte	0x3f
 980 0319 2C000000 		.4byte	0x2c
 981 031d 02       		.uleb128 0x2
 982 031e 91       		.byte	0x91
 983 031f 54       		.sleb128 -44
 984 0320 00       		.byte	0
 985 0321 00       		.byte	0
 986 0322 08       		.uleb128 0x8
 987 0323 04       		.byte	0x4
 988 0324 A3010000 		.4byte	0x1a3
 989 0328 08       		.uleb128 0x8
 990 0329 04       		.byte	0x4
 991 032a 35010000 		.4byte	0x135
 992 032e 0F       		.uleb128 0xf
 993 032f 33000000 		.4byte	.LASF53
 994 0333 01       		.byte	0x1
 995 0334 4B       		.byte	0x4b
 996 0335 80000000 		.4byte	0x80
 997 0339 00000000 		.4byte	.LFB1
 998 033d 1C010000 		.4byte	.LFE1-.LFB1
 999 0341 01       		.uleb128 0x1
 1000 0342 9C       		.byte	0x9c
 1001 0343 0A       		.uleb128 0xa
 1002 0344 E6010000 		.4byte	.LASF31
 1003 0348 01       		.byte	0x1
 1004 0349 4B       		.byte	0x4b
 1005 034a 22030000 		.4byte	0x322
 1006 034e 03       		.uleb128 0x3
 1007 034f 91       		.byte	0x91
 1008 0350 BC7F     		.sleb128 -68
 1009 0352 0A       		.uleb128 0xa
 1010 0353 4A000000 		.4byte	.LASF44
 1011 0357 01       		.byte	0x1
 1012 0358 4B       		.byte	0x4b
 1013 0359 80000000 		.4byte	0x80
 1014 035d 03       		.uleb128 0x3
 1015 035e 91       		.byte	0x91
 1016 035f B07F     		.sleb128 -80
 1017 0361 0B       		.uleb128 0xb
 1018 0362 09030000 		.4byte	.LASF45
 1019 0366 01       		.byte	0x1
 1020 0367 4D       		.byte	0x4d
 1021 0368 80000000 		.4byte	0x80
 1022 036c 02       		.uleb128 0x2
 1023 036d 91       		.byte	0x91
 1024 036e 60       		.sleb128 -32
 1025 036f 0B       		.uleb128 0xb
 1026 0370 D1020000 		.4byte	.LASF46
 1027 0374 01       		.byte	0x1
 1028 0375 50       		.byte	0x50
 1029 0376 2C000000 		.4byte	0x2c
 1030 037a 02       		.uleb128 0x2
 1031 037b 91       		.byte	0x91
 1032 037c 5C       		.sleb128 -36
ARM GAS  C:\Users\cyu13\AppData\Local\Temp\ccy2OX8b.s 			page 21


 1033 037d 0C       		.uleb128 0xc
 1034 037e 685F6300 		.ascii	"h_c\000"
 1035 0382 01       		.byte	0x1
 1036 0383 53       		.byte	0x53
 1037 0384 80000000 		.4byte	0x80
 1038 0388 02       		.uleb128 0x2
 1039 0389 91       		.byte	0x91
 1040 038a 50       		.sleb128 -48
 1041 038b 0C       		.uleb128 0xc
 1042 038c 685F6D00 		.ascii	"h_m\000"
 1043 0390 01       		.byte	0x1
 1044 0391 58       		.byte	0x58
 1045 0392 80000000 		.4byte	0x80
 1046 0396 02       		.uleb128 0x2
 1047 0397 91       		.byte	0x91
 1048 0398 48       		.sleb128 -56
 1049 0399 0B       		.uleb128 0xb
 1050 039a B2020000 		.4byte	.LASF47
 1051 039e 01       		.byte	0x1
 1052 039f 5A       		.byte	0x5a
 1053 03a0 80000000 		.4byte	0x80
 1054 03a4 02       		.uleb128 0x2
 1055 03a5 91       		.byte	0x91
 1056 03a6 68       		.sleb128 -24
 1057 03a7 0B       		.uleb128 0xb
 1058 03a8 11000000 		.4byte	.LASF48
 1059 03ac 01       		.byte	0x1
 1060 03ad 60       		.byte	0x60
 1061 03ae 80000000 		.4byte	0x80
 1062 03b2 02       		.uleb128 0x2
 1063 03b3 91       		.byte	0x91
 1064 03b4 40       		.sleb128 -64
 1065 03b5 00       		.byte	0
 1066 03b6 00       		.byte	0
 1067              		.section	.debug_abbrev,"",%progbits
 1068              	.Ldebug_abbrev0:
 1069 0000 01       		.uleb128 0x1
 1070 0001 11       		.uleb128 0x11
 1071 0002 01       		.byte	0x1
 1072 0003 25       		.uleb128 0x25
 1073 0004 0E       		.uleb128 0xe
 1074 0005 13       		.uleb128 0x13
 1075 0006 0B       		.uleb128 0xb
 1076 0007 03       		.uleb128 0x3
 1077 0008 0E       		.uleb128 0xe
 1078 0009 1B       		.uleb128 0x1b
 1079 000a 0E       		.uleb128 0xe
 1080 000b 55       		.uleb128 0x55
 1081 000c 17       		.uleb128 0x17
 1082 000d 11       		.uleb128 0x11
 1083 000e 01       		.uleb128 0x1
 1084 000f 10       		.uleb128 0x10
 1085 0010 17       		.uleb128 0x17
 1086 0011 00       		.byte	0
 1087 0012 00       		.byte	0
 1088 0013 02       		.uleb128 0x2
 1089 0014 24       		.uleb128 0x24
ARM GAS  C:\Users\cyu13\AppData\Local\Temp\ccy2OX8b.s 			page 22


 1090 0015 00       		.byte	0
 1091 0016 0B       		.uleb128 0xb
 1092 0017 0B       		.uleb128 0xb
 1093 0018 3E       		.uleb128 0x3e
 1094 0019 0B       		.uleb128 0xb
 1095 001a 03       		.uleb128 0x3
 1096 001b 0E       		.uleb128 0xe
 1097 001c 00       		.byte	0
 1098 001d 00       		.byte	0
 1099 001e 03       		.uleb128 0x3
 1100 001f 24       		.uleb128 0x24
 1101 0020 00       		.byte	0
 1102 0021 0B       		.uleb128 0xb
 1103 0022 0B       		.uleb128 0xb
 1104 0023 3E       		.uleb128 0x3e
 1105 0024 0B       		.uleb128 0xb
 1106 0025 03       		.uleb128 0x3
 1107 0026 08       		.uleb128 0x8
 1108 0027 00       		.byte	0
 1109 0028 00       		.byte	0
 1110 0029 04       		.uleb128 0x4
 1111 002a 13       		.uleb128 0x13
 1112 002b 01       		.byte	0x1
 1113 002c 0B       		.uleb128 0xb
 1114 002d 0B       		.uleb128 0xb
 1115 002e 3A       		.uleb128 0x3a
 1116 002f 0B       		.uleb128 0xb
 1117 0030 3B       		.uleb128 0x3b
 1118 0031 0B       		.uleb128 0xb
 1119 0032 01       		.uleb128 0x1
 1120 0033 13       		.uleb128 0x13
 1121 0034 00       		.byte	0
 1122 0035 00       		.byte	0
 1123 0036 05       		.uleb128 0x5
 1124 0037 0D       		.uleb128 0xd
 1125 0038 00       		.byte	0
 1126 0039 03       		.uleb128 0x3
 1127 003a 0E       		.uleb128 0xe
 1128 003b 3A       		.uleb128 0x3a
 1129 003c 0B       		.uleb128 0xb
 1130 003d 3B       		.uleb128 0x3b
 1131 003e 0B       		.uleb128 0xb
 1132 003f 49       		.uleb128 0x49
 1133 0040 13       		.uleb128 0x13
 1134 0041 38       		.uleb128 0x38
 1135 0042 0B       		.uleb128 0xb
 1136 0043 00       		.byte	0
 1137 0044 00       		.byte	0
 1138 0045 06       		.uleb128 0x6
 1139 0046 0D       		.uleb128 0xd
 1140 0047 00       		.byte	0
 1141 0048 03       		.uleb128 0x3
 1142 0049 08       		.uleb128 0x8
 1143 004a 3A       		.uleb128 0x3a
 1144 004b 0B       		.uleb128 0xb
 1145 004c 3B       		.uleb128 0x3b
 1146 004d 0B       		.uleb128 0xb
ARM GAS  C:\Users\cyu13\AppData\Local\Temp\ccy2OX8b.s 			page 23


 1147 004e 49       		.uleb128 0x49
 1148 004f 13       		.uleb128 0x13
 1149 0050 38       		.uleb128 0x38
 1150 0051 0B       		.uleb128 0xb
 1151 0052 00       		.byte	0
 1152 0053 00       		.byte	0
 1153 0054 07       		.uleb128 0x7
 1154 0055 16       		.uleb128 0x16
 1155 0056 00       		.byte	0
 1156 0057 03       		.uleb128 0x3
 1157 0058 0E       		.uleb128 0xe
 1158 0059 3A       		.uleb128 0x3a
 1159 005a 0B       		.uleb128 0xb
 1160 005b 3B       		.uleb128 0x3b
 1161 005c 0B       		.uleb128 0xb
 1162 005d 49       		.uleb128 0x49
 1163 005e 13       		.uleb128 0x13
 1164 005f 00       		.byte	0
 1165 0060 00       		.byte	0
 1166 0061 08       		.uleb128 0x8
 1167 0062 0F       		.uleb128 0xf
 1168 0063 00       		.byte	0
 1169 0064 0B       		.uleb128 0xb
 1170 0065 0B       		.uleb128 0xb
 1171 0066 49       		.uleb128 0x49
 1172 0067 13       		.uleb128 0x13
 1173 0068 00       		.byte	0
 1174 0069 00       		.byte	0
 1175 006a 09       		.uleb128 0x9
 1176 006b 2E       		.uleb128 0x2e
 1177 006c 01       		.byte	0x1
 1178 006d 3F       		.uleb128 0x3f
 1179 006e 19       		.uleb128 0x19
 1180 006f 03       		.uleb128 0x3
 1181 0070 0E       		.uleb128 0xe
 1182 0071 3A       		.uleb128 0x3a
 1183 0072 0B       		.uleb128 0xb
 1184 0073 3B       		.uleb128 0x3b
 1185 0074 0B       		.uleb128 0xb
 1186 0075 27       		.uleb128 0x27
 1187 0076 19       		.uleb128 0x19
 1188 0077 49       		.uleb128 0x49
 1189 0078 13       		.uleb128 0x13
 1190 0079 11       		.uleb128 0x11
 1191 007a 01       		.uleb128 0x1
 1192 007b 12       		.uleb128 0x12
 1193 007c 06       		.uleb128 0x6
 1194 007d 40       		.uleb128 0x40
 1195 007e 18       		.uleb128 0x18
 1196 007f 9642     		.uleb128 0x2116
 1197 0081 19       		.uleb128 0x19
 1198 0082 01       		.uleb128 0x1
 1199 0083 13       		.uleb128 0x13
 1200 0084 00       		.byte	0
 1201 0085 00       		.byte	0
 1202 0086 0A       		.uleb128 0xa
 1203 0087 05       		.uleb128 0x5
ARM GAS  C:\Users\cyu13\AppData\Local\Temp\ccy2OX8b.s 			page 24


 1204 0088 00       		.byte	0
 1205 0089 03       		.uleb128 0x3
 1206 008a 0E       		.uleb128 0xe
 1207 008b 3A       		.uleb128 0x3a
 1208 008c 0B       		.uleb128 0xb
 1209 008d 3B       		.uleb128 0x3b
 1210 008e 0B       		.uleb128 0xb
 1211 008f 49       		.uleb128 0x49
 1212 0090 13       		.uleb128 0x13
 1213 0091 02       		.uleb128 0x2
 1214 0092 18       		.uleb128 0x18
 1215 0093 00       		.byte	0
 1216 0094 00       		.byte	0
 1217 0095 0B       		.uleb128 0xb
 1218 0096 34       		.uleb128 0x34
 1219 0097 00       		.byte	0
 1220 0098 03       		.uleb128 0x3
 1221 0099 0E       		.uleb128 0xe
 1222 009a 3A       		.uleb128 0x3a
 1223 009b 0B       		.uleb128 0xb
 1224 009c 3B       		.uleb128 0x3b
 1225 009d 0B       		.uleb128 0xb
 1226 009e 49       		.uleb128 0x49
 1227 009f 13       		.uleb128 0x13
 1228 00a0 02       		.uleb128 0x2
 1229 00a1 18       		.uleb128 0x18
 1230 00a2 00       		.byte	0
 1231 00a3 00       		.byte	0
 1232 00a4 0C       		.uleb128 0xc
 1233 00a5 34       		.uleb128 0x34
 1234 00a6 00       		.byte	0
 1235 00a7 03       		.uleb128 0x3
 1236 00a8 08       		.uleb128 0x8
 1237 00a9 3A       		.uleb128 0x3a
 1238 00aa 0B       		.uleb128 0xb
 1239 00ab 3B       		.uleb128 0x3b
 1240 00ac 0B       		.uleb128 0xb
 1241 00ad 49       		.uleb128 0x49
 1242 00ae 13       		.uleb128 0x13
 1243 00af 02       		.uleb128 0x2
 1244 00b0 18       		.uleb128 0x18
 1245 00b1 00       		.byte	0
 1246 00b2 00       		.byte	0
 1247 00b3 0D       		.uleb128 0xd
 1248 00b4 0B       		.uleb128 0xb
 1249 00b5 01       		.byte	0x1
 1250 00b6 11       		.uleb128 0x11
 1251 00b7 01       		.uleb128 0x1
 1252 00b8 12       		.uleb128 0x12
 1253 00b9 06       		.uleb128 0x6
 1254 00ba 01       		.uleb128 0x1
 1255 00bb 13       		.uleb128 0x13
 1256 00bc 00       		.byte	0
 1257 00bd 00       		.byte	0
 1258 00be 0E       		.uleb128 0xe
 1259 00bf 0B       		.uleb128 0xb
 1260 00c0 01       		.byte	0x1
ARM GAS  C:\Users\cyu13\AppData\Local\Temp\ccy2OX8b.s 			page 25


 1261 00c1 11       		.uleb128 0x11
 1262 00c2 01       		.uleb128 0x1
 1263 00c3 12       		.uleb128 0x12
 1264 00c4 06       		.uleb128 0x6
 1265 00c5 00       		.byte	0
 1266 00c6 00       		.byte	0
 1267 00c7 0F       		.uleb128 0xf
 1268 00c8 2E       		.uleb128 0x2e
 1269 00c9 01       		.byte	0x1
 1270 00ca 3F       		.uleb128 0x3f
 1271 00cb 19       		.uleb128 0x19
 1272 00cc 03       		.uleb128 0x3
 1273 00cd 0E       		.uleb128 0xe
 1274 00ce 3A       		.uleb128 0x3a
 1275 00cf 0B       		.uleb128 0xb
 1276 00d0 3B       		.uleb128 0x3b
 1277 00d1 0B       		.uleb128 0xb
 1278 00d2 27       		.uleb128 0x27
 1279 00d3 19       		.uleb128 0x19
 1280 00d4 49       		.uleb128 0x49
 1281 00d5 13       		.uleb128 0x13
 1282 00d6 11       		.uleb128 0x11
 1283 00d7 01       		.uleb128 0x1
 1284 00d8 12       		.uleb128 0x12
 1285 00d9 06       		.uleb128 0x6
 1286 00da 40       		.uleb128 0x40
 1287 00db 18       		.uleb128 0x18
 1288 00dc 9642     		.uleb128 0x2116
 1289 00de 19       		.uleb128 0x19
 1290 00df 00       		.byte	0
 1291 00e0 00       		.byte	0
 1292 00e1 00       		.byte	0
 1293              		.section	.debug_aranges,"",%progbits
 1294 0000 24000000 		.4byte	0x24
 1295 0004 0200     		.2byte	0x2
 1296 0006 00000000 		.4byte	.Ldebug_info0
 1297 000a 04       		.byte	0x4
 1298 000b 00       		.byte	0
 1299 000c 0000     		.2byte	0
 1300 000e 0000     		.2byte	0
 1301 0010 00000000 		.4byte	.LFB0
 1302 0014 F4020000 		.4byte	.LFE0-.LFB0
 1303 0018 00000000 		.4byte	.LFB1
 1304 001c 1C010000 		.4byte	.LFE1-.LFB1
 1305 0020 00000000 		.4byte	0
 1306 0024 00000000 		.4byte	0
 1307              		.section	.debug_ranges,"",%progbits
 1308              	.Ldebug_ranges0:
 1309 0000 00000000 		.4byte	.LFB0
 1310 0004 F4020000 		.4byte	.LFE0
 1311 0008 00000000 		.4byte	.LFB1
 1312 000c 1C010000 		.4byte	.LFE1
 1313 0010 00000000 		.4byte	0
 1314 0014 00000000 		.4byte	0
 1315              		.section	.debug_line,"",%progbits
 1316              	.Ldebug_line0:
 1317 0000 E0000000 		.section	.debug_str,"MS",%progbits,1
ARM GAS  C:\Users\cyu13\AppData\Local\Temp\ccy2OX8b.s 			page 26


 1317      02004700 
 1317      00000201 
 1317      FB0E0D00 
 1317      01010101 
 1318              	.LASF35:
 1319 0000 76616C6C 		.ascii	"valley_threshold\000"
 1319      65795F74 
 1319      68726573 
 1319      686F6C64 
 1319      00
 1320              	.LASF48:
 1321 0011 73706565 		.ascii	"speed_reduction\000"
 1321      645F7265 
 1321      64756374 
 1321      696F6E00 
 1322              	.LASF30:
 1323 0021 68697374 		.ascii	"histogram\000"
 1323      6F677261 
 1323      6D00
 1324              	.LASF42:
 1325 002b 6162735F 		.ascii	"abs_min\000"
 1325      6D696E00 
 1326              	.LASF53:
 1327 0033 76656C6F 		.ascii	"velocity_control\000"
 1327      63697479 
 1327      5F636F6E 
 1327      74726F6C 
 1327      00
 1328              	.LASF22:
 1329 0044 616C7068 		.ascii	"alpha\000"
 1329      6100
 1330              	.LASF44:
 1331 004a 64697265 		.ascii	"direction\000"
 1331      6374696F 
 1331      6E00
 1332              	.LASF49:
 1333 0054 474E5520 		.ascii	"GNU C11 5.4.1 20160609 (release) [ARM/embedded-5-br"
 1333      43313120 
 1333      352E342E 
 1333      31203230 
 1333      31363036 
 1334 0087 616E6368 		.ascii	"anch revision 237715] -mcpu=cortex-m3 -mthumb -g -O"
 1334      20726576 
 1334      6973696F 
 1334      6E203233 
 1334      37373135 
 1335 00ba 30202D66 		.ascii	"0 -ffunction-sections -ffat-lto-objects\000"
 1335      66756E63 
 1335      74696F6E 
 1335      2D736563 
 1335      74696F6E 
 1336              	.LASF9:
 1337 00e2 6C6F6E67 		.ascii	"long long unsigned int\000"
 1337      206C6F6E 
 1337      6720756E 
 1337      7369676E 
 1337      65642069 
ARM GAS  C:\Users\cyu13\AppData\Local\Temp\ccy2OX8b.s 			page 27


 1338              	.LASF1:
 1339 00f9 6C6F6E67 		.ascii	"long long int\000"
 1339      206C6F6E 
 1339      6720696E 
 1339      7400
 1340              	.LASF3:
 1341 0107 7369676E 		.ascii	"signed char\000"
 1341      65642063 
 1341      68617200 
 1342              	.LASF18:
 1343 0113 696E745F 		.ascii	"int_error\000"
 1343      6572726F 
 1343      7200
 1344              	.LASF7:
 1345 011d 6C6F6E67 		.ascii	"long int\000"
 1345      20696E74 
 1345      00
 1346              	.LASF41:
 1347 0126 676F616C 		.ascii	"goal_sector\000"
 1347      5F736563 
 1347      746F7200 
 1348              	.LASF12:
 1349 0132 646F7562 		.ascii	"double\000"
 1349      6C6500
 1350              	.LASF51:
 1351 0139 433A5C55 		.ascii	"C:\\Users\\cyu13\\Desktop\\ECE4191 GitHub\\pathfind"
 1351      73657273 
 1351      5C637975 
 1351      31335C44 
 1351      65736B74 
 1352 0167 696E672D 		.ascii	"ing-vfh\\ECE4191\\DeliveryRobot.cydsn\000"
 1352      7666685C 
 1352      45434534 
 1352      3139315C 
 1352      44656C69 
 1353              	.LASF39:
 1354 018b 706F735F 		.ascii	"pos_yaw\000"
 1354      79617700 
 1355              	.LASF28:
 1356 0193 64656E73 		.ascii	"densities\000"
 1356      69746965 
 1356      7300
 1357              	.LASF32:
 1358 019d 726F626F 		.ascii	"robot\000"
 1358      7400
 1359              	.LASF25:
 1360 01a3 64616D70 		.ascii	"damping_constant\000"
 1360      696E675F 
 1360      636F6E73 
 1360      74616E74 
 1360      00
 1361              	.LASF0:
 1362 01b4 756E7369 		.ascii	"unsigned int\000"
 1362      676E6564 
 1362      20696E74 
 1362      00
 1363              	.LASF8:
ARM GAS  C:\Users\cyu13\AppData\Local\Temp\ccy2OX8b.s 			page 28


 1364 01c1 6C6F6E67 		.ascii	"long unsigned int\000"
 1364      20756E73 
 1364      69676E65 
 1364      6420696E 
 1364      7400
 1365              	.LASF6:
 1366 01d3 73686F72 		.ascii	"short unsigned int\000"
 1366      7420756E 
 1366      7369676E 
 1366      65642069 
 1366      6E7400
 1367              	.LASF31:
 1368 01e6 68697374 		.ascii	"hist\000"
 1368      00
 1369              	.LASF15:
 1370 01eb 74686574 		.ascii	"theta\000"
 1370      6100
 1371              	.LASF21:
 1372 01f1 676F616C 		.ascii	"goal_min_dist\000"
 1372      5F6D696E 
 1372      5F646973 
 1372      7400
 1373              	.LASF16:
 1374 01ff 64657369 		.ascii	"desired_v\000"
 1374      7265645F 
 1374      7600
 1375              	.LASF10:
 1376 0209 73697A65 		.ascii	"sizetype\000"
 1376      74797065 
 1376      00
 1377              	.LASF2:
 1378 0212 6C6F6E67 		.ascii	"long double\000"
 1378      20646F75 
 1378      626C6500 
 1379              	.LASF52:
 1380 021e 63616C63 		.ascii	"calculate_avoidance_angle\000"
 1380      756C6174 
 1380      655F6176 
 1380      6F696461 
 1380      6E63655F 
 1381              	.LASF33:
 1382 0238 63616E64 		.ascii	"candidate_lst\000"
 1382      69646174 
 1382      655F6C73 
 1382      7400
 1383              	.LASF37:
 1384 0246 706F735F 		.ascii	"pos_x\000"
 1384      7800
 1385              	.LASF38:
 1386 024c 706F735F 		.ascii	"pos_y\000"
 1386      7900
 1387              	.LASF26:
 1388 0252 64656E73 		.ascii	"density_a\000"
 1388      6974795F 
 1388      6100
 1389              	.LASF27:
 1390 025c 64656E73 		.ascii	"density_b\000"
ARM GAS  C:\Users\cyu13\AppData\Local\Temp\ccy2OX8b.s 			page 29


 1390      6974795F 
 1390      6200
 1391              	.LASF13:
 1392 0266 666C6F61 		.ascii	"float\000"
 1392      7400
 1393              	.LASF19:
 1394 026c 676F616C 		.ascii	"goal_x\000"
 1394      5F7800
 1395              	.LASF20:
 1396 0273 676F616C 		.ascii	"goal_y\000"
 1396      5F7900
 1397              	.LASF24:
 1398 027a 74687265 		.ascii	"threshold\000"
 1398      73686F6C 
 1398      6400
 1399              	.LASF4:
 1400 0284 756E7369 		.ascii	"unsigned char\000"
 1400      676E6564 
 1400      20636861 
 1400      7200
 1401              	.LASF5:
 1402 0292 73686F72 		.ascii	"short int\000"
 1402      7420696E 
 1402      7400
 1403              	.LASF14:
 1404 029c 61786C65 		.ascii	"axle_width\000"
 1404      5F776964 
 1404      746800
 1405              	.LASF40:
 1406 02a7 676F616C 		.ascii	"goal_angle\000"
 1406      5F616E67 
 1406      6C6500
 1407              	.LASF47:
 1408 02b2 685F6363 		.ascii	"h_cc\000"
 1408      00
 1409              	.LASF23:
 1410 02b7 73656374 		.ascii	"sectors\000"
 1410      6F727300 
 1411              	.LASF43:
 1412 02bf 6D696E5F 		.ascii	"min_distance\000"
 1412      64697374 
 1412      616E6365 
 1412      00
 1413              	.LASF11:
 1414 02cc 63686172 		.ascii	"char\000"
 1414      00
 1415              	.LASF46:
 1416 02d1 685F6964 		.ascii	"h_idx\000"
 1416      7800
 1417              	.LASF50:
 1418 02d7 2E2E5C56 		.ascii	"..\\VFH\\vfh.c\000"
 1418      46485C76 
 1418      66682E63 
 1418      00
 1419              	.LASF17:
 1420 02e4 64657369 		.ascii	"desired_theta\000"
 1420      7265645F 
ARM GAS  C:\Users\cyu13\AppData\Local\Temp\ccy2OX8b.s 			page 30


 1420      74686574 
 1420      6100
 1421              	.LASF36:
 1422 02f2 6C73745F 		.ascii	"lst_length\000"
 1422      6C656E67 
 1422      746800
 1423              	.LASF34:
 1424 02fd 735F6D61 		.ascii	"s_max\000"
 1424      7800
 1425              	.LASF29:
 1426 0303 526F626F 		.ascii	"Robot\000"
 1426      7400
 1427              	.LASF45:
 1428 0309 565F4D41 		.ascii	"V_MAX\000"
 1428      5800
 1429              		.ident	"GCC: (GNU Tools for ARM Embedded Processors) 5.4.1 20160609 (release) [ARM/embedded-5-bran
