ARM GAS  C:\Users\cyu13\AppData\Local\Temp\ccSGk0Me.s 			page 1


   1              		.syntax unified
   2              		.cpu cortex-m3
   3              		.fpu softvfp
   4              		.eabi_attribute 20, 1
   5              		.eabi_attribute 21, 1
   6              		.eabi_attribute 23, 3
   7              		.eabi_attribute 24, 1
   8              		.eabi_attribute 25, 1
   9              		.eabi_attribute 26, 1
  10              		.eabi_attribute 30, 6
  11              		.eabi_attribute 34, 1
  12              		.eabi_attribute 18, 4
  13              		.thumb
  14              		.syntax unified
  15              		.file	"vfh.c"
  16              		.text
  17              	.Ltext0:
  18              		.cfi_sections	.debug_frame
  19              		.section	.text.grid_create,"ax",%progbits
  20              		.align	2
  21              		.global	grid_create
  22              		.thumb
  23              		.thumb_func
  24              		.type	grid_create, %function
  25              	grid_create:
  26              	.LFB0:
  27              		.file 1 "..\\VFH\\vfh.c"
   1:..\VFH/vfh.c  **** /*
   2:..\VFH/vfh.c  **** ** Vector Field Histogram Implementation
   3:..\VFH/vfh.c  **** **  
   4:..\VFH/vfh.c  **** **
   5:..\VFH/vfh.c  **** */
   6:..\VFH/vfh.c  **** 
   7:..\VFH/vfh.c  **** #include <stdlib.h>
   8:..\VFH/vfh.c  **** #include <math.h>
   9:..\VFH/vfh.c  **** #include <assert.h>
  10:..\VFH/vfh.c  **** 
  11:..\VFH/vfh.c  **** #include "vfh.h"
  12:..\VFH/vfh.c  **** 
  13:..\VFH/vfh.c  **** /*=======================================================================*/    
  14:..\VFH/vfh.c  **** // Histogram Grid Creation Code
  15:..\VFH/vfh.c  **** 
  16:..\VFH/vfh.c  **** grid * grid_create(int width, int height, int resolution) {
  28              		.loc 1 16 0
  29              		.cfi_startproc
  30              		@ args = 0, pretend = 0, frame = 32
  31              		@ frame_needed = 1, uses_anonymous_args = 0
  32 0000 80B5     		push	{r7, lr}
  33              		.cfi_def_cfa_offset 8
  34              		.cfi_offset 7, -8
  35              		.cfi_offset 14, -4
  36 0002 88B0     		sub	sp, sp, #32
  37              		.cfi_def_cfa_offset 40
  38 0004 00AF     		add	r7, sp, #0
  39              		.cfi_def_cfa_register 7
  40 0006 F860     		str	r0, [r7, #12]
  41 0008 B960     		str	r1, [r7, #8]
ARM GAS  C:\Users\cyu13\AppData\Local\Temp\ccSGk0Me.s 			page 2


  42 000a 7A60     		str	r2, [r7, #4]
  17:..\VFH/vfh.c  ****   /* Creates a map of our arena. */
  18:..\VFH/vfh.c  **** 
  19:..\VFH/vfh.c  ****   grid * map = malloc(sizeof(grid));  // Allocate memory for grid map
  43              		.loc 1 19 0
  44 000c 1020     		movs	r0, #16
  45 000e FFF7FEFF 		bl	malloc
  46 0012 0346     		mov	r3, r0
  47 0014 7B61     		str	r3, [r7, #20]
  20:..\VFH/vfh.c  **** 
  21:..\VFH/vfh.c  ****   // Return NULL if not enough memory
  22:..\VFH/vfh.c  ****   if (map == NULL) {
  48              		.loc 1 22 0
  49 0016 7B69     		ldr	r3, [r7, #20]
  50 0018 002B     		cmp	r3, #0
  51 001a 04D1     		bne	.L2
  23:..\VFH/vfh.c  ****     free(map);
  52              		.loc 1 23 0
  53 001c 7869     		ldr	r0, [r7, #20]
  54 001e FFF7FEFF 		bl	free
  24:..\VFH/vfh.c  ****     return NULL;
  55              		.loc 1 24 0
  56 0022 0023     		movs	r3, #0
  57 0024 40E0     		b	.L3
  58              	.L2:
  25:..\VFH/vfh.c  ****   }
  26:..\VFH/vfh.c  **** 
  27:..\VFH/vfh.c  ****   // Define variables
  28:..\VFH/vfh.c  ****   map->width = width;
  59              		.loc 1 28 0
  60 0026 7B69     		ldr	r3, [r7, #20]
  61 0028 FA68     		ldr	r2, [r7, #12]
  62 002a 1A60     		str	r2, [r3]
  29:..\VFH/vfh.c  ****   map->height = height;
  63              		.loc 1 29 0
  64 002c 7B69     		ldr	r3, [r7, #20]
  65 002e BA68     		ldr	r2, [r7, #8]
  66 0030 5A60     		str	r2, [r3, #4]
  30:..\VFH/vfh.c  ****   map->resolution = resolution;
  67              		.loc 1 30 0
  68 0032 7B69     		ldr	r3, [r7, #20]
  69 0034 7A68     		ldr	r2, [r7, #4]
  70 0036 9A60     		str	r2, [r3, #8]
  31:..\VFH/vfh.c  ****   map->cells = malloc(width * height * sizeof(int));
  71              		.loc 1 31 0
  72 0038 FB68     		ldr	r3, [r7, #12]
  73 003a BA68     		ldr	r2, [r7, #8]
  74 003c 02FB03F3 		mul	r3, r2, r3
  75 0040 9B00     		lsls	r3, r3, #2
  76 0042 1846     		mov	r0, r3
  77 0044 FFF7FEFF 		bl	malloc
  78 0048 0346     		mov	r3, r0
  79 004a 1A46     		mov	r2, r3
  80 004c 7B69     		ldr	r3, [r7, #20]
  81 004e DA60     		str	r2, [r3, #12]
  32:..\VFH/vfh.c  **** 
  33:..\VFH/vfh.c  ****   // Return NULL if not enough memory
ARM GAS  C:\Users\cyu13\AppData\Local\Temp\ccSGk0Me.s 			page 3


  34:..\VFH/vfh.c  ****   if (map->cells == NULL) {
  82              		.loc 1 34 0
  83 0050 7B69     		ldr	r3, [r7, #20]
  84 0052 DB68     		ldr	r3, [r3, #12]
  85 0054 002B     		cmp	r3, #0
  86 0056 06D1     		bne	.L4
  35:..\VFH/vfh.c  ****     free(map->cells);
  87              		.loc 1 35 0
  88 0058 7B69     		ldr	r3, [r7, #20]
  89 005a DB68     		ldr	r3, [r3, #12]
  90 005c 1846     		mov	r0, r3
  91 005e FFF7FEFF 		bl	free
  36:..\VFH/vfh.c  ****     return NULL;
  92              		.loc 1 36 0
  93 0062 0023     		movs	r3, #0
  94 0064 20E0     		b	.L3
  95              	.L4:
  96              	.LBB2:
  37:..\VFH/vfh.c  ****   }
  38:..\VFH/vfh.c  **** 
  39:..\VFH/vfh.c  ****   // Define all initial grid values to be 0 as there are no obstacles
  40:..\VFH/vfh.c  ****   for (int i = 0; i < width; ++i) {
  97              		.loc 1 40 0
  98 0066 0023     		movs	r3, #0
  99 0068 FB61     		str	r3, [r7, #28]
 100 006a 18E0     		b	.L5
 101              	.L8:
 102              	.LBB3:
  41:..\VFH/vfh.c  ****     for (int j = 0; j < height; ++j) {
 103              		.loc 1 41 0
 104 006c 0023     		movs	r3, #0
 105 006e BB61     		str	r3, [r7, #24]
 106 0070 0EE0     		b	.L6
 107              	.L7:
  42:..\VFH/vfh.c  ****       map->cells[i * width + j] = 0;    // Map grid is defined as a 1D array
 108              		.loc 1 42 0 discriminator 3
 109 0072 7B69     		ldr	r3, [r7, #20]
 110 0074 DA68     		ldr	r2, [r3, #12]
 111 0076 FB69     		ldr	r3, [r7, #28]
 112 0078 F968     		ldr	r1, [r7, #12]
 113 007a 01FB03F1 		mul	r1, r1, r3
 114 007e BB69     		ldr	r3, [r7, #24]
 115 0080 0B44     		add	r3, r3, r1
 116 0082 9B00     		lsls	r3, r3, #2
 117 0084 1344     		add	r3, r3, r2
 118 0086 0022     		movs	r2, #0
 119 0088 1A60     		str	r2, [r3]
  41:..\VFH/vfh.c  ****     for (int j = 0; j < height; ++j) {
 120              		.loc 1 41 0 discriminator 3
 121 008a BB69     		ldr	r3, [r7, #24]
 122 008c 0133     		adds	r3, r3, #1
 123 008e BB61     		str	r3, [r7, #24]
 124              	.L6:
  41:..\VFH/vfh.c  ****     for (int j = 0; j < height; ++j) {
 125              		.loc 1 41 0 is_stmt 0 discriminator 1
 126 0090 BA69     		ldr	r2, [r7, #24]
 127 0092 BB68     		ldr	r3, [r7, #8]
ARM GAS  C:\Users\cyu13\AppData\Local\Temp\ccSGk0Me.s 			page 4


 128 0094 9A42     		cmp	r2, r3
 129 0096 ECDB     		blt	.L7
 130              	.LBE3:
  40:..\VFH/vfh.c  ****     for (int j = 0; j < height; ++j) {
 131              		.loc 1 40 0 is_stmt 1 discriminator 2
 132 0098 FB69     		ldr	r3, [r7, #28]
 133 009a 0133     		adds	r3, r3, #1
 134 009c FB61     		str	r3, [r7, #28]
 135              	.L5:
  40:..\VFH/vfh.c  ****     for (int j = 0; j < height; ++j) {
 136              		.loc 1 40 0 is_stmt 0 discriminator 1
 137 009e FA69     		ldr	r2, [r7, #28]
 138 00a0 FB68     		ldr	r3, [r7, #12]
 139 00a2 9A42     		cmp	r2, r3
 140 00a4 E2DB     		blt	.L8
 141              	.LBE2:
  43:..\VFH/vfh.c  ****     }
  44:..\VFH/vfh.c  ****   }
  45:..\VFH/vfh.c  **** 
  46:..\VFH/vfh.c  ****   return map;
 142              		.loc 1 46 0 is_stmt 1
 143 00a6 7B69     		ldr	r3, [r7, #20]
 144              	.L3:
  47:..\VFH/vfh.c  **** }
 145              		.loc 1 47 0
 146 00a8 1846     		mov	r0, r3
 147 00aa 2037     		adds	r7, r7, #32
 148              		.cfi_def_cfa_offset 8
 149 00ac BD46     		mov	sp, r7
 150              		.cfi_def_cfa_register 13
 151              		@ sp needed
 152 00ae 80BD     		pop	{r7, pc}
 153              		.cfi_endproc
 154              	.LFE0:
 155              		.size	grid_create, .-grid_create
 156              		.global	__aeabi_i2d
 157              		.global	__aeabi_dmul
 158              		.global	__aeabi_ddiv
 159              		.global	__aeabi_dadd
 160              		.global	__aeabi_dcmplt
 161              		.global	__aeabi_dcmpge
 162              		.global	__aeabi_dsub
 163              		.global	__aeabi_dcmpgt
 164              		.global	__aeabi_d2iz
 165              		.section	.text.grid_update,"ax",%progbits
 166              		.align	2
 167              		.global	grid_update
 168              		.thumb
 169              		.thumb_func
 170              		.type	grid_update, %function
 171              	grid_update:
 172              	.LFB1:
  48:..\VFH/vfh.c  **** 
  49:..\VFH/vfh.c  **** int grid_update(grid * map, Sensor * sensors, Robot * robot) {
 173              		.loc 1 49 0
 174              		.cfi_startproc
 175              		@ args = 0, pretend = 0, frame = 168
ARM GAS  C:\Users\cyu13\AppData\Local\Temp\ccSGk0Me.s 			page 5


 176              		@ frame_needed = 1, uses_anonymous_args = 0
 177 0000 2DE9F043 		push	{r4, r5, r6, r7, r8, r9, lr}
 178              		.cfi_def_cfa_offset 28
 179              		.cfi_offset 4, -28
 180              		.cfi_offset 5, -24
 181              		.cfi_offset 6, -20
 182              		.cfi_offset 7, -16
 183              		.cfi_offset 8, -12
 184              		.cfi_offset 9, -8
 185              		.cfi_offset 14, -4
 186 0004 ABB0     		sub	sp, sp, #172
 187              		.cfi_def_cfa_offset 200
 188 0006 00AF     		add	r7, sp, #0
 189              		.cfi_def_cfa_register 7
 190 0008 F860     		str	r0, [r7, #12]
 191 000a B960     		str	r1, [r7, #8]
 192 000c 7A60     		str	r2, [r7, #4]
  50:..\VFH/vfh.c  ****   /*
  51:..\VFH/vfh.c  ****    * Updates Histogram with detected obstacles.
  52:..\VFH/vfh.c  ****    * Takes robot positioning and sensor measurements to determine obstacles location.
  53:..\VFH/vfh.c  ****    *
  54:..\VFH/vfh.c  ****    * Remember that cos() and sin() expect angles in RADIANS, not DEGREES.
  55:..\VFH/vfh.c  ****   */
  56:..\VFH/vfh.c  **** 
  57:..\VFH/vfh.c  ****   // Check if grid map exists
  58:..\VFH/vfh.c  ****   if (map == NULL) return 0;
 193              		.loc 1 58 0
 194 000e FB68     		ldr	r3, [r7, #12]
 195 0010 002B     		cmp	r3, #0
 196 0012 01D1     		bne	.L10
 197              		.loc 1 58 0 is_stmt 0 discriminator 1
 198 0014 0023     		movs	r3, #0
 199 0016 6DE1     		b	.L25
 200              	.L10:
  59:..\VFH/vfh.c  ****   if (map->cells == NULL) return 0;
 201              		.loc 1 59 0 is_stmt 1
 202 0018 FB68     		ldr	r3, [r7, #12]
 203 001a DB68     		ldr	r3, [r3, #12]
 204 001c 002B     		cmp	r3, #0
 205 001e 01D1     		bne	.L12
 206              		.loc 1 59 0 is_stmt 0 discriminator 1
 207 0020 0023     		movs	r3, #0
 208 0022 67E1     		b	.L25
 209              	.L12:
  60:..\VFH/vfh.c  **** 
  61:..\VFH/vfh.c  ****   // Extract needed variables from structure
  62:..\VFH/vfh.c  ****   double pos_x = robot->x;    // cm
 210              		.loc 1 62 0 is_stmt 1
 211 0024 7B68     		ldr	r3, [r7, #4]
 212 0026 03F11004 		add	r4, r3, #16
 213 002a D4E90034 		ldrd	r3, [r4]
 214 002e C7E92234 		strd	r3, [r7, #136]
  63:..\VFH/vfh.c  ****   double pos_y = robot->y;    // cm
 215              		.loc 1 63 0
 216 0032 7B68     		ldr	r3, [r7, #4]
 217 0034 03F11804 		add	r4, r3, #24
 218 0038 D4E90034 		ldrd	r3, [r4]
ARM GAS  C:\Users\cyu13\AppData\Local\Temp\ccSGk0Me.s 			page 6


 219 003c C7E92034 		strd	r3, [r7, #128]
  64:..\VFH/vfh.c  ****   double yaw = robot->theta;  // radians
 220              		.loc 1 64 0
 221 0040 7B68     		ldr	r3, [r7, #4]
 222 0042 03F10804 		add	r4, r3, #8
 223 0046 D4E90034 		ldrd	r3, [r4]
 224 004a C7E91E34 		strd	r3, [r7, #120]
 225              	.LBB4:
  65:..\VFH/vfh.c  **** 
  66:..\VFH/vfh.c  ****   // Determine distance of returned ultrasonic signal
  67:..\VFH/vfh.c  ****   double cell_distance[N_SENSORS];
  68:..\VFH/vfh.c  ****   for (int i = 0; i < N_SENSORS; ++i) {
 226              		.loc 1 68 0
 227 004e 0023     		movs	r3, #0
 228 0050 C7F8A430 		str	r3, [r7, #164]
 229 0054 1DE0     		b	.L13
 230              	.L14:
  69:..\VFH/vfh.c  ****     cell_distance[i] = sensors->distance[i] / map->resolution;
 231              		.loc 1 69 0 discriminator 3
 232 0056 BA68     		ldr	r2, [r7, #8]
 233 0058 D7F8A430 		ldr	r3, [r7, #164]
 234 005c 0433     		adds	r3, r3, #4
 235 005e 9B00     		lsls	r3, r3, #2
 236 0060 1344     		add	r3, r3, r2
 237 0062 5A68     		ldr	r2, [r3, #4]
 238 0064 FB68     		ldr	r3, [r7, #12]
 239 0066 9B68     		ldr	r3, [r3, #8]
 240 0068 92FBF3F3 		sdiv	r3, r2, r3
 241 006c 1846     		mov	r0, r3
 242 006e FFF7FEFF 		bl	__aeabi_i2d
 243 0072 0346     		mov	r3, r0
 244 0074 0C46     		mov	r4, r1
 245 0076 D7F8A420 		ldr	r2, [r7, #164]
 246 007a D200     		lsls	r2, r2, #3
 247 007c 07F1A801 		add	r1, r7, #168
 248 0080 0A44     		add	r2, r2, r1
 249 0082 703A     		subs	r2, r2, #112
 250 0084 C2E90034 		strd	r3, [r2]
  68:..\VFH/vfh.c  ****     cell_distance[i] = sensors->distance[i] / map->resolution;
 251              		.loc 1 68 0 discriminator 3
 252 0088 D7F8A430 		ldr	r3, [r7, #164]
 253 008c 0133     		adds	r3, r3, #1
 254 008e C7F8A430 		str	r3, [r7, #164]
 255              	.L13:
  68:..\VFH/vfh.c  ****     cell_distance[i] = sensors->distance[i] / map->resolution;
 256              		.loc 1 68 0 is_stmt 0 discriminator 1
 257 0092 D7F8A430 		ldr	r3, [r7, #164]
 258 0096 042B     		cmp	r3, #4
 259 0098 DDDD     		ble	.L14
 260              	.LBE4:
 261              	.LBB5:
  70:..\VFH/vfh.c  ****   }
  71:..\VFH/vfh.c  **** 
  72:..\VFH/vfh.c  ****   // Determine cell location of obstacles
  73:..\VFH/vfh.c  ****   double cell_location[N_SENSORS];
  74:..\VFH/vfh.c  ****   double theta; 
  75:..\VFH/vfh.c  ****   double robot_radians;
ARM GAS  C:\Users\cyu13\AppData\Local\Temp\ccSGk0Me.s 			page 7


  76:..\VFH/vfh.c  **** 
  77:..\VFH/vfh.c  ****   for (int i = 0; i < N_SENSORS; ++i){
 262              		.loc 1 77 0 is_stmt 1
 263 009a 0023     		movs	r3, #0
 264 009c C7F89430 		str	r3, [r7, #148]
 265 00a0 22E1     		b	.L15
 266              	.L24:
 267              	.LBB6:
  78:..\VFH/vfh.c  ****     // Convert sensor angle into radians
  79:..\VFH/vfh.c  ****     robot_radians = M_PI * sensors->direction[i] / 180;
 268              		.loc 1 79 0
 269 00a2 BB68     		ldr	r3, [r7, #8]
 270 00a4 D7F89420 		ldr	r2, [r7, #148]
 271 00a8 53F82230 		ldr	r3, [r3, r2, lsl #2]
 272 00ac 1846     		mov	r0, r3
 273 00ae FFF7FEFF 		bl	__aeabi_i2d
 274 00b2 93A3     		adr	r3, .L32
 275 00b4 D3E90023 		ldrd	r2, [r3]
 276 00b8 FFF7FEFF 		bl	__aeabi_dmul
 277 00bc 0346     		mov	r3, r0
 278 00be 0C46     		mov	r4, r1
 279 00c0 1846     		mov	r0, r3
 280 00c2 2146     		mov	r1, r4
 281 00c4 4FF00002 		mov	r2, #0
 282 00c8 914B     		ldr	r3, .L32+16
 283 00ca FFF7FEFF 		bl	__aeabi_ddiv
 284 00ce 0346     		mov	r3, r0
 285 00d0 0C46     		mov	r4, r1
 286 00d2 C7E91C34 		strd	r3, [r7, #112]
  80:..\VFH/vfh.c  ****     if (yaw + robot_radians < 0) {
 287              		.loc 1 80 0
 288 00d6 D7E91C23 		ldrd	r2, [r7, #112]
 289 00da D7E91E01 		ldrd	r0, [r7, #120]
 290 00de FFF7FEFF 		bl	__aeabi_dadd
 291 00e2 0346     		mov	r3, r0
 292 00e4 0C46     		mov	r4, r1
 293 00e6 1846     		mov	r0, r3
 294 00e8 2146     		mov	r1, r4
 295 00ea 4FF00002 		mov	r2, #0
 296 00ee 4FF00003 		mov	r3, #0
 297 00f2 FFF7FEFF 		bl	__aeabi_dcmplt
 298 00f6 0346     		mov	r3, r0
 299 00f8 002B     		cmp	r3, #0
 300 00fa 13D0     		beq	.L30
  81:..\VFH/vfh.c  ****       theta = yaw + robot_radians + M_TWOPI;
 301              		.loc 1 81 0
 302 00fc D7E91C23 		ldrd	r2, [r7, #112]
 303 0100 D7E91E01 		ldrd	r0, [r7, #120]
 304 0104 FFF7FEFF 		bl	__aeabi_dadd
 305 0108 0346     		mov	r3, r0
 306 010a 0C46     		mov	r4, r1
 307 010c 1846     		mov	r0, r3
 308 010e 2146     		mov	r1, r4
 309 0110 7DA3     		adr	r3, .L32+8
 310 0112 D3E90023 		ldrd	r2, [r3]
 311 0116 FFF7FEFF 		bl	__aeabi_dadd
 312 011a 0346     		mov	r3, r0
ARM GAS  C:\Users\cyu13\AppData\Local\Temp\ccSGk0Me.s 			page 8


 313 011c 0C46     		mov	r4, r1
 314 011e C7E92634 		strd	r3, [r7, #152]
 315 0122 2FE0     		b	.L18
 316              	.L30:
  82:..\VFH/vfh.c  ****     } else if (yaw + robot_radians >= M_TWOPI) {
 317              		.loc 1 82 0
 318 0124 D7E91C23 		ldrd	r2, [r7, #112]
 319 0128 D7E91E01 		ldrd	r0, [r7, #120]
 320 012c FFF7FEFF 		bl	__aeabi_dadd
 321 0130 0346     		mov	r3, r0
 322 0132 0C46     		mov	r4, r1
 323 0134 1846     		mov	r0, r3
 324 0136 2146     		mov	r1, r4
 325 0138 73A3     		adr	r3, .L32+8
 326 013a D3E90023 		ldrd	r2, [r3]
 327 013e FFF7FEFF 		bl	__aeabi_dcmpge
 328 0142 0346     		mov	r3, r0
 329 0144 002B     		cmp	r3, #0
 330 0146 13D0     		beq	.L31
  83:..\VFH/vfh.c  ****       theta = yaw + robot_radians - M_TWOPI;
 331              		.loc 1 83 0
 332 0148 D7E91C23 		ldrd	r2, [r7, #112]
 333 014c D7E91E01 		ldrd	r0, [r7, #120]
 334 0150 FFF7FEFF 		bl	__aeabi_dadd
 335 0154 0346     		mov	r3, r0
 336 0156 0C46     		mov	r4, r1
 337 0158 1846     		mov	r0, r3
 338 015a 2146     		mov	r1, r4
 339 015c 6AA3     		adr	r3, .L32+8
 340 015e D3E90023 		ldrd	r2, [r3]
 341 0162 FFF7FEFF 		bl	__aeabi_dsub
 342 0166 0346     		mov	r3, r0
 343 0168 0C46     		mov	r4, r1
 344 016a C7E92634 		strd	r3, [r7, #152]
 345 016e 09E0     		b	.L18
 346              	.L31:
  84:..\VFH/vfh.c  ****     } else {
  85:..\VFH/vfh.c  ****       theta = yaw + robot_radians;
 347              		.loc 1 85 0
 348 0170 D7E91C23 		ldrd	r2, [r7, #112]
 349 0174 D7E91E01 		ldrd	r0, [r7, #120]
 350 0178 FFF7FEFF 		bl	__aeabi_dadd
 351 017c 0346     		mov	r3, r0
 352 017e 0C46     		mov	r4, r1
 353 0180 C7E92634 		strd	r3, [r7, #152]
 354              	.L18:
  86:..\VFH/vfh.c  ****     }
  87:..\VFH/vfh.c  ****     
  88:..\VFH/vfh.c  ****     double new_x = pos_x/map->resolution + floor(cell_distance[i] * cos(theta));
 355              		.loc 1 88 0
 356 0184 FB68     		ldr	r3, [r7, #12]
 357 0186 9B68     		ldr	r3, [r3, #8]
 358 0188 1846     		mov	r0, r3
 359 018a FFF7FEFF 		bl	__aeabi_i2d
 360 018e 0346     		mov	r3, r0
 361 0190 0C46     		mov	r4, r1
 362 0192 1A46     		mov	r2, r3
ARM GAS  C:\Users\cyu13\AppData\Local\Temp\ccSGk0Me.s 			page 9


 363 0194 2346     		mov	r3, r4
 364 0196 D7E92201 		ldrd	r0, [r7, #136]
 365 019a FFF7FEFF 		bl	__aeabi_ddiv
 366 019e 0346     		mov	r3, r0
 367 01a0 0C46     		mov	r4, r1
 368 01a2 9846     		mov	r8, r3
 369 01a4 A146     		mov	r9, r4
 370 01a6 D7F89430 		ldr	r3, [r7, #148]
 371 01aa DB00     		lsls	r3, r3, #3
 372 01ac 07F1A802 		add	r2, r7, #168
 373 01b0 1344     		add	r3, r3, r2
 374 01b2 703B     		subs	r3, r3, #112
 375 01b4 D3E90045 		ldrd	r4, [r3]
 376 01b8 D7E92601 		ldrd	r0, [r7, #152]
 377 01bc FFF7FEFF 		bl	cos
 378 01c0 0246     		mov	r2, r0
 379 01c2 0B46     		mov	r3, r1
 380 01c4 2046     		mov	r0, r4
 381 01c6 2946     		mov	r1, r5
 382 01c8 FFF7FEFF 		bl	__aeabi_dmul
 383 01cc 0346     		mov	r3, r0
 384 01ce 0C46     		mov	r4, r1
 385 01d0 1846     		mov	r0, r3
 386 01d2 2146     		mov	r1, r4
 387 01d4 FFF7FEFF 		bl	floor
 388 01d8 0346     		mov	r3, r0
 389 01da 0C46     		mov	r4, r1
 390 01dc 1A46     		mov	r2, r3
 391 01de 2346     		mov	r3, r4
 392 01e0 4046     		mov	r0, r8
 393 01e2 4946     		mov	r1, r9
 394 01e4 FFF7FEFF 		bl	__aeabi_dadd
 395 01e8 0346     		mov	r3, r0
 396 01ea 0C46     		mov	r4, r1
 397 01ec C7E91A34 		strd	r3, [r7, #104]
  89:..\VFH/vfh.c  ****     double new_y = pos_y/map->resolution + floor(cell_distance[i] * sin(theta));
 398              		.loc 1 89 0
 399 01f0 FB68     		ldr	r3, [r7, #12]
 400 01f2 9B68     		ldr	r3, [r3, #8]
 401 01f4 1846     		mov	r0, r3
 402 01f6 FFF7FEFF 		bl	__aeabi_i2d
 403 01fa 0346     		mov	r3, r0
 404 01fc 0C46     		mov	r4, r1
 405 01fe 1A46     		mov	r2, r3
 406 0200 2346     		mov	r3, r4
 407 0202 D7E92001 		ldrd	r0, [r7, #128]
 408 0206 FFF7FEFF 		bl	__aeabi_ddiv
 409 020a 0346     		mov	r3, r0
 410 020c 0C46     		mov	r4, r1
 411 020e 9846     		mov	r8, r3
 412 0210 A146     		mov	r9, r4
 413 0212 D7F89430 		ldr	r3, [r7, #148]
 414 0216 DB00     		lsls	r3, r3, #3
 415 0218 07F1A802 		add	r2, r7, #168
 416 021c 1344     		add	r3, r3, r2
 417 021e 703B     		subs	r3, r3, #112
 418 0220 D3E90045 		ldrd	r4, [r3]
ARM GAS  C:\Users\cyu13\AppData\Local\Temp\ccSGk0Me.s 			page 10


 419 0224 D7E92601 		ldrd	r0, [r7, #152]
 420 0228 FFF7FEFF 		bl	sin
 421 022c 0246     		mov	r2, r0
 422 022e 0B46     		mov	r3, r1
 423 0230 2046     		mov	r0, r4
 424 0232 2946     		mov	r1, r5
 425 0234 FFF7FEFF 		bl	__aeabi_dmul
 426 0238 0346     		mov	r3, r0
 427 023a 0C46     		mov	r4, r1
 428 023c 1846     		mov	r0, r3
 429 023e 2146     		mov	r1, r4
 430 0240 FFF7FEFF 		bl	floor
 431 0244 0346     		mov	r3, r0
 432 0246 0C46     		mov	r4, r1
 433 0248 1A46     		mov	r2, r3
 434 024a 2346     		mov	r3, r4
 435 024c 4046     		mov	r0, r8
 436 024e 4946     		mov	r1, r9
 437 0250 FFF7FEFF 		bl	__aeabi_dadd
 438 0254 0346     		mov	r3, r0
 439 0256 0C46     		mov	r4, r1
 440 0258 C7E91834 		strd	r3, [r7, #96]
  90:..\VFH/vfh.c  ****     
  91:..\VFH/vfh.c  ****     // Check if point is within grid to avoid overflow
  92:..\VFH/vfh.c  ****     if (new_x < map->width && new_y < map->height) {
 441              		.loc 1 92 0
 442 025c FB68     		ldr	r3, [r7, #12]
 443 025e 1B68     		ldr	r3, [r3]
 444 0260 1846     		mov	r0, r3
 445 0262 FFF7FEFF 		bl	__aeabi_i2d
 446 0266 D7E91A23 		ldrd	r2, [r7, #104]
 447 026a FFF7FEFF 		bl	__aeabi_dcmpgt
 448 026e 0346     		mov	r3, r0
 449 0270 002B     		cmp	r3, #0
 450 0272 34D0     		beq	.L21
 451              		.loc 1 92 0 is_stmt 0 discriminator 1
 452 0274 FB68     		ldr	r3, [r7, #12]
 453 0276 5B68     		ldr	r3, [r3, #4]
 454 0278 1846     		mov	r0, r3
 455 027a FFF7FEFF 		bl	__aeabi_i2d
 456 027e D7E91823 		ldrd	r2, [r7, #96]
 457 0282 FFF7FEFF 		bl	__aeabi_dcmpgt
 458 0286 0346     		mov	r3, r0
 459 0288 002B     		cmp	r3, #0
 460 028a 28D0     		beq	.L21
  93:..\VFH/vfh.c  ****       map->cells[(int) new_x * map->width + (int) new_y] += 1;
 461              		.loc 1 93 0 is_stmt 1
 462 028c FB68     		ldr	r3, [r7, #12]
 463 028e DC68     		ldr	r4, [r3, #12]
 464 0290 D7E91A01 		ldrd	r0, [r7, #104]
 465 0294 FFF7FEFF 		bl	__aeabi_d2iz
 466 0298 0246     		mov	r2, r0
 467 029a FB68     		ldr	r3, [r7, #12]
 468 029c 1B68     		ldr	r3, [r3]
 469 029e 03FB02F5 		mul	r5, r3, r2
 470 02a2 D7E91801 		ldrd	r0, [r7, #96]
 471 02a6 FFF7FEFF 		bl	__aeabi_d2iz
ARM GAS  C:\Users\cyu13\AppData\Local\Temp\ccSGk0Me.s 			page 11


 472 02aa 0346     		mov	r3, r0
 473 02ac 2B44     		add	r3, r3, r5
 474 02ae 9B00     		lsls	r3, r3, #2
 475 02b0 1C44     		add	r4, r4, r3
 476 02b2 FB68     		ldr	r3, [r7, #12]
 477 02b4 DD68     		ldr	r5, [r3, #12]
 478 02b6 D7E91A01 		ldrd	r0, [r7, #104]
 479 02ba FFF7FEFF 		bl	__aeabi_d2iz
 480 02be 0246     		mov	r2, r0
 481 02c0 FB68     		ldr	r3, [r7, #12]
 482 02c2 1B68     		ldr	r3, [r3]
 483 02c4 03FB02F6 		mul	r6, r3, r2
 484 02c8 D7E91801 		ldrd	r0, [r7, #96]
 485 02cc FFF7FEFF 		bl	__aeabi_d2iz
 486 02d0 0346     		mov	r3, r0
 487 02d2 3344     		add	r3, r3, r6
 488 02d4 9B00     		lsls	r3, r3, #2
 489 02d6 2B44     		add	r3, r3, r5
 490 02d8 1B68     		ldr	r3, [r3]
 491 02da 0133     		adds	r3, r3, #1
 492 02dc 2360     		str	r3, [r4]
 493              	.L21:
 494              	.LBE6:
  77:..\VFH/vfh.c  ****     // Convert sensor angle into radians
 495              		.loc 1 77 0 discriminator 2
 496 02de D7F89430 		ldr	r3, [r7, #148]
 497 02e2 0133     		adds	r3, r3, #1
 498 02e4 C7F89430 		str	r3, [r7, #148]
 499              	.L15:
  77:..\VFH/vfh.c  ****     // Convert sensor angle into radians
 500              		.loc 1 77 0 is_stmt 0 discriminator 1
 501 02e8 D7F89430 		ldr	r3, [r7, #148]
 502 02ec 042B     		cmp	r3, #4
 503 02ee 7FF7D8AE 		ble	.L24
 504              	.LBE5:
  94:..\VFH/vfh.c  ****     } 
  95:..\VFH/vfh.c  ****   }
  96:..\VFH/vfh.c  **** 
  97:..\VFH/vfh.c  ****   return 1;
 505              		.loc 1 97 0 is_stmt 1
 506 02f2 0123     		movs	r3, #1
 507              	.L25:
  98:..\VFH/vfh.c  **** }
 508              		.loc 1 98 0 discriminator 1
 509 02f4 1846     		mov	r0, r3
 510 02f6 AC37     		adds	r7, r7, #172
 511              		.cfi_def_cfa_offset 28
 512 02f8 BD46     		mov	sp, r7
 513              		.cfi_def_cfa_register 13
 514              		@ sp needed
 515 02fa BDE8F083 		pop	{r4, r5, r6, r7, r8, r9, pc}
 516              	.L33:
 517 02fe 00BF     		.align	3
 518              	.L32:
 519 0300 182D4454 		.word	1413754136
 520 0304 FB210940 		.word	1074340347
 521 0308 182D4454 		.word	1413754136
ARM GAS  C:\Users\cyu13\AppData\Local\Temp\ccSGk0Me.s 			page 12


 522 030c FB211940 		.word	1075388923
 523 0310 00806640 		.word	1080459264
 524              		.cfi_endproc
 525              	.LFE1:
 526              		.size	grid_update, .-grid_update
 527              		.global	__aeabi_dcmpeq
 528              		.section	.text.active_window,"ax",%progbits
 529              		.align	2
 530              		.global	active_window
 531              		.thumb
 532              		.thumb_func
 533              		.type	active_window, %function
 534              	active_window:
 535              	.LFB2:
  99:..\VFH/vfh.c  **** 
 100:..\VFH/vfh.c  **** double * active_window(Sensor * sensors, double a, double b) {
 536              		.loc 1 100 0
 537              		.cfi_startproc
 538              		@ args = 8, pretend = 0, frame = 80
 539              		@ frame_needed = 1, uses_anonymous_args = 0
 540 0000 2DE9B043 		push	{r4, r5, r7, r8, r9, lr}
 541              		.cfi_def_cfa_offset 24
 542              		.cfi_offset 4, -24
 543              		.cfi_offset 5, -20
 544              		.cfi_offset 7, -16
 545              		.cfi_offset 8, -12
 546              		.cfi_offset 9, -8
 547              		.cfi_offset 14, -4
 548 0004 94B0     		sub	sp, sp, #80
 549              		.cfi_def_cfa_offset 104
 550 0006 00AF     		add	r7, sp, #0
 551              		.cfi_def_cfa_register 7
 552 0008 F860     		str	r0, [r7, #12]
 553 000a C7E90023 		strd	r2, [r7]
 101:..\VFH/vfh.c  ****   /*
 102:..\VFH/vfh.c  ****     * Creates an active window surrounding robot.
 103:..\VFH/vfh.c  ****   */
 104:..\VFH/vfh.c  **** 
 105:..\VFH/vfh.c  ****   double *active = (double*) malloc(360 * sizeof(double));
 554              		.loc 1 105 0
 555 000e 4FF43460 		mov	r0, #2880
 556 0012 FFF7FEFF 		bl	malloc
 557 0016 0346     		mov	r3, r0
 558 0018 FB63     		str	r3, [r7, #60]
 106:..\VFH/vfh.c  ****   double max_dist = a / b;
 559              		.loc 1 106 0
 560 001a D7E91A23 		ldrd	r2, [r7, #104]
 561 001e D7E90001 		ldrd	r0, [r7]
 562 0022 FFF7FEFF 		bl	__aeabi_ddiv
 563 0026 0346     		mov	r3, r0
 564 0028 0C46     		mov	r4, r1
 565 002a C7E90C34 		strd	r3, [r7, #48]
 107:..\VFH/vfh.c  ****   double ws = sqrt(2) * max_dist;
 566              		.loc 1 107 0
 567 002e A8A3     		adr	r3, .L61
 568 0030 D3E90023 		ldrd	r2, [r3]
 569 0034 D7E90C01 		ldrd	r0, [r7, #48]
ARM GAS  C:\Users\cyu13\AppData\Local\Temp\ccSGk0Me.s 			page 13


 570 0038 FFF7FEFF 		bl	__aeabi_dmul
 571 003c 0346     		mov	r3, r0
 572 003e 0C46     		mov	r4, r1
 573 0040 C7E90A34 		strd	r3, [r7, #40]
 108:..\VFH/vfh.c  **** 
 109:..\VFH/vfh.c  ****   int counter = 0;
 574              		.loc 1 109 0
 575 0044 0023     		movs	r3, #0
 576 0046 FB64     		str	r3, [r7, #76]
 110:..\VFH/vfh.c  ****   if (active != NULL) {
 577              		.loc 1 110 0
 578 0048 FB6B     		ldr	r3, [r7, #60]
 579 004a 002B     		cmp	r3, #0
 580 004c 00F03381 		beq	.L35
 581              	.LBB7:
 111:..\VFH/vfh.c  **** 
 112:..\VFH/vfh.c  ****     // Retrieve sensor values
 113:..\VFH/vfh.c  ****     for (int i=0; i < N_SENSORS; i++) {
 582              		.loc 1 113 0
 583 0050 0023     		movs	r3, #0
 584 0052 BB64     		str	r3, [r7, #72]
 585 0054 2AE1     		b	.L36
 586              	.L50:
 587              	.LBB8:
 114:..\VFH/vfh.c  ****       double reading_x = sensors->distance[i] * cos(sensors->direction[i] * DEG2RAD);
 588              		.loc 1 114 0
 589 0056 FA68     		ldr	r2, [r7, #12]
 590 0058 BB6C     		ldr	r3, [r7, #72]
 591 005a 0433     		adds	r3, r3, #4
 592 005c 9B00     		lsls	r3, r3, #2
 593 005e 1344     		add	r3, r3, r2
 594 0060 5B68     		ldr	r3, [r3, #4]
 595 0062 1846     		mov	r0, r3
 596 0064 FFF7FEFF 		bl	__aeabi_i2d
 597 0068 0446     		mov	r4, r0
 598 006a 0D46     		mov	r5, r1
 599 006c FB68     		ldr	r3, [r7, #12]
 600 006e BA6C     		ldr	r2, [r7, #72]
 601 0070 53F82230 		ldr	r3, [r3, r2, lsl #2]
 602 0074 1846     		mov	r0, r3
 603 0076 FFF7FEFF 		bl	__aeabi_i2d
 604 007a 97A3     		adr	r3, .L61+8
 605 007c D3E90023 		ldrd	r2, [r3]
 606 0080 FFF7FEFF 		bl	__aeabi_dmul
 607 0084 0246     		mov	r2, r0
 608 0086 0B46     		mov	r3, r1
 609 0088 1046     		mov	r0, r2
 610 008a 1946     		mov	r1, r3
 611 008c 4FF00002 		mov	r2, #0
 612 0090 934B     		ldr	r3, .L61+16
 613 0092 FFF7FEFF 		bl	__aeabi_ddiv
 614 0096 0246     		mov	r2, r0
 615 0098 0B46     		mov	r3, r1
 616 009a 1046     		mov	r0, r2
 617 009c 1946     		mov	r1, r3
 618 009e FFF7FEFF 		bl	cos
 619 00a2 0246     		mov	r2, r0
ARM GAS  C:\Users\cyu13\AppData\Local\Temp\ccSGk0Me.s 			page 14


 620 00a4 0B46     		mov	r3, r1
 621 00a6 2046     		mov	r0, r4
 622 00a8 2946     		mov	r1, r5
 623 00aa FFF7FEFF 		bl	__aeabi_dmul
 624 00ae 0346     		mov	r3, r0
 625 00b0 0C46     		mov	r4, r1
 626 00b2 C7E90834 		strd	r3, [r7, #32]
 115:..\VFH/vfh.c  ****       double reading_y = sensors->distance[i] * sin(sensors->direction[i] * DEG2RAD);
 627              		.loc 1 115 0
 628 00b6 FA68     		ldr	r2, [r7, #12]
 629 00b8 BB6C     		ldr	r3, [r7, #72]
 630 00ba 0433     		adds	r3, r3, #4
 631 00bc 9B00     		lsls	r3, r3, #2
 632 00be 1344     		add	r3, r3, r2
 633 00c0 5B68     		ldr	r3, [r3, #4]
 634 00c2 1846     		mov	r0, r3
 635 00c4 FFF7FEFF 		bl	__aeabi_i2d
 636 00c8 0446     		mov	r4, r0
 637 00ca 0D46     		mov	r5, r1
 638 00cc FB68     		ldr	r3, [r7, #12]
 639 00ce BA6C     		ldr	r2, [r7, #72]
 640 00d0 53F82230 		ldr	r3, [r3, r2, lsl #2]
 641 00d4 1846     		mov	r0, r3
 642 00d6 FFF7FEFF 		bl	__aeabi_i2d
 643 00da 7FA3     		adr	r3, .L61+8
 644 00dc D3E90023 		ldrd	r2, [r3]
 645 00e0 FFF7FEFF 		bl	__aeabi_dmul
 646 00e4 0246     		mov	r2, r0
 647 00e6 0B46     		mov	r3, r1
 648 00e8 1046     		mov	r0, r2
 649 00ea 1946     		mov	r1, r3
 650 00ec 4FF00002 		mov	r2, #0
 651 00f0 7B4B     		ldr	r3, .L61+16
 652 00f2 FFF7FEFF 		bl	__aeabi_ddiv
 653 00f6 0246     		mov	r2, r0
 654 00f8 0B46     		mov	r3, r1
 655 00fa 1046     		mov	r0, r2
 656 00fc 1946     		mov	r1, r3
 657 00fe FFF7FEFF 		bl	sin
 658 0102 0246     		mov	r2, r0
 659 0104 0B46     		mov	r3, r1
 660 0106 2046     		mov	r0, r4
 661 0108 2946     		mov	r1, r5
 662 010a FFF7FEFF 		bl	__aeabi_dmul
 663 010e 0346     		mov	r3, r0
 664 0110 0C46     		mov	r4, r1
 665 0112 C7E90634 		strd	r3, [r7, #24]
 116:..\VFH/vfh.c  **** 
 117:..\VFH/vfh.c  ****       double max_width = ws / 2;
 666              		.loc 1 117 0
 667 0116 4FF00002 		mov	r2, #0
 668 011a 4FF08043 		mov	r3, #1073741824
 669 011e D7E90A01 		ldrd	r0, [r7, #40]
 670 0122 FFF7FEFF 		bl	__aeabi_ddiv
 671 0126 0346     		mov	r3, r0
 672 0128 0C46     		mov	r4, r1
 673 012a C7E90434 		strd	r3, [r7, #16]
ARM GAS  C:\Users\cyu13\AppData\Local\Temp\ccSGk0Me.s 			page 15


 118:..\VFH/vfh.c  ****         
 119:..\VFH/vfh.c  ****       if ( (int) MAX( MAX(max_width, reading_x), reading_y ) == (int) max_width) {
 674              		.loc 1 119 0
 675 012e D7E90823 		ldrd	r2, [r7, #32]
 676 0132 D7E90401 		ldrd	r0, [r7, #16]
 677 0136 FFF7FEFF 		bl	__aeabi_dcmpgt
 678 013a 0346     		mov	r3, r0
 679 013c 002B     		cmp	r3, #0
 680 013e 02D0     		beq	.L57
 681              		.loc 1 119 0 is_stmt 0 discriminator 1
 682 0140 D7E90401 		ldrd	r0, [r7, #16]
 683 0144 01E0     		b	.L39
 684              	.L57:
 685              		.loc 1 119 0 discriminator 2
 686 0146 D7E90801 		ldrd	r0, [r7, #32]
 687              	.L39:
 688              		.loc 1 119 0 discriminator 4
 689 014a D7E90623 		ldrd	r2, [r7, #24]
 690 014e FFF7FEFF 		bl	__aeabi_dcmpgt
 691 0152 0346     		mov	r3, r0
 692 0154 002B     		cmp	r3, #0
 693 0156 14D0     		beq	.L58
 694              		.loc 1 119 0 discriminator 5
 695 0158 D7E90823 		ldrd	r2, [r7, #32]
 696 015c D7E90401 		ldrd	r0, [r7, #16]
 697 0160 FFF7FEFF 		bl	__aeabi_dcmpgt
 698 0164 0346     		mov	r3, r0
 699 0166 002B     		cmp	r3, #0
 700 0168 05D0     		beq	.L59
 701              		.loc 1 119 0 discriminator 7
 702 016a D7E90401 		ldrd	r0, [r7, #16]
 703 016e FFF7FEFF 		bl	__aeabi_d2iz
 704 0172 0446     		mov	r4, r0
 705 0174 0AE0     		b	.L45
 706              	.L59:
 707              		.loc 1 119 0 discriminator 8
 708 0176 D7E90801 		ldrd	r0, [r7, #32]
 709 017a FFF7FEFF 		bl	__aeabi_d2iz
 710 017e 0446     		mov	r4, r0
 711 0180 04E0     		b	.L45
 712              	.L58:
 713              		.loc 1 119 0 discriminator 6
 714 0182 D7E90601 		ldrd	r0, [r7, #24]
 715 0186 FFF7FEFF 		bl	__aeabi_d2iz
 716 018a 0446     		mov	r4, r0
 717              	.L45:
 718              		.loc 1 119 0 discriminator 12
 719 018c D7E90401 		ldrd	r0, [r7, #16]
 720 0190 FFF7FEFF 		bl	__aeabi_d2iz
 721 0194 0346     		mov	r3, r0
 722 0196 9C42     		cmp	r4, r3
 723 0198 6AD1     		bne	.L46
 724              	.LBB9:
 120:..\VFH/vfh.c  ****         double confidence = 1;
 725              		.loc 1 120 0 is_stmt 1
 726 019a 4FF00003 		mov	r3, #0
 727 019e 514C     		ldr	r4, .L61+20
ARM GAS  C:\Users\cyu13\AppData\Local\Temp\ccSGk0Me.s 			page 16


 728 01a0 C7E91034 		strd	r3, [r7, #64]
 121:..\VFH/vfh.c  **** 
 122:..\VFH/vfh.c  ****         if (max_width != 0) {
 729              		.loc 1 122 0
 730 01a4 4FF00002 		mov	r2, #0
 731 01a8 4FF00003 		mov	r3, #0
 732 01ac D7E90401 		ldrd	r0, [r7, #16]
 733 01b0 FFF7FEFF 		bl	__aeabi_dcmpeq
 734 01b4 0346     		mov	r3, r0
 735 01b6 002B     		cmp	r3, #0
 736 01b8 2AD1     		bne	.L47
 123:..\VFH/vfh.c  ****           confidence = sensors->distance[i] / (2 * max_width);
 737              		.loc 1 123 0
 738 01ba FA68     		ldr	r2, [r7, #12]
 739 01bc BB6C     		ldr	r3, [r7, #72]
 740 01be 0433     		adds	r3, r3, #4
 741 01c0 9B00     		lsls	r3, r3, #2
 742 01c2 1344     		add	r3, r3, r2
 743 01c4 5B68     		ldr	r3, [r3, #4]
 744 01c6 1846     		mov	r0, r3
 745 01c8 FFF7FEFF 		bl	__aeabi_i2d
 746 01cc 0446     		mov	r4, r0
 747 01ce 0D46     		mov	r5, r1
 748 01d0 D7E90401 		ldrd	r0, [r7, #16]
 749 01d4 0246     		mov	r2, r0
 750 01d6 0B46     		mov	r3, r1
 751 01d8 FFF7FEFF 		bl	__aeabi_dadd
 752 01dc 0246     		mov	r2, r0
 753 01de 0B46     		mov	r3, r1
 754 01e0 2046     		mov	r0, r4
 755 01e2 2946     		mov	r1, r5
 756 01e4 FFF7FEFF 		bl	__aeabi_ddiv
 757 01e8 0346     		mov	r3, r0
 758 01ea 0C46     		mov	r4, r1
 759 01ec C7E91034 		strd	r3, [r7, #64]
 124:..\VFH/vfh.c  ****           confidence = abs((int)confidence - 1);
 760              		.loc 1 124 0
 761 01f0 D7E91001 		ldrd	r0, [r7, #64]
 762 01f4 FFF7FEFF 		bl	__aeabi_d2iz
 763 01f8 0346     		mov	r3, r0
 764 01fa 013B     		subs	r3, r3, #1
 765 01fc 002B     		cmp	r3, #0
 766 01fe B8BF     		it	lt
 767 0200 5B42     		rsblt	r3, r3, #0
 768 0202 1846     		mov	r0, r3
 769 0204 FFF7FEFF 		bl	__aeabi_i2d
 770 0208 0346     		mov	r3, r0
 771 020a 0C46     		mov	r4, r1
 772 020c C7E91034 		strd	r3, [r7, #64]
 773              	.L47:
 125:..\VFH/vfh.c  ****         }
 126:..\VFH/vfh.c  ****         active[counter] = pow(confidence, 2) * (a - (b * sensors->distance[i]));
 774              		.loc 1 126 0
 775 0210 FB6C     		ldr	r3, [r7, #76]
 776 0212 DB00     		lsls	r3, r3, #3
 777 0214 FA6B     		ldr	r2, [r7, #60]
 778 0216 D518     		adds	r5, r2, r3
ARM GAS  C:\Users\cyu13\AppData\Local\Temp\ccSGk0Me.s 			page 17


 779 0218 4FF00002 		mov	r2, #0
 780 021c 4FF08043 		mov	r3, #1073741824
 781 0220 D7E91001 		ldrd	r0, [r7, #64]
 782 0224 FFF7FEFF 		bl	pow
 783 0228 8046     		mov	r8, r0
 784 022a 8946     		mov	r9, r1
 785 022c FA68     		ldr	r2, [r7, #12]
 786 022e BB6C     		ldr	r3, [r7, #72]
 787 0230 0433     		adds	r3, r3, #4
 788 0232 9B00     		lsls	r3, r3, #2
 789 0234 1344     		add	r3, r3, r2
 790 0236 5B68     		ldr	r3, [r3, #4]
 791 0238 1846     		mov	r0, r3
 792 023a FFF7FEFF 		bl	__aeabi_i2d
 793 023e D7E91A23 		ldrd	r2, [r7, #104]
 794 0242 FFF7FEFF 		bl	__aeabi_dmul
 795 0246 0346     		mov	r3, r0
 796 0248 0C46     		mov	r4, r1
 797 024a 1A46     		mov	r2, r3
 798 024c 2346     		mov	r3, r4
 799 024e D7E90001 		ldrd	r0, [r7]
 800 0252 FFF7FEFF 		bl	__aeabi_dsub
 801 0256 0346     		mov	r3, r0
 802 0258 0C46     		mov	r4, r1
 803 025a 1A46     		mov	r2, r3
 804 025c 2346     		mov	r3, r4
 805 025e 4046     		mov	r0, r8
 806 0260 4946     		mov	r1, r9
 807 0262 FFF7FEFF 		bl	__aeabi_dmul
 808 0266 0346     		mov	r3, r0
 809 0268 0C46     		mov	r4, r1
 810 026a C5E90034 		strd	r3, [r5]
 811              	.LBE9:
 812 026e 09E0     		b	.L49
 813              	.L46:
 127:..\VFH/vfh.c  ****       
 128:..\VFH/vfh.c  ****       } else {
 129:..\VFH/vfh.c  ****         active[counter] = 0;
 814              		.loc 1 129 0
 815 0270 FB6C     		ldr	r3, [r7, #76]
 816 0272 DB00     		lsls	r3, r3, #3
 817 0274 FA6B     		ldr	r2, [r7, #60]
 818 0276 1A44     		add	r2, r2, r3
 819 0278 4FF00003 		mov	r3, #0
 820 027c 4FF00004 		mov	r4, #0
 821 0280 C2E90034 		strd	r3, [r2]
 822              	.L49:
 130:..\VFH/vfh.c  ****       }
 131:..\VFH/vfh.c  **** 
 132:..\VFH/vfh.c  ****       counter++;
 823              		.loc 1 132 0 discriminator 2
 824 0284 FB6C     		ldr	r3, [r7, #76]
 825 0286 0133     		adds	r3, r3, #1
 826 0288 FB64     		str	r3, [r7, #76]
 133:..\VFH/vfh.c  ****       counter = counter % 360;
 827              		.loc 1 133 0 discriminator 2
 828 028a FB6C     		ldr	r3, [r7, #76]
ARM GAS  C:\Users\cyu13\AppData\Local\Temp\ccSGk0Me.s 			page 18


 829 028c 164A     		ldr	r2, .L61+24
 830 028e 83FB0212 		smull	r1, r2, r3, r2
 831 0292 1A44     		add	r2, r2, r3
 832 0294 1112     		asrs	r1, r2, #8
 833 0296 DA17     		asrs	r2, r3, #31
 834 0298 8A1A     		subs	r2, r1, r2
 835 029a 4FF4B471 		mov	r1, #360
 836 029e 01FB02F2 		mul	r2, r1, r2
 837 02a2 9B1A     		subs	r3, r3, r2
 838 02a4 FB64     		str	r3, [r7, #76]
 839              	.LBE8:
 113:..\VFH/vfh.c  ****       double reading_x = sensors->distance[i] * cos(sensors->direction[i] * DEG2RAD);
 840              		.loc 1 113 0 discriminator 2
 841 02a6 BB6C     		ldr	r3, [r7, #72]
 842 02a8 0133     		adds	r3, r3, #1
 843 02aa BB64     		str	r3, [r7, #72]
 844              	.L36:
 113:..\VFH/vfh.c  ****       double reading_x = sensors->distance[i] * cos(sensors->direction[i] * DEG2RAD);
 845              		.loc 1 113 0 is_stmt 0 discriminator 1
 846 02ac BB6C     		ldr	r3, [r7, #72]
 847 02ae 042B     		cmp	r3, #4
 848 02b0 7FF7D1AE 		ble	.L50
 849 02b4 04E0     		b	.L60
 850              	.L35:
 851              	.LBE7:
 134:..\VFH/vfh.c  **** 
 135:..\VFH/vfh.c  ****     }
 136:..\VFH/vfh.c  **** 
 137:..\VFH/vfh.c  ****   } else {
 138:..\VFH/vfh.c  ****     free(active);
 852              		.loc 1 138 0 is_stmt 1
 853 02b6 F86B     		ldr	r0, [r7, #60]
 854 02b8 FFF7FEFF 		bl	free
 139:..\VFH/vfh.c  ****     return NULL;
 855              		.loc 1 139 0
 856 02bc 0023     		movs	r3, #0
 857 02be 00E0     		b	.L52
 858              	.L60:
 140:..\VFH/vfh.c  ****   }
 141:..\VFH/vfh.c  **** 
 142:..\VFH/vfh.c  ****   return active;
 859              		.loc 1 142 0
 860 02c0 FB6B     		ldr	r3, [r7, #60]
 861              	.L52:
 143:..\VFH/vfh.c  **** }
 862              		.loc 1 143 0
 863 02c2 1846     		mov	r0, r3
 864 02c4 5037     		adds	r7, r7, #80
 865              		.cfi_def_cfa_offset 24
 866 02c6 BD46     		mov	sp, r7
 867              		.cfi_def_cfa_register 13
 868              		@ sp needed
 869 02c8 BDE8B083 		pop	{r4, r5, r7, r8, r9, pc}
 870              	.L62:
 871 02cc AFF30080 		.align	3
 872              	.L61:
 873 02d0 CD3B7F66 		.word	1719614413
ARM GAS  C:\Users\cyu13\AppData\Local\Temp\ccSGk0Me.s 			page 19


 874 02d4 9EA0F63F 		.word	1073127582
 875 02d8 182D4454 		.word	1413754136
 876 02dc FB210940 		.word	1074340347
 877 02e0 00806640 		.word	1080459264
 878 02e4 0000F03F 		.word	1072693248
 879 02e8 B7600BB6 		.word	-1240768329
 880              		.cfi_endproc
 881              	.LFE2:
 882              		.size	active_window, .-active_window
 883              		.section	.text.polar_histogram_create,"ax",%progbits
 884              		.align	2
 885              		.global	polar_histogram_create
 886              		.thumb
 887              		.thumb_func
 888              		.type	polar_histogram_create, %function
 889              	polar_histogram_create:
 890              	.LFB3:
 144:..\VFH/vfh.c  **** 
 145:..\VFH/vfh.c  **** /*=======================================================================*/
 146:..\VFH/vfh.c  **** /*                             END OF GRID                               */
 147:..\VFH/vfh.c  **** /*=======================================================================*/
 148:..\VFH/vfh.c  **** // Polar Histogram 
 149:..\VFH/vfh.c  **** histogram * polar_histogram_create(int alpha, double threshold, double density_a, double density_b)
 891              		.loc 1 149 0
 892              		.cfi_startproc
 893              		@ args = 16, pretend = 0, frame = 24
 894              		@ frame_needed = 1, uses_anonymous_args = 0
 895 0000 90B5     		push	{r4, r7, lr}
 896              		.cfi_def_cfa_offset 12
 897              		.cfi_offset 4, -12
 898              		.cfi_offset 7, -8
 899              		.cfi_offset 14, -4
 900 0002 87B0     		sub	sp, sp, #28
 901              		.cfi_def_cfa_offset 40
 902 0004 00AF     		add	r7, sp, #0
 903              		.cfi_def_cfa_register 7
 904 0006 F860     		str	r0, [r7, #12]
 905 0008 C7E90023 		strd	r2, [r7]
 150:..\VFH/vfh.c  ****   /* Create a histogram pointer and allocate memory to it. */
 151:..\VFH/vfh.c  ****   histogram * hist = malloc(sizeof(histogram));
 906              		.loc 1 151 0
 907 000c 3020     		movs	r0, #48
 908 000e FFF7FEFF 		bl	malloc
 909 0012 0346     		mov	r3, r0
 910 0014 3B61     		str	r3, [r7, #16]
 152:..\VFH/vfh.c  **** 
 153:..\VFH/vfh.c  ****   /* Is there enough memory for the histogram? */
 154:..\VFH/vfh.c  ****   if (NULL == hist) {
 911              		.loc 1 154 0
 912 0016 3B69     		ldr	r3, [r7, #16]
 913 0018 002B     		cmp	r3, #0
 914 001a 04D1     		bne	.L64
 155:..\VFH/vfh.c  ****     free(hist);
 915              		.loc 1 155 0
 916 001c 3869     		ldr	r0, [r7, #16]
 917 001e FFF7FEFF 		bl	free
 156:..\VFH/vfh.c  ****     return NULL;
ARM GAS  C:\Users\cyu13\AppData\Local\Temp\ccSGk0Me.s 			page 20


 918              		.loc 1 156 0
 919 0022 0023     		movs	r3, #0
 920 0024 3EE0     		b	.L65
 921              	.L64:
 157:..\VFH/vfh.c  ****   }
 158:..\VFH/vfh.c  **** 
 159:..\VFH/vfh.c  ****   /* Initialize the histogram parameters. */
 160:..\VFH/vfh.c  ****   hist->alpha = alpha;
 922              		.loc 1 160 0
 923 0026 3B69     		ldr	r3, [r7, #16]
 924 0028 FA68     		ldr	r2, [r7, #12]
 925 002a 1A60     		str	r2, [r3]
 161:..\VFH/vfh.c  ****   hist->sectors = 360 / alpha;
 926              		.loc 1 161 0
 927 002c 4FF4B472 		mov	r2, #360
 928 0030 FB68     		ldr	r3, [r7, #12]
 929 0032 92FBF3F2 		sdiv	r2, r2, r3
 930 0036 3B69     		ldr	r3, [r7, #16]
 931 0038 5A60     		str	r2, [r3, #4]
 162:..\VFH/vfh.c  ****   hist->threshold = threshold;
 932              		.loc 1 162 0
 933 003a 3A69     		ldr	r2, [r7, #16]
 934 003c D7E90034 		ldrd	r3, [r7]
 935 0040 C2E90234 		strd	r3, [r2, #8]
 163:..\VFH/vfh.c  ****   hist->densities = (int *)malloc(hist->sectors * sizeof(int));
 936              		.loc 1 163 0
 937 0044 3B69     		ldr	r3, [r7, #16]
 938 0046 5B68     		ldr	r3, [r3, #4]
 939 0048 9B00     		lsls	r3, r3, #2
 940 004a 1846     		mov	r0, r3
 941 004c FFF7FEFF 		bl	malloc
 942 0050 0346     		mov	r3, r0
 943 0052 1A46     		mov	r2, r3
 944 0054 3B69     		ldr	r3, [r7, #16]
 945 0056 9A62     		str	r2, [r3, #40]
 164:..\VFH/vfh.c  ****   hist->density_a = density_a;
 946              		.loc 1 164 0
 947 0058 3A69     		ldr	r2, [r7, #16]
 948 005a D7E90A34 		ldrd	r3, [r7, #40]
 949 005e C2E90634 		strd	r3, [r2, #24]
 165:..\VFH/vfh.c  ****   hist->density_b = density_b;
 950              		.loc 1 165 0
 951 0062 3A69     		ldr	r2, [r7, #16]
 952 0064 D7E90C34 		ldrd	r3, [r7, #48]
 953 0068 C2E90834 		strd	r3, [r2, #32]
 166:..\VFH/vfh.c  **** 
 167:..\VFH/vfh.c  ****   if (hist->densities == NULL) {
 954              		.loc 1 167 0
 955 006c 3B69     		ldr	r3, [r7, #16]
 956 006e 9B6A     		ldr	r3, [r3, #40]
 957 0070 002B     		cmp	r3, #0
 958 0072 04D1     		bne	.L66
 168:..\VFH/vfh.c  ****     free(hist);
 959              		.loc 1 168 0
 960 0074 3869     		ldr	r0, [r7, #16]
 961 0076 FFF7FEFF 		bl	free
 169:..\VFH/vfh.c  ****     return NULL;
ARM GAS  C:\Users\cyu13\AppData\Local\Temp\ccSGk0Me.s 			page 21


 962              		.loc 1 169 0
 963 007a 0023     		movs	r3, #0
 964 007c 12E0     		b	.L65
 965              	.L66:
 966              	.LBB10:
 170:..\VFH/vfh.c  ****   }
 171:..\VFH/vfh.c  **** 
 172:..\VFH/vfh.c  ****   /* Initialize all densities to 0. */
 173:..\VFH/vfh.c  ****   for (int i = 0; i < hist->sectors; ++i) {
 967              		.loc 1 173 0
 968 007e 0023     		movs	r3, #0
 969 0080 7B61     		str	r3, [r7, #20]
 970 0082 09E0     		b	.L67
 971              	.L68:
 174:..\VFH/vfh.c  ****     hist->densities[i] = 0;
 972              		.loc 1 174 0 discriminator 3
 973 0084 3B69     		ldr	r3, [r7, #16]
 974 0086 9A6A     		ldr	r2, [r3, #40]
 975 0088 7B69     		ldr	r3, [r7, #20]
 976 008a 9B00     		lsls	r3, r3, #2
 977 008c 1344     		add	r3, r3, r2
 978 008e 0022     		movs	r2, #0
 979 0090 1A60     		str	r2, [r3]
 173:..\VFH/vfh.c  ****     hist->densities[i] = 0;
 980              		.loc 1 173 0 discriminator 3
 981 0092 7B69     		ldr	r3, [r7, #20]
 982 0094 0133     		adds	r3, r3, #1
 983 0096 7B61     		str	r3, [r7, #20]
 984              	.L67:
 173:..\VFH/vfh.c  ****     hist->densities[i] = 0;
 985              		.loc 1 173 0 is_stmt 0 discriminator 1
 986 0098 3B69     		ldr	r3, [r7, #16]
 987 009a 5A68     		ldr	r2, [r3, #4]
 988 009c 7B69     		ldr	r3, [r7, #20]
 989 009e 9A42     		cmp	r2, r3
 990 00a0 F0DC     		bgt	.L68
 991              	.LBE10:
 175:..\VFH/vfh.c  ****   }
 176:..\VFH/vfh.c  **** 
 177:..\VFH/vfh.c  ****   return hist;
 992              		.loc 1 177 0 is_stmt 1
 993 00a2 3B69     		ldr	r3, [r7, #16]
 994              	.L65:
 178:..\VFH/vfh.c  **** }
 995              		.loc 1 178 0
 996 00a4 1846     		mov	r0, r3
 997 00a6 1C37     		adds	r7, r7, #28
 998              		.cfi_def_cfa_offset 12
 999 00a8 BD46     		mov	sp, r7
 1000              		.cfi_def_cfa_register 13
 1001              		@ sp needed
 1002 00aa 90BD     		pop	{r4, r7, pc}
 1003              		.cfi_endproc
 1004              	.LFE3:
 1005              		.size	polar_histogram_create, .-polar_histogram_create
 1006              		.section	.text.smoothed_POD_histogram,"ax",%progbits
 1007              		.align	2
ARM GAS  C:\Users\cyu13\AppData\Local\Temp\ccSGk0Me.s 			page 22


 1008              		.global	smoothed_POD_histogram
 1009              		.thumb
 1010              		.thumb_func
 1011              		.type	smoothed_POD_histogram, %function
 1012              	smoothed_POD_histogram:
 1013              	.LFB4:
 179:..\VFH/vfh.c  **** 
 180:..\VFH/vfh.c  **** double * smoothed_POD_histogram(double * active, double alpha, double l) {
 1014              		.loc 1 180 0
 1015              		.cfi_startproc
 1016              		@ args = 8, pretend = 0, frame = 88
 1017              		@ frame_needed = 1, uses_anonymous_args = 0
 1018 0000 B0B5     		push	{r4, r5, r7, lr}
 1019              		.cfi_def_cfa_offset 16
 1020              		.cfi_offset 4, -16
 1021              		.cfi_offset 5, -12
 1022              		.cfi_offset 7, -8
 1023              		.cfi_offset 14, -4
 1024 0002 96B0     		sub	sp, sp, #88
 1025              		.cfi_def_cfa_offset 104
 1026 0004 00AF     		add	r7, sp, #0
 1027              		.cfi_def_cfa_register 7
 1028 0006 F860     		str	r0, [r7, #12]
 1029 0008 C7E90023 		strd	r2, [r7]
 181:..\VFH/vfh.c  **** 
 182:..\VFH/vfh.c  ****   int nsectors = 360 / alpha;
 1030              		.loc 1 182 0
 1031 000c D7E90023 		ldrd	r2, [r7]
 1032 0010 4FF00000 		mov	r0, #0
 1033 0014 8A49     		ldr	r1, .L81
 1034 0016 FFF7FEFF 		bl	__aeabi_ddiv
 1035 001a 0346     		mov	r3, r0
 1036 001c 0C46     		mov	r4, r1
 1037 001e 1846     		mov	r0, r3
 1038 0020 2146     		mov	r1, r4
 1039 0022 FFF7FEFF 		bl	__aeabi_d2iz
 1040 0026 0346     		mov	r3, r0
 1041 0028 BB62     		str	r3, [r7, #40]
 183:..\VFH/vfh.c  ****   double *POD_hist = (double*) malloc(nsectors * sizeof(double));
 1042              		.loc 1 183 0
 1043 002a BB6A     		ldr	r3, [r7, #40]
 1044 002c DB00     		lsls	r3, r3, #3
 1045 002e 1846     		mov	r0, r3
 1046 0030 FFF7FEFF 		bl	malloc
 1047 0034 0346     		mov	r3, r0
 1048 0036 7B62     		str	r3, [r7, #36]
 184:..\VFH/vfh.c  **** 
 185:..\VFH/vfh.c  ****   // Calculate sum of active window
 186:..\VFH/vfh.c  ****   double active_sum = 0;
 1049              		.loc 1 186 0
 1050 0038 4FF00003 		mov	r3, #0
 1051 003c 4FF00004 		mov	r4, #0
 1052 0040 C7E91434 		strd	r3, [r7, #80]
 1053              	.LBB11:
 187:..\VFH/vfh.c  ****   for (int i=0; i < 360; i++) {
 1054              		.loc 1 187 0
 1055 0044 0023     		movs	r3, #0
ARM GAS  C:\Users\cyu13\AppData\Local\Temp\ccSGk0Me.s 			page 23


 1056 0046 FB64     		str	r3, [r7, #76]
 1057 0048 11E0     		b	.L70
 1058              	.L71:
 188:..\VFH/vfh.c  ****     active_sum = active_sum + active[i];
 1059              		.loc 1 188 0 discriminator 3
 1060 004a FB6C     		ldr	r3, [r7, #76]
 1061 004c DB00     		lsls	r3, r3, #3
 1062 004e FA68     		ldr	r2, [r7, #12]
 1063 0050 1344     		add	r3, r3, r2
 1064 0052 18CB     		ldmia	r3, {r3-r4}
 1065 0054 1A46     		mov	r2, r3
 1066 0056 2346     		mov	r3, r4
 1067 0058 D7E91401 		ldrd	r0, [r7, #80]
 1068 005c FFF7FEFF 		bl	__aeabi_dadd
 1069 0060 0346     		mov	r3, r0
 1070 0062 0C46     		mov	r4, r1
 1071 0064 C7E91434 		strd	r3, [r7, #80]
 187:..\VFH/vfh.c  ****   for (int i=0; i < 360; i++) {
 1072              		.loc 1 187 0 discriminator 3
 1073 0068 FB6C     		ldr	r3, [r7, #76]
 1074 006a 0133     		adds	r3, r3, #1
 1075 006c FB64     		str	r3, [r7, #76]
 1076              	.L70:
 187:..\VFH/vfh.c  ****   for (int i=0; i < 360; i++) {
 1077              		.loc 1 187 0 is_stmt 0 discriminator 1
 1078 006e FB6C     		ldr	r3, [r7, #76]
 1079 0070 B3F5B47F 		cmp	r3, #360
 1080 0074 E9DB     		blt	.L71
 1081              	.LBE11:
 1082              	.LBB12:
 189:..\VFH/vfh.c  ****   }
 190:..\VFH/vfh.c  **** 
 191:..\VFH/vfh.c  ****   // Create POD histogram
 192:..\VFH/vfh.c  ****   for (int i=0; i < nsectors; i++) {
 1083              		.loc 1 192 0 is_stmt 1
 1084 0076 0023     		movs	r3, #0
 1085 0078 BB64     		str	r3, [r7, #72]
 1086 007a 49E0     		b	.L72
 1087              	.L75:
 1088              	.LBB13:
 193:..\VFH/vfh.c  ****     int left = alpha * i;
 1089              		.loc 1 193 0
 1090 007c B86C     		ldr	r0, [r7, #72]
 1091 007e FFF7FEFF 		bl	__aeabi_i2d
 1092 0082 D7E90023 		ldrd	r2, [r7]
 1093 0086 FFF7FEFF 		bl	__aeabi_dmul
 1094 008a 0346     		mov	r3, r0
 1095 008c 0C46     		mov	r4, r1
 1096 008e 1846     		mov	r0, r3
 1097 0090 2146     		mov	r1, r4
 1098 0092 FFF7FEFF 		bl	__aeabi_d2iz
 1099 0096 0346     		mov	r3, r0
 1100 0098 3B62     		str	r3, [r7, #32]
 194:..\VFH/vfh.c  ****     int right = alpha * (i + 1);
 1101              		.loc 1 194 0
 1102 009a BB6C     		ldr	r3, [r7, #72]
 1103 009c 0133     		adds	r3, r3, #1
ARM GAS  C:\Users\cyu13\AppData\Local\Temp\ccSGk0Me.s 			page 24


 1104 009e 1846     		mov	r0, r3
 1105 00a0 FFF7FEFF 		bl	__aeabi_i2d
 1106 00a4 D7E90023 		ldrd	r2, [r7]
 1107 00a8 FFF7FEFF 		bl	__aeabi_dmul
 1108 00ac 0346     		mov	r3, r0
 1109 00ae 0C46     		mov	r4, r1
 1110 00b0 1846     		mov	r0, r3
 1111 00b2 2146     		mov	r1, r4
 1112 00b4 FFF7FEFF 		bl	__aeabi_d2iz
 1113 00b8 0346     		mov	r3, r0
 1114 00ba FB61     		str	r3, [r7, #28]
 195:..\VFH/vfh.c  ****     double sum = 0;
 1115              		.loc 1 195 0
 1116 00bc 4FF00003 		mov	r3, #0
 1117 00c0 4FF00004 		mov	r4, #0
 1118 00c4 C7E91034 		strd	r3, [r7, #64]
 1119              	.LBB14:
 196:..\VFH/vfh.c  **** 
 197:..\VFH/vfh.c  ****     for (int j=left; j < right; j++) {
 1120              		.loc 1 197 0
 1121 00c8 3B6A     		ldr	r3, [r7, #32]
 1122 00ca FB63     		str	r3, [r7, #60]
 1123 00cc 11E0     		b	.L73
 1124              	.L74:
 198:..\VFH/vfh.c  ****       sum += active[j];
 1125              		.loc 1 198 0 discriminator 3
 1126 00ce FB6B     		ldr	r3, [r7, #60]
 1127 00d0 DB00     		lsls	r3, r3, #3
 1128 00d2 FA68     		ldr	r2, [r7, #12]
 1129 00d4 1344     		add	r3, r3, r2
 1130 00d6 18CB     		ldmia	r3, {r3-r4}
 1131 00d8 1A46     		mov	r2, r3
 1132 00da 2346     		mov	r3, r4
 1133 00dc D7E91001 		ldrd	r0, [r7, #64]
 1134 00e0 FFF7FEFF 		bl	__aeabi_dadd
 1135 00e4 0346     		mov	r3, r0
 1136 00e6 0C46     		mov	r4, r1
 1137 00e8 C7E91034 		strd	r3, [r7, #64]
 197:..\VFH/vfh.c  ****       sum += active[j];
 1138              		.loc 1 197 0 discriminator 3
 1139 00ec FB6B     		ldr	r3, [r7, #60]
 1140 00ee 0133     		adds	r3, r3, #1
 1141 00f0 FB63     		str	r3, [r7, #60]
 1142              	.L73:
 197:..\VFH/vfh.c  ****       sum += active[j];
 1143              		.loc 1 197 0 is_stmt 0 discriminator 1
 1144 00f2 FA6B     		ldr	r2, [r7, #60]
 1145 00f4 FB69     		ldr	r3, [r7, #28]
 1146 00f6 9A42     		cmp	r2, r3
 1147 00f8 E9DB     		blt	.L74
 1148              	.LBE14:
 199:..\VFH/vfh.c  ****     }
 200:..\VFH/vfh.c  **** 
 201:..\VFH/vfh.c  ****     POD_hist[i] = sum;
 1149              		.loc 1 201 0 is_stmt 1 discriminator 2
 1150 00fa BB6C     		ldr	r3, [r7, #72]
 1151 00fc DB00     		lsls	r3, r3, #3
ARM GAS  C:\Users\cyu13\AppData\Local\Temp\ccSGk0Me.s 			page 25


 1152 00fe 7A6A     		ldr	r2, [r7, #36]
 1153 0100 1A44     		add	r2, r2, r3
 1154 0102 D7E91034 		ldrd	r3, [r7, #64]
 1155 0106 C2E90034 		strd	r3, [r2]
 1156              	.LBE13:
 192:..\VFH/vfh.c  ****     int left = alpha * i;
 1157              		.loc 1 192 0 discriminator 2
 1158 010a BB6C     		ldr	r3, [r7, #72]
 1159 010c 0133     		adds	r3, r3, #1
 1160 010e BB64     		str	r3, [r7, #72]
 1161              	.L72:
 192:..\VFH/vfh.c  ****     int left = alpha * i;
 1162              		.loc 1 192 0 is_stmt 0 discriminator 1
 1163 0110 BA6C     		ldr	r2, [r7, #72]
 1164 0112 BB6A     		ldr	r3, [r7, #40]
 1165 0114 9A42     		cmp	r2, r3
 1166 0116 B1DB     		blt	.L75
 1167              	.LBE12:
 202:..\VFH/vfh.c  ****   }
 203:..\VFH/vfh.c  **** 
 204:..\VFH/vfh.c  ****   // Smoothing POD histogram
 205:..\VFH/vfh.c  ****   double *smoothed_POD = (double*) malloc(nsectors * sizeof(double));
 1168              		.loc 1 205 0 is_stmt 1
 1169 0118 BB6A     		ldr	r3, [r7, #40]
 1170 011a DB00     		lsls	r3, r3, #3
 1171 011c 1846     		mov	r0, r3
 1172 011e FFF7FEFF 		bl	malloc
 1173 0122 0346     		mov	r3, r0
 1174 0124 BB61     		str	r3, [r7, #24]
 1175              	.LBB15:
 206:..\VFH/vfh.c  ****   for (int i=0; i < nsectors; i++) {
 1176              		.loc 1 206 0
 1177 0126 0023     		movs	r3, #0
 1178 0128 BB63     		str	r3, [r7, #56]
 1179 012a 7EE0     		b	.L76
 1180              	.L79:
 1181              	.LBB16:
 207:..\VFH/vfh.c  ****     double sum_element = POD_hist[i] * l;
 1182              		.loc 1 207 0
 1183 012c BB6B     		ldr	r3, [r7, #56]
 1184 012e DB00     		lsls	r3, r3, #3
 1185 0130 7A6A     		ldr	r2, [r7, #36]
 1186 0132 1344     		add	r3, r3, r2
 1187 0134 D3E90001 		ldrd	r0, [r3]
 1188 0138 D7E91A23 		ldrd	r2, [r7, #104]
 1189 013c FFF7FEFF 		bl	__aeabi_dmul
 1190 0140 0346     		mov	r3, r0
 1191 0142 0C46     		mov	r4, r1
 1192 0144 C7E90C34 		strd	r3, [r7, #48]
 1193              	.LBB17:
 208:..\VFH/vfh.c  **** 
 209:..\VFH/vfh.c  ****     for (int j=0; j < l; j++) {
 1194              		.loc 1 209 0
 1195 0148 0023     		movs	r3, #0
 1196 014a FB62     		str	r3, [r7, #44]
 1197 014c 3DE0     		b	.L77
 1198              	.L78:
ARM GAS  C:\Users\cyu13\AppData\Local\Temp\ccSGk0Me.s 			page 26


 210:..\VFH/vfh.c  ****       sum_element += (POD_hist[i-(j+1)] + POD_hist[(i+(j+1)) % nsectors]) * (l - j);
 1199              		.loc 1 210 0 discriminator 3
 1200 014e FB6A     		ldr	r3, [r7, #44]
 1201 0150 0133     		adds	r3, r3, #1
 1202 0152 BA6B     		ldr	r2, [r7, #56]
 1203 0154 D31A     		subs	r3, r2, r3
 1204 0156 DB00     		lsls	r3, r3, #3
 1205 0158 7A6A     		ldr	r2, [r7, #36]
 1206 015a 1344     		add	r3, r3, r2
 1207 015c D3E90001 		ldrd	r0, [r3]
 1208 0160 FB6A     		ldr	r3, [r7, #44]
 1209 0162 5A1C     		adds	r2, r3, #1
 1210 0164 BB6B     		ldr	r3, [r7, #56]
 1211 0166 1344     		add	r3, r3, r2
 1212 0168 BA6A     		ldr	r2, [r7, #40]
 1213 016a 93FBF2F2 		sdiv	r2, r3, r2
 1214 016e BC6A     		ldr	r4, [r7, #40]
 1215 0170 04FB02F2 		mul	r2, r4, r2
 1216 0174 9B1A     		subs	r3, r3, r2
 1217 0176 DB00     		lsls	r3, r3, #3
 1218 0178 7A6A     		ldr	r2, [r7, #36]
 1219 017a 1344     		add	r3, r3, r2
 1220 017c 18CB     		ldmia	r3, {r3-r4}
 1221 017e 1A46     		mov	r2, r3
 1222 0180 2346     		mov	r3, r4
 1223 0182 FFF7FEFF 		bl	__aeabi_dadd
 1224 0186 0346     		mov	r3, r0
 1225 0188 0C46     		mov	r4, r1
 1226 018a 2546     		mov	r5, r4
 1227 018c 1C46     		mov	r4, r3
 1228 018e F86A     		ldr	r0, [r7, #44]
 1229 0190 FFF7FEFF 		bl	__aeabi_i2d
 1230 0194 0246     		mov	r2, r0
 1231 0196 0B46     		mov	r3, r1
 1232 0198 D7E91A01 		ldrd	r0, [r7, #104]
 1233 019c FFF7FEFF 		bl	__aeabi_dsub
 1234 01a0 0246     		mov	r2, r0
 1235 01a2 0B46     		mov	r3, r1
 1236 01a4 2046     		mov	r0, r4
 1237 01a6 2946     		mov	r1, r5
 1238 01a8 FFF7FEFF 		bl	__aeabi_dmul
 1239 01ac 0346     		mov	r3, r0
 1240 01ae 0C46     		mov	r4, r1
 1241 01b0 1A46     		mov	r2, r3
 1242 01b2 2346     		mov	r3, r4
 1243 01b4 D7E90C01 		ldrd	r0, [r7, #48]
 1244 01b8 FFF7FEFF 		bl	__aeabi_dadd
 1245 01bc 0346     		mov	r3, r0
 1246 01be 0C46     		mov	r4, r1
 1247 01c0 C7E90C34 		strd	r3, [r7, #48]
 209:..\VFH/vfh.c  ****       sum_element += (POD_hist[i-(j+1)] + POD_hist[(i+(j+1)) % nsectors]) * (l - j);
 1248              		.loc 1 209 0 discriminator 3
 1249 01c4 FB6A     		ldr	r3, [r7, #44]
 1250 01c6 0133     		adds	r3, r3, #1
 1251 01c8 FB62     		str	r3, [r7, #44]
 1252              	.L77:
 209:..\VFH/vfh.c  ****       sum_element += (POD_hist[i-(j+1)] + POD_hist[(i+(j+1)) % nsectors]) * (l - j);
ARM GAS  C:\Users\cyu13\AppData\Local\Temp\ccSGk0Me.s 			page 27


 1253              		.loc 1 209 0 is_stmt 0 discriminator 1
 1254 01ca F86A     		ldr	r0, [r7, #44]
 1255 01cc FFF7FEFF 		bl	__aeabi_i2d
 1256 01d0 D7E91A23 		ldrd	r2, [r7, #104]
 1257 01d4 FFF7FEFF 		bl	__aeabi_dcmplt
 1258 01d8 0346     		mov	r3, r0
 1259 01da 002B     		cmp	r3, #0
 1260 01dc B7D1     		bne	.L78
 1261              	.LBE17:
 211:..\VFH/vfh.c  ****     }
 212:..\VFH/vfh.c  **** 
 213:..\VFH/vfh.c  ****     double smoothed_element = sum_element / ((2 * l) + 1);
 1262              		.loc 1 213 0 is_stmt 1 discriminator 2
 1263 01de D7E91A01 		ldrd	r0, [r7, #104]
 1264 01e2 0246     		mov	r2, r0
 1265 01e4 0B46     		mov	r3, r1
 1266 01e6 FFF7FEFF 		bl	__aeabi_dadd
 1267 01ea 0346     		mov	r3, r0
 1268 01ec 0C46     		mov	r4, r1
 1269 01ee 1846     		mov	r0, r3
 1270 01f0 2146     		mov	r1, r4
 1271 01f2 4FF00002 		mov	r2, #0
 1272 01f6 134B     		ldr	r3, .L81+4
 1273 01f8 FFF7FEFF 		bl	__aeabi_dadd
 1274 01fc 0346     		mov	r3, r0
 1275 01fe 0C46     		mov	r4, r1
 1276 0200 1A46     		mov	r2, r3
 1277 0202 2346     		mov	r3, r4
 1278 0204 D7E90C01 		ldrd	r0, [r7, #48]
 1279 0208 FFF7FEFF 		bl	__aeabi_ddiv
 1280 020c 0346     		mov	r3, r0
 1281 020e 0C46     		mov	r4, r1
 1282 0210 C7E90434 		strd	r3, [r7, #16]
 214:..\VFH/vfh.c  ****     smoothed_POD[i] = smoothed_element;
 1283              		.loc 1 214 0 discriminator 2
 1284 0214 BB6B     		ldr	r3, [r7, #56]
 1285 0216 DB00     		lsls	r3, r3, #3
 1286 0218 BA69     		ldr	r2, [r7, #24]
 1287 021a 1A44     		add	r2, r2, r3
 1288 021c D7E90434 		ldrd	r3, [r7, #16]
 1289 0220 C2E90034 		strd	r3, [r2]
 1290              	.LBE16:
 206:..\VFH/vfh.c  ****     double sum_element = POD_hist[i] * l;
 1291              		.loc 1 206 0 discriminator 2
 1292 0224 BB6B     		ldr	r3, [r7, #56]
 1293 0226 0133     		adds	r3, r3, #1
 1294 0228 BB63     		str	r3, [r7, #56]
 1295              	.L76:
 206:..\VFH/vfh.c  ****     double sum_element = POD_hist[i] * l;
 1296              		.loc 1 206 0 is_stmt 0 discriminator 1
 1297 022a BA6B     		ldr	r2, [r7, #56]
 1298 022c BB6A     		ldr	r3, [r7, #40]
 1299 022e 9A42     		cmp	r2, r3
 1300 0230 FFF67CAF 		blt	.L79
 1301              	.LBE15:
 215:..\VFH/vfh.c  ****   }
 216:..\VFH/vfh.c  ****   
ARM GAS  C:\Users\cyu13\AppData\Local\Temp\ccSGk0Me.s 			page 28


 217:..\VFH/vfh.c  ****   return smoothed_POD;
 1302              		.loc 1 217 0 is_stmt 1
 1303 0234 BB69     		ldr	r3, [r7, #24]
 218:..\VFH/vfh.c  **** 
 219:..\VFH/vfh.c  **** }
 1304              		.loc 1 219 0
 1305 0236 1846     		mov	r0, r3
 1306 0238 5837     		adds	r7, r7, #88
 1307              		.cfi_def_cfa_offset 16
 1308 023a BD46     		mov	sp, r7
 1309              		.cfi_def_cfa_register 13
 1310              		@ sp needed
 1311 023c B0BD     		pop	{r4, r5, r7, pc}
 1312              	.L82:
 1313 023e 00BF     		.align	2
 1314              	.L81:
 1315 0240 00807640 		.word	1081507840
 1316 0244 0000F03F 		.word	1072693248
 1317              		.cfi_endproc
 1318              	.LFE4:
 1319              		.size	smoothed_POD_histogram, .-smoothed_POD_histogram
 1320              		.section	.text.candidate_valley,"ax",%progbits
 1321              		.align	2
 1322              		.global	candidate_valley
 1323              		.thumb
 1324              		.thumb_func
 1325              		.type	candidate_valley, %function
 1326              	candidate_valley:
 1327              	.LFB5:
 220:..\VFH/vfh.c  **** 
 221:..\VFH/vfh.c  **** int * candidate_valley(double * smoothed_POD, double valley_threshold) {
 1328              		.loc 1 221 0
 1329              		.cfi_startproc
 1330              		@ args = 0, pretend = 0, frame = 48
 1331              		@ frame_needed = 1, uses_anonymous_args = 0
 1332 0000 80B5     		push	{r7, lr}
 1333              		.cfi_def_cfa_offset 8
 1334              		.cfi_offset 7, -8
 1335              		.cfi_offset 14, -4
 1336 0002 8CB0     		sub	sp, sp, #48
 1337              		.cfi_def_cfa_offset 56
 1338 0004 00AF     		add	r7, sp, #0
 1339              		.cfi_def_cfa_register 7
 1340 0006 F860     		str	r0, [r7, #12]
 1341 0008 C7E90023 		strd	r2, [r7]
 222:..\VFH/vfh.c  ****   /* Selects the candidate valley based on the produced Polar Histogram */
 223:..\VFH/vfh.c  ****   int lst_length = sizeof(smoothed_POD) / sizeof(double);
 1342              		.loc 1 223 0
 1343 000c 0023     		movs	r3, #0
 1344 000e FB61     		str	r3, [r7, #28]
 224:..\VFH/vfh.c  ****   int * candidate_idx = malloc(lst_length * sizeof(int));
 1345              		.loc 1 224 0
 1346 0010 FB69     		ldr	r3, [r7, #28]
 1347 0012 9B00     		lsls	r3, r3, #2
 1348 0014 1846     		mov	r0, r3
 1349 0016 FFF7FEFF 		bl	malloc
 1350 001a 0346     		mov	r3, r0
ARM GAS  C:\Users\cyu13\AppData\Local\Temp\ccSGk0Me.s 			page 29


 1351 001c BB61     		str	r3, [r7, #24]
 1352              	.LBB18:
 225:..\VFH/vfh.c  ****   int idx_counter;
 226:..\VFH/vfh.c  **** 
 227:..\VFH/vfh.c  ****   // Loop through densities and select candidate positions
 228:..\VFH/vfh.c  ****   for (int i = 0; i < lst_length; i++) {
 1353              		.loc 1 228 0
 1354 001e 0023     		movs	r3, #0
 1355 0020 BB62     		str	r3, [r7, #40]
 1356 0022 1FE0     		b	.L84
 1357              	.L88:
 229:..\VFH/vfh.c  **** 
 230:..\VFH/vfh.c  ****     if (smoothed_POD[i] < valley_threshold) {
 1358              		.loc 1 230 0
 1359 0024 BB6A     		ldr	r3, [r7, #40]
 1360 0026 DB00     		lsls	r3, r3, #3
 1361 0028 FA68     		ldr	r2, [r7, #12]
 1362 002a 1344     		add	r3, r3, r2
 1363 002c D3E90001 		ldrd	r0, [r3]
 1364 0030 D7E90023 		ldrd	r2, [r7]
 1365 0034 FFF7FEFF 		bl	__aeabi_dcmplt
 1366 0038 0346     		mov	r3, r0
 1367 003a 002B     		cmp	r3, #0
 1368 003c 09D0     		beq	.L94
 231:..\VFH/vfh.c  ****       candidate_idx[i] = 1;
 1369              		.loc 1 231 0
 1370 003e BB6A     		ldr	r3, [r7, #40]
 1371 0040 9B00     		lsls	r3, r3, #2
 1372 0042 BA69     		ldr	r2, [r7, #24]
 1373 0044 1344     		add	r3, r3, r2
 1374 0046 0122     		movs	r2, #1
 1375 0048 1A60     		str	r2, [r3]
 232:..\VFH/vfh.c  ****       idx_counter++;
 1376              		.loc 1 232 0
 1377 004a FB6A     		ldr	r3, [r7, #44]
 1378 004c 0133     		adds	r3, r3, #1
 1379 004e FB62     		str	r3, [r7, #44]
 1380 0050 05E0     		b	.L87
 1381              	.L94:
 233:..\VFH/vfh.c  ****     } else {
 234:..\VFH/vfh.c  ****       candidate_idx[i] = 0;
 1382              		.loc 1 234 0
 1383 0052 BB6A     		ldr	r3, [r7, #40]
 1384 0054 9B00     		lsls	r3, r3, #2
 1385 0056 BA69     		ldr	r2, [r7, #24]
 1386 0058 1344     		add	r3, r3, r2
 1387 005a 0022     		movs	r2, #0
 1388 005c 1A60     		str	r2, [r3]
 1389              	.L87:
 228:..\VFH/vfh.c  **** 
 1390              		.loc 1 228 0 discriminator 2
 1391 005e BB6A     		ldr	r3, [r7, #40]
 1392 0060 0133     		adds	r3, r3, #1
 1393 0062 BB62     		str	r3, [r7, #40]
 1394              	.L84:
 228:..\VFH/vfh.c  **** 
 1395              		.loc 1 228 0 is_stmt 0 discriminator 1
ARM GAS  C:\Users\cyu13\AppData\Local\Temp\ccSGk0Me.s 			page 30


 1396 0064 BA6A     		ldr	r2, [r7, #40]
 1397 0066 FB69     		ldr	r3, [r7, #28]
 1398 0068 9A42     		cmp	r2, r3
 1399 006a DBDB     		blt	.L88
 1400              	.LBE18:
 235:..\VFH/vfh.c  ****     }
 236:..\VFH/vfh.c  ****   }
 237:..\VFH/vfh.c  **** 
 238:..\VFH/vfh.c  ****   // Clean list and return indexes of valleys in histogram
 239:..\VFH/vfh.c  ****   int * candidate_lst = malloc(idx_counter * sizeof(int));
 1401              		.loc 1 239 0 is_stmt 1
 1402 006c FB6A     		ldr	r3, [r7, #44]
 1403 006e 9B00     		lsls	r3, r3, #2
 1404 0070 1846     		mov	r0, r3
 1405 0072 FFF7FEFF 		bl	malloc
 1406 0076 0346     		mov	r3, r0
 1407 0078 7B61     		str	r3, [r7, #20]
 240:..\VFH/vfh.c  ****   int temp = 0;
 1408              		.loc 1 240 0
 1409 007a 0023     		movs	r3, #0
 1410 007c 7B62     		str	r3, [r7, #36]
 1411              	.LBB19:
 241:..\VFH/vfh.c  ****   for (int i = 0; i < lst_length; i++) {
 1412              		.loc 1 241 0
 1413 007e 0023     		movs	r3, #0
 1414 0080 3B62     		str	r3, [r7, #32]
 1415 0082 16E0     		b	.L89
 1416              	.L91:
 242:..\VFH/vfh.c  ****     if (candidate_idx[i] == 1) {
 1417              		.loc 1 242 0
 1418 0084 3B6A     		ldr	r3, [r7, #32]
 1419 0086 9B00     		lsls	r3, r3, #2
 1420 0088 BA69     		ldr	r2, [r7, #24]
 1421 008a 1344     		add	r3, r3, r2
 1422 008c 1B68     		ldr	r3, [r3]
 1423 008e 012B     		cmp	r3, #1
 1424 0090 0CD1     		bne	.L90
 243:..\VFH/vfh.c  ****       candidate_lst[temp] = candidate_idx[i];
 1425              		.loc 1 243 0
 1426 0092 7B6A     		ldr	r3, [r7, #36]
 1427 0094 9B00     		lsls	r3, r3, #2
 1428 0096 7A69     		ldr	r2, [r7, #20]
 1429 0098 1344     		add	r3, r3, r2
 1430 009a 3A6A     		ldr	r2, [r7, #32]
 1431 009c 9200     		lsls	r2, r2, #2
 1432 009e B969     		ldr	r1, [r7, #24]
 1433 00a0 0A44     		add	r2, r2, r1
 1434 00a2 1268     		ldr	r2, [r2]
 1435 00a4 1A60     		str	r2, [r3]
 244:..\VFH/vfh.c  ****       temp++;
 1436              		.loc 1 244 0
 1437 00a6 7B6A     		ldr	r3, [r7, #36]
 1438 00a8 0133     		adds	r3, r3, #1
 1439 00aa 7B62     		str	r3, [r7, #36]
 1440              	.L90:
 241:..\VFH/vfh.c  ****     if (candidate_idx[i] == 1) {
 1441              		.loc 1 241 0 discriminator 2
ARM GAS  C:\Users\cyu13\AppData\Local\Temp\ccSGk0Me.s 			page 31


 1442 00ac 3B6A     		ldr	r3, [r7, #32]
 1443 00ae 0133     		adds	r3, r3, #1
 1444 00b0 3B62     		str	r3, [r7, #32]
 1445              	.L89:
 241:..\VFH/vfh.c  ****     if (candidate_idx[i] == 1) {
 1446              		.loc 1 241 0 is_stmt 0 discriminator 1
 1447 00b2 3A6A     		ldr	r2, [r7, #32]
 1448 00b4 FB69     		ldr	r3, [r7, #28]
 1449 00b6 9A42     		cmp	r2, r3
 1450 00b8 E4DB     		blt	.L91
 1451              	.LBE19:
 245:..\VFH/vfh.c  ****     }
 246:..\VFH/vfh.c  ****   }
 247:..\VFH/vfh.c  ****   
 248:..\VFH/vfh.c  ****   free(candidate_idx);
 1452              		.loc 1 248 0 is_stmt 1
 1453 00ba B869     		ldr	r0, [r7, #24]
 1454 00bc FFF7FEFF 		bl	free
 249:..\VFH/vfh.c  **** 
 250:..\VFH/vfh.c  ****   return candidate_lst;
 1455              		.loc 1 250 0
 1456 00c0 7B69     		ldr	r3, [r7, #20]
 251:..\VFH/vfh.c  **** }
 1457              		.loc 1 251 0
 1458 00c2 1846     		mov	r0, r3
 1459 00c4 3037     		adds	r7, r7, #48
 1460              		.cfi_def_cfa_offset 8
 1461 00c6 BD46     		mov	sp, r7
 1462              		.cfi_def_cfa_register 13
 1463              		@ sp needed
 1464 00c8 80BD     		pop	{r7, pc}
 1465              		.cfi_endproc
 1466              	.LFE5:
 1467              		.size	candidate_valley, .-candidate_valley
 1468              		.global	__aeabi_dcmple
 1469 00ca 00BF     		.section	.text.calculate_avoidance_angle,"ax",%progbits
 1470              		.align	2
 1471              		.global	calculate_avoidance_angle
 1472              		.thumb
 1473              		.thumb_func
 1474              		.type	calculate_avoidance_angle, %function
 1475              	calculate_avoidance_angle:
 1476              	.LFB6:
 252:..\VFH/vfh.c  **** 
 253:..\VFH/vfh.c  **** /*=======================================================================*/
 254:..\VFH/vfh.c  **** 
 255:..\VFH/vfh.c  **** 
 256:..\VFH/vfh.c  **** double calculate_avoidance_angle(double *smoothed_POD, Robot * robot, int * candidate_lst, double a
 1477              		.loc 1 256 0
 1478              		.cfi_startproc
 1479              		@ args = 24, pretend = 0, frame = 128
 1480              		@ frame_needed = 1, uses_anonymous_args = 0
 1481 0000 B0B5     		push	{r4, r5, r7, lr}
 1482              		.cfi_def_cfa_offset 16
 1483              		.cfi_offset 4, -16
 1484              		.cfi_offset 5, -12
 1485              		.cfi_offset 7, -8
ARM GAS  C:\Users\cyu13\AppData\Local\Temp\ccSGk0Me.s 			page 32


 1486              		.cfi_offset 14, -4
 1487 0002 A6B0     		sub	sp, sp, #152
 1488              		.cfi_def_cfa_offset 168
 1489 0004 06AF     		add	r7, sp, #24
 1490              		.cfi_def_cfa 7, 144
 1491 0006 F860     		str	r0, [r7, #12]
 1492 0008 B960     		str	r1, [r7, #8]
 1493 000a 7A60     		str	r2, [r7, #4]
 257:..\VFH/vfh.c  ****   /* Retrieves the angle that the robot must drive towards. */
 258:..\VFH/vfh.c  ****   int candidates_len = sizeof(candidate_lst) / sizeof(int);
 1494              		.loc 1 258 0
 1495 000c 0123     		movs	r3, #1
 1496 000e BB65     		str	r3, [r7, #88]
 259:..\VFH/vfh.c  ****   int nsectors = 360/alpha;
 1497              		.loc 1 259 0
 1498 0010 D7E92423 		ldrd	r2, [r7, #144]
 1499 0014 4FF00000 		mov	r0, #0
 1500 0018 9D49     		ldr	r1, .L126+16
 1501 001a FFF7FEFF 		bl	__aeabi_ddiv
 1502 001e 0346     		mov	r3, r0
 1503 0020 0C46     		mov	r4, r1
 1504 0022 1846     		mov	r0, r3
 1505 0024 2146     		mov	r1, r4
 1506 0026 FFF7FEFF 		bl	__aeabi_d2iz
 1507 002a 0346     		mov	r3, r0
 1508 002c 7B65     		str	r3, [r7, #84]
 260:..\VFH/vfh.c  **** 
 261:..\VFH/vfh.c  ****   // Retrive useful variables
 262:..\VFH/vfh.c  ****   double pos_x = robot->x;
 1509              		.loc 1 262 0
 1510 002e BB68     		ldr	r3, [r7, #8]
 1511 0030 03F11004 		add	r4, r3, #16
 1512 0034 D4E90034 		ldrd	r3, [r4]
 1513 0038 C7E91234 		strd	r3, [r7, #72]
 263:..\VFH/vfh.c  ****   double pos_y = robot->y;
 1514              		.loc 1 263 0
 1515 003c BB68     		ldr	r3, [r7, #8]
 1516 003e 03F11804 		add	r4, r3, #24
 1517 0042 D4E90034 		ldrd	r3, [r4]
 1518 0046 C7E91034 		strd	r3, [r7, #64]
 264:..\VFH/vfh.c  ****   double pos_yaw = robot->theta;
 1519              		.loc 1 264 0
 1520 004a BB68     		ldr	r3, [r7, #8]
 1521 004c 03F10804 		add	r4, r3, #8
 1522 0050 D4E90034 		ldrd	r3, [r4]
 1523 0054 C7E90E34 		strd	r3, [r7, #56]
 265:..\VFH/vfh.c  ****   double goal_x = robot->goal_x;
 1524              		.loc 1 265 0
 1525 0058 BB68     		ldr	r3, [r7, #8]
 1526 005a 03F15804 		add	r4, r3, #88
 1527 005e D4E90034 		ldrd	r3, [r4]
 1528 0062 C7E90C34 		strd	r3, [r7, #48]
 266:..\VFH/vfh.c  ****   double goal_y = robot->goal_y;
 1529              		.loc 1 266 0
 1530 0066 BB68     		ldr	r3, [r7, #8]
 1531 0068 03F16004 		add	r4, r3, #96
 1532 006c D4E90034 		ldrd	r3, [r4]
ARM GAS  C:\Users\cyu13\AppData\Local\Temp\ccSGk0Me.s 			page 33


 1533 0070 C7E90A34 		strd	r3, [r7, #40]
 267:..\VFH/vfh.c  **** 
 268:..\VFH/vfh.c  ****   double goal_angle = calculate_goal_angle(pos_x, pos_y, pos_yaw, goal_x, goal_y);
 1534              		.loc 1 268 0
 1535 0074 D7E90A34 		ldrd	r3, [r7, #40]
 1536 0078 CDE90434 		strd	r3, [sp, #16]
 1537 007c D7E90C34 		ldrd	r3, [r7, #48]
 1538 0080 CDE90234 		strd	r3, [sp, #8]
 1539 0084 D7E90E34 		ldrd	r3, [r7, #56]
 1540 0088 CDE90034 		strd	r3, [sp]
 1541 008c D7E91023 		ldrd	r2, [r7, #64]
 1542 0090 D7E91201 		ldrd	r0, [r7, #72]
 1543 0094 FFF7FEFF 		bl	calculate_goal_angle
 1544 0098 C7E90801 		strd	r0, [r7, #32]
 269:..\VFH/vfh.c  ****   int goal_sector = round((180 * goal_angle / M_PI) / nsectors);
 1545              		.loc 1 269 0
 1546 009c 4FF00002 		mov	r2, #0
 1547 00a0 7C4B     		ldr	r3, .L126+20
 1548 00a2 D7E90801 		ldrd	r0, [r7, #32]
 1549 00a6 FFF7FEFF 		bl	__aeabi_dmul
 1550 00aa 0346     		mov	r3, r0
 1551 00ac 0C46     		mov	r4, r1
 1552 00ae 1846     		mov	r0, r3
 1553 00b0 2146     		mov	r1, r4
 1554 00b2 73A3     		adr	r3, .L126
 1555 00b4 D3E90023 		ldrd	r2, [r3]
 1556 00b8 FFF7FEFF 		bl	__aeabi_ddiv
 1557 00bc 0346     		mov	r3, r0
 1558 00be 0C46     		mov	r4, r1
 1559 00c0 2546     		mov	r5, r4
 1560 00c2 1C46     		mov	r4, r3
 1561 00c4 786D     		ldr	r0, [r7, #84]
 1562 00c6 FFF7FEFF 		bl	__aeabi_i2d
 1563 00ca 0246     		mov	r2, r0
 1564 00cc 0B46     		mov	r3, r1
 1565 00ce 2046     		mov	r0, r4
 1566 00d0 2946     		mov	r1, r5
 1567 00d2 FFF7FEFF 		bl	__aeabi_ddiv
 1568 00d6 0346     		mov	r3, r0
 1569 00d8 0C46     		mov	r4, r1
 1570 00da 1846     		mov	r0, r3
 1571 00dc 2146     		mov	r1, r4
 1572 00de FFF7FEFF 		bl	round
 1573 00e2 0346     		mov	r3, r0
 1574 00e4 0C46     		mov	r4, r1
 1575 00e6 1846     		mov	r0, r3
 1576 00e8 2146     		mov	r1, r4
 1577 00ea FFF7FEFF 		bl	__aeabi_d2iz
 1578 00ee 0346     		mov	r3, r0
 1579 00f0 FB61     		str	r3, [r7, #28]
 270:..\VFH/vfh.c  ****   int abs_min = 1000;
 1580              		.loc 1 270 0
 1581 00f2 4FF47A73 		mov	r3, #1000
 1582 00f6 FB67     		str	r3, [r7, #124]
 271:..\VFH/vfh.c  ****   int k_n = -1;
 1583              		.loc 1 271 0
 1584 00f8 4FF0FF33 		mov	r3, #-1
ARM GAS  C:\Users\cyu13\AppData\Local\Temp\ccSGk0Me.s 			page 34


 1585 00fc BB67     		str	r3, [r7, #120]
 1586              	.LBB20:
 272:..\VFH/vfh.c  ****   int k_f;
 273:..\VFH/vfh.c  **** 
 274:..\VFH/vfh.c  ****   // Find angle, note we are working in degrees here
 275:..\VFH/vfh.c  ****   for (int i = 0; i < candidates_len; i++) {
 1587              		.loc 1 275 0
 1588 00fe 0023     		movs	r3, #0
 1589 0100 3B67     		str	r3, [r7, #112]
 1590 0102 5DE0     		b	.L96
 1591              	.L102:
 1592              	.LBB21:
 276:..\VFH/vfh.c  ****     int idx = candidate_lst[i];
 1593              		.loc 1 276 0
 1594 0104 3B6F     		ldr	r3, [r7, #112]
 1595 0106 9B00     		lsls	r3, r3, #2
 1596 0108 7A68     		ldr	r2, [r7, #4]
 1597 010a 1344     		add	r3, r3, r2
 1598 010c 1B68     		ldr	r3, [r3]
 1599 010e BB61     		str	r3, [r7, #24]
 277:..\VFH/vfh.c  **** 
 278:..\VFH/vfh.c  ****     // Calculating the minimum distance between the goal sector and the candidate valley
 279:..\VFH/vfh.c  ****     int min_distance;
 280:..\VFH/vfh.c  ****     if (abs(idx - goal_sector) < abs(abs(idx - goal_sector) - nsectors)) {
 1600              		.loc 1 280 0
 1601 0110 BA69     		ldr	r2, [r7, #24]
 1602 0112 FB69     		ldr	r3, [r7, #28]
 1603 0114 D31A     		subs	r3, r2, r3
 1604 0116 83EAE372 		eor	r2, r3, r3, asr #31
 1605 011a A2EBE372 		sub	r2, r2, r3, asr #31
 1606 011e B969     		ldr	r1, [r7, #24]
 1607 0120 FB69     		ldr	r3, [r7, #28]
 1608 0122 CB1A     		subs	r3, r1, r3
 1609 0124 83EAE371 		eor	r1, r3, r3, asr #31
 1610 0128 A1EBE371 		sub	r1, r1, r3, asr #31
 1611 012c 7B6D     		ldr	r3, [r7, #84]
 1612 012e CB1A     		subs	r3, r1, r3
 1613 0130 002B     		cmp	r3, #0
 1614 0132 B8BF     		it	lt
 1615 0134 5B42     		rsblt	r3, r3, #0
 1616 0136 9A42     		cmp	r2, r3
 1617 0138 07DA     		bge	.L97
 281:..\VFH/vfh.c  ****       min_distance = abs(idx - goal_sector);
 1618              		.loc 1 281 0
 1619 013a BA69     		ldr	r2, [r7, #24]
 1620 013c FB69     		ldr	r3, [r7, #28]
 1621 013e D31A     		subs	r3, r2, r3
 1622 0140 002B     		cmp	r3, #0
 1623 0142 B8BF     		it	lt
 1624 0144 5B42     		rsblt	r3, r3, #0
 1625 0146 FB66     		str	r3, [r7, #108]
 1626 0148 09E0     		b	.L98
 1627              	.L97:
 282:..\VFH/vfh.c  ****     } else {
 283:..\VFH/vfh.c  ****       min_distance = (abs(idx - goal_sector) - nsectors);
 1628              		.loc 1 283 0
 1629 014a BA69     		ldr	r2, [r7, #24]
ARM GAS  C:\Users\cyu13\AppData\Local\Temp\ccSGk0Me.s 			page 35


 1630 014c FB69     		ldr	r3, [r7, #28]
 1631 014e D31A     		subs	r3, r2, r3
 1632 0150 83EAE372 		eor	r2, r3, r3, asr #31
 1633 0154 A2EBE372 		sub	r2, r2, r3, asr #31
 1634 0158 7B6D     		ldr	r3, [r7, #84]
 1635 015a D31A     		subs	r3, r2, r3
 1636 015c FB66     		str	r3, [r7, #108]
 1637              	.L98:
 284:..\VFH/vfh.c  ****     }
 285:..\VFH/vfh.c  **** 
 286:..\VFH/vfh.c  ****     if (min_distance < abs_min) {
 1638              		.loc 1 286 0
 1639 015e FA6E     		ldr	r2, [r7, #108]
 1640 0160 FB6F     		ldr	r3, [r7, #124]
 1641 0162 9A42     		cmp	r2, r3
 1642 0164 29DA     		bge	.L99
 287:..\VFH/vfh.c  ****       if (idx * alpha < 90 || idx * alpha > 270) {
 1643              		.loc 1 287 0
 1644 0166 B869     		ldr	r0, [r7, #24]
 1645 0168 FFF7FEFF 		bl	__aeabi_i2d
 1646 016c D7E92423 		ldrd	r2, [r7, #144]
 1647 0170 FFF7FEFF 		bl	__aeabi_dmul
 1648 0174 0346     		mov	r3, r0
 1649 0176 0C46     		mov	r4, r1
 1650 0178 1846     		mov	r0, r3
 1651 017a 2146     		mov	r1, r4
 1652 017c 4FF00002 		mov	r2, #0
 1653 0180 454B     		ldr	r3, .L126+24
 1654 0182 FFF7FEFF 		bl	__aeabi_dcmplt
 1655 0186 0346     		mov	r3, r0
 1656 0188 002B     		cmp	r3, #0
 1657 018a 12D1     		bne	.L100
 1658              		.loc 1 287 0 is_stmt 0 discriminator 1
 1659 018c B869     		ldr	r0, [r7, #24]
 1660 018e FFF7FEFF 		bl	__aeabi_i2d
 1661 0192 D7E92423 		ldrd	r2, [r7, #144]
 1662 0196 FFF7FEFF 		bl	__aeabi_dmul
 1663 019a 0346     		mov	r3, r0
 1664 019c 0C46     		mov	r4, r1
 1665 019e 1846     		mov	r0, r3
 1666 01a0 2146     		mov	r1, r4
 1667 01a2 39A3     		adr	r3, .L126+8
 1668 01a4 D3E90023 		ldrd	r2, [r3]
 1669 01a8 FFF7FEFF 		bl	__aeabi_dcmpgt
 1670 01ac 0346     		mov	r3, r0
 1671 01ae 002B     		cmp	r3, #0
 1672 01b0 03D0     		beq	.L99
 1673              	.L100:
 288:..\VFH/vfh.c  ****         abs_min = min_distance;
 1674              		.loc 1 288 0 is_stmt 1
 1675 01b2 FB6E     		ldr	r3, [r7, #108]
 1676 01b4 FB67     		str	r3, [r7, #124]
 289:..\VFH/vfh.c  ****         k_n = idx;
 1677              		.loc 1 289 0
 1678 01b6 BB69     		ldr	r3, [r7, #24]
 1679 01b8 BB67     		str	r3, [r7, #120]
 1680              	.L99:
ARM GAS  C:\Users\cyu13\AppData\Local\Temp\ccSGk0Me.s 			page 36


 1681              	.LBE21:
 275:..\VFH/vfh.c  ****     int idx = candidate_lst[i];
 1682              		.loc 1 275 0 discriminator 2
 1683 01ba 3B6F     		ldr	r3, [r7, #112]
 1684 01bc 0133     		adds	r3, r3, #1
 1685 01be 3B67     		str	r3, [r7, #112]
 1686              	.L96:
 275:..\VFH/vfh.c  ****     int idx = candidate_lst[i];
 1687              		.loc 1 275 0 is_stmt 0 discriminator 1
 1688 01c0 3A6F     		ldr	r2, [r7, #112]
 1689 01c2 BB6D     		ldr	r3, [r7, #88]
 1690 01c4 9A42     		cmp	r2, r3
 1691 01c6 9DDB     		blt	.L102
 1692              	.LBE20:
 290:..\VFH/vfh.c  ****       }
 291:..\VFH/vfh.c  ****     }
 292:..\VFH/vfh.c  ****   }
 293:..\VFH/vfh.c  **** 
 294:..\VFH/vfh.c  ****   // If no valleys after filtering
 295:..\VFH/vfh.c  ****   abs_min = 100000;
 1693              		.loc 1 295 0 is_stmt 1
 1694 01c8 344B     		ldr	r3, .L126+28
 1695 01ca FB67     		str	r3, [r7, #124]
 296:..\VFH/vfh.c  ****   if (k_n == -1) {
 1696              		.loc 1 296 0
 1697 01cc BB6F     		ldr	r3, [r7, #120]
 1698 01ce B3F1FF3F 		cmp	r3, #-1
 1699 01d2 3ED1     		bne	.L103
 1700              	.LBB22:
 297:..\VFH/vfh.c  ****     for (int i = 0; i < candidates_len; i++) {
 1701              		.loc 1 297 0
 1702 01d4 0023     		movs	r3, #0
 1703 01d6 BB66     		str	r3, [r7, #104]
 1704 01d8 37E0     		b	.L104
 1705              	.L108:
 1706              	.LBB23:
 298:..\VFH/vfh.c  ****         int idx = candidate_lst[i];
 1707              		.loc 1 298 0
 1708 01da BB6E     		ldr	r3, [r7, #104]
 1709 01dc 9B00     		lsls	r3, r3, #2
 1710 01de 7A68     		ldr	r2, [r7, #4]
 1711 01e0 1344     		add	r3, r3, r2
 1712 01e2 1B68     		ldr	r3, [r3]
 1713 01e4 7B61     		str	r3, [r7, #20]
 299:..\VFH/vfh.c  **** 
 300:..\VFH/vfh.c  ****         // Calculating the minimum distance between the goal sector and the candidate valley
 301:..\VFH/vfh.c  ****         int min_distance;
 302:..\VFH/vfh.c  ****         if (abs(idx - goal_sector) < abs(abs(idx - goal_sector) - nsectors)) {
 1714              		.loc 1 302 0
 1715 01e6 7A69     		ldr	r2, [r7, #20]
 1716 01e8 FB69     		ldr	r3, [r7, #28]
 1717 01ea D31A     		subs	r3, r2, r3
 1718 01ec 83EAE372 		eor	r2, r3, r3, asr #31
 1719 01f0 A2EBE372 		sub	r2, r2, r3, asr #31
 1720 01f4 7969     		ldr	r1, [r7, #20]
 1721 01f6 FB69     		ldr	r3, [r7, #28]
 1722 01f8 CB1A     		subs	r3, r1, r3
ARM GAS  C:\Users\cyu13\AppData\Local\Temp\ccSGk0Me.s 			page 37


 1723 01fa 83EAE371 		eor	r1, r3, r3, asr #31
 1724 01fe A1EBE371 		sub	r1, r1, r3, asr #31
 1725 0202 7B6D     		ldr	r3, [r7, #84]
 1726 0204 CB1A     		subs	r3, r1, r3
 1727 0206 002B     		cmp	r3, #0
 1728 0208 B8BF     		it	lt
 1729 020a 5B42     		rsblt	r3, r3, #0
 1730 020c 9A42     		cmp	r2, r3
 1731 020e 07DA     		bge	.L105
 303:..\VFH/vfh.c  ****           min_distance = abs(idx - goal_sector);
 1732              		.loc 1 303 0
 1733 0210 7A69     		ldr	r2, [r7, #20]
 1734 0212 FB69     		ldr	r3, [r7, #28]
 1735 0214 D31A     		subs	r3, r2, r3
 1736 0216 002B     		cmp	r3, #0
 1737 0218 B8BF     		it	lt
 1738 021a 5B42     		rsblt	r3, r3, #0
 1739 021c 7B66     		str	r3, [r7, #100]
 1740 021e 09E0     		b	.L106
 1741              	.L105:
 304:..\VFH/vfh.c  ****         } else {
 305:..\VFH/vfh.c  ****           min_distance = (abs(idx - goal_sector) - nsectors);
 1742              		.loc 1 305 0
 1743 0220 7A69     		ldr	r2, [r7, #20]
 1744 0222 FB69     		ldr	r3, [r7, #28]
 1745 0224 D31A     		subs	r3, r2, r3
 1746 0226 83EAE372 		eor	r2, r3, r3, asr #31
 1747 022a A2EBE372 		sub	r2, r2, r3, asr #31
 1748 022e 7B6D     		ldr	r3, [r7, #84]
 1749 0230 D31A     		subs	r3, r2, r3
 1750 0232 7B66     		str	r3, [r7, #100]
 1751              	.L106:
 306:..\VFH/vfh.c  ****         }
 307:..\VFH/vfh.c  **** 
 308:..\VFH/vfh.c  ****         if (min_distance < abs_min) {
 1752              		.loc 1 308 0
 1753 0234 7A6E     		ldr	r2, [r7, #100]
 1754 0236 FB6F     		ldr	r3, [r7, #124]
 1755 0238 9A42     		cmp	r2, r3
 1756 023a 03DA     		bge	.L107
 309:..\VFH/vfh.c  ****           abs_min = min_distance;
 1757              		.loc 1 309 0
 1758 023c 7B6E     		ldr	r3, [r7, #100]
 1759 023e FB67     		str	r3, [r7, #124]
 310:..\VFH/vfh.c  ****           k_n = idx;
 1760              		.loc 1 310 0
 1761 0240 7B69     		ldr	r3, [r7, #20]
 1762 0242 BB67     		str	r3, [r7, #120]
 1763              	.L107:
 1764              	.LBE23:
 297:..\VFH/vfh.c  ****         int idx = candidate_lst[i];
 1765              		.loc 1 297 0 discriminator 2
 1766 0244 BB6E     		ldr	r3, [r7, #104]
 1767 0246 0133     		adds	r3, r3, #1
 1768 0248 BB66     		str	r3, [r7, #104]
 1769              	.L104:
 297:..\VFH/vfh.c  ****         int idx = candidate_lst[i];
ARM GAS  C:\Users\cyu13\AppData\Local\Temp\ccSGk0Me.s 			page 38


 1770              		.loc 1 297 0 is_stmt 0 discriminator 1
 1771 024a BA6E     		ldr	r2, [r7, #104]
 1772 024c BB6D     		ldr	r3, [r7, #88]
 1773 024e 9A42     		cmp	r2, r3
 1774 0250 C3DB     		blt	.L108
 1775              	.L103:
 1776              	.LBE22:
 311:..\VFH/vfh.c  ****         }
 312:..\VFH/vfh.c  ****     }
 313:..\VFH/vfh.c  ****     }
 314:..\VFH/vfh.c  **** 
 315:..\VFH/vfh.c  ****   k_f = k_n;
 1777              		.loc 1 315 0 is_stmt 1
 1778 0252 BB6F     		ldr	r3, [r7, #120]
 1779 0254 7B67     		str	r3, [r7, #116]
 316:..\VFH/vfh.c  ****   
 317:..\VFH/vfh.c  ****   if (k_n == goal_sector) {
 1780              		.loc 1 317 0
 1781 0256 BA6F     		ldr	r2, [r7, #120]
 1782 0258 FB69     		ldr	r3, [r7, #28]
 1783 025a 9A42     		cmp	r2, r3
 1784 025c 09D1     		bne	.L109
 318:..\VFH/vfh.c  ****     return goal_sector * alpha;
 1785              		.loc 1 318 0
 1786 025e F869     		ldr	r0, [r7, #28]
 1787 0260 FFF7FEFF 		bl	__aeabi_i2d
 1788 0264 D7E92423 		ldrd	r2, [r7, #144]
 1789 0268 FFF7FEFF 		bl	__aeabi_dmul
 1790 026c 0346     		mov	r3, r0
 1791 026e 0C46     		mov	r4, r1
 1792 0270 E4E0     		b	.L110
 1793              	.L109:
 319:..\VFH/vfh.c  **** 
 320:..\VFH/vfh.c  ****   } else if (k_n > goal_sector) {
 1794              		.loc 1 320 0
 1795 0272 BA6F     		ldr	r2, [r7, #120]
 1796 0274 FB69     		ldr	r3, [r7, #28]
 1797 0276 9A42     		cmp	r2, r3
 1798 0278 78DD     		ble	.L111
 1799              	.LBB24:
 321:..\VFH/vfh.c  ****     // See how big the valley is and then select the middle
 322:..\VFH/vfh.c  ****     for (int i=1; i < s_max + 1; i++) {
 1800              		.loc 1 322 0
 1801 027a 0123     		movs	r3, #1
 1802 027c 3B66     		str	r3, [r7, #96]
 1803 027e 49E0     		b	.L112
 1804              	.L127:
 1805              		.align	3
 1806              	.L126:
 1807 0280 182D4454 		.word	1413754136
 1808 0284 FB210940 		.word	1074340347
 1809 0288 00000000 		.word	0
 1810 028c 00E07040 		.word	1081139200
 1811 0290 00807640 		.word	1081507840
 1812 0294 00806640 		.word	1080459264
 1813 0298 00805640 		.word	1079410688
 1814 029c A0860100 		.word	100000
ARM GAS  C:\Users\cyu13\AppData\Local\Temp\ccSGk0Me.s 			page 39


 1815              	.L116:
 323:..\VFH/vfh.c  ****       if ( (smoothed_POD[(k_n + i) % nsectors] < valley_threshold) && ( ((k_n + i) % nsectors) * al
 1816              		.loc 1 323 0
 1817 02a0 BA6F     		ldr	r2, [r7, #120]
 1818 02a2 3B6E     		ldr	r3, [r7, #96]
 1819 02a4 1344     		add	r3, r3, r2
 1820 02a6 7A6D     		ldr	r2, [r7, #84]
 1821 02a8 93FBF2F2 		sdiv	r2, r3, r2
 1822 02ac 796D     		ldr	r1, [r7, #84]
 1823 02ae 01FB02F2 		mul	r2, r1, r2
 1824 02b2 9B1A     		subs	r3, r3, r2
 1825 02b4 DB00     		lsls	r3, r3, #3
 1826 02b6 FA68     		ldr	r2, [r7, #12]
 1827 02b8 1344     		add	r3, r3, r2
 1828 02ba D3E90001 		ldrd	r0, [r3]
 1829 02be D7E92823 		ldrd	r2, [r7, #160]
 1830 02c2 FFF7FEFF 		bl	__aeabi_dcmplt
 1831 02c6 0346     		mov	r3, r0
 1832 02c8 002B     		cmp	r3, #0
 1833 02ca 38D0     		beq	.L113
 1834              		.loc 1 323 0 is_stmt 0 discriminator 1
 1835 02cc BA6F     		ldr	r2, [r7, #120]
 1836 02ce 3B6E     		ldr	r3, [r7, #96]
 1837 02d0 1344     		add	r3, r3, r2
 1838 02d2 7A6D     		ldr	r2, [r7, #84]
 1839 02d4 93FBF2F2 		sdiv	r2, r3, r2
 1840 02d8 796D     		ldr	r1, [r7, #84]
 1841 02da 01FB02F2 		mul	r2, r1, r2
 1842 02de 9B1A     		subs	r3, r3, r2
 1843 02e0 1846     		mov	r0, r3
 1844 02e2 FFF7FEFF 		bl	__aeabi_i2d
 1845 02e6 D7E92423 		ldrd	r2, [r7, #144]
 1846 02ea FFF7FEFF 		bl	__aeabi_dmul
 1847 02ee 0346     		mov	r3, r0
 1848 02f0 0C46     		mov	r4, r1
 1849 02f2 1846     		mov	r0, r3
 1850 02f4 2146     		mov	r1, r4
 1851 02f6 4FF00002 		mov	r2, #0
 1852 02fa 554B     		ldr	r3, .L128+8
 1853 02fc FFF7FEFF 		bl	__aeabi_dcmple
 1854 0300 0346     		mov	r3, r0
 1855 0302 002B     		cmp	r3, #0
 1856 0304 1BD0     		beq	.L113
 324:..\VFH/vfh.c  ****         k_f = k_n + i;
 1857              		.loc 1 324 0 is_stmt 1 discriminator 2
 1858 0306 BA6F     		ldr	r2, [r7, #120]
 1859 0308 3B6E     		ldr	r3, [r7, #96]
 1860 030a 1344     		add	r3, r3, r2
 1861 030c 7B67     		str	r3, [r7, #116]
 322:..\VFH/vfh.c  ****       if ( (smoothed_POD[(k_n + i) % nsectors] < valley_threshold) && ( ((k_n + i) % nsectors) * al
 1862              		.loc 1 322 0 discriminator 2
 1863 030e 3B6E     		ldr	r3, [r7, #96]
 1864 0310 0133     		adds	r3, r3, #1
 1865 0312 3B66     		str	r3, [r7, #96]
 1866              	.L112:
 322:..\VFH/vfh.c  ****       if ( (smoothed_POD[(k_n + i) % nsectors] < valley_threshold) && ( ((k_n + i) % nsectors) * al
 1867              		.loc 1 322 0 is_stmt 0 discriminator 1
ARM GAS  C:\Users\cyu13\AppData\Local\Temp\ccSGk0Me.s 			page 40


 1868 0314 386E     		ldr	r0, [r7, #96]
 1869 0316 FFF7FEFF 		bl	__aeabi_i2d
 1870 031a 0446     		mov	r4, r0
 1871 031c 0D46     		mov	r5, r1
 1872 031e 4FF00002 		mov	r2, #0
 1873 0322 4C4B     		ldr	r3, .L128+12
 1874 0324 D7E92601 		ldrd	r0, [r7, #152]
 1875 0328 FFF7FEFF 		bl	__aeabi_dadd
 1876 032c 0246     		mov	r2, r0
 1877 032e 0B46     		mov	r3, r1
 1878 0330 2046     		mov	r0, r4
 1879 0332 2946     		mov	r1, r5
 1880 0334 FFF7FEFF 		bl	__aeabi_dcmplt
 1881 0338 0346     		mov	r3, r0
 1882 033a 002B     		cmp	r3, #0
 1883 033c B0D1     		bne	.L116
 1884              	.L113:
 1885              	.LBE24:
 325:..\VFH/vfh.c  ****       } else {
 326:..\VFH/vfh.c  ****         break;
 327:..\VFH/vfh.c  ****       }
 328:..\VFH/vfh.c  ****     }
 329:..\VFH/vfh.c  **** 
 330:..\VFH/vfh.c  ****     return ((k_n + k_f) / 2 % nsectors) * alpha;
 1886              		.loc 1 330 0 is_stmt 1
 1887 033e BA6F     		ldr	r2, [r7, #120]
 1888 0340 7B6F     		ldr	r3, [r7, #116]
 1889 0342 1344     		add	r3, r3, r2
 1890 0344 DA0F     		lsrs	r2, r3, #31
 1891 0346 1344     		add	r3, r3, r2
 1892 0348 5B10     		asrs	r3, r3, #1
 1893 034a 7A6D     		ldr	r2, [r7, #84]
 1894 034c 93FBF2F2 		sdiv	r2, r3, r2
 1895 0350 796D     		ldr	r1, [r7, #84]
 1896 0352 01FB02F2 		mul	r2, r1, r2
 1897 0356 9B1A     		subs	r3, r3, r2
 1898 0358 1846     		mov	r0, r3
 1899 035a FFF7FEFF 		bl	__aeabi_i2d
 1900 035e D7E92423 		ldrd	r2, [r7, #144]
 1901 0362 FFF7FEFF 		bl	__aeabi_dmul
 1902 0366 0346     		mov	r3, r0
 1903 0368 0C46     		mov	r4, r1
 1904 036a 67E0     		b	.L110
 1905              	.L111:
 1906              	.LBB25:
 331:..\VFH/vfh.c  **** 
 332:..\VFH/vfh.c  ****   } else {
 333:..\VFH/vfh.c  ****     // See how big the valley is and then select the middle
 334:..\VFH/vfh.c  ****     for (int i=1; i < s_max + 1; i++) {
 1907              		.loc 1 334 0
 1908 036c 0123     		movs	r3, #1
 1909 036e FB65     		str	r3, [r7, #92]
 1910 0370 39E0     		b	.L117
 1911              	.L121:
 335:..\VFH/vfh.c  ****       if ( (smoothed_POD[(k_n + i) % nsectors] < valley_threshold) && ( ((k_n + i) % nsectors) * al
 1912              		.loc 1 335 0
 1913 0372 BA6F     		ldr	r2, [r7, #120]
ARM GAS  C:\Users\cyu13\AppData\Local\Temp\ccSGk0Me.s 			page 41


 1914 0374 FB6D     		ldr	r3, [r7, #92]
 1915 0376 1344     		add	r3, r3, r2
 1916 0378 7A6D     		ldr	r2, [r7, #84]
 1917 037a 93FBF2F2 		sdiv	r2, r3, r2
 1918 037e 796D     		ldr	r1, [r7, #84]
 1919 0380 01FB02F2 		mul	r2, r1, r2
 1920 0384 9B1A     		subs	r3, r3, r2
 1921 0386 DB00     		lsls	r3, r3, #3
 1922 0388 FA68     		ldr	r2, [r7, #12]
 1923 038a 1344     		add	r3, r3, r2
 1924 038c D3E90001 		ldrd	r0, [r3]
 1925 0390 D7E92823 		ldrd	r2, [r7, #160]
 1926 0394 FFF7FEFF 		bl	__aeabi_dcmplt
 1927 0398 0346     		mov	r3, r0
 1928 039a 002B     		cmp	r3, #0
 1929 039c 38D0     		beq	.L118
 1930              		.loc 1 335 0 is_stmt 0 discriminator 1
 1931 039e BA6F     		ldr	r2, [r7, #120]
 1932 03a0 FB6D     		ldr	r3, [r7, #92]
 1933 03a2 1344     		add	r3, r3, r2
 1934 03a4 7A6D     		ldr	r2, [r7, #84]
 1935 03a6 93FBF2F2 		sdiv	r2, r3, r2
 1936 03aa 796D     		ldr	r1, [r7, #84]
 1937 03ac 01FB02F2 		mul	r2, r1, r2
 1938 03b0 9B1A     		subs	r3, r3, r2
 1939 03b2 1846     		mov	r0, r3
 1940 03b4 FFF7FEFF 		bl	__aeabi_i2d
 1941 03b8 D7E92423 		ldrd	r2, [r7, #144]
 1942 03bc FFF7FEFF 		bl	__aeabi_dmul
 1943 03c0 0346     		mov	r3, r0
 1944 03c2 0C46     		mov	r4, r1
 1945 03c4 1846     		mov	r0, r3
 1946 03c6 2146     		mov	r1, r4
 1947 03c8 1FA3     		adr	r3, .L128
 1948 03ca D3E90023 		ldrd	r2, [r3]
 1949 03ce FFF7FEFF 		bl	__aeabi_dcmple
 1950 03d2 0346     		mov	r3, r0
 1951 03d4 002B     		cmp	r3, #0
 1952 03d6 1BD0     		beq	.L118
 336:..\VFH/vfh.c  ****         k_f = k_n - i;
 1953              		.loc 1 336 0 is_stmt 1 discriminator 2
 1954 03d8 BA6F     		ldr	r2, [r7, #120]
 1955 03da FB6D     		ldr	r3, [r7, #92]
 1956 03dc D31A     		subs	r3, r2, r3
 1957 03de 7B67     		str	r3, [r7, #116]
 334:..\VFH/vfh.c  ****       if ( (smoothed_POD[(k_n + i) % nsectors] < valley_threshold) && ( ((k_n + i) % nsectors) * al
 1958              		.loc 1 334 0 discriminator 2
 1959 03e0 FB6D     		ldr	r3, [r7, #92]
 1960 03e2 0133     		adds	r3, r3, #1
 1961 03e4 FB65     		str	r3, [r7, #92]
 1962              	.L117:
 334:..\VFH/vfh.c  ****       if ( (smoothed_POD[(k_n + i) % nsectors] < valley_threshold) && ( ((k_n + i) % nsectors) * al
 1963              		.loc 1 334 0 is_stmt 0 discriminator 1
 1964 03e6 F86D     		ldr	r0, [r7, #92]
 1965 03e8 FFF7FEFF 		bl	__aeabi_i2d
 1966 03ec 0446     		mov	r4, r0
 1967 03ee 0D46     		mov	r5, r1
ARM GAS  C:\Users\cyu13\AppData\Local\Temp\ccSGk0Me.s 			page 42


 1968 03f0 4FF00002 		mov	r2, #0
 1969 03f4 174B     		ldr	r3, .L128+12
 1970 03f6 D7E92601 		ldrd	r0, [r7, #152]
 1971 03fa FFF7FEFF 		bl	__aeabi_dadd
 1972 03fe 0246     		mov	r2, r0
 1973 0400 0B46     		mov	r3, r1
 1974 0402 2046     		mov	r0, r4
 1975 0404 2946     		mov	r1, r5
 1976 0406 FFF7FEFF 		bl	__aeabi_dcmplt
 1977 040a 0346     		mov	r3, r0
 1978 040c 002B     		cmp	r3, #0
 1979 040e B0D1     		bne	.L121
 1980              	.L118:
 1981              	.LBE25:
 337:..\VFH/vfh.c  ****       } else {
 338:..\VFH/vfh.c  ****         break;
 339:..\VFH/vfh.c  ****       }
 340:..\VFH/vfh.c  ****     }
 341:..\VFH/vfh.c  **** }
 342:..\VFH/vfh.c  **** 
 343:..\VFH/vfh.c  ****     return ((k_n + k_f) / 2 % nsectors) * alpha;
 1982              		.loc 1 343 0 is_stmt 1
 1983 0410 BA6F     		ldr	r2, [r7, #120]
 1984 0412 7B6F     		ldr	r3, [r7, #116]
 1985 0414 1344     		add	r3, r3, r2
 1986 0416 DA0F     		lsrs	r2, r3, #31
 1987 0418 1344     		add	r3, r3, r2
 1988 041a 5B10     		asrs	r3, r3, #1
 1989 041c 7A6D     		ldr	r2, [r7, #84]
 1990 041e 93FBF2F2 		sdiv	r2, r3, r2
 1991 0422 796D     		ldr	r1, [r7, #84]
 1992 0424 01FB02F2 		mul	r2, r1, r2
 1993 0428 9B1A     		subs	r3, r3, r2
 1994 042a 1846     		mov	r0, r3
 1995 042c FFF7FEFF 		bl	__aeabi_i2d
 1996 0430 D7E92423 		ldrd	r2, [r7, #144]
 1997 0434 FFF7FEFF 		bl	__aeabi_dmul
 1998 0438 0346     		mov	r3, r0
 1999 043a 0C46     		mov	r4, r1
 2000              	.L110:
 344:..\VFH/vfh.c  ****   }
 2001              		.loc 1 344 0
 2002 043c 1846     		mov	r0, r3
 2003 043e 2146     		mov	r1, r4
 2004 0440 8037     		adds	r7, r7, #128
 2005              		.cfi_def_cfa_offset 16
 2006 0442 BD46     		mov	sp, r7
 2007              		.cfi_def_cfa_register 13
 2008              		@ sp needed
 2009 0444 B0BD     		pop	{r4, r5, r7, pc}
 2010              	.L129:
 2011 0446 00BF     		.align	3
 2012              	.L128:
 2013 0448 00000000 		.word	0
 2014 044c 00E07040 		.word	1081139200
 2015 0450 00805640 		.word	1079410688
 2016 0454 0000F03F 		.word	1072693248
ARM GAS  C:\Users\cyu13\AppData\Local\Temp\ccSGk0Me.s 			page 43


 2017              		.cfi_endproc
 2018              	.LFE6:
 2019              		.size	calculate_avoidance_angle, .-calculate_avoidance_angle
 2020              		.section	.text.velocity_control,"ax",%progbits
 2021              		.align	2
 2022              		.global	velocity_control
 2023              		.thumb
 2024              		.thumb_func
 2025              		.type	velocity_control, %function
 2026              	velocity_control:
 2027              	.LFB7:
 345:..\VFH/vfh.c  **** 
 346:..\VFH/vfh.c  **** 
 347:..\VFH/vfh.c  **** 
 348:..\VFH/vfh.c  **** double velocity_control(histogram * hist, double direction) {
 2028              		.loc 1 348 0
 2029              		.cfi_startproc
 2030              		@ args = 0, pretend = 0, frame = 64
 2031              		@ frame_needed = 1, uses_anonymous_args = 0
 2032 0000 B0B5     		push	{r4, r5, r7, lr}
 2033              		.cfi_def_cfa_offset 16
 2034              		.cfi_offset 4, -16
 2035              		.cfi_offset 5, -12
 2036              		.cfi_offset 7, -8
 2037              		.cfi_offset 14, -4
 2038 0002 90B0     		sub	sp, sp, #64
 2039              		.cfi_def_cfa_offset 80
 2040 0004 00AF     		add	r7, sp, #0
 2041              		.cfi_def_cfa_register 7
 2042 0006 F860     		str	r0, [r7, #12]
 2043 0008 C7E90023 		strd	r2, [r7]
 349:..\VFH/vfh.c  ****   // Max velocity
 350:..\VFH/vfh.c  ****   double V_MAX = 10;
 2044              		.loc 1 350 0
 2045 000c 4FF00003 		mov	r3, #0
 2046 0010 3F4C     		ldr	r4, .L137+16
 2047 0012 C7E90C34 		strd	r3, [r7, #48]
 351:..\VFH/vfh.c  **** 
 352:..\VFH/vfh.c  ****   // Convert the direction of travel into sector index
 353:..\VFH/vfh.c  ****   int h_idx = floor((180 * direction / M_PI)  / hist->alpha);
 2048              		.loc 1 353 0
 2049 0016 4FF00002 		mov	r2, #0
 2050 001a 3E4B     		ldr	r3, .L137+20
 2051 001c D7E90001 		ldrd	r0, [r7]
 2052 0020 FFF7FEFF 		bl	__aeabi_dmul
 2053 0024 0346     		mov	r3, r0
 2054 0026 0C46     		mov	r4, r1
 2055 0028 1846     		mov	r0, r3
 2056 002a 2146     		mov	r1, r4
 2057 002c 34A3     		adr	r3, .L137
 2058 002e D3E90023 		ldrd	r2, [r3]
 2059 0032 FFF7FEFF 		bl	__aeabi_ddiv
 2060 0036 0346     		mov	r3, r0
 2061 0038 0C46     		mov	r4, r1
 2062 003a 2546     		mov	r5, r4
 2063 003c 1C46     		mov	r4, r3
 2064 003e FB68     		ldr	r3, [r7, #12]
ARM GAS  C:\Users\cyu13\AppData\Local\Temp\ccSGk0Me.s 			page 44


 2065 0040 1B68     		ldr	r3, [r3]
 2066 0042 1846     		mov	r0, r3
 2067 0044 FFF7FEFF 		bl	__aeabi_i2d
 2068 0048 0246     		mov	r2, r0
 2069 004a 0B46     		mov	r3, r1
 2070 004c 2046     		mov	r0, r4
 2071 004e 2946     		mov	r1, r5
 2072 0050 FFF7FEFF 		bl	__aeabi_ddiv
 2073 0054 0346     		mov	r3, r0
 2074 0056 0C46     		mov	r4, r1
 2075 0058 1846     		mov	r0, r3
 2076 005a 2146     		mov	r1, r4
 2077 005c FFF7FEFF 		bl	floor
 2078 0060 0346     		mov	r3, r0
 2079 0062 0C46     		mov	r4, r1
 2080 0064 1846     		mov	r0, r3
 2081 0066 2146     		mov	r1, r4
 2082 0068 FFF7FEFF 		bl	__aeabi_d2iz
 2083 006c 0346     		mov	r3, r0
 2084 006e FB62     		str	r3, [r7, #44]
 354:..\VFH/vfh.c  **** 
 355:..\VFH/vfh.c  ****   // Retrieve polar histogram density at this sector
 356:..\VFH/vfh.c  ****   double h_c = hist->densities[h_idx];
 2085              		.loc 1 356 0
 2086 0070 FB68     		ldr	r3, [r7, #12]
 2087 0072 9A6A     		ldr	r2, [r3, #40]
 2088 0074 FB6A     		ldr	r3, [r7, #44]
 2089 0076 9B00     		lsls	r3, r3, #2
 2090 0078 1344     		add	r3, r3, r2
 2091 007a 1B68     		ldr	r3, [r3]
 2092 007c 1846     		mov	r0, r3
 2093 007e FFF7FEFF 		bl	__aeabi_i2d
 2094 0082 0346     		mov	r3, r0
 2095 0084 0C46     		mov	r4, r1
 2096 0086 C7E90834 		strd	r3, [r7, #32]
 357:..\VFH/vfh.c  **** 
 358:..\VFH/vfh.c  ****   // NOTE: If h_c > 0, that indicates that an obstacles lies ahead of the robot
 359:..\VFH/vfh.c  **** 
 360:..\VFH/vfh.c  ****   // Define h_m which is an empirically determined constant. h_cc later must be less than h_m
 361:..\VFH/vfh.c  ****   double h_m = 123;
 2097              		.loc 1 361 0
 2098 008a 1FA4     		adr	r4, .L137+8
 2099 008c D4E90034 		ldrd	r3, [r4]
 2100 0090 C7E90634 		strd	r3, [r7, #24]
 362:..\VFH/vfh.c  **** 
 363:..\VFH/vfh.c  ****   double h_cc;
 364:..\VFH/vfh.c  ****   if (h_c > h_m) {
 2101              		.loc 1 364 0
 2102 0094 D7E90623 		ldrd	r2, [r7, #24]
 2103 0098 D7E90801 		ldrd	r0, [r7, #32]
 2104 009c FFF7FEFF 		bl	__aeabi_dcmpgt
 2105 00a0 0346     		mov	r3, r0
 2106 00a2 002B     		cmp	r3, #0
 2107 00a4 04D0     		beq	.L136
 365:..\VFH/vfh.c  ****     h_cc = h_m;
 2108              		.loc 1 365 0
 2109 00a6 D7E90634 		ldrd	r3, [r7, #24]
ARM GAS  C:\Users\cyu13\AppData\Local\Temp\ccSGk0Me.s 			page 45


 2110 00aa C7E90E34 		strd	r3, [r7, #56]
 2111 00ae 03E0     		b	.L133
 2112              	.L136:
 366:..\VFH/vfh.c  ****   } else {
 367:..\VFH/vfh.c  ****     h_cc = h_c;
 2113              		.loc 1 367 0
 2114 00b0 D7E90834 		ldrd	r3, [r7, #32]
 2115 00b4 C7E90E34 		strd	r3, [r7, #56]
 2116              	.L133:
 368:..\VFH/vfh.c  ****   }
 369:..\VFH/vfh.c  ****   double speed_reduction = V_MAX * (1 - (h_cc / h_m));
 2117              		.loc 1 369 0
 2118 00b8 D7E90623 		ldrd	r2, [r7, #24]
 2119 00bc D7E90E01 		ldrd	r0, [r7, #56]
 2120 00c0 FFF7FEFF 		bl	__aeabi_ddiv
 2121 00c4 0346     		mov	r3, r0
 2122 00c6 0C46     		mov	r4, r1
 2123 00c8 1A46     		mov	r2, r3
 2124 00ca 2346     		mov	r3, r4
 2125 00cc 4FF00000 		mov	r0, #0
 2126 00d0 1149     		ldr	r1, .L137+24
 2127 00d2 FFF7FEFF 		bl	__aeabi_dsub
 2128 00d6 0346     		mov	r3, r0
 2129 00d8 0C46     		mov	r4, r1
 2130 00da 1846     		mov	r0, r3
 2131 00dc 2146     		mov	r1, r4
 2132 00de D7E90C23 		ldrd	r2, [r7, #48]
 2133 00e2 FFF7FEFF 		bl	__aeabi_dmul
 2134 00e6 0346     		mov	r3, r0
 2135 00e8 0C46     		mov	r4, r1
 2136 00ea C7E90434 		strd	r3, [r7, #16]
 370:..\VFH/vfh.c  **** 
 371:..\VFH/vfh.c  ****   // Further reduce speed to anticipate obstacles
 372:..\VFH/vfh.c  ****   
 373:..\VFH/vfh.c  ****   return speed_reduction;
 2137              		.loc 1 373 0
 2138 00ee D7E90434 		ldrd	r3, [r7, #16]
 374:..\VFH/vfh.c  **** }
 2139              		.loc 1 374 0
 2140 00f2 1846     		mov	r0, r3
 2141 00f4 2146     		mov	r1, r4
 2142 00f6 4037     		adds	r7, r7, #64
 2143              		.cfi_def_cfa_offset 16
 2144 00f8 BD46     		mov	sp, r7
 2145              		.cfi_def_cfa_register 13
 2146              		@ sp needed
 2147 00fa B0BD     		pop	{r4, r5, r7, pc}
 2148              	.L138:
 2149 00fc AFF30080 		.align	3
 2150              	.L137:
 2151 0100 182D4454 		.word	1413754136
 2152 0104 FB210940 		.word	1074340347
 2153 0108 00000000 		.word	0
 2154 010c 00C05E40 		.word	1079951360
 2155 0110 00002440 		.word	1076101120
 2156 0114 00806640 		.word	1080459264
 2157 0118 0000F03F 		.word	1072693248
ARM GAS  C:\Users\cyu13\AppData\Local\Temp\ccSGk0Me.s 			page 46


 2158              		.cfi_endproc
 2159              	.LFE7:
 2160              		.size	velocity_control, .-velocity_control
 2161              		.text
 2162              	.Letext0:
 2163              		.file 2 "..\\VFH\\..\\Helper\\helper.h"
 2164              		.file 3 "..\\VFH\\..\\Robot\\robot.h"
 2165              		.file 4 "..\\VFH\\vfh.h"
 2166              		.section	.debug_info,"",%progbits
 2167              	.Ldebug_info0:
 2168 0000 AC090000 		.4byte	0x9ac
 2169 0004 0400     		.2byte	0x4
 2170 0006 00000000 		.4byte	.Ldebug_abbrev0
 2171 000a 04       		.byte	0x4
 2172 000b 01       		.uleb128 0x1
 2173 000c 73000000 		.4byte	.LASF88
 2174 0010 0C       		.byte	0xc
 2175 0011 20040000 		.4byte	.LASF89
 2176 0015 AD010000 		.4byte	.LASF90
 2177 0019 00000000 		.4byte	.Ldebug_ranges0+0
 2178 001d 00000000 		.4byte	0
 2179 0021 00000000 		.4byte	.Ldebug_line0
 2180 0025 02       		.uleb128 0x2
 2181 0026 04       		.byte	0x4
 2182 0027 07       		.byte	0x7
 2183 0028 3F020000 		.4byte	.LASF0
 2184 002c 03       		.uleb128 0x3
 2185 002d 04       		.byte	0x4
 2186 002e 05       		.byte	0x5
 2187 002f 696E7400 		.ascii	"int\000"
 2188 0033 02       		.uleb128 0x2
 2189 0034 08       		.byte	0x8
 2190 0035 05       		.byte	0x5
 2191 0036 5A010000 		.4byte	.LASF1
 2192 003a 02       		.uleb128 0x2
 2193 003b 08       		.byte	0x8
 2194 003c 04       		.byte	0x4
 2195 003d D0020000 		.4byte	.LASF2
 2196 0041 02       		.uleb128 0x2
 2197 0042 01       		.byte	0x1
 2198 0043 06       		.byte	0x6
 2199 0044 68010000 		.4byte	.LASF3
 2200 0048 02       		.uleb128 0x2
 2201 0049 01       		.byte	0x1
 2202 004a 08       		.byte	0x8
 2203 004b 79030000 		.4byte	.LASF4
 2204 004f 02       		.uleb128 0x2
 2205 0050 02       		.byte	0x2
 2206 0051 05       		.byte	0x5
 2207 0052 90030000 		.4byte	.LASF5
 2208 0056 02       		.uleb128 0x2
 2209 0057 02       		.byte	0x2
 2210 0058 07       		.byte	0x7
 2211 0059 84020000 		.4byte	.LASF6
 2212 005d 02       		.uleb128 0x2
 2213 005e 04       		.byte	0x4
 2214 005f 05       		.byte	0x5
ARM GAS  C:\Users\cyu13\AppData\Local\Temp\ccSGk0Me.s 			page 47


 2215 0060 91010000 		.4byte	.LASF7
 2216 0064 02       		.uleb128 0x2
 2217 0065 04       		.byte	0x4
 2218 0066 07       		.byte	0x7
 2219 0067 55020000 		.4byte	.LASF8
 2220 006b 02       		.uleb128 0x2
 2221 006c 08       		.byte	0x8
 2222 006d 07       		.byte	0x7
 2223 006e 12010000 		.4byte	.LASF9
 2224 0072 02       		.uleb128 0x2
 2225 0073 04       		.byte	0x4
 2226 0074 07       		.byte	0x7
 2227 0075 C7020000 		.4byte	.LASF10
 2228 0079 02       		.uleb128 0x2
 2229 007a 01       		.byte	0x1
 2230 007b 08       		.byte	0x8
 2231 007c 04040000 		.4byte	.LASF11
 2232 0080 02       		.uleb128 0x2
 2233 0081 08       		.byte	0x8
 2234 0082 04       		.byte	0x4
 2235 0083 A6010000 		.4byte	.LASF12
 2236 0087 02       		.uleb128 0x2
 2237 0088 04       		.byte	0x4
 2238 0089 04       		.byte	0x4
 2239 008a 32030000 		.4byte	.LASF13
 2240 008e 04       		.uleb128 0x4
 2241 008f 28       		.byte	0x28
 2242 0090 02       		.byte	0x2
 2243 0091 22       		.byte	0x22
 2244 0092 AF000000 		.4byte	0xaf
 2245 0096 05       		.uleb128 0x5
 2246 0097 69000000 		.4byte	.LASF14
 2247 009b 02       		.byte	0x2
 2248 009c 23       		.byte	0x23
 2249 009d AF000000 		.4byte	0xaf
 2250 00a1 00       		.byte	0
 2251 00a2 05       		.uleb128 0x5
 2252 00a3 17040000 		.4byte	.LASF15
 2253 00a7 02       		.byte	0x2
 2254 00a8 24       		.byte	0x24
 2255 00a9 AF000000 		.4byte	0xaf
 2256 00ad 14       		.byte	0x14
 2257 00ae 00       		.byte	0
 2258 00af 06       		.uleb128 0x6
 2259 00b0 2C000000 		.4byte	0x2c
 2260 00b4 BF000000 		.4byte	0xbf
 2261 00b8 07       		.uleb128 0x7
 2262 00b9 72000000 		.4byte	0x72
 2263 00bd 04       		.byte	0x4
 2264 00be 00       		.byte	0
 2265 00bf 08       		.uleb128 0x8
 2266 00c0 C0020000 		.4byte	.LASF24
 2267 00c4 02       		.byte	0x2
 2268 00c5 25       		.byte	0x25
 2269 00c6 8E000000 		.4byte	0x8e
 2270 00ca 04       		.uleb128 0x4
 2271 00cb 70       		.byte	0x70
ARM GAS  C:\Users\cyu13\AppData\Local\Temp\ccSGk0Me.s 			page 48


 2272 00cc 03       		.byte	0x3
 2273 00cd 1A       		.byte	0x1a
 2274 00ce 71010000 		.4byte	0x171
 2275 00d2 05       		.uleb128 0x5
 2276 00d3 A2030000 		.4byte	.LASF16
 2277 00d7 03       		.byte	0x3
 2278 00d8 1C       		.byte	0x1c
 2279 00d9 3A000000 		.4byte	0x3a
 2280 00dd 00       		.byte	0
 2281 00de 05       		.uleb128 0x5
 2282 00df 9C020000 		.4byte	.LASF17
 2283 00e3 03       		.byte	0x3
 2284 00e4 1F       		.byte	0x1f
 2285 00e5 3A000000 		.4byte	0x3a
 2286 00e9 08       		.byte	0x8
 2287 00ea 09       		.uleb128 0x9
 2288 00eb 7800     		.ascii	"x\000"
 2289 00ed 03       		.byte	0x3
 2290 00ee 20       		.byte	0x20
 2291 00ef 3A000000 		.4byte	0x3a
 2292 00f3 10       		.byte	0x10
 2293 00f4 09       		.uleb128 0x9
 2294 00f5 7900     		.ascii	"y\000"
 2295 00f7 03       		.byte	0x3
 2296 00f8 21       		.byte	0x21
 2297 00f9 3A000000 		.4byte	0x3a
 2298 00fd 18       		.byte	0x18
 2299 00fe 09       		.uleb128 0x9
 2300 00ff 7600     		.ascii	"v\000"
 2301 0101 03       		.byte	0x3
 2302 0102 24       		.byte	0x24
 2303 0103 3A000000 		.4byte	0x3a
 2304 0107 20       		.byte	0x20
 2305 0108 09       		.uleb128 0x9
 2306 0109 7700     		.ascii	"w\000"
 2307 010b 03       		.byte	0x3
 2308 010c 25       		.byte	0x25
 2309 010d 3A000000 		.4byte	0x3a
 2310 0111 28       		.byte	0x28
 2311 0112 05       		.uleb128 0x5
 2312 0113 B6020000 		.4byte	.LASF18
 2313 0117 03       		.byte	0x3
 2314 0118 28       		.byte	0x28
 2315 0119 3A000000 		.4byte	0x3a
 2316 011d 30       		.byte	0x30
 2317 011e 05       		.uleb128 0x5
 2318 011f 38040000 		.4byte	.LASF19
 2319 0123 03       		.byte	0x3
 2320 0124 29       		.byte	0x29
 2321 0125 3A000000 		.4byte	0x3a
 2322 0129 38       		.byte	0x38
 2323 012a 09       		.uleb128 0x9
 2324 012b 4B6900   		.ascii	"Ki\000"
 2325 012e 03       		.byte	0x3
 2326 012f 2C       		.byte	0x2c
 2327 0130 3A000000 		.4byte	0x3a
 2328 0134 40       		.byte	0x40
ARM GAS  C:\Users\cyu13\AppData\Local\Temp\ccSGk0Me.s 			page 49


 2329 0135 09       		.uleb128 0x9
 2330 0136 4B7000   		.ascii	"Kp\000"
 2331 0139 03       		.byte	0x3
 2332 013a 2D       		.byte	0x2d
 2333 013b 3A000000 		.4byte	0x3a
 2334 013f 48       		.byte	0x48
 2335 0140 05       		.uleb128 0x5
 2336 0141 74010000 		.4byte	.LASF20
 2337 0145 03       		.byte	0x3
 2338 0146 2E       		.byte	0x2e
 2339 0147 3A000000 		.4byte	0x3a
 2340 014b 50       		.byte	0x50
 2341 014c 05       		.uleb128 0x5
 2342 014d 56030000 		.4byte	.LASF21
 2343 0151 03       		.byte	0x3
 2344 0152 31       		.byte	0x31
 2345 0153 3A000000 		.4byte	0x3a
 2346 0157 58       		.byte	0x58
 2347 0158 05       		.uleb128 0x5
 2348 0159 5D030000 		.4byte	.LASF22
 2349 015d 03       		.byte	0x3
 2350 015e 32       		.byte	0x32
 2351 015f 3A000000 		.4byte	0x3a
 2352 0163 60       		.byte	0x60
 2353 0164 05       		.uleb128 0x5
 2354 0165 A2020000 		.4byte	.LASF23
 2355 0169 03       		.byte	0x3
 2356 016a 33       		.byte	0x33
 2357 016b 3A000000 		.4byte	0x3a
 2358 016f 68       		.byte	0x68
 2359 0170 00       		.byte	0
 2360 0171 08       		.uleb128 0x8
 2361 0172 71040000 		.4byte	.LASF25
 2362 0176 03       		.byte	0x3
 2363 0177 35       		.byte	0x35
 2364 0178 CA000000 		.4byte	0xca
 2365 017c 04       		.uleb128 0x4
 2366 017d 10       		.byte	0x10
 2367 017e 04       		.byte	0x4
 2368 017f 12       		.byte	0x12
 2369 0180 B5010000 		.4byte	0x1b5
 2370 0184 05       		.uleb128 0x5
 2371 0185 7E020000 		.4byte	.LASF26
 2372 0189 04       		.byte	0x4
 2373 018a 13       		.byte	0x13
 2374 018b 2C000000 		.4byte	0x2c
 2375 018f 00       		.byte	0
 2376 0190 05       		.uleb128 0x5
 2377 0191 94040000 		.4byte	.LASF27
 2378 0195 04       		.byte	0x4
 2379 0196 14       		.byte	0x14
 2380 0197 2C000000 		.4byte	0x2c
 2381 019b 04       		.byte	0x4
 2382 019c 05       		.uleb128 0x5
 2383 019d CB030000 		.4byte	.LASF28
 2384 01a1 04       		.byte	0x4
 2385 01a2 15       		.byte	0x15
ARM GAS  C:\Users\cyu13\AppData\Local\Temp\ccSGk0Me.s 			page 50


 2386 01a3 2C000000 		.4byte	0x2c
 2387 01a7 08       		.byte	0x8
 2388 01a8 05       		.uleb128 0x5
 2389 01a9 B0020000 		.4byte	.LASF29
 2390 01ad 04       		.byte	0x4
 2391 01ae 16       		.byte	0x16
 2392 01af B5010000 		.4byte	0x1b5
 2393 01b3 0C       		.byte	0xc
 2394 01b4 00       		.byte	0
 2395 01b5 0A       		.uleb128 0xa
 2396 01b6 04       		.byte	0x4
 2397 01b7 2C000000 		.4byte	0x2c
 2398 01bb 08       		.uleb128 0x8
 2399 01bc FF020000 		.4byte	.LASF30
 2400 01c0 04       		.byte	0x4
 2401 01c1 17       		.byte	0x17
 2402 01c2 7C010000 		.4byte	0x17c
 2403 01c6 04       		.uleb128 0x4
 2404 01c7 30       		.byte	0x30
 2405 01c8 04       		.byte	0x4
 2406 01c9 31       		.byte	0x31
 2407 01ca 23020000 		.4byte	0x223
 2408 01ce 05       		.uleb128 0x5
 2409 01cf 63000000 		.4byte	.LASF31
 2410 01d3 04       		.byte	0x4
 2411 01d4 32       		.byte	0x32
 2412 01d5 2C000000 		.4byte	0x2c
 2413 01d9 00       		.byte	0
 2414 01da 05       		.uleb128 0x5
 2415 01db C3030000 		.4byte	.LASF32
 2416 01df 04       		.byte	0x4
 2417 01e0 33       		.byte	0x33
 2418 01e1 2C000000 		.4byte	0x2c
 2419 01e5 04       		.byte	0x4
 2420 01e6 05       		.uleb128 0x5
 2421 01e7 6F030000 		.4byte	.LASF33
 2422 01eb 04       		.byte	0x4
 2423 01ec 34       		.byte	0x34
 2424 01ed 80000000 		.4byte	0x80
 2425 01f1 08       		.byte	0x8
 2426 01f2 05       		.uleb128 0x5
 2427 01f3 2E020000 		.4byte	.LASF34
 2428 01f7 04       		.byte	0x4
 2429 01f8 35       		.byte	0x35
 2430 01f9 80000000 		.4byte	0x80
 2431 01fd 10       		.byte	0x10
 2432 01fe 05       		.uleb128 0x5
 2433 01ff 1E030000 		.4byte	.LASF35
 2434 0203 04       		.byte	0x4
 2435 0204 36       		.byte	0x36
 2436 0205 80000000 		.4byte	0x80
 2437 0209 18       		.byte	0x18
 2438 020a 05       		.uleb128 0x5
 2439 020b 28030000 		.4byte	.LASF36
 2440 020f 04       		.byte	0x4
 2441 0210 37       		.byte	0x37
 2442 0211 80000000 		.4byte	0x80
ARM GAS  C:\Users\cyu13\AppData\Local\Temp\ccSGk0Me.s 			page 51


 2443 0215 20       		.byte	0x20
 2444 0216 05       		.uleb128 0x5
 2445 0217 0D020000 		.4byte	.LASF37
 2446 021b 04       		.byte	0x4
 2447 021c 38       		.byte	0x38
 2448 021d B5010000 		.4byte	0x1b5
 2449 0221 28       		.byte	0x28
 2450 0222 00       		.byte	0
 2451 0223 08       		.uleb128 0x8
 2452 0224 21000000 		.4byte	.LASF38
 2453 0228 04       		.byte	0x4
 2454 0229 39       		.byte	0x39
 2455 022a C6010000 		.4byte	0x1c6
 2456 022e 0B       		.uleb128 0xb
 2457 022f 7E010000 		.4byte	.LASF39
 2458 0233 01       		.byte	0x1
 2459 0234 10       		.byte	0x10
 2460 0235 AC020000 		.4byte	0x2ac
 2461 0239 00000000 		.4byte	.LFB0
 2462 023d B0000000 		.4byte	.LFE0-.LFB0
 2463 0241 01       		.uleb128 0x1
 2464 0242 9C       		.byte	0x9c
 2465 0243 AC020000 		.4byte	0x2ac
 2466 0247 0C       		.uleb128 0xc
 2467 0248 7E020000 		.4byte	.LASF26
 2468 024c 01       		.byte	0x1
 2469 024d 10       		.byte	0x10
 2470 024e 2C000000 		.4byte	0x2c
 2471 0252 02       		.uleb128 0x2
 2472 0253 91       		.byte	0x91
 2473 0254 64       		.sleb128 -28
 2474 0255 0C       		.uleb128 0xc
 2475 0256 94040000 		.4byte	.LASF27
 2476 025a 01       		.byte	0x1
 2477 025b 10       		.byte	0x10
 2478 025c 2C000000 		.4byte	0x2c
 2479 0260 02       		.uleb128 0x2
 2480 0261 91       		.byte	0x91
 2481 0262 60       		.sleb128 -32
 2482 0263 0C       		.uleb128 0xc
 2483 0264 CB030000 		.4byte	.LASF28
 2484 0268 01       		.byte	0x1
 2485 0269 10       		.byte	0x10
 2486 026a 2C000000 		.4byte	0x2c
 2487 026e 02       		.uleb128 0x2
 2488 026f 91       		.byte	0x91
 2489 0270 5C       		.sleb128 -36
 2490 0271 0D       		.uleb128 0xd
 2491 0272 6D617000 		.ascii	"map\000"
 2492 0276 01       		.byte	0x1
 2493 0277 13       		.byte	0x13
 2494 0278 AC020000 		.4byte	0x2ac
 2495 027c 02       		.uleb128 0x2
 2496 027d 91       		.byte	0x91
 2497 027e 6C       		.sleb128 -20
 2498 027f 0E       		.uleb128 0xe
 2499 0280 66000000 		.4byte	.LBB2
ARM GAS  C:\Users\cyu13\AppData\Local\Temp\ccSGk0Me.s 			page 52


 2500 0284 40000000 		.4byte	.LBE2-.LBB2
 2501 0288 0D       		.uleb128 0xd
 2502 0289 6900     		.ascii	"i\000"
 2503 028b 01       		.byte	0x1
 2504 028c 28       		.byte	0x28
 2505 028d 2C000000 		.4byte	0x2c
 2506 0291 02       		.uleb128 0x2
 2507 0292 91       		.byte	0x91
 2508 0293 74       		.sleb128 -12
 2509 0294 0E       		.uleb128 0xe
 2510 0295 6C000000 		.4byte	.LBB3
 2511 0299 2C000000 		.4byte	.LBE3-.LBB3
 2512 029d 0D       		.uleb128 0xd
 2513 029e 6A00     		.ascii	"j\000"
 2514 02a0 01       		.byte	0x1
 2515 02a1 29       		.byte	0x29
 2516 02a2 2C000000 		.4byte	0x2c
 2517 02a6 02       		.uleb128 0x2
 2518 02a7 91       		.byte	0x91
 2519 02a8 70       		.sleb128 -16
 2520 02a9 00       		.byte	0
 2521 02aa 00       		.byte	0
 2522 02ab 00       		.byte	0
 2523 02ac 0A       		.uleb128 0xa
 2524 02ad 04       		.byte	0x4
 2525 02ae BB010000 		.4byte	0x1bb
 2526 02b2 0B       		.uleb128 0xb
 2527 02b3 38000000 		.4byte	.LASF40
 2528 02b7 01       		.byte	0x1
 2529 02b8 31       		.byte	0x31
 2530 02b9 2C000000 		.4byte	0x2c
 2531 02bd 00000000 		.4byte	.LFB1
 2532 02c1 14030000 		.4byte	.LFE1-.LFB1
 2533 02c5 01       		.uleb128 0x1
 2534 02c6 9C       		.byte	0x9c
 2535 02c7 B8030000 		.4byte	0x3b8
 2536 02cb 0F       		.uleb128 0xf
 2537 02cc 6D617000 		.ascii	"map\000"
 2538 02d0 01       		.byte	0x1
 2539 02d1 31       		.byte	0x31
 2540 02d2 AC020000 		.4byte	0x2ac
 2541 02d6 03       		.uleb128 0x3
 2542 02d7 91       		.byte	0x91
 2543 02d8 C47E     		.sleb128 -188
 2544 02da 0C       		.uleb128 0xc
 2545 02db EB030000 		.4byte	.LASF41
 2546 02df 01       		.byte	0x1
 2547 02e0 31       		.byte	0x31
 2548 02e1 B8030000 		.4byte	0x3b8
 2549 02e5 03       		.uleb128 0x3
 2550 02e6 91       		.byte	0x91
 2551 02e7 C07E     		.sleb128 -192
 2552 02e9 0C       		.uleb128 0xc
 2553 02ea 17020000 		.4byte	.LASF42
 2554 02ee 01       		.byte	0x1
 2555 02ef 31       		.byte	0x31
 2556 02f0 BE030000 		.4byte	0x3be
ARM GAS  C:\Users\cyu13\AppData\Local\Temp\ccSGk0Me.s 			page 53


 2557 02f4 03       		.uleb128 0x3
 2558 02f5 91       		.byte	0x91
 2559 02f6 BC7E     		.sleb128 -196
 2560 02f8 10       		.uleb128 0x10
 2561 02f9 12030000 		.4byte	.LASF43
 2562 02fd 01       		.byte	0x1
 2563 02fe 3E       		.byte	0x3e
 2564 02ff 80000000 		.4byte	0x80
 2565 0303 02       		.uleb128 0x2
 2566 0304 91       		.byte	0x91
 2567 0305 40       		.sleb128 -64
 2568 0306 10       		.uleb128 0x10
 2569 0307 18030000 		.4byte	.LASF44
 2570 030b 01       		.byte	0x1
 2571 030c 3F       		.byte	0x3f
 2572 030d 80000000 		.4byte	0x80
 2573 0311 03       		.uleb128 0x3
 2574 0312 91       		.byte	0x91
 2575 0313 B87F     		.sleb128 -72
 2576 0315 0D       		.uleb128 0xd
 2577 0316 79617700 		.ascii	"yaw\000"
 2578 031a 01       		.byte	0x1
 2579 031b 40       		.byte	0x40
 2580 031c 80000000 		.4byte	0x80
 2581 0320 03       		.uleb128 0x3
 2582 0321 91       		.byte	0x91
 2583 0322 B07F     		.sleb128 -80
 2584 0324 10       		.uleb128 0x10
 2585 0325 09040000 		.4byte	.LASF45
 2586 0329 01       		.byte	0x1
 2587 032a 43       		.byte	0x43
 2588 032b C4030000 		.4byte	0x3c4
 2589 032f 03       		.uleb128 0x3
 2590 0330 91       		.byte	0x91
 2591 0331 F07E     		.sleb128 -144
 2592 0333 10       		.uleb128 0x10
 2593 0334 55000000 		.4byte	.LASF46
 2594 0338 01       		.byte	0x1
 2595 0339 49       		.byte	0x49
 2596 033a C4030000 		.4byte	0x3c4
 2597 033e 03       		.uleb128 0x3
 2598 033f 91       		.byte	0x91
 2599 0340 C87E     		.sleb128 -184
 2600 0342 10       		.uleb128 0x10
 2601 0343 9C020000 		.4byte	.LASF17
 2602 0347 01       		.byte	0x1
 2603 0348 4A       		.byte	0x4a
 2604 0349 80000000 		.4byte	0x80
 2605 034d 02       		.uleb128 0x2
 2606 034e 91       		.byte	0x91
 2607 034f 50       		.sleb128 -48
 2608 0350 10       		.uleb128 0x10
 2609 0351 29010000 		.4byte	.LASF47
 2610 0355 01       		.byte	0x1
 2611 0356 4B       		.byte	0x4b
 2612 0357 80000000 		.4byte	0x80
 2613 035b 03       		.uleb128 0x3
ARM GAS  C:\Users\cyu13\AppData\Local\Temp\ccSGk0Me.s 			page 54


 2614 035c 91       		.byte	0x91
 2615 035d A87F     		.sleb128 -88
 2616 035f 11       		.uleb128 0x11
 2617 0360 4E000000 		.4byte	.LBB4
 2618 0364 4C000000 		.4byte	.LBE4-.LBB4
 2619 0368 79030000 		.4byte	0x379
 2620 036c 0D       		.uleb128 0xd
 2621 036d 6900     		.ascii	"i\000"
 2622 036f 01       		.byte	0x1
 2623 0370 44       		.byte	0x44
 2624 0371 2C000000 		.4byte	0x2c
 2625 0375 02       		.uleb128 0x2
 2626 0376 91       		.byte	0x91
 2627 0377 5C       		.sleb128 -36
 2628 0378 00       		.byte	0
 2629 0379 0E       		.uleb128 0xe
 2630 037a 9A000000 		.4byte	.LBB5
 2631 037e 58020000 		.4byte	.LBE5-.LBB5
 2632 0382 0D       		.uleb128 0xd
 2633 0383 6900     		.ascii	"i\000"
 2634 0385 01       		.byte	0x1
 2635 0386 4D       		.byte	0x4d
 2636 0387 2C000000 		.4byte	0x2c
 2637 038b 02       		.uleb128 0x2
 2638 038c 91       		.byte	0x91
 2639 038d 4C       		.sleb128 -52
 2640 038e 0E       		.uleb128 0xe
 2641 038f A2000000 		.4byte	.LBB6
 2642 0393 3C020000 		.4byte	.LBE6-.LBB6
 2643 0397 10       		.uleb128 0x10
 2644 0398 AD030000 		.4byte	.LASF48
 2645 039c 01       		.byte	0x1
 2646 039d 58       		.byte	0x58
 2647 039e 80000000 		.4byte	0x80
 2648 03a2 03       		.uleb128 0x3
 2649 03a3 91       		.byte	0x91
 2650 03a4 A07F     		.sleb128 -96
 2651 03a6 10       		.uleb128 0x10
 2652 03a7 07020000 		.4byte	.LASF49
 2653 03ab 01       		.byte	0x1
 2654 03ac 59       		.byte	0x59
 2655 03ad 80000000 		.4byte	0x80
 2656 03b1 03       		.uleb128 0x3
 2657 03b2 91       		.byte	0x91
 2658 03b3 987F     		.sleb128 -104
 2659 03b5 00       		.byte	0
 2660 03b6 00       		.byte	0
 2661 03b7 00       		.byte	0
 2662 03b8 0A       		.uleb128 0xa
 2663 03b9 04       		.byte	0x4
 2664 03ba BF000000 		.4byte	0xbf
 2665 03be 0A       		.uleb128 0xa
 2666 03bf 04       		.byte	0x4
 2667 03c0 71010000 		.4byte	0x171
 2668 03c4 06       		.uleb128 0x6
 2669 03c5 80000000 		.4byte	0x80
 2670 03c9 D4030000 		.4byte	0x3d4
ARM GAS  C:\Users\cyu13\AppData\Local\Temp\ccSGk0Me.s 			page 55


 2671 03cd 07       		.uleb128 0x7
 2672 03ce 72000000 		.4byte	0x72
 2673 03d2 04       		.byte	0x4
 2674 03d3 00       		.byte	0
 2675 03d4 0B       		.uleb128 0xb
 2676 03d5 63040000 		.4byte	.LASF50
 2677 03d9 01       		.byte	0x1
 2678 03da 64       		.byte	0x64
 2679 03db B2040000 		.4byte	0x4b2
 2680 03df 00000000 		.4byte	.LFB2
 2681 03e3 EC020000 		.4byte	.LFE2-.LFB2
 2682 03e7 01       		.uleb128 0x1
 2683 03e8 9C       		.byte	0x9c
 2684 03e9 B2040000 		.4byte	0x4b2
 2685 03ed 0C       		.uleb128 0xc
 2686 03ee EB030000 		.4byte	.LASF41
 2687 03f2 01       		.byte	0x1
 2688 03f3 64       		.byte	0x64
 2689 03f4 B8030000 		.4byte	0x3b8
 2690 03f8 03       		.uleb128 0x3
 2691 03f9 91       		.byte	0x91
 2692 03fa A47F     		.sleb128 -92
 2693 03fc 0F       		.uleb128 0xf
 2694 03fd 6100     		.ascii	"a\000"
 2695 03ff 01       		.byte	0x1
 2696 0400 64       		.byte	0x64
 2697 0401 80000000 		.4byte	0x80
 2698 0405 03       		.uleb128 0x3
 2699 0406 91       		.byte	0x91
 2700 0407 987F     		.sleb128 -104
 2701 0409 0F       		.uleb128 0xf
 2702 040a 6200     		.ascii	"b\000"
 2703 040c 01       		.byte	0x1
 2704 040d 64       		.byte	0x64
 2705 040e 80000000 		.4byte	0x80
 2706 0412 02       		.uleb128 0x2
 2707 0413 91       		.byte	0x91
 2708 0414 00       		.sleb128 0
 2709 0415 10       		.uleb128 0x10
 2710 0416 8A010000 		.4byte	.LASF51
 2711 041a 01       		.byte	0x1
 2712 041b 69       		.byte	0x69
 2713 041c B2040000 		.4byte	0x4b2
 2714 0420 02       		.uleb128 0x2
 2715 0421 91       		.byte	0x91
 2716 0422 54       		.sleb128 -44
 2717 0423 10       		.uleb128 0x10
 2718 0424 87030000 		.4byte	.LASF52
 2719 0428 01       		.byte	0x1
 2720 0429 6A       		.byte	0x6a
 2721 042a 80000000 		.4byte	0x80
 2722 042e 02       		.uleb128 0x2
 2723 042f 91       		.byte	0x91
 2724 0430 48       		.sleb128 -56
 2725 0431 0D       		.uleb128 0xd
 2726 0432 777300   		.ascii	"ws\000"
 2727 0435 01       		.byte	0x1
ARM GAS  C:\Users\cyu13\AppData\Local\Temp\ccSGk0Me.s 			page 56


 2728 0436 6B       		.byte	0x6b
 2729 0437 80000000 		.4byte	0x80
 2730 043b 02       		.uleb128 0x2
 2731 043c 91       		.byte	0x91
 2732 043d 40       		.sleb128 -64
 2733 043e 10       		.uleb128 0x10
 2734 043f 9A030000 		.4byte	.LASF53
 2735 0443 01       		.byte	0x1
 2736 0444 6D       		.byte	0x6d
 2737 0445 2C000000 		.4byte	0x2c
 2738 0449 02       		.uleb128 0x2
 2739 044a 91       		.byte	0x91
 2740 044b 64       		.sleb128 -28
 2741 044c 0E       		.uleb128 0xe
 2742 044d 50000000 		.4byte	.LBB7
 2743 0451 66020000 		.4byte	.LBE7-.LBB7
 2744 0455 0D       		.uleb128 0xd
 2745 0456 6900     		.ascii	"i\000"
 2746 0458 01       		.byte	0x1
 2747 0459 71       		.byte	0x71
 2748 045a 2C000000 		.4byte	0x2c
 2749 045e 02       		.uleb128 0x2
 2750 045f 91       		.byte	0x91
 2751 0460 60       		.sleb128 -32
 2752 0461 0E       		.uleb128 0xe
 2753 0462 56000000 		.4byte	.LBB8
 2754 0466 50020000 		.4byte	.LBE8-.LBB8
 2755 046a 10       		.uleb128 0x10
 2756 046b 38030000 		.4byte	.LASF54
 2757 046f 01       		.byte	0x1
 2758 0470 72       		.byte	0x72
 2759 0471 80000000 		.4byte	0x80
 2760 0475 03       		.uleb128 0x3
 2761 0476 91       		.byte	0x91
 2762 0477 B87F     		.sleb128 -72
 2763 0479 10       		.uleb128 0x10
 2764 047a 42030000 		.4byte	.LASF55
 2765 047e 01       		.byte	0x1
 2766 047f 73       		.byte	0x73
 2767 0480 80000000 		.4byte	0x80
 2768 0484 03       		.uleb128 0x3
 2769 0485 91       		.byte	0x91
 2770 0486 B07F     		.sleb128 -80
 2771 0488 10       		.uleb128 0x10
 2772 0489 4C030000 		.4byte	.LASF56
 2773 048d 01       		.byte	0x1
 2774 048e 75       		.byte	0x75
 2775 048f 80000000 		.4byte	0x80
 2776 0493 03       		.uleb128 0x3
 2777 0494 91       		.byte	0x91
 2778 0495 A87F     		.sleb128 -88
 2779 0497 0E       		.uleb128 0xe
 2780 0498 9A010000 		.4byte	.LBB9
 2781 049c D4000000 		.4byte	.LBE9-.LBB9
 2782 04a0 10       		.uleb128 0x10
 2783 04a1 2D040000 		.4byte	.LASF57
 2784 04a5 01       		.byte	0x1
ARM GAS  C:\Users\cyu13\AppData\Local\Temp\ccSGk0Me.s 			page 57


 2785 04a6 78       		.byte	0x78
 2786 04a7 80000000 		.4byte	0x80
 2787 04ab 02       		.uleb128 0x2
 2788 04ac 91       		.byte	0x91
 2789 04ad 58       		.sleb128 -40
 2790 04ae 00       		.byte	0
 2791 04af 00       		.byte	0
 2792 04b0 00       		.byte	0
 2793 04b1 00       		.byte	0
 2794 04b2 0A       		.uleb128 0xa
 2795 04b3 04       		.byte	0x4
 2796 04b4 80000000 		.4byte	0x80
 2797 04b8 0B       		.uleb128 0xb
 2798 04b9 77040000 		.4byte	.LASF58
 2799 04bd 01       		.byte	0x1
 2800 04be 95       		.byte	0x95
 2801 04bf 2E050000 		.4byte	0x52e
 2802 04c3 00000000 		.4byte	.LFB3
 2803 04c7 AC000000 		.4byte	.LFE3-.LFB3
 2804 04cb 01       		.uleb128 0x1
 2805 04cc 9C       		.byte	0x9c
 2806 04cd 2E050000 		.4byte	0x52e
 2807 04d1 0C       		.uleb128 0xc
 2808 04d2 63000000 		.4byte	.LASF31
 2809 04d6 01       		.byte	0x1
 2810 04d7 95       		.byte	0x95
 2811 04d8 2C000000 		.4byte	0x2c
 2812 04dc 02       		.uleb128 0x2
 2813 04dd 91       		.byte	0x91
 2814 04de 64       		.sleb128 -28
 2815 04df 0C       		.uleb128 0xc
 2816 04e0 6F030000 		.4byte	.LASF33
 2817 04e4 01       		.byte	0x1
 2818 04e5 95       		.byte	0x95
 2819 04e6 80000000 		.4byte	0x80
 2820 04ea 02       		.uleb128 0x2
 2821 04eb 91       		.byte	0x91
 2822 04ec 58       		.sleb128 -40
 2823 04ed 0C       		.uleb128 0xc
 2824 04ee 1E030000 		.4byte	.LASF35
 2825 04f2 01       		.byte	0x1
 2826 04f3 95       		.byte	0x95
 2827 04f4 80000000 		.4byte	0x80
 2828 04f8 02       		.uleb128 0x2
 2829 04f9 91       		.byte	0x91
 2830 04fa 00       		.sleb128 0
 2831 04fb 0C       		.uleb128 0xc
 2832 04fc 28030000 		.4byte	.LASF36
 2833 0500 01       		.byte	0x1
 2834 0501 95       		.byte	0x95
 2835 0502 80000000 		.4byte	0x80
 2836 0506 02       		.uleb128 0x2
 2837 0507 91       		.byte	0x91
 2838 0508 08       		.sleb128 8
 2839 0509 10       		.uleb128 0x10
 2840 050a 97020000 		.4byte	.LASF59
 2841 050e 01       		.byte	0x1
ARM GAS  C:\Users\cyu13\AppData\Local\Temp\ccSGk0Me.s 			page 58


 2842 050f 97       		.byte	0x97
 2843 0510 2E050000 		.4byte	0x52e
 2844 0514 02       		.uleb128 0x2
 2845 0515 91       		.byte	0x91
 2846 0516 68       		.sleb128 -24
 2847 0517 0E       		.uleb128 0xe
 2848 0518 7E000000 		.4byte	.LBB10
 2849 051c 24000000 		.4byte	.LBE10-.LBB10
 2850 0520 0D       		.uleb128 0xd
 2851 0521 6900     		.ascii	"i\000"
 2852 0523 01       		.byte	0x1
 2853 0524 AD       		.byte	0xad
 2854 0525 2C000000 		.4byte	0x2c
 2855 0529 02       		.uleb128 0x2
 2856 052a 91       		.byte	0x91
 2857 052b 6C       		.sleb128 -20
 2858 052c 00       		.byte	0
 2859 052d 00       		.byte	0
 2860 052e 0A       		.uleb128 0xa
 2861 052f 04       		.byte	0x4
 2862 0530 23020000 		.4byte	0x223
 2863 0534 0B       		.uleb128 0xb
 2864 0535 67020000 		.4byte	.LASF60
 2865 0539 01       		.byte	0x1
 2866 053a B4       		.byte	0xb4
 2867 053b B2040000 		.4byte	0x4b2
 2868 053f 00000000 		.4byte	.LFB4
 2869 0543 48020000 		.4byte	.LFE4-.LFB4
 2870 0547 01       		.uleb128 0x1
 2871 0548 9C       		.byte	0x9c
 2872 0549 85060000 		.4byte	0x685
 2873 054d 0C       		.uleb128 0xc
 2874 054e 8A010000 		.4byte	.LASF51
 2875 0552 01       		.byte	0x1
 2876 0553 B4       		.byte	0xb4
 2877 0554 B2040000 		.4byte	0x4b2
 2878 0558 03       		.uleb128 0x3
 2879 0559 91       		.byte	0x91
 2880 055a A47F     		.sleb128 -92
 2881 055c 0C       		.uleb128 0xc
 2882 055d 63000000 		.4byte	.LASF31
 2883 0561 01       		.byte	0x1
 2884 0562 B4       		.byte	0xb4
 2885 0563 80000000 		.4byte	0x80
 2886 0567 03       		.uleb128 0x3
 2887 0568 91       		.byte	0x91
 2888 0569 987F     		.sleb128 -104
 2889 056b 0F       		.uleb128 0xf
 2890 056c 6C00     		.ascii	"l\000"
 2891 056e 01       		.byte	0x1
 2892 056f B4       		.byte	0xb4
 2893 0570 80000000 		.4byte	0x80
 2894 0574 02       		.uleb128 0x2
 2895 0575 91       		.byte	0x91
 2896 0576 00       		.sleb128 0
 2897 0577 10       		.uleb128 0x10
 2898 0578 4C020000 		.4byte	.LASF61
ARM GAS  C:\Users\cyu13\AppData\Local\Temp\ccSGk0Me.s 			page 59


 2899 057c 01       		.byte	0x1
 2900 057d B6       		.byte	0xb6
 2901 057e 2C000000 		.4byte	0x2c
 2902 0582 02       		.uleb128 0x2
 2903 0583 91       		.byte	0x91
 2904 0584 40       		.sleb128 -64
 2905 0585 10       		.uleb128 0x10
 2906 0586 F6020000 		.4byte	.LASF62
 2907 058a 01       		.byte	0x1
 2908 058b B7       		.byte	0xb7
 2909 058c B2040000 		.4byte	0x4b2
 2910 0590 03       		.uleb128 0x3
 2911 0591 91       		.byte	0x91
 2912 0592 BC7F     		.sleb128 -68
 2913 0594 10       		.uleb128 0x10
 2914 0595 64030000 		.4byte	.LASF63
 2915 0599 01       		.byte	0x1
 2916 059a BA       		.byte	0xba
 2917 059b 80000000 		.4byte	0x80
 2918 059f 02       		.uleb128 0x2
 2919 05a0 91       		.byte	0x91
 2920 05a1 68       		.sleb128 -24
 2921 05a2 10       		.uleb128 0x10
 2922 05a3 2B000000 		.4byte	.LASF64
 2923 05a7 01       		.byte	0x1
 2924 05a8 CD       		.byte	0xcd
 2925 05a9 B2040000 		.4byte	0x4b2
 2926 05ad 03       		.uleb128 0x3
 2927 05ae 91       		.byte	0x91
 2928 05af B07F     		.sleb128 -80
 2929 05b1 11       		.uleb128 0x11
 2930 05b2 44000000 		.4byte	.LBB11
 2931 05b6 32000000 		.4byte	.LBE11-.LBB11
 2932 05ba CB050000 		.4byte	0x5cb
 2933 05be 0D       		.uleb128 0xd
 2934 05bf 6900     		.ascii	"i\000"
 2935 05c1 01       		.byte	0x1
 2936 05c2 BB       		.byte	0xbb
 2937 05c3 2C000000 		.4byte	0x2c
 2938 05c7 02       		.uleb128 0x2
 2939 05c8 91       		.byte	0x91
 2940 05c9 64       		.sleb128 -28
 2941 05ca 00       		.byte	0
 2942 05cb 11       		.uleb128 0x11
 2943 05cc 76000000 		.4byte	.LBB12
 2944 05d0 A2000000 		.4byte	.LBE12-.LBB12
 2945 05d4 31060000 		.4byte	0x631
 2946 05d8 0D       		.uleb128 0xd
 2947 05d9 6900     		.ascii	"i\000"
 2948 05db 01       		.byte	0x1
 2949 05dc C0       		.byte	0xc0
 2950 05dd 2C000000 		.4byte	0x2c
 2951 05e1 02       		.uleb128 0x2
 2952 05e2 91       		.byte	0x91
 2953 05e3 60       		.sleb128 -32
 2954 05e4 0E       		.uleb128 0xe
 2955 05e5 7C000000 		.4byte	.LBB13
ARM GAS  C:\Users\cyu13\AppData\Local\Temp\ccSGk0Me.s 			page 60


 2956 05e9 8E000000 		.4byte	.LBE13-.LBB13
 2957 05ed 10       		.uleb128 0x10
 2958 05ee 9B040000 		.4byte	.LASF65
 2959 05f2 01       		.byte	0x1
 2960 05f3 C1       		.byte	0xc1
 2961 05f4 2C000000 		.4byte	0x2c
 2962 05f8 03       		.uleb128 0x3
 2963 05f9 91       		.byte	0x91
 2964 05fa B87F     		.sleb128 -72
 2965 05fc 10       		.uleb128 0x10
 2966 05fd 45010000 		.4byte	.LASF66
 2967 0601 01       		.byte	0x1
 2968 0602 C2       		.byte	0xc2
 2969 0603 2C000000 		.4byte	0x2c
 2970 0607 03       		.uleb128 0x3
 2971 0608 91       		.byte	0x91
 2972 0609 B47F     		.sleb128 -76
 2973 060b 0D       		.uleb128 0xd
 2974 060c 73756D00 		.ascii	"sum\000"
 2975 0610 01       		.byte	0x1
 2976 0611 C3       		.byte	0xc3
 2977 0612 80000000 		.4byte	0x80
 2978 0616 02       		.uleb128 0x2
 2979 0617 91       		.byte	0x91
 2980 0618 58       		.sleb128 -40
 2981 0619 0E       		.uleb128 0xe
 2982 061a C8000000 		.4byte	.LBB14
 2983 061e 32000000 		.4byte	.LBE14-.LBB14
 2984 0622 0D       		.uleb128 0xd
 2985 0623 6A00     		.ascii	"j\000"
 2986 0625 01       		.byte	0x1
 2987 0626 C5       		.byte	0xc5
 2988 0627 2C000000 		.4byte	0x2c
 2989 062b 02       		.uleb128 0x2
 2990 062c 91       		.byte	0x91
 2991 062d 54       		.sleb128 -44
 2992 062e 00       		.byte	0
 2993 062f 00       		.byte	0
 2994 0630 00       		.byte	0
 2995 0631 0E       		.uleb128 0xe
 2996 0632 26010000 		.4byte	.LBB15
 2997 0636 0E010000 		.4byte	.LBE15-.LBB15
 2998 063a 0D       		.uleb128 0xd
 2999 063b 6900     		.ascii	"i\000"
 3000 063d 01       		.byte	0x1
 3001 063e CE       		.byte	0xce
 3002 063f 2C000000 		.4byte	0x2c
 3003 0643 02       		.uleb128 0x2
 3004 0644 91       		.byte	0x91
 3005 0645 50       		.sleb128 -48
 3006 0646 0E       		.uleb128 0xe
 3007 0647 2C010000 		.4byte	.LBB16
 3008 064b F8000000 		.4byte	.LBE16-.LBB16
 3009 064f 10       		.uleb128 0x10
 3010 0650 46040000 		.4byte	.LASF67
 3011 0654 01       		.byte	0x1
 3012 0655 CF       		.byte	0xcf
ARM GAS  C:\Users\cyu13\AppData\Local\Temp\ccSGk0Me.s 			page 61


 3013 0656 80000000 		.4byte	0x80
 3014 065a 02       		.uleb128 0x2
 3015 065b 91       		.byte	0x91
 3016 065c 48       		.sleb128 -56
 3017 065d 10       		.uleb128 0x10
 3018 065e F3030000 		.4byte	.LASF68
 3019 0662 01       		.byte	0x1
 3020 0663 D5       		.byte	0xd5
 3021 0664 80000000 		.4byte	0x80
 3022 0668 03       		.uleb128 0x3
 3023 0669 91       		.byte	0x91
 3024 066a A87F     		.sleb128 -88
 3025 066c 0E       		.uleb128 0xe
 3026 066d 48010000 		.4byte	.LBB17
 3027 0671 96000000 		.4byte	.LBE17-.LBB17
 3028 0675 0D       		.uleb128 0xd
 3029 0676 6A00     		.ascii	"j\000"
 3030 0678 01       		.byte	0x1
 3031 0679 D1       		.byte	0xd1
 3032 067a 2C000000 		.4byte	0x2c
 3033 067e 02       		.uleb128 0x2
 3034 067f 91       		.byte	0x91
 3035 0680 44       		.sleb128 -60
 3036 0681 00       		.byte	0
 3037 0682 00       		.byte	0
 3038 0683 00       		.byte	0
 3039 0684 00       		.byte	0
 3040 0685 0B       		.uleb128 0xb
 3041 0686 01010000 		.4byte	.LASF69
 3042 068a 01       		.byte	0x1
 3043 068b DD       		.byte	0xdd
 3044 068c B5010000 		.4byte	0x1b5
 3045 0690 00000000 		.4byte	.LFB5
 3046 0694 CA000000 		.4byte	.LFE5-.LFB5
 3047 0698 01       		.uleb128 0x1
 3048 0699 9C       		.byte	0x9c
 3049 069a 31070000 		.4byte	0x731
 3050 069e 0C       		.uleb128 0xc
 3051 069f 2B000000 		.4byte	.LASF64
 3052 06a3 01       		.byte	0x1
 3053 06a4 DD       		.byte	0xdd
 3054 06a5 B2040000 		.4byte	0x4b2
 3055 06a9 02       		.uleb128 0x2
 3056 06aa 91       		.byte	0x91
 3057 06ab 54       		.sleb128 -44
 3058 06ac 0C       		.uleb128 0xc
 3059 06ad 00000000 		.4byte	.LASF70
 3060 06b1 01       		.byte	0x1
 3061 06b2 DD       		.byte	0xdd
 3062 06b3 80000000 		.4byte	0x80
 3063 06b7 02       		.uleb128 0x2
 3064 06b8 91       		.byte	0x91
 3065 06b9 48       		.sleb128 -56
 3066 06ba 10       		.uleb128 0x10
 3067 06bb 52040000 		.4byte	.LASF71
 3068 06bf 01       		.byte	0x1
 3069 06c0 DF       		.byte	0xdf
ARM GAS  C:\Users\cyu13\AppData\Local\Temp\ccSGk0Me.s 			page 62


 3070 06c1 2C000000 		.4byte	0x2c
 3071 06c5 02       		.uleb128 0x2
 3072 06c6 91       		.byte	0x91
 3073 06c7 64       		.sleb128 -28
 3074 06c8 10       		.uleb128 0x10
 3075 06c9 37010000 		.4byte	.LASF72
 3076 06cd 01       		.byte	0x1
 3077 06ce E0       		.byte	0xe0
 3078 06cf B5010000 		.4byte	0x1b5
 3079 06d3 02       		.uleb128 0x2
 3080 06d4 91       		.byte	0x91
 3081 06d5 60       		.sleb128 -32
 3082 06d6 10       		.uleb128 0x10
 3083 06d7 22020000 		.4byte	.LASF73
 3084 06db 01       		.byte	0x1
 3085 06dc E1       		.byte	0xe1
 3086 06dd 2C000000 		.4byte	0x2c
 3087 06e1 02       		.uleb128 0x2
 3088 06e2 91       		.byte	0x91
 3089 06e3 74       		.sleb128 -12
 3090 06e4 10       		.uleb128 0x10
 3091 06e5 04030000 		.4byte	.LASF74
 3092 06e9 01       		.byte	0x1
 3093 06ea EF       		.byte	0xef
 3094 06eb B5010000 		.4byte	0x1b5
 3095 06ef 02       		.uleb128 0x2
 3096 06f0 91       		.byte	0x91
 3097 06f1 5C       		.sleb128 -36
 3098 06f2 10       		.uleb128 0x10
 3099 06f3 1D020000 		.4byte	.LASF75
 3100 06f7 01       		.byte	0x1
 3101 06f8 F0       		.byte	0xf0
 3102 06f9 2C000000 		.4byte	0x2c
 3103 06fd 02       		.uleb128 0x2
 3104 06fe 91       		.byte	0x91
 3105 06ff 6C       		.sleb128 -20
 3106 0700 11       		.uleb128 0x11
 3107 0701 1E000000 		.4byte	.LBB18
 3108 0705 4E000000 		.4byte	.LBE18-.LBB18
 3109 0709 1A070000 		.4byte	0x71a
 3110 070d 0D       		.uleb128 0xd
 3111 070e 6900     		.ascii	"i\000"
 3112 0710 01       		.byte	0x1
 3113 0711 E4       		.byte	0xe4
 3114 0712 2C000000 		.4byte	0x2c
 3115 0716 02       		.uleb128 0x2
 3116 0717 91       		.byte	0x91
 3117 0718 70       		.sleb128 -16
 3118 0719 00       		.byte	0
 3119 071a 0E       		.uleb128 0xe
 3120 071b 7E000000 		.4byte	.LBB19
 3121 071f 3C000000 		.4byte	.LBE19-.LBB19
 3122 0723 0D       		.uleb128 0xd
 3123 0724 6900     		.ascii	"i\000"
 3124 0726 01       		.byte	0x1
 3125 0727 F1       		.byte	0xf1
 3126 0728 2C000000 		.4byte	0x2c
ARM GAS  C:\Users\cyu13\AppData\Local\Temp\ccSGk0Me.s 			page 63


 3127 072c 02       		.uleb128 0x2
 3128 072d 91       		.byte	0x91
 3129 072e 68       		.sleb128 -24
 3130 072f 00       		.byte	0
 3131 0730 00       		.byte	0
 3132 0731 12       		.uleb128 0x12
 3133 0732 DC020000 		.4byte	.LASF76
 3134 0736 01       		.byte	0x1
 3135 0737 0001     		.2byte	0x100
 3136 0739 80000000 		.4byte	0x80
 3137 073d 00000000 		.4byte	.LFB6
 3138 0741 58040000 		.4byte	.LFE6-.LFB6
 3139 0745 01       		.uleb128 0x1
 3140 0746 9C       		.byte	0x9c
 3141 0747 1E090000 		.4byte	0x91e
 3142 074b 13       		.uleb128 0x13
 3143 074c 2B000000 		.4byte	.LASF64
 3144 0750 01       		.byte	0x1
 3145 0751 0001     		.2byte	0x100
 3146 0753 B2040000 		.4byte	0x4b2
 3147 0757 03       		.uleb128 0x3
 3148 0758 91       		.byte	0x91
 3149 0759 FC7E     		.sleb128 -132
 3150 075b 13       		.uleb128 0x13
 3151 075c 17020000 		.4byte	.LASF42
 3152 0760 01       		.byte	0x1
 3153 0761 0001     		.2byte	0x100
 3154 0763 BE030000 		.4byte	0x3be
 3155 0767 03       		.uleb128 0x3
 3156 0768 91       		.byte	0x91
 3157 0769 F87E     		.sleb128 -136
 3158 076b 13       		.uleb128 0x13
 3159 076c 04030000 		.4byte	.LASF74
 3160 0770 01       		.byte	0x1
 3161 0771 0001     		.2byte	0x100
 3162 0773 B5010000 		.4byte	0x1b5
 3163 0777 03       		.uleb128 0x3
 3164 0778 91       		.byte	0x91
 3165 0779 F47E     		.sleb128 -140
 3166 077b 13       		.uleb128 0x13
 3167 077c 63000000 		.4byte	.LASF31
 3168 0780 01       		.byte	0x1
 3169 0781 0001     		.2byte	0x100
 3170 0783 80000000 		.4byte	0x80
 3171 0787 02       		.uleb128 0x2
 3172 0788 91       		.byte	0x91
 3173 0789 00       		.sleb128 0
 3174 078a 13       		.uleb128 0x13
 3175 078b 5D040000 		.4byte	.LASF77
 3176 078f 01       		.byte	0x1
 3177 0790 0001     		.2byte	0x100
 3178 0792 80000000 		.4byte	0x80
 3179 0796 02       		.uleb128 0x2
 3180 0797 91       		.byte	0x91
 3181 0798 08       		.sleb128 8
 3182 0799 13       		.uleb128 0x13
 3183 079a 00000000 		.4byte	.LASF70
ARM GAS  C:\Users\cyu13\AppData\Local\Temp\ccSGk0Me.s 			page 64


 3184 079e 01       		.byte	0x1
 3185 079f 0001     		.2byte	0x100
 3186 07a1 80000000 		.4byte	0x80
 3187 07a5 02       		.uleb128 0x2
 3188 07a6 91       		.byte	0x91
 3189 07a7 10       		.sleb128 16
 3190 07a8 14       		.uleb128 0x14
 3191 07a9 4B010000 		.4byte	.LASF78
 3192 07ad 01       		.byte	0x1
 3193 07ae 0201     		.2byte	0x102
 3194 07b0 2C000000 		.4byte	0x2c
 3195 07b4 02       		.uleb128 0x2
 3196 07b5 91       		.byte	0x91
 3197 07b6 48       		.sleb128 -56
 3198 07b7 14       		.uleb128 0x14
 3199 07b8 4C020000 		.4byte	.LASF61
 3200 07bc 01       		.byte	0x1
 3201 07bd 0301     		.2byte	0x103
 3202 07bf 2C000000 		.4byte	0x2c
 3203 07c3 02       		.uleb128 0x2
 3204 07c4 91       		.byte	0x91
 3205 07c5 44       		.sleb128 -60
 3206 07c6 14       		.uleb128 0x14
 3207 07c7 12030000 		.4byte	.LASF43
 3208 07cb 01       		.byte	0x1
 3209 07cc 0601     		.2byte	0x106
 3210 07ce 80000000 		.4byte	0x80
 3211 07d2 03       		.uleb128 0x3
 3212 07d3 91       		.byte	0x91
 3213 07d4 B87F     		.sleb128 -72
 3214 07d6 14       		.uleb128 0x14
 3215 07d7 18030000 		.4byte	.LASF44
 3216 07db 01       		.byte	0x1
 3217 07dc 0701     		.2byte	0x107
 3218 07de 80000000 		.4byte	0x80
 3219 07e2 03       		.uleb128 0x3
 3220 07e3 91       		.byte	0x91
 3221 07e4 B07F     		.sleb128 -80
 3222 07e6 14       		.uleb128 0x14
 3223 07e7 FF010000 		.4byte	.LASF79
 3224 07eb 01       		.byte	0x1
 3225 07ec 0801     		.2byte	0x108
 3226 07ee 80000000 		.4byte	0x80
 3227 07f2 03       		.uleb128 0x3
 3228 07f3 91       		.byte	0x91
 3229 07f4 A87F     		.sleb128 -88
 3230 07f6 14       		.uleb128 0x14
 3231 07f7 56030000 		.4byte	.LASF21
 3232 07fb 01       		.byte	0x1
 3233 07fc 0901     		.2byte	0x109
 3234 07fe 80000000 		.4byte	0x80
 3235 0802 03       		.uleb128 0x3
 3236 0803 91       		.byte	0x91
 3237 0804 A07F     		.sleb128 -96
 3238 0806 14       		.uleb128 0x14
 3239 0807 5D030000 		.4byte	.LASF22
 3240 080b 01       		.byte	0x1
ARM GAS  C:\Users\cyu13\AppData\Local\Temp\ccSGk0Me.s 			page 65


 3241 080c 0A01     		.2byte	0x10a
 3242 080e 80000000 		.4byte	0x80
 3243 0812 03       		.uleb128 0x3
 3244 0813 91       		.byte	0x91
 3245 0814 987F     		.sleb128 -104
 3246 0816 14       		.uleb128 0x14
 3247 0817 B3030000 		.4byte	.LASF80
 3248 081b 01       		.byte	0x1
 3249 081c 0C01     		.2byte	0x10c
 3250 081e 80000000 		.4byte	0x80
 3251 0822 03       		.uleb128 0x3
 3252 0823 91       		.byte	0x91
 3253 0824 907F     		.sleb128 -112
 3254 0826 14       		.uleb128 0x14
 3255 0827 9A010000 		.4byte	.LASF81
 3256 082b 01       		.byte	0x1
 3257 082c 0D01     		.2byte	0x10d
 3258 082e 2C000000 		.4byte	0x2c
 3259 0832 03       		.uleb128 0x3
 3260 0833 91       		.byte	0x91
 3261 0834 8C7F     		.sleb128 -116
 3262 0836 14       		.uleb128 0x14
 3263 0837 E3030000 		.4byte	.LASF82
 3264 083b 01       		.byte	0x1
 3265 083c 0E01     		.2byte	0x10e
 3266 083e 2C000000 		.4byte	0x2c
 3267 0842 02       		.uleb128 0x2
 3268 0843 91       		.byte	0x91
 3269 0844 6C       		.sleb128 -20
 3270 0845 15       		.uleb128 0x15
 3271 0846 6B5F6E00 		.ascii	"k_n\000"
 3272 084a 01       		.byte	0x1
 3273 084b 0F01     		.2byte	0x10f
 3274 084d 2C000000 		.4byte	0x2c
 3275 0851 02       		.uleb128 0x2
 3276 0852 91       		.byte	0x91
 3277 0853 68       		.sleb128 -24
 3278 0854 15       		.uleb128 0x15
 3279 0855 6B5F6600 		.ascii	"k_f\000"
 3280 0859 01       		.byte	0x1
 3281 085a 1001     		.2byte	0x110
 3282 085c 2C000000 		.4byte	0x2c
 3283 0860 02       		.uleb128 0x2
 3284 0861 91       		.byte	0x91
 3285 0862 64       		.sleb128 -28
 3286 0863 11       		.uleb128 0x11
 3287 0864 FE000000 		.4byte	.LBB20
 3288 0868 CA000000 		.4byte	.LBE20-.LBB20
 3289 086c A7080000 		.4byte	0x8a7
 3290 0870 15       		.uleb128 0x15
 3291 0871 6900     		.ascii	"i\000"
 3292 0873 01       		.byte	0x1
 3293 0874 1301     		.2byte	0x113
 3294 0876 2C000000 		.4byte	0x2c
 3295 087a 02       		.uleb128 0x2
 3296 087b 91       		.byte	0x91
 3297 087c 60       		.sleb128 -32
ARM GAS  C:\Users\cyu13\AppData\Local\Temp\ccSGk0Me.s 			page 66


 3298 087d 0E       		.uleb128 0xe
 3299 087e 04010000 		.4byte	.LBB21
 3300 0882 B6000000 		.4byte	.LBE21-.LBB21
 3301 0886 15       		.uleb128 0x15
 3302 0887 69647800 		.ascii	"idx\000"
 3303 088b 01       		.byte	0x1
 3304 088c 1401     		.2byte	0x114
 3305 088e 2C000000 		.4byte	0x2c
 3306 0892 03       		.uleb128 0x3
 3307 0893 91       		.byte	0x91
 3308 0894 887F     		.sleb128 -120
 3309 0896 14       		.uleb128 0x14
 3310 0897 D6030000 		.4byte	.LASF83
 3311 089b 01       		.byte	0x1
 3312 089c 1701     		.2byte	0x117
 3313 089e 2C000000 		.4byte	0x2c
 3314 08a2 02       		.uleb128 0x2
 3315 08a3 91       		.byte	0x91
 3316 08a4 5C       		.sleb128 -36
 3317 08a5 00       		.byte	0
 3318 08a6 00       		.byte	0
 3319 08a7 11       		.uleb128 0x11
 3320 08a8 D4010000 		.4byte	.LBB22
 3321 08ac 7E000000 		.4byte	.LBE22-.LBB22
 3322 08b0 EB080000 		.4byte	0x8eb
 3323 08b4 15       		.uleb128 0x15
 3324 08b5 6900     		.ascii	"i\000"
 3325 08b7 01       		.byte	0x1
 3326 08b8 2901     		.2byte	0x129
 3327 08ba 2C000000 		.4byte	0x2c
 3328 08be 02       		.uleb128 0x2
 3329 08bf 91       		.byte	0x91
 3330 08c0 58       		.sleb128 -40
 3331 08c1 0E       		.uleb128 0xe
 3332 08c2 DA010000 		.4byte	.LBB23
 3333 08c6 6A000000 		.4byte	.LBE23-.LBB23
 3334 08ca 15       		.uleb128 0x15
 3335 08cb 69647800 		.ascii	"idx\000"
 3336 08cf 01       		.byte	0x1
 3337 08d0 2A01     		.2byte	0x12a
 3338 08d2 2C000000 		.4byte	0x2c
 3339 08d6 03       		.uleb128 0x3
 3340 08d7 91       		.byte	0x91
 3341 08d8 847F     		.sleb128 -124
 3342 08da 14       		.uleb128 0x14
 3343 08db D6030000 		.4byte	.LASF83
 3344 08df 01       		.byte	0x1
 3345 08e0 2D01     		.2byte	0x12d
 3346 08e2 2C000000 		.4byte	0x2c
 3347 08e6 02       		.uleb128 0x2
 3348 08e7 91       		.byte	0x91
 3349 08e8 54       		.sleb128 -44
 3350 08e9 00       		.byte	0
 3351 08ea 00       		.byte	0
 3352 08eb 11       		.uleb128 0x11
 3353 08ec 7A020000 		.4byte	.LBB24
 3354 08f0 C4000000 		.4byte	.LBE24-.LBB24
ARM GAS  C:\Users\cyu13\AppData\Local\Temp\ccSGk0Me.s 			page 67


 3355 08f4 06090000 		.4byte	0x906
 3356 08f8 15       		.uleb128 0x15
 3357 08f9 6900     		.ascii	"i\000"
 3358 08fb 01       		.byte	0x1
 3359 08fc 4201     		.2byte	0x142
 3360 08fe 2C000000 		.4byte	0x2c
 3361 0902 02       		.uleb128 0x2
 3362 0903 91       		.byte	0x91
 3363 0904 50       		.sleb128 -48
 3364 0905 00       		.byte	0
 3365 0906 0E       		.uleb128 0xe
 3366 0907 6C030000 		.4byte	.LBB25
 3367 090b A4000000 		.4byte	.LBE25-.LBB25
 3368 090f 15       		.uleb128 0x15
 3369 0910 6900     		.ascii	"i\000"
 3370 0912 01       		.byte	0x1
 3371 0913 4E01     		.2byte	0x14e
 3372 0915 2C000000 		.4byte	0x2c
 3373 0919 02       		.uleb128 0x2
 3374 091a 91       		.byte	0x91
 3375 091b 4C       		.sleb128 -52
 3376 091c 00       		.byte	0
 3377 091d 00       		.byte	0
 3378 091e 16       		.uleb128 0x16
 3379 091f 44000000 		.4byte	.LASF91
 3380 0923 01       		.byte	0x1
 3381 0924 5C01     		.2byte	0x15c
 3382 0926 80000000 		.4byte	0x80
 3383 092a 00000000 		.4byte	.LFB7
 3384 092e 1C010000 		.4byte	.LFE7-.LFB7
 3385 0932 01       		.uleb128 0x1
 3386 0933 9C       		.byte	0x9c
 3387 0934 13       		.uleb128 0x13
 3388 0935 97020000 		.4byte	.LASF59
 3389 0939 01       		.byte	0x1
 3390 093a 5C01     		.2byte	0x15c
 3391 093c 2E050000 		.4byte	0x52e
 3392 0940 03       		.uleb128 0x3
 3393 0941 91       		.byte	0x91
 3394 0942 BC7F     		.sleb128 -68
 3395 0944 13       		.uleb128 0x13
 3396 0945 69000000 		.4byte	.LASF14
 3397 0949 01       		.byte	0x1
 3398 094a 5C01     		.2byte	0x15c
 3399 094c 80000000 		.4byte	0x80
 3400 0950 03       		.uleb128 0x3
 3401 0951 91       		.byte	0x91
 3402 0952 B07F     		.sleb128 -80
 3403 0954 14       		.uleb128 0x14
 3404 0955 A0040000 		.4byte	.LASF84
 3405 0959 01       		.byte	0x1
 3406 095a 5E01     		.2byte	0x15e
 3407 095c 80000000 		.4byte	0x80
 3408 0960 02       		.uleb128 0x2
 3409 0961 91       		.byte	0x91
 3410 0962 60       		.sleb128 -32
 3411 0963 14       		.uleb128 0x14
ARM GAS  C:\Users\cyu13\AppData\Local\Temp\ccSGk0Me.s 			page 68


 3412 0964 8E040000 		.4byte	.LASF85
 3413 0968 01       		.byte	0x1
 3414 0969 6101     		.2byte	0x161
 3415 096b 2C000000 		.4byte	0x2c
 3416 096f 02       		.uleb128 0x2
 3417 0970 91       		.byte	0x91
 3418 0971 5C       		.sleb128 -36
 3419 0972 15       		.uleb128 0x15
 3420 0973 685F6300 		.ascii	"h_c\000"
 3421 0977 01       		.byte	0x1
 3422 0978 6401     		.2byte	0x164
 3423 097a 80000000 		.4byte	0x80
 3424 097e 02       		.uleb128 0x2
 3425 097f 91       		.byte	0x91
 3426 0980 50       		.sleb128 -48
 3427 0981 15       		.uleb128 0x15
 3428 0982 685F6D00 		.ascii	"h_m\000"
 3429 0986 01       		.byte	0x1
 3430 0987 6901     		.2byte	0x169
 3431 0989 80000000 		.4byte	0x80
 3432 098d 02       		.uleb128 0x2
 3433 098e 91       		.byte	0x91
 3434 098f 48       		.sleb128 -56
 3435 0990 14       		.uleb128 0x14
 3436 0991 BE030000 		.4byte	.LASF86
 3437 0995 01       		.byte	0x1
 3438 0996 6B01     		.2byte	0x16b
 3439 0998 80000000 		.4byte	0x80
 3440 099c 02       		.uleb128 0x2
 3441 099d 91       		.byte	0x91
 3442 099e 68       		.sleb128 -24
 3443 099f 14       		.uleb128 0x14
 3444 09a0 11000000 		.4byte	.LASF87
 3445 09a4 01       		.byte	0x1
 3446 09a5 7101     		.2byte	0x171
 3447 09a7 80000000 		.4byte	0x80
 3448 09ab 02       		.uleb128 0x2
 3449 09ac 91       		.byte	0x91
 3450 09ad 40       		.sleb128 -64
 3451 09ae 00       		.byte	0
 3452 09af 00       		.byte	0
 3453              		.section	.debug_abbrev,"",%progbits
 3454              	.Ldebug_abbrev0:
 3455 0000 01       		.uleb128 0x1
 3456 0001 11       		.uleb128 0x11
 3457 0002 01       		.byte	0x1
 3458 0003 25       		.uleb128 0x25
 3459 0004 0E       		.uleb128 0xe
 3460 0005 13       		.uleb128 0x13
 3461 0006 0B       		.uleb128 0xb
 3462 0007 03       		.uleb128 0x3
 3463 0008 0E       		.uleb128 0xe
 3464 0009 1B       		.uleb128 0x1b
 3465 000a 0E       		.uleb128 0xe
 3466 000b 55       		.uleb128 0x55
 3467 000c 17       		.uleb128 0x17
 3468 000d 11       		.uleb128 0x11
ARM GAS  C:\Users\cyu13\AppData\Local\Temp\ccSGk0Me.s 			page 69


 3469 000e 01       		.uleb128 0x1
 3470 000f 10       		.uleb128 0x10
 3471 0010 17       		.uleb128 0x17
 3472 0011 00       		.byte	0
 3473 0012 00       		.byte	0
 3474 0013 02       		.uleb128 0x2
 3475 0014 24       		.uleb128 0x24
 3476 0015 00       		.byte	0
 3477 0016 0B       		.uleb128 0xb
 3478 0017 0B       		.uleb128 0xb
 3479 0018 3E       		.uleb128 0x3e
 3480 0019 0B       		.uleb128 0xb
 3481 001a 03       		.uleb128 0x3
 3482 001b 0E       		.uleb128 0xe
 3483 001c 00       		.byte	0
 3484 001d 00       		.byte	0
 3485 001e 03       		.uleb128 0x3
 3486 001f 24       		.uleb128 0x24
 3487 0020 00       		.byte	0
 3488 0021 0B       		.uleb128 0xb
 3489 0022 0B       		.uleb128 0xb
 3490 0023 3E       		.uleb128 0x3e
 3491 0024 0B       		.uleb128 0xb
 3492 0025 03       		.uleb128 0x3
 3493 0026 08       		.uleb128 0x8
 3494 0027 00       		.byte	0
 3495 0028 00       		.byte	0
 3496 0029 04       		.uleb128 0x4
 3497 002a 13       		.uleb128 0x13
 3498 002b 01       		.byte	0x1
 3499 002c 0B       		.uleb128 0xb
 3500 002d 0B       		.uleb128 0xb
 3501 002e 3A       		.uleb128 0x3a
 3502 002f 0B       		.uleb128 0xb
 3503 0030 3B       		.uleb128 0x3b
 3504 0031 0B       		.uleb128 0xb
 3505 0032 01       		.uleb128 0x1
 3506 0033 13       		.uleb128 0x13
 3507 0034 00       		.byte	0
 3508 0035 00       		.byte	0
 3509 0036 05       		.uleb128 0x5
 3510 0037 0D       		.uleb128 0xd
 3511 0038 00       		.byte	0
 3512 0039 03       		.uleb128 0x3
 3513 003a 0E       		.uleb128 0xe
 3514 003b 3A       		.uleb128 0x3a
 3515 003c 0B       		.uleb128 0xb
 3516 003d 3B       		.uleb128 0x3b
 3517 003e 0B       		.uleb128 0xb
 3518 003f 49       		.uleb128 0x49
 3519 0040 13       		.uleb128 0x13
 3520 0041 38       		.uleb128 0x38
 3521 0042 0B       		.uleb128 0xb
 3522 0043 00       		.byte	0
 3523 0044 00       		.byte	0
 3524 0045 06       		.uleb128 0x6
 3525 0046 01       		.uleb128 0x1
ARM GAS  C:\Users\cyu13\AppData\Local\Temp\ccSGk0Me.s 			page 70


 3526 0047 01       		.byte	0x1
 3527 0048 49       		.uleb128 0x49
 3528 0049 13       		.uleb128 0x13
 3529 004a 01       		.uleb128 0x1
 3530 004b 13       		.uleb128 0x13
 3531 004c 00       		.byte	0
 3532 004d 00       		.byte	0
 3533 004e 07       		.uleb128 0x7
 3534 004f 21       		.uleb128 0x21
 3535 0050 00       		.byte	0
 3536 0051 49       		.uleb128 0x49
 3537 0052 13       		.uleb128 0x13
 3538 0053 2F       		.uleb128 0x2f
 3539 0054 0B       		.uleb128 0xb
 3540 0055 00       		.byte	0
 3541 0056 00       		.byte	0
 3542 0057 08       		.uleb128 0x8
 3543 0058 16       		.uleb128 0x16
 3544 0059 00       		.byte	0
 3545 005a 03       		.uleb128 0x3
 3546 005b 0E       		.uleb128 0xe
 3547 005c 3A       		.uleb128 0x3a
 3548 005d 0B       		.uleb128 0xb
 3549 005e 3B       		.uleb128 0x3b
 3550 005f 0B       		.uleb128 0xb
 3551 0060 49       		.uleb128 0x49
 3552 0061 13       		.uleb128 0x13
 3553 0062 00       		.byte	0
 3554 0063 00       		.byte	0
 3555 0064 09       		.uleb128 0x9
 3556 0065 0D       		.uleb128 0xd
 3557 0066 00       		.byte	0
 3558 0067 03       		.uleb128 0x3
 3559 0068 08       		.uleb128 0x8
 3560 0069 3A       		.uleb128 0x3a
 3561 006a 0B       		.uleb128 0xb
 3562 006b 3B       		.uleb128 0x3b
 3563 006c 0B       		.uleb128 0xb
 3564 006d 49       		.uleb128 0x49
 3565 006e 13       		.uleb128 0x13
 3566 006f 38       		.uleb128 0x38
 3567 0070 0B       		.uleb128 0xb
 3568 0071 00       		.byte	0
 3569 0072 00       		.byte	0
 3570 0073 0A       		.uleb128 0xa
 3571 0074 0F       		.uleb128 0xf
 3572 0075 00       		.byte	0
 3573 0076 0B       		.uleb128 0xb
 3574 0077 0B       		.uleb128 0xb
 3575 0078 49       		.uleb128 0x49
 3576 0079 13       		.uleb128 0x13
 3577 007a 00       		.byte	0
 3578 007b 00       		.byte	0
 3579 007c 0B       		.uleb128 0xb
 3580 007d 2E       		.uleb128 0x2e
 3581 007e 01       		.byte	0x1
 3582 007f 3F       		.uleb128 0x3f
ARM GAS  C:\Users\cyu13\AppData\Local\Temp\ccSGk0Me.s 			page 71


 3583 0080 19       		.uleb128 0x19
 3584 0081 03       		.uleb128 0x3
 3585 0082 0E       		.uleb128 0xe
 3586 0083 3A       		.uleb128 0x3a
 3587 0084 0B       		.uleb128 0xb
 3588 0085 3B       		.uleb128 0x3b
 3589 0086 0B       		.uleb128 0xb
 3590 0087 27       		.uleb128 0x27
 3591 0088 19       		.uleb128 0x19
 3592 0089 49       		.uleb128 0x49
 3593 008a 13       		.uleb128 0x13
 3594 008b 11       		.uleb128 0x11
 3595 008c 01       		.uleb128 0x1
 3596 008d 12       		.uleb128 0x12
 3597 008e 06       		.uleb128 0x6
 3598 008f 40       		.uleb128 0x40
 3599 0090 18       		.uleb128 0x18
 3600 0091 9642     		.uleb128 0x2116
 3601 0093 19       		.uleb128 0x19
 3602 0094 01       		.uleb128 0x1
 3603 0095 13       		.uleb128 0x13
 3604 0096 00       		.byte	0
 3605 0097 00       		.byte	0
 3606 0098 0C       		.uleb128 0xc
 3607 0099 05       		.uleb128 0x5
 3608 009a 00       		.byte	0
 3609 009b 03       		.uleb128 0x3
 3610 009c 0E       		.uleb128 0xe
 3611 009d 3A       		.uleb128 0x3a
 3612 009e 0B       		.uleb128 0xb
 3613 009f 3B       		.uleb128 0x3b
 3614 00a0 0B       		.uleb128 0xb
 3615 00a1 49       		.uleb128 0x49
 3616 00a2 13       		.uleb128 0x13
 3617 00a3 02       		.uleb128 0x2
 3618 00a4 18       		.uleb128 0x18
 3619 00a5 00       		.byte	0
 3620 00a6 00       		.byte	0
 3621 00a7 0D       		.uleb128 0xd
 3622 00a8 34       		.uleb128 0x34
 3623 00a9 00       		.byte	0
 3624 00aa 03       		.uleb128 0x3
 3625 00ab 08       		.uleb128 0x8
 3626 00ac 3A       		.uleb128 0x3a
 3627 00ad 0B       		.uleb128 0xb
 3628 00ae 3B       		.uleb128 0x3b
 3629 00af 0B       		.uleb128 0xb
 3630 00b0 49       		.uleb128 0x49
 3631 00b1 13       		.uleb128 0x13
 3632 00b2 02       		.uleb128 0x2
 3633 00b3 18       		.uleb128 0x18
 3634 00b4 00       		.byte	0
 3635 00b5 00       		.byte	0
 3636 00b6 0E       		.uleb128 0xe
 3637 00b7 0B       		.uleb128 0xb
 3638 00b8 01       		.byte	0x1
 3639 00b9 11       		.uleb128 0x11
ARM GAS  C:\Users\cyu13\AppData\Local\Temp\ccSGk0Me.s 			page 72


 3640 00ba 01       		.uleb128 0x1
 3641 00bb 12       		.uleb128 0x12
 3642 00bc 06       		.uleb128 0x6
 3643 00bd 00       		.byte	0
 3644 00be 00       		.byte	0
 3645 00bf 0F       		.uleb128 0xf
 3646 00c0 05       		.uleb128 0x5
 3647 00c1 00       		.byte	0
 3648 00c2 03       		.uleb128 0x3
 3649 00c3 08       		.uleb128 0x8
 3650 00c4 3A       		.uleb128 0x3a
 3651 00c5 0B       		.uleb128 0xb
 3652 00c6 3B       		.uleb128 0x3b
 3653 00c7 0B       		.uleb128 0xb
 3654 00c8 49       		.uleb128 0x49
 3655 00c9 13       		.uleb128 0x13
 3656 00ca 02       		.uleb128 0x2
 3657 00cb 18       		.uleb128 0x18
 3658 00cc 00       		.byte	0
 3659 00cd 00       		.byte	0
 3660 00ce 10       		.uleb128 0x10
 3661 00cf 34       		.uleb128 0x34
 3662 00d0 00       		.byte	0
 3663 00d1 03       		.uleb128 0x3
 3664 00d2 0E       		.uleb128 0xe
 3665 00d3 3A       		.uleb128 0x3a
 3666 00d4 0B       		.uleb128 0xb
 3667 00d5 3B       		.uleb128 0x3b
 3668 00d6 0B       		.uleb128 0xb
 3669 00d7 49       		.uleb128 0x49
 3670 00d8 13       		.uleb128 0x13
 3671 00d9 02       		.uleb128 0x2
 3672 00da 18       		.uleb128 0x18
 3673 00db 00       		.byte	0
 3674 00dc 00       		.byte	0
 3675 00dd 11       		.uleb128 0x11
 3676 00de 0B       		.uleb128 0xb
 3677 00df 01       		.byte	0x1
 3678 00e0 11       		.uleb128 0x11
 3679 00e1 01       		.uleb128 0x1
 3680 00e2 12       		.uleb128 0x12
 3681 00e3 06       		.uleb128 0x6
 3682 00e4 01       		.uleb128 0x1
 3683 00e5 13       		.uleb128 0x13
 3684 00e6 00       		.byte	0
 3685 00e7 00       		.byte	0
 3686 00e8 12       		.uleb128 0x12
 3687 00e9 2E       		.uleb128 0x2e
 3688 00ea 01       		.byte	0x1
 3689 00eb 3F       		.uleb128 0x3f
 3690 00ec 19       		.uleb128 0x19
 3691 00ed 03       		.uleb128 0x3
 3692 00ee 0E       		.uleb128 0xe
 3693 00ef 3A       		.uleb128 0x3a
 3694 00f0 0B       		.uleb128 0xb
 3695 00f1 3B       		.uleb128 0x3b
 3696 00f2 05       		.uleb128 0x5
ARM GAS  C:\Users\cyu13\AppData\Local\Temp\ccSGk0Me.s 			page 73


 3697 00f3 27       		.uleb128 0x27
 3698 00f4 19       		.uleb128 0x19
 3699 00f5 49       		.uleb128 0x49
 3700 00f6 13       		.uleb128 0x13
 3701 00f7 11       		.uleb128 0x11
 3702 00f8 01       		.uleb128 0x1
 3703 00f9 12       		.uleb128 0x12
 3704 00fa 06       		.uleb128 0x6
 3705 00fb 40       		.uleb128 0x40
 3706 00fc 18       		.uleb128 0x18
 3707 00fd 9642     		.uleb128 0x2116
 3708 00ff 19       		.uleb128 0x19
 3709 0100 01       		.uleb128 0x1
 3710 0101 13       		.uleb128 0x13
 3711 0102 00       		.byte	0
 3712 0103 00       		.byte	0
 3713 0104 13       		.uleb128 0x13
 3714 0105 05       		.uleb128 0x5
 3715 0106 00       		.byte	0
 3716 0107 03       		.uleb128 0x3
 3717 0108 0E       		.uleb128 0xe
 3718 0109 3A       		.uleb128 0x3a
 3719 010a 0B       		.uleb128 0xb
 3720 010b 3B       		.uleb128 0x3b
 3721 010c 05       		.uleb128 0x5
 3722 010d 49       		.uleb128 0x49
 3723 010e 13       		.uleb128 0x13
 3724 010f 02       		.uleb128 0x2
 3725 0110 18       		.uleb128 0x18
 3726 0111 00       		.byte	0
 3727 0112 00       		.byte	0
 3728 0113 14       		.uleb128 0x14
 3729 0114 34       		.uleb128 0x34
 3730 0115 00       		.byte	0
 3731 0116 03       		.uleb128 0x3
 3732 0117 0E       		.uleb128 0xe
 3733 0118 3A       		.uleb128 0x3a
 3734 0119 0B       		.uleb128 0xb
 3735 011a 3B       		.uleb128 0x3b
 3736 011b 05       		.uleb128 0x5
 3737 011c 49       		.uleb128 0x49
 3738 011d 13       		.uleb128 0x13
 3739 011e 02       		.uleb128 0x2
 3740 011f 18       		.uleb128 0x18
 3741 0120 00       		.byte	0
 3742 0121 00       		.byte	0
 3743 0122 15       		.uleb128 0x15
 3744 0123 34       		.uleb128 0x34
 3745 0124 00       		.byte	0
 3746 0125 03       		.uleb128 0x3
 3747 0126 08       		.uleb128 0x8
 3748 0127 3A       		.uleb128 0x3a
 3749 0128 0B       		.uleb128 0xb
 3750 0129 3B       		.uleb128 0x3b
 3751 012a 05       		.uleb128 0x5
 3752 012b 49       		.uleb128 0x49
 3753 012c 13       		.uleb128 0x13
ARM GAS  C:\Users\cyu13\AppData\Local\Temp\ccSGk0Me.s 			page 74


 3754 012d 02       		.uleb128 0x2
 3755 012e 18       		.uleb128 0x18
 3756 012f 00       		.byte	0
 3757 0130 00       		.byte	0
 3758 0131 16       		.uleb128 0x16
 3759 0132 2E       		.uleb128 0x2e
 3760 0133 01       		.byte	0x1
 3761 0134 3F       		.uleb128 0x3f
 3762 0135 19       		.uleb128 0x19
 3763 0136 03       		.uleb128 0x3
 3764 0137 0E       		.uleb128 0xe
 3765 0138 3A       		.uleb128 0x3a
 3766 0139 0B       		.uleb128 0xb
 3767 013a 3B       		.uleb128 0x3b
 3768 013b 05       		.uleb128 0x5
 3769 013c 27       		.uleb128 0x27
 3770 013d 19       		.uleb128 0x19
 3771 013e 49       		.uleb128 0x49
 3772 013f 13       		.uleb128 0x13
 3773 0140 11       		.uleb128 0x11
 3774 0141 01       		.uleb128 0x1
 3775 0142 12       		.uleb128 0x12
 3776 0143 06       		.uleb128 0x6
 3777 0144 40       		.uleb128 0x40
 3778 0145 18       		.uleb128 0x18
 3779 0146 9642     		.uleb128 0x2116
 3780 0148 19       		.uleb128 0x19
 3781 0149 00       		.byte	0
 3782 014a 00       		.byte	0
 3783 014b 00       		.byte	0
 3784              		.section	.debug_aranges,"",%progbits
 3785 0000 54000000 		.4byte	0x54
 3786 0004 0200     		.2byte	0x2
 3787 0006 00000000 		.4byte	.Ldebug_info0
 3788 000a 04       		.byte	0x4
 3789 000b 00       		.byte	0
 3790 000c 0000     		.2byte	0
 3791 000e 0000     		.2byte	0
 3792 0010 00000000 		.4byte	.LFB0
 3793 0014 B0000000 		.4byte	.LFE0-.LFB0
 3794 0018 00000000 		.4byte	.LFB1
 3795 001c 14030000 		.4byte	.LFE1-.LFB1
 3796 0020 00000000 		.4byte	.LFB2
 3797 0024 EC020000 		.4byte	.LFE2-.LFB2
 3798 0028 00000000 		.4byte	.LFB3
 3799 002c AC000000 		.4byte	.LFE3-.LFB3
 3800 0030 00000000 		.4byte	.LFB4
 3801 0034 48020000 		.4byte	.LFE4-.LFB4
 3802 0038 00000000 		.4byte	.LFB5
 3803 003c CA000000 		.4byte	.LFE5-.LFB5
 3804 0040 00000000 		.4byte	.LFB6
 3805 0044 58040000 		.4byte	.LFE6-.LFB6
 3806 0048 00000000 		.4byte	.LFB7
 3807 004c 1C010000 		.4byte	.LFE7-.LFB7
 3808 0050 00000000 		.4byte	0
 3809 0054 00000000 		.4byte	0
 3810              		.section	.debug_ranges,"",%progbits
ARM GAS  C:\Users\cyu13\AppData\Local\Temp\ccSGk0Me.s 			page 75


 3811              	.Ldebug_ranges0:
 3812 0000 00000000 		.4byte	.LFB0
 3813 0004 B0000000 		.4byte	.LFE0
 3814 0008 00000000 		.4byte	.LFB1
 3815 000c 14030000 		.4byte	.LFE1
 3816 0010 00000000 		.4byte	.LFB2
 3817 0014 EC020000 		.4byte	.LFE2
 3818 0018 00000000 		.4byte	.LFB3
 3819 001c AC000000 		.4byte	.LFE3
 3820 0020 00000000 		.4byte	.LFB4
 3821 0024 48020000 		.4byte	.LFE4
 3822 0028 00000000 		.4byte	.LFB5
 3823 002c CA000000 		.4byte	.LFE5
 3824 0030 00000000 		.4byte	.LFB6
 3825 0034 58040000 		.4byte	.LFE6
 3826 0038 00000000 		.4byte	.LFB7
 3827 003c 1C010000 		.4byte	.LFE7
 3828 0040 00000000 		.4byte	0
 3829 0044 00000000 		.4byte	0
 3830              		.section	.debug_line,"",%progbits
 3831              	.Ldebug_line0:
 3832 0000 31030000 		.section	.debug_str,"MS",%progbits,1
 3832      02006400 
 3832      00000201 
 3832      FB0E0D00 
 3832      01010101 
 3833              	.LASF70:
 3834 0000 76616C6C 		.ascii	"valley_threshold\000"
 3834      65795F74 
 3834      68726573 
 3834      686F6C64 
 3834      00
 3835              	.LASF87:
 3836 0011 73706565 		.ascii	"speed_reduction\000"
 3836      645F7265 
 3836      64756374 
 3836      696F6E00 
 3837              	.LASF38:
 3838 0021 68697374 		.ascii	"histogram\000"
 3838      6F677261 
 3838      6D00
 3839              	.LASF64:
 3840 002b 736D6F6F 		.ascii	"smoothed_POD\000"
 3840      74686564 
 3840      5F504F44 
 3840      00
 3841              	.LASF40:
 3842 0038 67726964 		.ascii	"grid_update\000"
 3842      5F757064 
 3842      61746500 
 3843              	.LASF91:
 3844 0044 76656C6F 		.ascii	"velocity_control\000"
 3844      63697479 
 3844      5F636F6E 
 3844      74726F6C 
 3844      00
 3845              	.LASF46:
ARM GAS  C:\Users\cyu13\AppData\Local\Temp\ccSGk0Me.s 			page 76


 3846 0055 63656C6C 		.ascii	"cell_location\000"
 3846      5F6C6F63 
 3846      6174696F 
 3846      6E00
 3847              	.LASF31:
 3848 0063 616C7068 		.ascii	"alpha\000"
 3848      6100
 3849              	.LASF14:
 3850 0069 64697265 		.ascii	"direction\000"
 3850      6374696F 
 3850      6E00
 3851              	.LASF88:
 3852 0073 474E5520 		.ascii	"GNU C11 5.4.1 20160609 (release) [ARM/embedded-5-br"
 3852      43313120 
 3852      352E342E 
 3852      31203230 
 3852      31363036 
 3853 00a6 616E6368 		.ascii	"anch revision 237715] -mcpu=cortex-m3 -mthumb -g -O"
 3853      20726576 
 3853      6973696F 
 3853      6E203233 
 3853      37373135 
 3854 00d9 30202D66 		.ascii	"0 -ffunction-sections -ffat-lto-objects\000"
 3854      66756E63 
 3854      74696F6E 
 3854      2D736563 
 3854      74696F6E 
 3855              	.LASF69:
 3856 0101 63616E64 		.ascii	"candidate_valley\000"
 3856      69646174 
 3856      655F7661 
 3856      6C6C6579 
 3856      00
 3857              	.LASF9:
 3858 0112 6C6F6E67 		.ascii	"long long unsigned int\000"
 3858      206C6F6E 
 3858      6720756E 
 3858      7369676E 
 3858      65642069 
 3859              	.LASF47:
 3860 0129 726F626F 		.ascii	"robot_radians\000"
 3860      745F7261 
 3860      6469616E 
 3860      7300
 3861              	.LASF72:
 3862 0137 63616E64 		.ascii	"candidate_idx\000"
 3862      69646174 
 3862      655F6964 
 3862      7800
 3863              	.LASF66:
 3864 0145 72696768 		.ascii	"right\000"
 3864      7400
 3865              	.LASF78:
 3866 014b 63616E64 		.ascii	"candidates_len\000"
 3866      69646174 
 3866      65735F6C 
 3866      656E00
ARM GAS  C:\Users\cyu13\AppData\Local\Temp\ccSGk0Me.s 			page 77


 3867              	.LASF1:
 3868 015a 6C6F6E67 		.ascii	"long long int\000"
 3868      206C6F6E 
 3868      6720696E 
 3868      7400
 3869              	.LASF3:
 3870 0168 7369676E 		.ascii	"signed char\000"
 3870      65642063 
 3870      68617200 
 3871              	.LASF20:
 3872 0174 696E745F 		.ascii	"int_error\000"
 3872      6572726F 
 3872      7200
 3873              	.LASF39:
 3874 017e 67726964 		.ascii	"grid_create\000"
 3874      5F637265 
 3874      61746500 
 3875              	.LASF51:
 3876 018a 61637469 		.ascii	"active\000"
 3876      766500
 3877              	.LASF7:
 3878 0191 6C6F6E67 		.ascii	"long int\000"
 3878      20696E74 
 3878      00
 3879              	.LASF81:
 3880 019a 676F616C 		.ascii	"goal_sector\000"
 3880      5F736563 
 3880      746F7200 
 3881              	.LASF12:
 3882 01a6 646F7562 		.ascii	"double\000"
 3882      6C6500
 3883              	.LASF90:
 3884 01ad 433A5C55 		.ascii	"C:\\Users\\cyu13\\Desktop\\ECE4191 GitHub\\pathfind"
 3884      73657273 
 3884      5C637975 
 3884      31335C44 
 3884      65736B74 
 3885 01db 696E672D 		.ascii	"ing-vfh\\ECE4191\\DeliveryRobot.cydsn\000"
 3885      7666685C 
 3885      45434534 
 3885      3139315C 
 3885      44656C69 
 3886              	.LASF79:
 3887 01ff 706F735F 		.ascii	"pos_yaw\000"
 3887      79617700 
 3888              	.LASF49:
 3889 0207 6E65775F 		.ascii	"new_y\000"
 3889      7900
 3890              	.LASF37:
 3891 020d 64656E73 		.ascii	"densities\000"
 3891      69746965 
 3891      7300
 3892              	.LASF42:
 3893 0217 726F626F 		.ascii	"robot\000"
 3893      7400
 3894              	.LASF75:
 3895 021d 74656D70 		.ascii	"temp\000"
ARM GAS  C:\Users\cyu13\AppData\Local\Temp\ccSGk0Me.s 			page 78


 3895      00
 3896              	.LASF73:
 3897 0222 6964785F 		.ascii	"idx_counter\000"
 3897      636F756E 
 3897      74657200 
 3898              	.LASF34:
 3899 022e 64616D70 		.ascii	"damping_constant\000"
 3899      696E675F 
 3899      636F6E73 
 3899      74616E74 
 3899      00
 3900              	.LASF0:
 3901 023f 756E7369 		.ascii	"unsigned int\000"
 3901      676E6564 
 3901      20696E74 
 3901      00
 3902              	.LASF61:
 3903 024c 6E736563 		.ascii	"nsectors\000"
 3903      746F7273 
 3903      00
 3904              	.LASF8:
 3905 0255 6C6F6E67 		.ascii	"long unsigned int\000"
 3905      20756E73 
 3905      69676E65 
 3905      6420696E 
 3905      7400
 3906              	.LASF60:
 3907 0267 736D6F6F 		.ascii	"smoothed_POD_histogram\000"
 3907      74686564 
 3907      5F504F44 
 3907      5F686973 
 3907      746F6772 
 3908              	.LASF26:
 3909 027e 77696474 		.ascii	"width\000"
 3909      6800
 3910              	.LASF6:
 3911 0284 73686F72 		.ascii	"short unsigned int\000"
 3911      7420756E 
 3911      7369676E 
 3911      65642069 
 3911      6E7400
 3912              	.LASF59:
 3913 0297 68697374 		.ascii	"hist\000"
 3913      00
 3914              	.LASF17:
 3915 029c 74686574 		.ascii	"theta\000"
 3915      6100
 3916              	.LASF23:
 3917 02a2 676F616C 		.ascii	"goal_min_dist\000"
 3917      5F6D696E 
 3917      5F646973 
 3917      7400
 3918              	.LASF29:
 3919 02b0 63656C6C 		.ascii	"cells\000"
 3919      7300
 3920              	.LASF18:
 3921 02b6 64657369 		.ascii	"desired_v\000"
ARM GAS  C:\Users\cyu13\AppData\Local\Temp\ccSGk0Me.s 			page 79


 3921      7265645F 
 3921      7600
 3922              	.LASF24:
 3923 02c0 53656E73 		.ascii	"Sensor\000"
 3923      6F7200
 3924              	.LASF10:
 3925 02c7 73697A65 		.ascii	"sizetype\000"
 3925      74797065 
 3925      00
 3926              	.LASF2:
 3927 02d0 6C6F6E67 		.ascii	"long double\000"
 3927      20646F75 
 3927      626C6500 
 3928              	.LASF76:
 3929 02dc 63616C63 		.ascii	"calculate_avoidance_angle\000"
 3929      756C6174 
 3929      655F6176 
 3929      6F696461 
 3929      6E63655F 
 3930              	.LASF62:
 3931 02f6 504F445F 		.ascii	"POD_hist\000"
 3931      68697374 
 3931      00
 3932              	.LASF30:
 3933 02ff 67726964 		.ascii	"grid\000"
 3933      00
 3934              	.LASF74:
 3935 0304 63616E64 		.ascii	"candidate_lst\000"
 3935      69646174 
 3935      655F6C73 
 3935      7400
 3936              	.LASF43:
 3937 0312 706F735F 		.ascii	"pos_x\000"
 3937      7800
 3938              	.LASF44:
 3939 0318 706F735F 		.ascii	"pos_y\000"
 3939      7900
 3940              	.LASF35:
 3941 031e 64656E73 		.ascii	"density_a\000"
 3941      6974795F 
 3941      6100
 3942              	.LASF36:
 3943 0328 64656E73 		.ascii	"density_b\000"
 3943      6974795F 
 3943      6200
 3944              	.LASF13:
 3945 0332 666C6F61 		.ascii	"float\000"
 3945      7400
 3946              	.LASF54:
 3947 0338 72656164 		.ascii	"reading_x\000"
 3947      696E675F 
 3947      7800
 3948              	.LASF55:
 3949 0342 72656164 		.ascii	"reading_y\000"
 3949      696E675F 
 3949      7900
 3950              	.LASF56:
ARM GAS  C:\Users\cyu13\AppData\Local\Temp\ccSGk0Me.s 			page 80


 3951 034c 6D61785F 		.ascii	"max_width\000"
 3951      77696474 
 3951      6800
 3952              	.LASF21:
 3953 0356 676F616C 		.ascii	"goal_x\000"
 3953      5F7800
 3954              	.LASF22:
 3955 035d 676F616C 		.ascii	"goal_y\000"
 3955      5F7900
 3956              	.LASF63:
 3957 0364 61637469 		.ascii	"active_sum\000"
 3957      76655F73 
 3957      756D00
 3958              	.LASF33:
 3959 036f 74687265 		.ascii	"threshold\000"
 3959      73686F6C 
 3959      6400
 3960              	.LASF4:
 3961 0379 756E7369 		.ascii	"unsigned char\000"
 3961      676E6564 
 3961      20636861 
 3961      7200
 3962              	.LASF52:
 3963 0387 6D61785F 		.ascii	"max_dist\000"
 3963      64697374 
 3963      00
 3964              	.LASF5:
 3965 0390 73686F72 		.ascii	"short int\000"
 3965      7420696E 
 3965      7400
 3966              	.LASF53:
 3967 039a 636F756E 		.ascii	"counter\000"
 3967      74657200 
 3968              	.LASF16:
 3969 03a2 61786C65 		.ascii	"axle_width\000"
 3969      5F776964 
 3969      746800
 3970              	.LASF48:
 3971 03ad 6E65775F 		.ascii	"new_x\000"
 3971      7800
 3972              	.LASF80:
 3973 03b3 676F616C 		.ascii	"goal_angle\000"
 3973      5F616E67 
 3973      6C6500
 3974              	.LASF86:
 3975 03be 685F6363 		.ascii	"h_cc\000"
 3975      00
 3976              	.LASF32:
 3977 03c3 73656374 		.ascii	"sectors\000"
 3977      6F727300 
 3978              	.LASF28:
 3979 03cb 7265736F 		.ascii	"resolution\000"
 3979      6C757469 
 3979      6F6E00
 3980              	.LASF83:
 3981 03d6 6D696E5F 		.ascii	"min_distance\000"
 3981      64697374 
ARM GAS  C:\Users\cyu13\AppData\Local\Temp\ccSGk0Me.s 			page 81


 3981      616E6365 
 3981      00
 3982              	.LASF82:
 3983 03e3 6162735F 		.ascii	"abs_min\000"
 3983      6D696E00 
 3984              	.LASF41:
 3985 03eb 73656E73 		.ascii	"sensors\000"
 3985      6F727300 
 3986              	.LASF68:
 3987 03f3 736D6F6F 		.ascii	"smoothed_element\000"
 3987      74686564 
 3987      5F656C65 
 3987      6D656E74 
 3987      00
 3988              	.LASF11:
 3989 0404 63686172 		.ascii	"char\000"
 3989      00
 3990              	.LASF45:
 3991 0409 63656C6C 		.ascii	"cell_distance\000"
 3991      5F646973 
 3991      74616E63 
 3991      6500
 3992              	.LASF15:
 3993 0417 64697374 		.ascii	"distance\000"
 3993      616E6365 
 3993      00
 3994              	.LASF89:
 3995 0420 2E2E5C56 		.ascii	"..\\VFH\\vfh.c\000"
 3995      46485C76 
 3995      66682E63 
 3995      00
 3996              	.LASF57:
 3997 042d 636F6E66 		.ascii	"confidence\000"
 3997      6964656E 
 3997      636500
 3998              	.LASF19:
 3999 0438 64657369 		.ascii	"desired_theta\000"
 3999      7265645F 
 3999      74686574 
 3999      6100
 4000              	.LASF67:
 4001 0446 73756D5F 		.ascii	"sum_element\000"
 4001      656C656D 
 4001      656E7400 
 4002              	.LASF71:
 4003 0452 6C73745F 		.ascii	"lst_length\000"
 4003      6C656E67 
 4003      746800
 4004              	.LASF77:
 4005 045d 735F6D61 		.ascii	"s_max\000"
 4005      7800
 4006              	.LASF50:
 4007 0463 61637469 		.ascii	"active_window\000"
 4007      76655F77 
 4007      696E646F 
 4007      7700
 4008              	.LASF25:
ARM GAS  C:\Users\cyu13\AppData\Local\Temp\ccSGk0Me.s 			page 82


 4009 0471 526F626F 		.ascii	"Robot\000"
 4009      7400
 4010              	.LASF58:
 4011 0477 706F6C61 		.ascii	"polar_histogram_create\000"
 4011      725F6869 
 4011      73746F67 
 4011      72616D5F 
 4011      63726561 
 4012              	.LASF85:
 4013 048e 685F6964 		.ascii	"h_idx\000"
 4013      7800
 4014              	.LASF27:
 4015 0494 68656967 		.ascii	"height\000"
 4015      687400
 4016              	.LASF65:
 4017 049b 6C656674 		.ascii	"left\000"
 4017      00
 4018              	.LASF84:
 4019 04a0 565F4D41 		.ascii	"V_MAX\000"
 4019      5800
 4020              		.ident	"GCC: (GNU Tools for ARM Embedded Processors) 5.4.1 20160609 (release) [ARM/embedded-5-bran
