ARM GAS  C:\Users\jmspi\AppData\Local\Temp\ccoaS5CT.s 			page 1


   1              		.syntax unified
   2              		.cpu cortex-m3
   3              		.fpu softvfp
   4              		.eabi_attribute 20, 1
   5              		.eabi_attribute 21, 1
   6              		.eabi_attribute 23, 3
   7              		.eabi_attribute 24, 1
   8              		.eabi_attribute 25, 1
   9              		.eabi_attribute 26, 1
  10              		.eabi_attribute 30, 4
  11              		.eabi_attribute 34, 1
  12              		.eabi_attribute 18, 4
  13              		.thumb
  14              		.syntax unified
  15              		.file	"wrapToPi.c"
  16              		.text
  17              	.Ltext0:
  18              		.cfi_sections	.debug_frame
  19              		.global	__aeabi_dcmpgt
  20              		.global	__aeabi_dadd
  21              		.global	__aeabi_dcmpeq
  22              		.global	__aeabi_dsub
  23              		.section	.text.wrapToPi,"ax",%progbits
  24              		.align	1
  25              		.global	wrapToPi
  26              		.thumb
  27              		.thumb_func
  28              		.type	wrapToPi, %function
  29              	wrapToPi:
  30              	.LFB0:
  31              		.file 1 "VFH+\\src\\wrapToPi.c"
   1:VFH+\src/wrapToPi.c **** /*
   2:VFH+\src/wrapToPi.c ****  * Academic License - for use in teaching, academic research, and meeting
   3:VFH+\src/wrapToPi.c ****  * course requirements at degree granting institutions only.  Not for
   4:VFH+\src/wrapToPi.c ****  * government, commercial, or other organizational use.
   5:VFH+\src/wrapToPi.c ****  * File: wrapToPi.c
   6:VFH+\src/wrapToPi.c ****  *
   7:VFH+\src/wrapToPi.c ****  * MATLAB Coder version            : 5.3
   8:VFH+\src/wrapToPi.c ****  * C/C++ source code generated on  : 30-Aug-2023 22:51:35
   9:VFH+\src/wrapToPi.c ****  */
  10:VFH+\src/wrapToPi.c **** 
  11:VFH+\src/wrapToPi.c **** /* Include Files */
  12:VFH+\src/wrapToPi.c **** #include "wrapToPi.h"
  13:VFH+\src/wrapToPi.c **** #include "mod.h"
  14:VFH+\src/wrapToPi.c **** #include "rt_nonfinite.h"
  15:VFH+\src/wrapToPi.c **** #include <math.h>
  16:VFH+\src/wrapToPi.c **** 
  17:VFH+\src/wrapToPi.c **** /* Function Definitions */
  18:VFH+\src/wrapToPi.c **** /*
  19:VFH+\src/wrapToPi.c ****  * Arguments    : double theta_data[]
  20:VFH+\src/wrapToPi.c ****  *                int theta_size[2]
  21:VFH+\src/wrapToPi.c ****  * Return Type  : void
  22:VFH+\src/wrapToPi.c ****  */
  23:VFH+\src/wrapToPi.c **** void wrapToPi(double theta_data[], int theta_size[2])
  24:VFH+\src/wrapToPi.c **** {
  32              		.loc 1 24 0
  33              		.cfi_startproc
ARM GAS  C:\Users\jmspi\AppData\Local\Temp\ccoaS5CT.s 			page 2


  34              		@ args = 0, pretend = 0, frame = 560
  35              		@ frame_needed = 0, uses_anonymous_args = 0
  36              	.LVL0:
  37 0000 2DE9F04F 		push	{r4, r5, r6, r7, r8, r9, r10, fp, lr}
  38              		.cfi_def_cfa_offset 36
  39              		.cfi_offset 4, -36
  40              		.cfi_offset 5, -32
  41              		.cfi_offset 6, -28
  42              		.cfi_offset 7, -24
  43              		.cfi_offset 8, -20
  44              		.cfi_offset 9, -16
  45              		.cfi_offset 10, -12
  46              		.cfi_offset 11, -8
  47              		.cfi_offset 14, -4
  48 0004 DFF87891 		ldr	r9, .L39+16
  49 0008 A0F10804 		sub	r4, r0, #8
  25:VFH+\src/wrapToPi.c ****   static double y_data[276];
  26:VFH+\src/wrapToPi.c ****   int i;
  27:VFH+\src/wrapToPi.c ****   int k;
  28:VFH+\src/wrapToPi.c ****   int nx;
  29:VFH+\src/wrapToPi.c ****   int y_size_idx_1;
  30:VFH+\src/wrapToPi.c ****   bool pos_data[276];
  31:VFH+\src/wrapToPi.c ****   bool tmp_data[276];
  32:VFH+\src/wrapToPi.c ****   bool exitg1;
  33:VFH+\src/wrapToPi.c ****   bool varargout_1;
  34:VFH+\src/wrapToPi.c ****   nx = theta_size[1];
  50              		.loc 1 34 0
  51 000c 4F68     		ldr	r7, [r1, #4]
  52              	.LVL1:
  24:VFH+\src/wrapToPi.c ****   static double y_data[276];
  53              		.loc 1 24 0
  54 000e 0D46     		mov	r5, r1
  35:VFH+\src/wrapToPi.c ****   y_size_idx_1 = (short)theta_size[1];
  36:VFH+\src/wrapToPi.c ****   for (k = 0; k < nx; k++) {
  55              		.loc 1 36 0
  56 0010 2246     		mov	r2, r4
  57 0012 4946     		mov	r1, r9
  58              	.LVL2:
  24:VFH+\src/wrapToPi.c ****   static double y_data[276];
  59              		.loc 1 24 0
  60 0014 ADF50D7D 		sub	sp, sp, #564
  61              		.cfi_def_cfa_offset 600
  24:VFH+\src/wrapToPi.c ****   static double y_data[276];
  62              		.loc 1 24 0
  63 0018 0190     		str	r0, [sp, #4]
  35:VFH+\src/wrapToPi.c ****   y_size_idx_1 = (short)theta_size[1];
  64              		.loc 1 35 0
  65 001a 3EB2     		sxth	r6, r7
  66              	.LVL3:
  67              		.loc 1 36 0
  68 001c 0023     		movs	r3, #0
  69              	.LVL4:
  70              	.L2:
  71              		.loc 1 36 0 is_stmt 0 discriminator 1
  72 001e BB42     		cmp	r3, r7
  73 0020 09DA     		bge	.L33
  37:VFH+\src/wrapToPi.c ****     y_data[k] = fabs(theta_data[k]);
ARM GAS  C:\Users\jmspi\AppData\Local\Temp\ccoaS5CT.s 			page 3


  74              		.loc 1 37 0 is_stmt 1 discriminator 3
  75 0022 52F8080F 		ldr	r0, [r2, #8]!
  36:VFH+\src/wrapToPi.c ****     y_data[k] = fabs(theta_data[k]);
  76              		.loc 1 36 0 discriminator 3
  77 0026 0133     		adds	r3, r3, #1
  78              	.LVL5:
  79              		.loc 1 37 0 discriminator 3
  80 0028 41F8080F 		str	r0, [r1, #8]!
  81 002c 5068     		ldr	r0, [r2, #4]
  82 002e 20F00040 		bic	r0, r0, #-2147483648
  83 0032 4860     		str	r0, [r1, #4]
  84 0034 F3E7     		b	.L2
  85              	.L33:
  86 0036 DFF848A1 		ldr	r10, .L39+16
  87 003a 4FF00008 		mov	r8, #0
  88              	.LVL6:
  89              	.L4:
  38:VFH+\src/wrapToPi.c ****   }
  39:VFH+\src/wrapToPi.c ****   for (i = 0; i < y_size_idx_1; i++) {
  90              		.loc 1 39 0 discriminator 1
  91 003e B045     		cmp	r8, r6
  92 0040 10DA     		bge	.L34
  40:VFH+\src/wrapToPi.c ****     pos_data[i] = (y_data[i] > 3.1415926535897931);
  93              		.loc 1 40 0 discriminator 3
  94 0042 4BA3     		adr	r3, .L39
  95 0044 D3E90023 		ldrd	r2, [r3]
  96 0048 FAE90201 		ldrd	r0, [r10, #8]!
  97 004c 4FF0010B 		mov	fp, #1
  98 0050 FFF7FEFF 		bl	__aeabi_dcmpgt
  99              	.LVL7:
 100 0054 00B9     		cbnz	r0, .L5
 101 0056 8346     		mov	fp, r0
 102              	.L5:
 103 0058 02AB     		add	r3, sp, #8
 104 005a 03F808B0 		strb	fp, [r3, r8]
  39:VFH+\src/wrapToPi.c ****     pos_data[i] = (y_data[i] > 3.1415926535897931);
 105              		.loc 1 39 0 discriminator 3
 106 005e 08F10108 		add	r8, r8, #1
 107              	.LVL8:
 108 0062 ECE7     		b	.L4
 109              	.L34:
 110 0064 0123     		movs	r3, #1
 111              	.LVL9:
 112              	.L7:
  41:VFH+\src/wrapToPi.c ****   }
  42:VFH+\src/wrapToPi.c ****   varargout_1 = false;
  43:VFH+\src/wrapToPi.c ****   nx = 1;
  44:VFH+\src/wrapToPi.c ****   exitg1 = false;
  45:VFH+\src/wrapToPi.c ****   while ((!exitg1) && (nx <= y_size_idx_1)) {
 113              		.loc 1 45 0
 114 0066 B342     		cmp	r3, r6
 115 0068 7BDC     		bgt	.L1
  46:VFH+\src/wrapToPi.c ****     if (pos_data[nx - 1]) {
 116              		.loc 1 46 0
 117 006a 02AA     		add	r2, sp, #8
 118 006c 1A44     		add	r2, r2, r3
 119 006e 12F8012C 		ldrb	r2, [r2, #-1]	@ zero_extendqisi2
ARM GAS  C:\Users\jmspi\AppData\Local\Temp\ccoaS5CT.s 			page 4


 120 0072 0AB9     		cbnz	r2, .L24
  47:VFH+\src/wrapToPi.c ****       varargout_1 = true;
  48:VFH+\src/wrapToPi.c ****       exitg1 = true;
  49:VFH+\src/wrapToPi.c ****     } else {
  50:VFH+\src/wrapToPi.c ****       nx++;
 121              		.loc 1 50 0
 122 0074 0133     		adds	r3, r3, #1
 123              	.LVL10:
 124 0076 F6E7     		b	.L7
 125              	.L24:
 126 0078 A246     		mov	r10, r4
 127 007a DFF804B1 		ldr	fp, .L39+16
 128 007e 4FF00008 		mov	r8, #0
 129              	.LVL11:
 130              	.L8:
  51:VFH+\src/wrapToPi.c ****     }
  52:VFH+\src/wrapToPi.c ****   }
  53:VFH+\src/wrapToPi.c ****   if (varargout_1) {
  54:VFH+\src/wrapToPi.c ****     y_size_idx_1 = theta_size[1];
  55:VFH+\src/wrapToPi.c ****     nx = theta_size[1];
  56:VFH+\src/wrapToPi.c ****     for (i = 0; i < nx; i++) {
 131              		.loc 1 56 0 discriminator 1
 132 0082 B845     		cmp	r8, r7
 133 0084 0BDA     		bge	.L35
  57:VFH+\src/wrapToPi.c ****       y_data[i] = theta_data[i] + 3.1415926535897931;
 134              		.loc 1 57 0 discriminator 3
 135 0086 FAE90201 		ldrd	r0, [r10, #8]!
 136 008a 39A3     		adr	r3, .L39
 137 008c D3E90023 		ldrd	r2, [r3]
 138 0090 FFF7FEFF 		bl	__aeabi_dadd
 139              	.LVL12:
  56:VFH+\src/wrapToPi.c ****       y_data[i] = theta_data[i] + 3.1415926535897931;
 140              		.loc 1 56 0 discriminator 3
 141 0094 08F10108 		add	r8, r8, #1
 142              	.LVL13:
 143              		.loc 1 57 0 discriminator 3
 144 0098 EBE90201 		strd	r0, [fp, #8]!
 145 009c F1E7     		b	.L8
 146              	.L35:
 147 009e DFF8E0A0 		ldr	r10, .L39+16
 148 00a2 4FF00008 		mov	r8, #0
 149              	.LVL14:
 150              	.L11:
  58:VFH+\src/wrapToPi.c ****     }
  59:VFH+\src/wrapToPi.c ****     for (i = 0; i < y_size_idx_1; i++) {
 151              		.loc 1 59 0 discriminator 1
 152 00a6 B845     		cmp	r8, r7
 153 00a8 0FDA     		bge	.L36
  60:VFH+\src/wrapToPi.c ****       pos_data[i] = (y_data[i] > 0.0);
 154              		.loc 1 60 0 discriminator 3
 155 00aa FAE90201 		ldrd	r0, [r10, #8]!
 156 00ae 0022     		movs	r2, #0
 157 00b0 0023     		movs	r3, #0
 158 00b2 4FF0010B 		mov	fp, #1
 159 00b6 FFF7FEFF 		bl	__aeabi_dcmpgt
 160              	.LVL15:
 161 00ba 00B9     		cbnz	r0, .L12
ARM GAS  C:\Users\jmspi\AppData\Local\Temp\ccoaS5CT.s 			page 5


 162 00bc 8346     		mov	fp, r0
 163              	.L12:
 164 00be 02AB     		add	r3, sp, #8
 165 00c0 03F808B0 		strb	fp, [r3, r8]
  59:VFH+\src/wrapToPi.c ****       pos_data[i] = (y_data[i] > 0.0);
 166              		.loc 1 59 0 discriminator 3
 167 00c4 08F10108 		add	r8, r8, #1
 168              	.LVL16:
 169 00c8 EDE7     		b	.L11
 170              	.L36:
  61:VFH+\src/wrapToPi.c ****     }
  62:VFH+\src/wrapToPi.c ****     theta_size[0] = 1;
  63:VFH+\src/wrapToPi.c ****     theta_size[1] = (short)y_size_idx_1;
 171              		.loc 1 63 0
 172 00ca A046     		mov	r8, r4
 173              	.LVL17:
  62:VFH+\src/wrapToPi.c ****     theta_size[1] = (short)y_size_idx_1;
 174              		.loc 1 62 0
 175 00cc 0123     		movs	r3, #1
 176              		.loc 1 63 0
 177 00ce 85E84800 		stmia	r5, {r3, r6}
 178              	.LVL18:
  64:VFH+\src/wrapToPi.c ****     nx = theta_size[1];
  65:VFH+\src/wrapToPi.c ****     for (k = 0; k < nx; k++) {
 179              		.loc 1 65 0
 180 00d2 0027     		movs	r7, #0
 181              	.LVL19:
 182              	.L14:
  66:VFH+\src/wrapToPi.c ****       theta_data[k] = b_mod(y_data[k]);
 183              		.loc 1 66 0 discriminator 3
 184 00d4 F9E90201 		ldrd	r0, [r9, #8]!
 185 00d8 FFF7FEFF 		bl	b_mod
 186              	.LVL20:
  65:VFH+\src/wrapToPi.c ****       theta_data[k] = b_mod(y_data[k]);
 187              		.loc 1 65 0 discriminator 3
 188 00dc 0137     		adds	r7, r7, #1
 189              	.LVL21:
 190 00de BE42     		cmp	r6, r7
 191              		.loc 1 66 0 discriminator 3
 192 00e0 E8E90201 		strd	r0, [r8, #8]!
  65:VFH+\src/wrapToPi.c ****       theta_data[k] = b_mod(y_data[k]);
 193              		.loc 1 65 0 discriminator 3
 194 00e4 F6DC     		bgt	.L14
  67:VFH+\src/wrapToPi.c ****     }
  68:VFH+\src/wrapToPi.c ****     k = theta_size[1];
  69:VFH+\src/wrapToPi.c ****     nx = theta_size[1];
  70:VFH+\src/wrapToPi.c ****     for (i = 0; i < nx; i++) {
 195              		.loc 1 70 0
 196 00e6 A046     		mov	r8, r4
  68:VFH+\src/wrapToPi.c ****     nx = theta_size[1];
 197              		.loc 1 68 0
 198 00e8 6F68     		ldr	r7, [r5, #4]
 199              	.LVL22:
 200              		.loc 1 70 0
 201 00ea 0026     		movs	r6, #0
 202              	.LVL23:
  71:VFH+\src/wrapToPi.c ****       tmp_data[i] = (theta_data[i] == 0.0);
ARM GAS  C:\Users\jmspi\AppData\Local\Temp\ccoaS5CT.s 			page 6


 203              		.loc 1 71 0
 204 00ec 0DF58E7A 		add	r10, sp, #284
 205              	.LVL24:
 206              	.L15:
  70:VFH+\src/wrapToPi.c ****       tmp_data[i] = (theta_data[i] == 0.0);
 207              		.loc 1 70 0 discriminator 1
 208 00f0 BE42     		cmp	r6, r7
 209 00f2 0DDA     		bge	.L37
 210              		.loc 1 71 0 discriminator 3
 211 00f4 F8E90201 		ldrd	r0, [r8, #8]!
 212 00f8 0022     		movs	r2, #0
 213 00fa 0023     		movs	r3, #0
 214 00fc 4FF00109 		mov	r9, #1
 215 0100 FFF7FEFF 		bl	__aeabi_dcmpeq
 216              	.LVL25:
 217 0104 00B9     		cbnz	r0, .L16
 218 0106 8146     		mov	r9, r0
 219              	.L16:
 220 0108 06F80A90 		strb	r9, [r6, r10]
  70:VFH+\src/wrapToPi.c ****       tmp_data[i] = (theta_data[i] == 0.0);
 221              		.loc 1 70 0 discriminator 3
 222 010c 0136     		adds	r6, r6, #1
 223              	.LVL26:
 224 010e EFE7     		b	.L15
 225              	.L37:
 226 0110 019B     		ldr	r3, [sp, #4]
  70:VFH+\src/wrapToPi.c ****       tmp_data[i] = (theta_data[i] == 0.0);
 227              		.loc 1 70 0 is_stmt 0
 228 0112 0022     		movs	r2, #0
  72:VFH+\src/wrapToPi.c ****     }
  73:VFH+\src/wrapToPi.c ****     for (nx = 0; nx < k; nx++) {
  74:VFH+\src/wrapToPi.c ****       if (tmp_data[nx] && pos_data[nx]) {
 229              		.loc 1 74 0 is_stmt 1
 230 0114 47AE     		add	r6, sp, #284
 231              	.LVL27:
  75:VFH+\src/wrapToPi.c ****         theta_data[nx] = 6.2831853071795862;
 232              		.loc 1 75 0
 233 0116 18A1     		adr	r1, .L39+8
 234 0118 D1E90001 		ldrd	r0, [r1]
 235              	.LVL28:
 236              	.L18:
  73:VFH+\src/wrapToPi.c ****       if (tmp_data[nx] && pos_data[nx]) {
 237              		.loc 1 73 0 discriminator 1
 238 011c BA42     		cmp	r2, r7
 239 011e 10DA     		bge	.L38
  74:VFH+\src/wrapToPi.c ****         theta_data[nx] = 6.2831853071795862;
 240              		.loc 1 74 0
 241 0120 12F806E0 		ldrb	lr, [r2, r6]	@ zero_extendqisi2
 242 0124 BEF1000F 		cmp	lr, #0
 243 0128 08D0     		beq	.L19
  74:VFH+\src/wrapToPi.c ****         theta_data[nx] = 6.2831853071795862;
 244              		.loc 1 74 0 is_stmt 0 discriminator 1
 245 012a 0DF1080E 		add	lr, sp, #8
 246 012e 1EF802E0 		ldrb	lr, [lr, r2]	@ zero_extendqisi2
 247 0132 BEF1000F 		cmp	lr, #0
 248 0136 01D0     		beq	.L19
 249              		.loc 1 75 0 is_stmt 1
ARM GAS  C:\Users\jmspi\AppData\Local\Temp\ccoaS5CT.s 			page 7


 250 0138 C3E90001 		strd	r0, [r3]
 251              	.L19:
  73:VFH+\src/wrapToPi.c ****       if (tmp_data[nx] && pos_data[nx]) {
 252              		.loc 1 73 0 discriminator 2
 253 013c 0132     		adds	r2, r2, #1
 254              	.LVL29:
 255 013e 0833     		adds	r3, r3, #8
 256 0140 ECE7     		b	.L18
 257              	.L38:
  76:VFH+\src/wrapToPi.c ****       }
  77:VFH+\src/wrapToPi.c ****     }
  78:VFH+\src/wrapToPi.c ****     theta_size[0] = 1;
 258              		.loc 1 78 0
 259 0142 0123     		movs	r3, #1
 260 0144 2B60     		str	r3, [r5]
 261              	.LVL30:
  79:VFH+\src/wrapToPi.c ****     nx = theta_size[1];
  80:VFH+\src/wrapToPi.c ****     for (i = 0; i < nx; i++) {
 262              		.loc 1 80 0
 263 0146 0025     		movs	r5, #0
 264              	.LVL31:
 265              	.L21:
 266              		.loc 1 80 0 is_stmt 0 discriminator 1
 267 0148 BD42     		cmp	r5, r7
 268 014a 0ADA     		bge	.L1
  81:VFH+\src/wrapToPi.c ****       theta_data[i] -= 3.1415926535897931;
 269              		.loc 1 81 0 is_stmt 1 discriminator 3
 270 014c F4E90201 		ldrd	r0, [r4, #8]!
 271 0150 07A3     		adr	r3, .L39
 272 0152 D3E90023 		ldrd	r2, [r3]
 273 0156 FFF7FEFF 		bl	__aeabi_dsub
 274              	.LVL32:
  80:VFH+\src/wrapToPi.c ****       theta_data[i] -= 3.1415926535897931;
 275              		.loc 1 80 0 discriminator 3
 276 015a 0135     		adds	r5, r5, #1
 277              	.LVL33:
 278              		.loc 1 81 0 discriminator 3
 279 015c C4E90001 		strd	r0, [r4]
 280 0160 F2E7     		b	.L21
 281              	.LVL34:
 282              	.L1:
  82:VFH+\src/wrapToPi.c ****     }
  83:VFH+\src/wrapToPi.c ****   }
  84:VFH+\src/wrapToPi.c **** }
 283              		.loc 1 84 0
 284 0162 0DF50D7D 		add	sp, sp, #564
 285              		.cfi_def_cfa_offset 36
 286              		@ sp needed
 287 0166 BDE8F08F 		pop	{r4, r5, r6, r7, r8, r9, r10, fp, pc}
 288              	.LVL35:
 289              	.L40:
 290 016a 00BFAFF3 		.align	3
 290      0080
 291              	.L39:
 292 0170 182D4454 		.word	1413754136
 293 0174 FB210940 		.word	1074340347
 294 0178 182D4454 		.word	1413754136
ARM GAS  C:\Users\jmspi\AppData\Local\Temp\ccoaS5CT.s 			page 8


 295 017c FB211940 		.word	1075388923
 296 0180 F8FFFFFF 		.word	.LANCHOR0-8
 297              		.cfi_endproc
 298              	.LFE0:
 299              		.size	wrapToPi, .-wrapToPi
 300              		.bss
 301              		.align	3
 302              		.set	.LANCHOR0,. + 0
 303              		.type	y_data.5364, %object
 304              		.size	y_data.5364, 2208
 305              	y_data.5364:
 306 0000 00000000 		.space	2208
 306      00000000 
 306      00000000 
 306      00000000 
 306      00000000 
 307              		.text
 308              	.Letext0:
 309              		.file 2 ".\\VFH+\\include/mod.h"