ARM GAS  C:\Users\raymo\AppData\Local\Temp\ccIB1g08.s 			page 1


   1              		.syntax unified
   2              		.cpu cortex-m3
   3              		.fpu softvfp
   4              		.eabi_attribute 20, 1
   5              		.eabi_attribute 21, 1
   6              		.eabi_attribute 23, 3
   7              		.eabi_attribute 24, 1
   8              		.eabi_attribute 25, 1
   9              		.eabi_attribute 26, 1
  10              		.eabi_attribute 30, 6
  11              		.eabi_attribute 34, 1
  12              		.eabi_attribute 18, 4
  13              		.thumb
  14              		.syntax unified
  15              		.file	"main.c"
  16              		.text
  17              	.Ltext0:
  18              		.cfi_sections	.debug_frame
  19              		.global	echo_flag
  20              		.bss
  21              		.type	echo_flag, %object
  22              		.size	echo_flag, 1
  23              	echo_flag:
  24 0000 00       		.space	1
  25              		.global	max_count
  26              		.data
  27              		.align	1
  28              		.type	max_count, %object
  29              		.size	max_count, 2
  30              	max_count:
  31 0000 FFFF     		.short	-1
  32              		.comm	echo_distance,2,2
  33              		.global	mux_select
  34              		.bss
  35              		.type	mux_select, %object
  36              		.size	mux_select, 1
  37              	mux_select:
  38 0001 00       		.space	1
  39              		.global	left_wheel_count
  40 0002 0000     		.align	2
  41              		.type	left_wheel_count, %object
  42              		.size	left_wheel_count, 4
  43              	left_wheel_count:
  44 0004 00000000 		.space	4
  45              		.global	right_wheel_count
  46              		.align	2
  47              		.type	right_wheel_count, %object
  48              		.size	right_wheel_count, 4
  49              	right_wheel_count:
  50 0008 00000000 		.space	4
  51              		.comm	serial_output,150,4
  52              		.global	duty_cyle
  53              		.data
  54 0002 0000     		.align	2
  55              		.type	duty_cyle, %object
  56              		.size	duty_cyle, 4
  57              	duty_cyle:
ARM GAS  C:\Users\raymo\AppData\Local\Temp\ccIB1g08.s 			page 2


  58 0004 000080BF 		.word	-1082130432
  59              		.comm	left_motor,16,4
  60              		.comm	right_motor,16,4
  61              		.section	.text.Timer_Int_Handler,"ax",%progbits
  62              		.align	2
  63              		.global	Timer_Int_Handler
  64              		.thumb
  65              		.thumb_func
  66              		.type	Timer_Int_Handler, %function
  67              	Timer_Int_Handler:
  68              	.LFB64:
  69              		.file 1 "main.c"
   1:main.c        **** /* ========================================
   2:main.c        ****  *
   3:main.c        ****  * Copyright YOUR COMPANY, THE YEAR
   4:main.c        ****  * All Rights Reserved
   5:main.c        ****  * UNPUBLISHED, LICENSED SOFTWARE.
   6:main.c        ****  *
   7:main.c        ****  * CONFIDENTIAL AND PROPRIETARY INFORMATION
   8:main.c        ****  * WHICH IS THE PROPERTY OF your company.
   9:main.c        ****  *
  10:main.c        ****  * ========================================
  11:main.c        **** */
  12:main.c        **** #include "project.h"
  13:main.c        **** #include <stdio.h>
  14:main.c        **** 
  15:main.c        **** struct Motor {
  16:main.c        ****     float duty_cycle;
  17:main.c        ****     float error;
  18:main.c        ****     float rps;
  19:main.c        ****     int wheel_radius; // wheel radius in cm
  20:main.c        **** };
  21:main.c        **** 
  22:main.c        **** void Drive_Left_Motor(float duty_cycle);
  23:main.c        ****   
  24:main.c        **** uint8_t echo_flag = 0;
  25:main.c        **** uint16_t max_count = 65535;
  26:main.c        **** uint16_t echo_distance;
  27:main.c        **** uint8_t mux_select = 0;
  28:main.c        **** int32 left_wheel_count = 0;
  29:main.c        **** int32 right_wheel_count = 0;
  30:main.c        **** char serial_output[150];
  31:main.c        **** float duty_cyle= -1;
  32:main.c        **** struct Motor left_motor;
  33:main.c        **** struct Motor right_motor;
  34:main.c        **** 
  35:main.c        **** 
  36:main.c        ****   
  37:main.c        **** CY_ISR( Timer_Int_Handler ) {
  70              		.loc 1 37 0
  71              		.cfi_startproc
  72              		@ args = 0, pretend = 0, frame = 0
  73              		@ frame_needed = 1, uses_anonymous_args = 0
  74 0000 80B5     		push	{r7, lr}
  75              		.cfi_def_cfa_offset 8
  76              		.cfi_offset 7, -8
  77              		.cfi_offset 14, -4
ARM GAS  C:\Users\raymo\AppData\Local\Temp\ccIB1g08.s 			page 3


  78 0002 00AF     		add	r7, sp, #0
  79              		.cfi_def_cfa_register 7
  38:main.c        ****     // read centimeters
  39:main.c        ****     echo_distance = Timer_Echo_ReadCapture();
  80              		.loc 1 39 0
  81 0004 FFF7FEFF 		bl	Timer_Echo_ReadCapture
  82 0008 0346     		mov	r3, r0
  83 000a 1A46     		mov	r2, r3
  84 000c 064B     		ldr	r3, .L2
  85 000e 1A80     		strh	r2, [r3]	@ movhi
  40:main.c        ****     echo_flag = 1;
  86              		.loc 1 40 0
  87 0010 064B     		ldr	r3, .L2+4
  88 0012 0122     		movs	r2, #1
  89 0014 1A70     		strb	r2, [r3]
  41:main.c        ****     Timer_Echo_WriteCounter(max_count);
  90              		.loc 1 41 0
  91 0016 064B     		ldr	r3, .L2+8
  92 0018 1B88     		ldrh	r3, [r3]
  93 001a 1846     		mov	r0, r3
  94 001c FFF7FEFF 		bl	Timer_Echo_WriteCounter
  42:main.c        ****     // clear the interrupt
  43:main.c        ****     Timer_Echo_ReadStatusRegister();
  95              		.loc 1 43 0
  96 0020 FFF7FEFF 		bl	Timer_Echo_ReadStatusRegister
  44:main.c        **** }
  97              		.loc 1 44 0
  98 0024 00BF     		nop
  99 0026 80BD     		pop	{r7, pc}
 100              	.L3:
 101              		.align	2
 102              	.L2:
 103 0028 00000000 		.word	echo_distance
 104 002c 00000000 		.word	echo_flag
 105 0030 00000000 		.word	max_count
 106              		.cfi_endproc
 107              	.LFE64:
 108              		.size	Timer_Int_Handler, .-Timer_Int_Handler
 109              		.global	__aeabi_i2d
 110              		.global	__aeabi_ddiv
 111              		.global	__aeabi_d2f
 112              		.global	__aeabi_f2d
 113              		.section	.rodata
 114              		.align	2
 115              	.LC0:
 116 0000 54657374 		.ascii	"Test: %f\000"
 116      3A202566 
 116      00
 117              		.section	.text.Wheel_Vel_Int_Handler,"ax",%progbits
 118              		.align	2
 119              		.global	Wheel_Vel_Int_Handler
 120              		.thumb
 121              		.thumb_func
 122              		.type	Wheel_Vel_Int_Handler, %function
 123              	Wheel_Vel_Int_Handler:
 124              	.LFB65:
  45:main.c        **** 
ARM GAS  C:\Users\raymo\AppData\Local\Temp\ccIB1g08.s 			page 4


  46:main.c        **** CY_ISR( Wheel_Vel_Int_Handler ) {
 125              		.loc 1 46 0
 126              		.cfi_startproc
 127              		@ args = 0, pretend = 0, frame = 8
 128              		@ frame_needed = 1, uses_anonymous_args = 0
 129 0000 90B5     		push	{r4, r7, lr}
 130              		.cfi_def_cfa_offset 12
 131              		.cfi_offset 4, -12
 132              		.cfi_offset 7, -8
 133              		.cfi_offset 14, -4
 134 0002 83B0     		sub	sp, sp, #12
 135              		.cfi_def_cfa_offset 24
 136 0004 00AF     		add	r7, sp, #0
 137              		.cfi_def_cfa_register 7
  47:main.c        ****     int32 left_new = QuadDec_L_GetCounter();
 138              		.loc 1 47 0
 139 0006 FFF7FEFF 		bl	QuadDec_L_GetCounter
 140 000a 7860     		str	r0, [r7, #4]
  48:main.c        ****     int32 left_diff = left_new - left_wheel_count;
 141              		.loc 1 48 0
 142 000c 204B     		ldr	r3, .L5+16
 143 000e 1B68     		ldr	r3, [r3]
 144 0010 7A68     		ldr	r2, [r7, #4]
 145 0012 D31A     		subs	r3, r2, r3
 146 0014 3B60     		str	r3, [r7]
  49:main.c        ****     left_wheel_count = left_new;
 147              		.loc 1 49 0
 148 0016 1E4A     		ldr	r2, .L5+16
 149 0018 7B68     		ldr	r3, [r7, #4]
 150 001a 1360     		str	r3, [r2]
  50:main.c        ****     left_motor.rps = (left_diff/0.02)/3591.92;
 151              		.loc 1 50 0
 152 001c 3868     		ldr	r0, [r7]
 153 001e FFF7FEFF 		bl	__aeabi_i2d
 154 0022 17A3     		adr	r3, .L5
 155 0024 D3E90023 		ldrd	r2, [r3]
 156 0028 FFF7FEFF 		bl	__aeabi_ddiv
 157 002c 0346     		mov	r3, r0
 158 002e 0C46     		mov	r4, r1
 159 0030 1846     		mov	r0, r3
 160 0032 2146     		mov	r1, r4
 161 0034 14A3     		adr	r3, .L5+8
 162 0036 D3E90023 		ldrd	r2, [r3]
 163 003a FFF7FEFF 		bl	__aeabi_ddiv
 164 003e 0346     		mov	r3, r0
 165 0040 0C46     		mov	r4, r1
 166 0042 1846     		mov	r0, r3
 167 0044 2146     		mov	r1, r4
 168 0046 FFF7FEFF 		bl	__aeabi_d2f
 169 004a 0246     		mov	r2, r0
 170 004c 114B     		ldr	r3, .L5+20
 171 004e 9A60     		str	r2, [r3, #8]	@ float
  51:main.c        ****     sprintf(serial_output, "Test: %f", left_motor.rps);
 172              		.loc 1 51 0
 173 0050 104B     		ldr	r3, .L5+20
 174 0052 9B68     		ldr	r3, [r3, #8]	@ float
 175 0054 1846     		mov	r0, r3
ARM GAS  C:\Users\raymo\AppData\Local\Temp\ccIB1g08.s 			page 5


 176 0056 FFF7FEFF 		bl	__aeabi_f2d
 177 005a 0346     		mov	r3, r0
 178 005c 0C46     		mov	r4, r1
 179 005e 1A46     		mov	r2, r3
 180 0060 2346     		mov	r3, r4
 181 0062 0D49     		ldr	r1, .L5+24
 182 0064 0D48     		ldr	r0, .L5+28
 183 0066 FFF7FEFF 		bl	sprintf
  52:main.c        ****     UART_PutString(serial_output);
 184              		.loc 1 52 0
 185 006a 0C48     		ldr	r0, .L5+28
 186 006c FFF7FEFF 		bl	UART_PutString
  53:main.c        ****     UART_PutCRLF(0x0D);
 187              		.loc 1 53 0
 188 0070 0D20     		movs	r0, #13
 189 0072 FFF7FEFF 		bl	UART_PutCRLF
  54:main.c        **** }
 190              		.loc 1 54 0
 191 0076 00BF     		nop
 192 0078 0C37     		adds	r7, r7, #12
 193              		.cfi_def_cfa_offset 12
 194 007a BD46     		mov	sp, r7
 195              		.cfi_def_cfa_register 13
 196              		@ sp needed
 197 007c 90BD     		pop	{r4, r7, pc}
 198              	.L6:
 199 007e 00BF     		.align	3
 200              	.L5:
 201 0080 7B14AE47 		.word	1202590843
 202 0084 E17A943F 		.word	1066695393
 203 0088 A4703D0A 		.word	171798692
 204 008c D70FAC40 		.word	1085018071
 205 0090 00000000 		.word	left_wheel_count
 206 0094 00000000 		.word	left_motor
 207 0098 00000000 		.word	.LC0
 208 009c 00000000 		.word	serial_output
 209              		.cfi_endproc
 210              	.LFE65:
 211              		.size	Wheel_Vel_Int_Handler, .-Wheel_Vel_Int_Handler
 212              		.global	__aeabi_dadd
 213              		.section	.text.main,"ax",%progbits
 214              		.align	2
 215              		.global	main
 216              		.thumb
 217              		.thumb_func
 218              		.type	main, %function
 219              	main:
 220              	.LFB66:
  55:main.c        **** 
  56:main.c        **** 
  57:main.c        **** 
  58:main.c        **** int main(void)
  59:main.c        **** {
 221              		.loc 1 59 0
 222              		.cfi_startproc
 223              		@ args = 0, pretend = 0, frame = 0
 224              		@ frame_needed = 1, uses_anonymous_args = 0
ARM GAS  C:\Users\raymo\AppData\Local\Temp\ccIB1g08.s 			page 6


 225 0000 98B5     		push	{r3, r4, r7, lr}
 226              		.cfi_def_cfa_offset 16
 227              		.cfi_offset 3, -16
 228              		.cfi_offset 4, -12
 229              		.cfi_offset 7, -8
 230              		.cfi_offset 14, -4
 231 0002 00AF     		add	r7, sp, #0
 232              		.cfi_def_cfa_register 7
  60:main.c        ****     left_motor.duty_cycle = 0;
 233              		.loc 1 60 0
 234 0004 324B     		ldr	r3, .L13+8
 235 0006 4FF00002 		mov	r2, #0
 236 000a 1A60     		str	r2, [r3]	@ float
  61:main.c        ****     left_motor.error = 0;
 237              		.loc 1 61 0
 238 000c 304B     		ldr	r3, .L13+8
 239 000e 4FF00002 		mov	r2, #0
 240 0012 5A60     		str	r2, [r3, #4]	@ float
  62:main.c        ****     left_motor.rps = 0;
 241              		.loc 1 62 0
 242 0014 2E4B     		ldr	r3, .L13+8
 243 0016 4FF00002 		mov	r2, #0
 244 001a 9A60     		str	r2, [r3, #8]	@ float
  63:main.c        ****     left_motor.wheel_radius = 5;
 245              		.loc 1 63 0
 246 001c 2C4B     		ldr	r3, .L13+8
 247 001e 0522     		movs	r2, #5
 248 0020 DA60     		str	r2, [r3, #12]
  64:main.c        ****     
  65:main.c        ****     
  66:main.c        ****     CyGlobalIntEnable; /* Enable global interrupts. */
 249              		.loc 1 66 0
 250              		.syntax unified
 251              	@ 66 "main.c" 1
 252 0022 62B6     		CPSIE   i
 253              	@ 0 "" 2
  67:main.c        **** 
  68:main.c        ****     // Start up code - enable UART, PWM and Timer used for ultrasonic module
  69:main.c        ****     UART_Start();
 254              		.loc 1 69 0
 255              		.thumb
 256              		.syntax unified
 257 0024 FFF7FEFF 		bl	UART_Start
  70:main.c        ****     Timer_Echo_Start();
 258              		.loc 1 70 0
 259 0028 FFF7FEFF 		bl	Timer_Echo_Start
  71:main.c        ****     PWM_Trigger_Start();
 260              		.loc 1 71 0
 261 002c FFF7FEFF 		bl	PWM_Trigger_Start
  72:main.c        ****     QuadDec_L_Start();
 262              		.loc 1 72 0
 263 0030 FFF7FEFF 		bl	QuadDec_L_Start
  73:main.c        ****     PWM_Motor_L_Start();
 264              		.loc 1 73 0
 265 0034 FFF7FEFF 		bl	PWM_Motor_L_Start
  74:main.c        **** 
  75:main.c        ****     // Registration of Timer ISR
ARM GAS  C:\Users\raymo\AppData\Local\Temp\ccIB1g08.s 			page 7


  76:main.c        ****     Timer_Echo_Int_StartEx( Timer_Int_Handler );
 266              		.loc 1 76 0
 267 0038 2648     		ldr	r0, .L13+12
 268 003a FFF7FEFF 		bl	Timer_Echo_Int_StartEx
  77:main.c        ****     Wheel_Vel_Int_StartEx( Wheel_Vel_Int_Handler );
 269              		.loc 1 77 0
 270 003e 2648     		ldr	r0, .L13+16
 271 0040 FFF7FEFF 		bl	Wheel_Vel_Int_StartEx
 272              	.L12:
  78:main.c        **** 
  79:main.c        ****     
  80:main.c        **** 
  81:main.c        **** 
  82:main.c        ****     for(;;) {
  83:main.c        ****         duty_cyle = duty_cyle + 0.1;
 273              		.loc 1 83 0
 274 0044 254B     		ldr	r3, .L13+20
 275 0046 1B68     		ldr	r3, [r3]	@ float
 276 0048 1846     		mov	r0, r3
 277 004a FFF7FEFF 		bl	__aeabi_f2d
 278 004e 1EA3     		adr	r3, .L13
 279 0050 D3E90023 		ldrd	r2, [r3]
 280 0054 FFF7FEFF 		bl	__aeabi_dadd
 281 0058 0346     		mov	r3, r0
 282 005a 0C46     		mov	r4, r1
 283 005c 1846     		mov	r0, r3
 284 005e 2146     		mov	r1, r4
 285 0060 FFF7FEFF 		bl	__aeabi_d2f
 286 0064 0246     		mov	r2, r0
 287 0066 1D4B     		ldr	r3, .L13+20
 288 0068 1A60     		str	r2, [r3]	@ float
  84:main.c        ****         Drive_Left_Motor(duty_cyle);
 289              		.loc 1 84 0
 290 006a 1C4B     		ldr	r3, .L13+20
 291 006c 1B68     		ldr	r3, [r3]	@ float
 292 006e 1846     		mov	r0, r3
 293 0070 FFF7FEFF 		bl	Drive_Left_Motor
  85:main.c        ****         CyDelay(100);
 294              		.loc 1 85 0
 295 0074 6420     		movs	r0, #100
 296 0076 FFF7FEFF 		bl	CyDelay
  86:main.c        ****         
  87:main.c        ****         // if a distance was measured, print the distance and clear the flag
  88:main.c        ****         while ( echo_flag == 1 ) {
 297              		.loc 1 88 0
 298 007a 1EE0     		b	.L8
 299              	.L11:
  89:main.c        ****             //sprintf(serial_output, "%d cm", 65535-echo_distance);
  90:main.c        ****             //UART_PutString(serial_output);
  91:main.c        ****             //UART_PutCRLF(0x0D);
  92:main.c        ****             
  93:main.c        ****             Timer_Echo_Stop();
 300              		.loc 1 93 0
 301 007c FFF7FEFF 		bl	Timer_Echo_Stop
  94:main.c        ****             CyDelayUs(1);
 302              		.loc 1 94 0
 303 0080 0120     		movs	r0, #1
ARM GAS  C:\Users\raymo\AppData\Local\Temp\ccIB1g08.s 			page 8


 304 0082 FFF7FEFF 		bl	CyDelayUs
  95:main.c        ****             if (mux_select == 0) {
 305              		.loc 1 95 0
 306 0086 164B     		ldr	r3, .L13+24
 307 0088 1B78     		ldrb	r3, [r3]	@ zero_extendqisi2
 308 008a 002B     		cmp	r3, #0
 309 008c 03D1     		bne	.L9
  96:main.c        ****                 mux_select = 1;
 310              		.loc 1 96 0
 311 008e 144B     		ldr	r3, .L13+24
 312 0090 0122     		movs	r2, #1
 313 0092 1A70     		strb	r2, [r3]
 314 0094 02E0     		b	.L10
 315              	.L9:
  97:main.c        ****             } else {
  98:main.c        ****                 mux_select = 0;
 316              		.loc 1 98 0
 317 0096 124B     		ldr	r3, .L13+24
 318 0098 0022     		movs	r2, #0
 319 009a 1A70     		strb	r2, [r3]
 320              	.L10:
  99:main.c        ****             }
 100:main.c        ****             Control_Reg_US_Write(mux_select);
 321              		.loc 1 100 0
 322 009c 104B     		ldr	r3, .L13+24
 323 009e 1B78     		ldrb	r3, [r3]	@ zero_extendqisi2
 324 00a0 1846     		mov	r0, r3
 325 00a2 FFF7FEFF 		bl	Control_Reg_US_Write
 101:main.c        ****             Timer_Echo_Enable();
 326              		.loc 1 101 0
 327 00a6 FFF7FEFF 		bl	Timer_Echo_Enable
 102:main.c        ****             PWM_Trigger_WriteCounter(1);
 328              		.loc 1 102 0
 329 00aa 0120     		movs	r0, #1
 330 00ac FFF7FEFF 		bl	PWM_Trigger_WriteCounter
 103:main.c        **** 
 104:main.c        **** 
 105:main.c        ****             CyGlobalIntDisable; // Disable global interrupts, so the flag gets cleared. 
 331              		.loc 1 105 0
 332              		.syntax unified
 333              	@ 105 "main.c" 1
 334 00b0 72B6     		CPSID   i
 335              	@ 0 "" 2
 106:main.c        ****             echo_flag = 0;
 336              		.loc 1 106 0
 337              		.thumb
 338              		.syntax unified
 339 00b2 0C4B     		ldr	r3, .L13+28
 340 00b4 0022     		movs	r2, #0
 341 00b6 1A70     		strb	r2, [r3]
 107:main.c        ****             CyGlobalIntEnable; // Enable global interrupts after the flag is cleared. 
 342              		.loc 1 107 0
 343              		.syntax unified
 344              	@ 107 "main.c" 1
 345 00b8 62B6     		CPSIE   i
 346              	@ 0 "" 2
 347              		.thumb
ARM GAS  C:\Users\raymo\AppData\Local\Temp\ccIB1g08.s 			page 9


 348              		.syntax unified
 349              	.L8:
  88:main.c        ****             //sprintf(serial_output, "%d cm", 65535-echo_distance);
 350              		.loc 1 88 0
 351 00ba 0A4B     		ldr	r3, .L13+28
 352 00bc 1B78     		ldrb	r3, [r3]	@ zero_extendqisi2
 353 00be 012B     		cmp	r3, #1
 354 00c0 DCD0     		beq	.L11
 108:main.c        ****     }
 109:main.c        ****  }
 355              		.loc 1 109 0
 356 00c2 BFE7     		b	.L12
 357              	.L14:
 358 00c4 AFF30080 		.align	3
 359              	.L13:
 360 00c8 9A999999 		.word	-1717986918
 361 00cc 9999B93F 		.word	1069128089
 362 00d0 00000000 		.word	left_motor
 363 00d4 00000000 		.word	Timer_Int_Handler
 364 00d8 00000000 		.word	Wheel_Vel_Int_Handler
 365 00dc 00000000 		.word	duty_cyle
 366 00e0 00000000 		.word	mux_select
 367 00e4 00000000 		.word	echo_flag
 368              		.cfi_endproc
 369              	.LFE66:
 370              		.size	main, .-main
 371              		.global	__aeabi_fcmplt
 372              		.global	__aeabi_fmul
 373              		.global	__aeabi_f2uiz
 374              		.section	.text.Drive_Left_Motor,"ax",%progbits
 375              		.align	2
 376              		.global	Drive_Left_Motor
 377              		.thumb
 378              		.thumb_func
 379              		.type	Drive_Left_Motor, %function
 380              	Drive_Left_Motor:
 381              	.LFB67:
 110:main.c        ****   
 111:main.c        **** }
 112:main.c        **** 
 113:main.c        **** void Drive_Left_Motor(float duty_cycle) {
 382              		.loc 1 113 0
 383              		.cfi_startproc
 384              		@ args = 0, pretend = 0, frame = 8
 385              		@ frame_needed = 1, uses_anonymous_args = 0
 386 0000 80B5     		push	{r7, lr}
 387              		.cfi_def_cfa_offset 8
 388              		.cfi_offset 7, -8
 389              		.cfi_offset 14, -4
 390 0002 82B0     		sub	sp, sp, #8
 391              		.cfi_def_cfa_offset 16
 392 0004 00AF     		add	r7, sp, #0
 393              		.cfi_def_cfa_register 7
 394 0006 7860     		str	r0, [r7, #4]	@ float
 114:main.c        ****     if (duty_cycle < 0) {
 395              		.loc 1 114 0
 396 0008 4FF00001 		mov	r1, #0
ARM GAS  C:\Users\raymo\AppData\Local\Temp\ccIB1g08.s 			page 10


 397 000c 7868     		ldr	r0, [r7, #4]	@ float
 398 000e FFF7FEFF 		bl	__aeabi_fcmplt
 399 0012 0346     		mov	r3, r0
 400 0014 002B     		cmp	r3, #0
 401 0016 14D0     		beq	.L20
 115:main.c        ****         duty_cycle = -duty_cycle;
 402              		.loc 1 115 0
 403 0018 7B68     		ldr	r3, [r7, #4]
 404 001a 83F00043 		eor	r3, r3, #-2147483648
 405 001e 7B60     		str	r3, [r7, #4]	@ float
 116:main.c        ****         PWM_Motor_L_WriteCompare1(0);
 406              		.loc 1 116 0
 407 0020 0020     		movs	r0, #0
 408 0022 FFF7FEFF 		bl	PWM_Motor_L_WriteCompare1
 117:main.c        ****         PWM_Motor_L_WriteCompare2(duty_cycle*10000);
 409              		.loc 1 117 0
 410 0026 1149     		ldr	r1, .L22
 411 0028 7868     		ldr	r0, [r7, #4]	@ float
 412 002a FFF7FEFF 		bl	__aeabi_fmul
 413 002e 0346     		mov	r3, r0
 414 0030 1846     		mov	r0, r3
 415 0032 FFF7FEFF 		bl	__aeabi_f2uiz
 416 0036 0346     		mov	r3, r0
 417 0038 9BB2     		uxth	r3, r3
 418 003a 1846     		mov	r0, r3
 419 003c FFF7FEFF 		bl	PWM_Motor_L_WriteCompare2
 118:main.c        ****     } else {
 119:main.c        ****         PWM_Motor_L_WriteCompare1(duty_cycle*10000);
 120:main.c        ****         PWM_Motor_L_WriteCompare2(0);
 121:main.c        ****     }
 122:main.c        **** }
 420              		.loc 1 122 0
 421 0040 0FE0     		b	.L21
 422              	.L20:
 119:main.c        ****         PWM_Motor_L_WriteCompare2(0);
 423              		.loc 1 119 0
 424 0042 0A49     		ldr	r1, .L22
 425 0044 7868     		ldr	r0, [r7, #4]	@ float
 426 0046 FFF7FEFF 		bl	__aeabi_fmul
 427 004a 0346     		mov	r3, r0
 428 004c 1846     		mov	r0, r3
 429 004e FFF7FEFF 		bl	__aeabi_f2uiz
 430 0052 0346     		mov	r3, r0
 431 0054 9BB2     		uxth	r3, r3
 432 0056 1846     		mov	r0, r3
 433 0058 FFF7FEFF 		bl	PWM_Motor_L_WriteCompare1
 120:main.c        ****     }
 434              		.loc 1 120 0
 435 005c 0020     		movs	r0, #0
 436 005e FFF7FEFF 		bl	PWM_Motor_L_WriteCompare2
 437              	.L21:
 438              		.loc 1 122 0
 439 0062 00BF     		nop
 440 0064 0837     		adds	r7, r7, #8
 441              		.cfi_def_cfa_offset 8
 442 0066 BD46     		mov	sp, r7
 443              		.cfi_def_cfa_register 13
ARM GAS  C:\Users\raymo\AppData\Local\Temp\ccIB1g08.s 			page 11


 444              		@ sp needed
 445 0068 80BD     		pop	{r7, pc}
 446              	.L23:
 447 006a 00BF     		.align	2
 448              	.L22:
 449 006c 00401C46 		.word	1176256512
 450              		.cfi_endproc
 451              	.LFE67:
 452              		.size	Drive_Left_Motor, .-Drive_Left_Motor
 453              		.text
 454              	.Letext0:
 455              		.file 2 "c:\\program files (x86)\\cypress\\psoc creator\\4.4\\psoc creator\\import\\gnu\\arm\\5.4.
 456              		.file 3 "c:\\program files (x86)\\cypress\\psoc creator\\4.4\\psoc creator\\import\\gnu\\arm\\5.4.
 457              		.file 4 "Generated_Source\\PSoC5/cytypes.h"
 458              		.file 5 "Generated_Source\\PSoC5/core_cm3.h"